###############################################################################
#                                                                             #
# IAR ARM ELF Linker V5.10.5.372/W32                    11/Sep/2013  19:52:52 #
# Copyright 2007 IAR Systems. All rights reserved.                            #
#                                                                             #
#    Output file  =  D:\Zeuron\Projekty\S300\S300-program v1.4 -              #
#                    12.06.2013\S300X (Old)\Exe\AT91_USB_FW_1_02_CDC.out      #
#    Map file     =  D:\Zeuron\Projekty\S300\S300-program v1.4 -              #
#                    12.06.2013\S300X (Old)\List\AT91_USB_FW_1_02_CDC.map     #
#    Command line =  "D:\Zeuron\Projekty\S300\S300-program v1.4 -             #
#                    12.06.2013\S300X (Old)\Obj\Application_prog.o"           #
#                    "D:\Zeuron\Projekty\S300\S300-program v1.4 -             #
#                    12.06.2013\S300X (Old)\Obj\Clock.o"                      #
#                    "D:\Zeuron\Projekty\S300\S300-program v1.4 -             #
#                    12.06.2013\S300X (Old)\Obj\Interrupt.o"                  #
#                    "D:\Zeuron\Projekty\S300\S300-program v1.4 -             #
#                    12.06.2013\S300X (Old)\Obj\LCD_light_PWM.o"              #
#                    "D:\Zeuron\Projekty\S300\S300-program v1.4 -             #
#                    12.06.2013\S300X (Old)\Obj\Lcd_Negativ_Old.o"            #
#                    "D:\Zeuron\Projekty\S300\S300-program v1.4 -             #
#                    12.06.2013\S300X (Old)\Obj\Modbus.o"                     #
#                    "D:\Zeuron\Projekty\S300\S300-program v1.4 -             #
#                    12.06.2013\S300X (Old)\Obj\RF.o"                         #
#                    "D:\Zeuron\Projekty\S300\S300-program v1.4 -             #
#                    12.06.2013\S300X (Old)\Obj\RF_Exe.o"                     #
#                    "D:\Zeuron\Projekty\S300\S300-program v1.4 -             #
#                    12.06.2013\S300X (Old)\Obj\RS_WIN.o"                     #
#                    "D:\Zeuron\Projekty\S300\S300-program v1.4 -             #
#                    12.06.2013\S300X (Old)\Obj\SPI.o"                        #
#                    "D:\Zeuron\Projekty\S300\S300-program v1.4 -             #
#                    12.06.2013\S300X (Old)\Obj\ScreenMENU2.o"                #
#                    "D:\Zeuron\Projekty\S300\S300-program v1.4 -             #
#                    12.06.2013\S300X (Old)\Obj\USART.o"                      #
#                    "D:\Zeuron\Projekty\S300\S300-program v1.4 -             #
#                    12.06.2013\S300X (Old)\Obj\WizFi.o"                      #
#                    "D:\Zeuron\Projekty\S300\S300-program v1.4 -             #
#                    12.06.2013\S300X (Old)\Obj\WizFiCommand.o"               #
#                    "D:\Zeuron\Projekty\S300\S300-program v1.4 -             #
#                    12.06.2013\S300X (Old)\Obj\at91stdio.o"                  #
#                    "D:\Zeuron\Projekty\S300\S300-program v1.4 -             #
#                    12.06.2013\S300X (Old)\Obj\board.o"                      #
#                    "D:\Zeuron\Projekty\S300\S300-program v1.4 -             #
#                    12.06.2013\S300X (Old)\Obj\device.o"                     #
#                    "D:\Zeuron\Projekty\S300\S300-program v1.4 -             #
#                    12.06.2013\S300X (Old)\Obj\flash.o"                      #
#                    "D:\Zeuron\Projekty\S300\S300-program v1.4 -             #
#                    12.06.2013\S300X (Old)\Obj\language.o"                   #
#                    "D:\Zeuron\Projekty\S300\S300-program v1.4 -             #
#                    12.06.2013\S300X (Old)\Obj\lcd.o"                        #
#                    "D:\Zeuron\Projekty\S300\S300-program v1.4 -             #
#                    12.06.2013\S300X (Old)\Obj\main.o"                       #
#                    "D:\Zeuron\Projekty\S300\S300-program v1.4 -             #
#                    12.06.2013\S300X (Old)\Obj\serial_driver.o"              #
#                    "D:\Zeuron\Projekty\S300\S300-program v1.4 -             #
#                    12.06.2013\S300X (Old)\Obj\spi_main.o"                   #
#                    "D:\Zeuron\Projekty\S300\S300-program v1.4 -             #
#                    12.06.2013\S300X (Old)\Obj\standard.o"                   #
#                    "D:\Zeuron\Projekty\S300\S300-program v1.4 -             #
#                    12.06.2013\S300X (Old)\Obj\startup.o"                    #
#                    "D:\Zeuron\Projekty\S300\S300-program v1.4 -             #
#                    12.06.2013\S300X (Old)\Obj\udp.o" -o                     #
#                    "D:\Zeuron\Projekty\S300\S300-program v1.4 -             #
#                    12.06.2013\S300X (Old)\Exe\AT91_USB_FW_1_02_CDC.out"     #
#                    --map "D:\Zeuron\Projekty\S300\S300-program v1.4 -       #
#                    12.06.2013\S300X (Old)\List\AT91_USB_FW_1_02_CDC.map"    #
#                    --log initialization,modules,sections,veneers            #
#                    --log_file "D:\Zeuron\Projekty\S300\S300-program v1.4 -  #
#                    12.06.2013\S300X (Old)\List\AT91_USB_FW_1_02_CDC.log"    #
#                    --config "D:\Zeuron\Projekty\S300\S300-program v1.4 -    #
#                    12.06.2013\config\at91SAM7S256_NoRemap.icf"              #
#                    --semihosting --entry __iar_program_start                #
#                                                                             #
#                                                                             #
###############################################################################

*******************************************************************************
*** RUNTIME MODEL ATTRIBUTES
***

__endian      = little
__thumb_aware = enabled


*******************************************************************************
*** PLACEMENT SUMMARY
***

"A1":  place at mem:0x0 { ro section .intvec };
"P1":  place in [from mem:0x100 to mem:0x3ffff] { ro };
"P2":  place in [from mem:0x200000 to mem:0x20ffff] {
          rw, block CSTACK, block SVC_STACK, block IRQ_STACK, block FIQ_STACK,
          block UND_STACK, block ABT_STACK, block HEAP };

  Section            Kind        Address     Size  Object
  -------            ----        -------     ----  ------
"A1":                                        0x40
  .intvec            ro code  0x00000000     0x40  startup.o [1]
                            - 0x00000040     0x40

"P1":                                     0x32bc7
  Veneer             ro code  0x00000100     0x10  - Linker created -
  Veneer             ro code  0x00000110     0x10  - Linker created -
  Veneer             ro code  0x00000120     0x10  - Linker created -
  Veneer             ro code  0x00000130     0x10  - Linker created -
  Debug.txt          ro code  0x00000140  0x187c8  ScreenMENU2.o [1]
  Veneer             ro code  0x00018908     0x10  - Linker created -
  Debug.txt          ro code  0x00018918   0x4348  Lcd_Negativ_Old.o [1]
  Debug.txt          ro code  0x0001cc60   0x2c28  WizFiCommand.o [1]
  Debug.txt          ro code  0x0001f888   0x2630  main.o [1]
  Debug.txt          ro code  0x00021eb8   0x237c  Application_prog.o [1]
  Debug.txt          ro code  0x00024234   0x1ad8  RF_Exe.o [1]
  .rodata            const    0x00025d0c   0x14fc  language.o [1]
  .rodata            const    0x00027208   0x1450  Lcd_Negativ_Old.o [1]
  Veneer             ro code  0x00028658     0x10  - Linker created -
  .text              ro code  0x00028668    0xfac  xprintffull.o [2]
  Debug.txt          ro code  0x00029614    0xda8  udp.o [1]
  Debug.txt          ro code  0x0002a3bc    0x91c  WizFi.o [1]
  Debug.txt          ro code  0x0002acd8    0x88c  RS_WIN.o [1]
  Debug.txt          ro code  0x0002b564    0x854  RF.o [1]
  Debug.txt          ro code  0x0002bdb8    0x43c  spi_main.o [1]
  .rodata            const    0x0002c1f4    0x400  Lcd_Negativ_Old.o [1]
  .rodata            const    0x0002c5f4    0x400  Lcd_Negativ_Old.o [1]
  .rodata            const    0x0002c9f4    0x3f4  Lcd_Negativ_Old.o [1]
  .rodata            const    0x0002cde8    0x3c8  ScreenMENU2.o [1]
  Veneer             ro code  0x0002d1b0      0x4  - Linker created -
  .text              ro code  0x0002d1b4    0x3a8  DblDiv.o [3]
  Debug.txt          ro code  0x0002d55c    0x314  standard.o [1]
  .rodata            const    0x0002d870    0x2c0  ScreenMENU2.o [1]
  Debug.txt          ro code  0x0002db30    0x2b8  Clock.o [1]
  Veneer             ro code  0x0002dde8      0x4  - Linker created -
  .text              ro code  0x0002ddec    0x2b0  DblMul.o [3]
  Veneer             ro code  0x0002e09c      0x4  - Linker created -
  .text              ro code  0x0002e0a0    0x220  DblSub.o [3]
  Veneer             ro code  0x0002e2c0      0x4  - Linker created -
  .text              ro code  0x0002e2c4    0x214  FltDiv.o [3]
  Veneer             ro code  0x0002e4d8      0x4  - Linker created -
  .text              ro code  0x0002e4dc    0x1d4  I32DivMod.o [3]
  Veneer             ro code  0x0002e6b0      0x4  - Linker created -
  .text              ro code  0x0002e6b4    0x1c0  FltMul.o [3]
  .rodata            const    0x0002e874    0x1b0  ScreenMENU2.o [1]
  .rodata            const    0x0002ea24    0x18c  ScreenMENU2.o [1]
  Veneer             ro code  0x0002ebb0      0x4  - Linker created -
  .text              ro code  0x0002ebb4    0x168  DblAdd.o [3]
  Veneer             ro code  0x0002ed1c      0x4  - Linker created -
  .text              ro code  0x0002ed20    0x160  FltSub.o [3]
  Debug.txt          ro code  0x0002ee80    0x13c  Lcd_Negativ_Old.o [1]
  Debug.txt          ro code  0x0002efbc    0x134  USART.o [1]
  Debug.txt          ro code  0x0002f0f0    0x12a  serial_driver.o [1]
  .text              ro code  0x0002f21c    0x124  I64DivMod.o [3]
  .text              ro code  0x0002f340    0x114  xdscale.o [2]
  .rodata            const    0x0002f454    0x100  Modbus.o [1]
  .rodata            const    0x0002f554    0x100  Modbus.o [1]
  Veneer             ro code  0x0002f654      0x4  - Linker created -
  .text              ro code  0x0002f658     0xdc  FltAdd.o [3]
  text               ro code  0x0002f734     0xd4  startup.o [1]
  Veneer             ro code  0x0002f808      0x4  - Linker created -
  .text              ro code  0x0002f80c     0xc4  memcpy.o [3]
  .rodata            const    0x0002f8d0     0xc0  ScreenMENU2.o [1]
  Veneer             ro code  0x0002f990      0x4  - Linker created -
  .text              ro code  0x0002f994     0xbc  DblToFlt.o [3]
  .rodata            const    0x0002fa50     0xb8  ScreenMENU2.o [1]
  .text              ro code  0x0002fb08     0xb8  xdnorm.o [2]
  .rodata            const    0x0002fbc0     0xa8  ScreenMENU2.o [1]
  Veneer             ro code  0x0002fc68      0x4  - Linker created -
  .text              ro code  0x0002fc6c     0xa4  FltToS64.o [3]
  Debug.txt          ro code  0x0002fd10     0xa4  main.o [1]
  Veneer             ro code  0x0002fdb4      0x4  - Linker created -
  .text              ro code  0x0002fdb8     0x9c  DblToI32.o [3]
  Veneer             ro code  0x0002fe54      0x4  - Linker created -
  .text              ro code  0x0002fe58     0x98  memchr.o [3]
  ICODE              ro code  0x0002fef0     0x98  device.o [1]
  .rodata            const    0x0002ff88     0x90  Lcd_Negativ_Old.o [1]
  Debug.txt          ro code  0x00030018     0x90  board.o [1]
  .rodata            const    0x000300a8     0x8c  ScreenMENU2.o [1]
  Debug.txt          ro code  0x00030134     0x8c  Interrupt.o [1]
  Debug.txt          ro code  0x000301c0     0x8c  LCD_light_PWM.o [1]
  .rodata            const    0x0003024c     0x80  ScreenMENU2.o [1]
  .rodata            const    0x000302cc     0x78  Lcd_Negativ_Old.o [1]
  Veneer             ro code  0x00030344      0x4  - Linker created -
  .text              ro code  0x00030348     0x78  I32ToFlt.o [3]
  Veneer             ro code  0x000303c0      0x4  - Linker created -
  .text              ro code  0x000303c4     0x74  I32ToDbl.o [3]
  Veneer             ro code  0x00030438      0x4  - Linker created -
  .text              ro code  0x0003043c     0x6c  I64ToFlt.o [3]
  Veneer             ro code  0x000304a8      0x4  - Linker created -
  .text              ro code  0x000304ac     0x68  FltToDbl.o [3]
  .text              ro code  0x00030514     0x60  DblSubNrml.o [3]
  Debug.txt          ro code  0x00030574     0x5c  flash.o [1]
  Veneer             ro code  0x000305d0      0x4  - Linker created -
  .text              ro code  0x000305d4     0x58  FltToS32.o [3]
  Veneer             ro code  0x0003062c      0x4  - Linker created -
  .text              ro code  0x00030630     0x58  strlen.o [3]
  Debug.txt          ro code  0x00030688     0x52  udp.o [1]
  Debug.txt          ro code  0x000306dc     0x4e  Modbus.o [1]
  Debug.txt          ro code  0x0003072c     0x4e  SPI.o [1]
  Debug.txt          ro code  0x0003077c     0x4c  device.o [1]
  Debug.txt          ro code  0x000307c8     0x4a  SPI.o [1]
  .rodata            const    0x00030814     0x48  ScreenMENU2.o [1]
  .rodata            const    0x0003085c     0x48  ScreenMENU2.o [1]
  .text              ro code  0x000308a4     0x48  memset48.o [3]
  .rodata            const    0x000308ec     0x44  ScreenMENU2.o [1]
  .rodata            const    0x00030930     0x44  serial_driver.o [1]
  Veneer             ro code  0x00030974      0x4  - Linker created -
  .text              ro code  0x00030978     0x44  uwrite8.o [3]
  Debug.txt          ro code  0x000309bc     0x44  Modbus.o [1]
  .rodata            const    0x00030a00     0x40  WizFiCommand.o [1]
  .text              ro code  0x00030a40     0x40  data_init.o [3]
  Veneer             ro code  0x00030a80      0x4  - Linker created -
  .text              ro code  0x00030a84     0x40  DblCmpLe.o [3]
  Veneer             ro code  0x00030ac4      0x4  - Linker created -
  .text              ro code  0x00030ac8     0x40  DblCmpGe.o [3]
  .text              ro code  0x00030b08     0x40  rle_init.o [3]
  .rodata            const    0x00030b48     0x3c  ScreenMENU2.o [1]
  .rodata            const    0x00030b84     0x3c  ScreenMENU2.o [1]
  .rodata            const    0x00030bc0     0x3c  ScreenMENU2.o [1]
  Veneer             ro code  0x00030bfc      0x4  - Linker created -
  .text              ro code  0x00030c00     0x3c  uread8.o [3]
  Debug.txt          ro code  0x00030c3c     0x3c  USART.o [1]
  .rodata            const    0x00030c78     0x38  ScreenMENU2.o [1]
  .rodata            const    0x00030cb0     0x38  ScreenMENU2.o [1]
  .rodata            const    0x00030ce8     0x38  ScreenMENU2.o [1]
  .rodata            const    0x00030d20     0x38  ScreenMENU2.o [1]
  .rodata            const    0x00030d58     0x38  ScreenMENU2.o [1]
  .rodata            const    0x00030d90     0x38  ScreenMENU2.o [1]
  .rodata            const    0x00030dc8     0x38  ScreenMENU2.o [1]
  Debug.txt          ro code  0x00030e00     0x36  Interrupt.o [1]
  .rodata            const    0x00030e38     0x34  ScreenMENU2.o [1]
  .rodata            const    0x00030e6c     0x34  ScreenMENU2.o [1]
  .rodata            const    0x00030ea0     0x34  WizFiCommand.o [1]
  .rodata            const    0x00030ed4     0x34  udp.o [1]
  Debug.txt          ro code  0x00030f08     0x34  USART.o [1]
  Debug.txt          ro code  0x00030f3c     0x34  udp.o [1]
  .text              ro code  0x00030f70     0x32  strstr.o [2]
  .rodata            const    0x00030fa4     0x30  ScreenMENU2.o [1]
  .rodata            const    0x00030fd4     0x30  flash.o [1]
  Veneer             ro code  0x00031004      0x4  - Linker created -
  .text              ro code  0x00031008     0x30  FltCmpLe.o [3]
  Veneer             ro code  0x00031038      0x4  - Linker created -
  .text              ro code  0x0003103c     0x30  FltCmpGe.o [3]
  .text              ro code  0x0003106c     0x30  sprintf.o [2]
  .rodata            const    0x0003109c     0x2c  ScreenMENU2.o [1]
  .rodata            const    0x000310c8     0x2c  flash.o [1]
  .rodata            const    0x000310f4     0x2c  flash.o [1]
  .rodata            const    0x00031120     0x28  ScreenMENU2.o [1]
  .rodata            const    0x00031148     0x28  ScreenMENU2.o [1]
  Veneer             ro code  0x00031170      0x4  - Linker created -
  .text              ro code  0x00031174     0x28  uwrite4.o [3]
  Debug.txt          ro code  0x0003119c     0x28  serial_driver.o [1]
  Debug.txt          ro code  0x000311c4     0x28  serial_driver.o [1]
  .rodata            const    0x000311ec     0x24  ScreenMENU2.o [1]
  .rodata            const    0x00031210     0x24  ScreenMENU2.o [1]
  Veneer             ro code  0x00031234      0x4  - Linker created -
  .text              ro code  0x00031238     0x24  FltCmpEq.o [3]
  Veneer             ro code  0x0003125c      0xc  - Linker created -
  Veneer             ro code  0x00031268      0xc  - Linker created -
  .text              ro code  0x00031274     0x24  cmain.o [3]
  .text              ro code  0x00031298     0x24  FltFlgInv.o [3]
  .text              ro code  0x000312bc     0x24  div.o [2]
  Debug.txt          ro code  0x000312e0     0x24  udp.o [1]
  .text              ro code  0x00031304     0x22  strcat.o [2]
  Debug.txt          ro code  0x00031328     0x22  udp.o [1]
  .iar.init_table    const    0x0003134c     0x20  - Linker created -
  .rodata            const    0x0003136c     0x20  ScreenMENU2.o [1]
  .rodata            const    0x0003138c     0x20  ScreenMENU2.o [1]
  Veneer             ro code  0x000313ac      0x4  - Linker created -
  .text              ro code  0x000313b0     0x20  uread4.o [3]
  Veneer             ro code  0x000313d0      0x4  - Linker created -
  .text              ro code  0x000313d4     0x20  strchr.o [3]
  Debug.txt          ro code  0x000313f4     0x1e  serial_driver.o [1]
  .rodata            const    0x00031414     0x1c  ScreenMENU2.o [1]
  .rodata            const    0x00031430     0x1c  ScreenMENU2.o [1]
  .rodata            const    0x0003144c     0x1c  ScreenMENU2.o [1]
  .rodata            const    0x00031468     0x1c  ScreenMENU2.o [1]
  .rodata            const    0x00031484     0x1c  ScreenMENU2.o [1]
  .rodata            const    0x000314a0     0x1c  ScreenMENU2.o [1]
  .rodata            const    0x000314bc     0x1c  ScreenMENU2.o [1]
  .rodata            const    0x000314d8     0x1c  ScreenMENU2.o [1]
  .rodata            const    0x000314f4     0x1c  ScreenMENU2.o [1]
  .rodata            const    0x00031510     0x1c  ScreenMENU2.o [1]
  .rodata            const    0x0003152c     0x1c  ScreenMENU2.o [1]
  .rodata            const    0x00031548     0x1c  ScreenMENU2.o [1]
  .rodata            const    0x00031564     0x1c  ScreenMENU2.o [1]
  .rodata            const    0x00031580     0x1c  WizFiCommand.o [1]
  .rodata            const    0x0003159c     0x1c  WizFiCommand.o [1]
  .rodata            const    0x000315b8     0x1c  serial_driver.o [1]
  .rodata            const    0x000315d4     0x1c  serial_driver.o [1]
  .text              ro code  0x000315f0     0x1c  exit.o [4]
  Debug.txt          ro code  0x0003160c     0x1c  SPI.o [1]
  Debug.txt          ro code  0x00031628     0x1c  udp.o [1]
  Debug.txt          ro code  0x00031644     0x1c  udp.o [1]
  .text              ro code  0x00031660     0x1c  zero_init.o [3]
  Debug.txt          ro code  0x0003167c     0x1a  Modbus.o [1]
  Debug.txt          ro code  0x00031698     0x1a  SPI.o [1]
  Debug.txt          ro code  0x000316b4     0x1a  SPI.o [1]
  Debug.txt          ro code  0x000316d0     0x1a  USART.o [1]
  Debug.txt          ro code  0x000316ec     0x1a  standard.o [1]
  .rodata            const    0x00031708     0x18  ScreenMENU2.o [1]
  .rodata            const    0x00031720     0x18  ScreenMENU2.o [1]
  .rodata            const    0x00031738     0x18  ScreenMENU2.o [1]
  .rodata            const    0x00031750     0x18  ScreenMENU2.o [1]
  .rodata            const    0x00031768     0x18  ScreenMENU2.o [1]
  .rodata            const    0x00031780     0x18  ScreenMENU2.o [1]
  .rodata            const    0x00031798     0x18  ScreenMENU2.o [1]
  .rodata            const    0x000317b0     0x18  ScreenMENU2.o [1]
  .rodata            const    0x000317c8     0x18  ScreenMENU2.o [1]
  .rodata            const    0x000317e0     0x18  WizFi.o [1]
  .rodata            const    0x000317f8     0x18  WizFiCommand.o [1]
  .rodata            const    0x00031810     0x18  flash.o [1]
  .rodata            const    0x00031828     0x18  main.o [1]
  .rodata            const    0x00031840     0x18  main.o [1]
  .rodata            const    0x00031858     0x18  udp.o [1]
  .text              ro code  0x00031870     0x18  FltFlgInx.o [3]
  .text              ro code  0x00031888     0x18  FltFlgOvf.o [3]
  .text              ro code  0x000318a0     0x18  FltFlgUnf.o [3]
  .text              ro code  0x000318b8     0x18  FltFlgDivZer.o [3]
  Veneer             ro code  0x000318d0      0x4  - Linker created -
  Debug.txt          ro code  0x000318d4     0x18  RF_Exe.o [1]
  Debug.txt          ro code  0x000318ec     0x18  USART.o [1]
  Debug.txt          ro code  0x00031904     0x18  udp.o [1]
  Debug.txt          ro code  0x0003191c     0x18  udp.o [1]
  Debug.txt          ro code  0x00031934     0x18  udp.o [1]
  Debug.txt          ro code  0x0003194c     0x16  standard.o [1]
  .rodata            const    0x00031964     0x14  ScreenMENU2.o [1]
  .rodata            const    0x00031978     0x14  ScreenMENU2.o [1]
  .rodata            const    0x0003198c     0x14  ScreenMENU2.o [1]
  .rodata            const    0x000319a0     0x14  ScreenMENU2.o [1]
  .rodata            const    0x000319b4     0x14  WizFiCommand.o [1]
  .rodata            const    0x000319c8     0x14  WizFiCommand.o [1]
  .rodata            const    0x000319dc     0x14  serial_driver.o [1]
  .text              ro code  0x000319f0     0x14  call_main.o [2]
  Debug.txt          ro code  0x00031a04     0x14  SPI.o [1]
  Debug.txt          ro code  0x00031a18     0x14  USART.o [1]
  Debug.txt          ro code  0x00031a2c     0x14  USART.o [1]
  Debug.txt          ro code  0x00031a40     0x14  device.o [1]
  Debug.txt          ro code  0x00031a54     0x12  main.o [1]
  Debug.txt          ro code  0x00031a68     0x12  main.o [1]
  Debug.txt          ro code  0x00031a7c     0x12  main.o [1]
  Debug.txt          ro code  0x00031a90     0x12  main.o [1]
  Debug.txt          ro code  0x00031aa4     0x12  serial_driver.o [1]
  Debug.txt          ro code  0x00031ab8     0x12  standard.o [1]
  Debug.txt          ro code  0x00031acc     0x12  standard.o [1]
  Debug.txt          ro code  0x00031ae0     0x12  standard.o [1]
  .rodata            const    0x00031af4     0x10  ScreenMENU2.o [1]
  .rodata            const    0x00031b04     0x10  ScreenMENU2.o [1]
  .rodata            const    0x00031b14     0x10  ScreenMENU2.o [1]
  .rodata            const    0x00031b24     0x10  ScreenMENU2.o [1]
  .rodata            const    0x00031b34     0x10  ScreenMENU2.o [1]
  .rodata            const    0x00031b44     0x10  ScreenMENU2.o [1]
  .rodata            const    0x00031b54     0x10  ScreenMENU2.o [1]
  .rodata            const    0x00031b64     0x10  ScreenMENU2.o [1]
  .rodata            const    0x00031b74     0x10  ScreenMENU2.o [1]
  .rodata            const    0x00031b84     0x10  ScreenMENU2.o [1]
  .rodata            const    0x00031b94     0x10  ScreenMENU2.o [1]
  .rodata            const    0x00031ba4     0x10  ScreenMENU2.o [1]
  .rodata            const    0x00031bb4     0x10  ScreenMENU2.o [1]
  .rodata            const    0x00031bc4     0x10  ScreenMENU2.o [1]
  .rodata            const    0x00031bd4     0x10  ScreenMENU2.o [1]
  .rodata            const    0x00031be4     0x10  ScreenMENU2.o [1]
  .rodata            const    0x00031bf4     0x10  ScreenMENU2.o [1]
  .rodata            const    0x00031c04     0x10  ScreenMENU2.o [1]
  .rodata            const    0x00031c14     0x10  ScreenMENU2.o [1]
  .rodata            const    0x00031c24     0x10  ScreenMENU2.o [1]
  .rodata            const    0x00031c34     0x10  ScreenMENU2.o [1]
  .rodata            const    0x00031c44     0x10  WizFi.o [1]
  .rodata            const    0x00031c54     0x10  WizFi.o [1]
  .rodata            const    0x00031c64     0x10  WizFiCommand.o [1]
  .rodata            const    0x00031c74     0x10  WizFiCommand.o [1]
  .rodata            const    0x00031c84     0x10  main.o [1]
  .rodata            const    0x00031c94     0x10  main.o [1]
  .rodata            const    0x00031ca4     0x10  serial_driver.o [1]
  Veneer             ro code  0x00031cb4      0x4  - Linker created -
  .text              ro code  0x00031cb8     0x10  cexit.o [3]
  Veneer             ro code  0x00031cc8      0x4  - Linker created -
  Debug.txt          ro code  0x00031ccc     0x10  RF_Exe.o [1]
  Veneer             ro code  0x00031cdc      0x4  - Linker created -
  Debug.txt          ro code  0x00031ce0     0x10  RF_Exe.o [1]
  Debug.txt          ro code  0x00031cf0      0xe  Modbus.o [1]
  Debug.txt          ro code  0x00031d00      0xe  Modbus.o [1]
  Debug.txt          ro code  0x00031d10      0xe  SPI.o [1]
  Debug.txt          ro code  0x00031d20      0xe  SPI.o [1]
  .rodata            const    0x00031d30      0xc  ScreenMENU2.o [1]
  .rodata            const    0x00031d3c      0xc  ScreenMENU2.o [1]
  .rodata            const    0x00031d48      0xc  ScreenMENU2.o [1]
  .rodata            const    0x00031d54      0xc  ScreenMENU2.o [1]
  .rodata            const    0x00031d60      0xc  ScreenMENU2.o [1]
  .rodata            const    0x00031d6c      0xc  ScreenMENU2.o [1]
  .rodata            const    0x00031d78      0xc  ScreenMENU2.o [1]
  .rodata            const    0x00031d84      0xc  ScreenMENU2.o [1]
  .rodata            const    0x00031d90      0xc  ScreenMENU2.o [1]
  .rodata            const    0x00031d9c      0xc  ScreenMENU2.o [1]
  .rodata            const    0x00031da8      0xc  ScreenMENU2.o [1]
  .rodata            const    0x00031db4      0xc  ScreenMENU2.o [1]
  .rodata            const    0x00031dc0      0xc  ScreenMENU2.o [1]
  .rodata            const    0x00031dcc      0xc  ScreenMENU2.o [1]
  .rodata            const    0x00031dd8      0xc  ScreenMENU2.o [1]
  .rodata            const    0x00031de4      0xc  ScreenMENU2.o [1]
  .rodata            const    0x00031df0      0xc  ScreenMENU2.o [1]
  .rodata            const    0x00031dfc      0xc  ScreenMENU2.o [1]
  .rodata            const    0x00031e08      0xc  ScreenMENU2.o [1]
  .rodata            const    0x00031e14      0xc  ScreenMENU2.o [1]
  .rodata            const    0x00031e20      0xc  ScreenMENU2.o [1]
  .rodata            const    0x00031e2c      0xc  ScreenMENU2.o [1]
  .rodata            const    0x00031e38      0xc  ScreenMENU2.o [1]
  .rodata            const    0x00031e44      0xc  ScreenMENU2.o [1]
  .rodata            const    0x00031e50      0xc  ScreenMENU2.o [1]
  .rodata            const    0x00031e5c      0xc  ScreenMENU2.o [1]
  .rodata            const    0x00031e68      0xc  ScreenMENU2.o [1]
  .rodata            const    0x00031e74      0xc  ScreenMENU2.o [1]
  .rodata            const    0x00031e80      0xc  ScreenMENU2.o [1]
  .rodata            const    0x00031e8c      0xc  ScreenMENU2.o [1]
  .rodata            const    0x00031e98      0xc  ScreenMENU2.o [1]
  .rodata            const    0x00031ea4      0xc  ScreenMENU2.o [1]
  .rodata            const    0x00031eb0      0xc  ScreenMENU2.o [1]
  .rodata            const    0x00031ebc      0xc  ScreenMENU2.o [1]
  .rodata            const    0x00031ec8      0xc  ScreenMENU2.o [1]
  .rodata            const    0x00031ed4      0xc  ScreenMENU2.o [1]
  .rodata            const    0x00031ee0      0xc  ScreenMENU2.o [1]
  .rodata            const    0x00031eec      0xc  ScreenMENU2.o [1]
  .rodata            const    0x00031ef8      0xc  ScreenMENU2.o [1]
  .rodata            const    0x00031f04      0xc  ScreenMENU2.o [1]
  .rodata            const    0x00031f10      0xc  ScreenMENU2.o [1]
  .rodata            const    0x00031f1c      0xc  ScreenMENU2.o [1]
  .rodata            const    0x00031f28      0xc  WizFi.o [1]
  .rodata            const    0x00031f34      0xc  WizFiCommand.o [1]
  .rodata            const    0x00031f40      0xc  WizFiCommand.o [1]
  .rodata            const    0x00031f4c      0xc  WizFiCommand.o [1]
  .rodata            const    0x00031f58      0xc  WizFiCommand.o [1]
  .rodata            const    0x00031f64      0xc  WizFiCommand.o [1]
  .rodata            const    0x00031f70      0xc  WizFiCommand.o [1]
  .rodata            const    0x00031f7c      0xc  WizFiCommand.o [1]
  .rodata            const    0x00031f88      0xc  WizFiCommand.o [1]
  .rodata            const    0x00031f94      0xc  WizFiCommand.o [1]
  .rodata            const    0x00031fa0      0xc  WizFiCommand.o [1]
  .rodata            const    0x00031fac      0xc  WizFiCommand.o [1]
  .rodata            const    0x00031fb8      0xc  WizFiCommand.o [1]
  .rodata            const    0x00031fc4      0xc  main.o [1]
  .rodata            const    0x00031fd0      0xc  serial_driver.o [1]
  .text              ro code  0x00031fdc      0xc  xsprout.o [2]
  .text              ro code  0x00031fe8      0xc  exit.o [2]
  Debug.txt          ro code  0x00031ff4      0xc  Interrupt.o [1]
  Debug.txt          ro code  0x00032000      0xc  WizFi.o [1]
  Debug.txt          ro code  0x0003200c      0xc  main.o [1]
  Debug.txt          ro code  0x00032018      0xa  LCD_light_PWM.o [1]
  Debug.txt          ro code  0x00032024      0xa  SPI.o [1]
  Debug.txt          ro code  0x00032030      0xa  main.o [1]
  .rodata            const    0x0003203c      0x8  Clock.o [1]
  .rodata            const    0x00032044      0x8  Lcd_Negativ_Old.o [1]
  .rodata            const    0x0003204c      0x8  ScreenMENU2.o [1]
  .rodata            const    0x00032054      0x8  ScreenMENU2.o [1]
  .rodata            const    0x0003205c      0x8  ScreenMENU2.o [1]
  .rodata            const    0x00032064      0x8  ScreenMENU2.o [1]
  .rodata            const    0x0003206c      0x8  ScreenMENU2.o [1]
  .rodata            const    0x00032074      0x8  ScreenMENU2.o [1]
  .rodata            const    0x0003207c      0x8  ScreenMENU2.o [1]
  .rodata            const    0x00032084      0x8  ScreenMENU2.o [1]
  .rodata            const    0x0003208c      0x8  ScreenMENU2.o [1]
  .rodata            const    0x00032094      0x8  ScreenMENU2.o [1]
  .rodata            const    0x0003209c      0x8  ScreenMENU2.o [1]
  .rodata            const    0x000320a4      0x8  ScreenMENU2.o [1]
  .rodata            const    0x000320ac      0x8  ScreenMENU2.o [1]
  .rodata            const    0x000320b4      0x8  ScreenMENU2.o [1]
  .rodata            const    0x000320bc      0x8  ScreenMENU2.o [1]
  .rodata            const    0x000320c4      0x8  ScreenMENU2.o [1]
  .rodata            const    0x000320cc      0x8  ScreenMENU2.o [1]
  .rodata            const    0x000320d4      0x8  ScreenMENU2.o [1]
  .rodata            const    0x000320dc      0x8  ScreenMENU2.o [1]
  .rodata            const    0x000320e4      0x8  ScreenMENU2.o [1]
  .rodata            const    0x000320ec      0x8  ScreenMENU2.o [1]
  .rodata            const    0x000320f4      0x8  ScreenMENU2.o [1]
  .rodata            const    0x000320fc      0x8  ScreenMENU2.o [1]
  .rodata            const    0x00032104      0x8  ScreenMENU2.o [1]
  .rodata            const    0x0003210c      0x8  ScreenMENU2.o [1]
  .rodata            const    0x00032114      0x8  ScreenMENU2.o [1]
  .rodata            const    0x0003211c      0x8  ScreenMENU2.o [1]
  .rodata            const    0x00032124      0x8  ScreenMENU2.o [1]
  .rodata            const    0x0003212c      0x8  ScreenMENU2.o [1]
  .rodata            const    0x00032134      0x8  ScreenMENU2.o [1]
  .rodata            const    0x0003213c      0x8  ScreenMENU2.o [1]
  .rodata            const    0x00032144      0x8  ScreenMENU2.o [1]
  .rodata            const    0x0003214c      0x8  ScreenMENU2.o [1]
  .rodata            const    0x00032154      0x8  ScreenMENU2.o [1]
  .rodata            const    0x0003215c      0x8  ScreenMENU2.o [1]
  .rodata            const    0x00032164      0x8  ScreenMENU2.o [1]
  .rodata            const    0x0003216c      0x8  ScreenMENU2.o [1]
  .rodata            const    0x00032174      0x8  ScreenMENU2.o [1]
  .rodata            const    0x0003217c      0x8  ScreenMENU2.o [1]
  .rodata            const    0x00032184      0x8  ScreenMENU2.o [1]
  .rodata            const    0x0003218c      0x8  ScreenMENU2.o [1]
  .rodata            const    0x00032194      0x8  ScreenMENU2.o [1]
  .rodata            const    0x0003219c      0x8  ScreenMENU2.o [1]
  .rodata            const    0x000321a4      0x8  ScreenMENU2.o [1]
  .rodata            const    0x000321ac      0x8  ScreenMENU2.o [1]
  .rodata            const    0x000321b4      0x8  ScreenMENU2.o [1]
  .rodata            const    0x000321bc      0x8  ScreenMENU2.o [1]
  .rodata            const    0x000321c4      0x8  ScreenMENU2.o [1]
  .rodata            const    0x000321cc      0x8  ScreenMENU2.o [1]
  .rodata            const    0x000321d4      0x8  ScreenMENU2.o [1]
  .rodata            const    0x000321dc      0x8  ScreenMENU2.o [1]
  .rodata            const    0x000321e4      0x8  ScreenMENU2.o [1]
  .rodata            const    0x000321ec      0x8  ScreenMENU2.o [1]
  .rodata            const    0x000321f4      0x8  ScreenMENU2.o [1]
  .rodata            const    0x000321fc      0x8  ScreenMENU2.o [1]
  .rodata            const    0x00032204      0x8  ScreenMENU2.o [1]
  .rodata            const    0x0003220c      0x8  ScreenMENU2.o [1]
  .rodata            const    0x00032214      0x8  ScreenMENU2.o [1]
  .rodata            const    0x0003221c      0x8  ScreenMENU2.o [1]
  .rodata            const    0x00032224      0x8  ScreenMENU2.o [1]
  .rodata            const    0x0003222c      0x8  ScreenMENU2.o [1]
  .rodata            const    0x00032234      0x8  WizFi.o [1]
  .rodata            const    0x0003223c      0x8  WizFi.o [1]
  .rodata            const    0x00032244      0x8  WizFiCommand.o [1]
  .rodata            const    0x0003224c      0x8  WizFiCommand.o [1]
  .rodata            const    0x00032254      0x8  WizFiCommand.o [1]
  .rodata            const    0x0003225c      0x8  WizFiCommand.o [1]
  .rodata            const    0x00032264      0x8  WizFiCommand.o [1]
  .rodata            const    0x0003226c      0x8  WizFiCommand.o [1]
  .rodata            const    0x00032274      0x8  WizFiCommand.o [1]
  .rodata            const    0x0003227c      0x8  WizFiCommand.o [1]
  .rodata            const    0x00032284      0x8  WizFiCommand.o [1]
  .rodata            const    0x0003228c      0x8  WizFiCommand.o [1]
  .rodata            const    0x00032294      0x8  main.o [1]
  .rodata            const    0x0003229c      0x8  main.o [1]
  .rodata            const    0x000322a4      0x8  xprintffull.o [2]
  Veneer             ro code  0x000322ac      0x4  - Linker created -
  .text              ro code  0x000322b0      0x8  memclr4.o [3]
  .text              ro code  0x000322b8      0x8  abs.o [2]
  Veneer             ro code  0x000322c0      0x4  - Linker created -
  Debug.txt          ro code  0x000322c4      0x8  RF_Exe.o [1]
  Debug.txt          ro code  0x000322cc      0x8  SPI.o [1]
  Debug.txt          ro code  0x000322d4      0x8  SPI.o [1]
  Debug.txt          ro code  0x000322dc      0x8  board.o [1]
  Debug.txt          ro code  0x000322e4      0x8  standard.o [1]
  Debug.txt          ro code  0x000322ec      0x6  Lcd_Negativ_Old.o [1]
  Debug.txt          ro code  0x000322f4      0x6  Lcd_Negativ_Old.o [1]
  Debug.txt          ro code  0x000322fc      0x6  Modbus.o [1]
  Debug.txt          ro code  0x00032304      0x6  Modbus.o [1]
  Debug.txt          ro code  0x0003230c      0x6  SPI.o [1]
  Debug.txt          ro code  0x00032314      0x6  SPI.o [1]
  Debug.txt          ro code  0x0003231c      0x6  SPI.o [1]
  Debug.txt          ro code  0x00032324      0x6  SPI.o [1]
  Debug.txt          ro code  0x0003232c      0x6  USART.o [1]
  Debug.txt          ro code  0x00032334      0x6  USART.o [1]
  Debug.txt          ro code  0x0003233c      0x6  main.o [1]
  Debug.txt          ro code  0x00032344      0x6  main.o [1]
  Debug.txt          ro code  0x0003234c      0x6  udp.o [1]
  Debug.txt          ro code  0x00032354      0x6  udp.o [1]
  .rodata            const    0x0003235c      0x4  Clock.o [1]
  .rodata            const    0x00032360      0x4  RF.o [1]
  .rodata            const    0x00032364      0x4  RF.o [1]
  .rodata            const    0x00032368      0x4  RF_Exe.o [1]
  .rodata            const    0x0003236c      0x4  ScreenMENU2.o [1]
  .rodata            const    0x00032370      0x4  ScreenMENU2.o [1]
  .rodata            const    0x00032374      0x4  ScreenMENU2.o [1]
  .rodata            const    0x00032378      0x4  ScreenMENU2.o [1]
  .rodata            const    0x0003237c      0x4  ScreenMENU2.o [1]
  .rodata            const    0x00032380      0x4  main.o [1]
  .rodata            const    0x00032384      0x4  serial_driver.o [1]
  .text              ro code  0x00032388      0x4  IntDivZer.o [3]
  .text              ro code  0x0003238c      0x4  swi_return.o [4]
  Debug.txt          ro code  0x00032390      0x4  Interrupt.o [1]
  Debug.txt          ro code  0x00032394      0x4  Interrupt.o [1]
  Debug.txt          ro code  0x00032398      0x4  Interrupt.o [1]
  Debug.txt          ro code  0x0003239c      0x4  Lcd_Negativ_Old.o [1]
  Debug.txt          ro code  0x000323a0      0x4  USART.o [1]
  Debug.txt          ro code  0x000323a4      0x4  USART.o [1]
  Debug.txt          ro code  0x000323a8      0x4  board.o [1]
  Debug.txt          ro code  0x000323ac      0x4  board.o [1]
  Debug.txt          ro code  0x000323b0      0x4  serial_driver.o [1]
  Debug.txt          ro code  0x000323b4      0x2  RF.o [1]
  Debug.txt          ro code  0x000323b8      0x2  main.o [1]
  Debug.txt          ro code  0x000323bc      0x2  serial_driver.o [1]
  Debug.txt          ro code  0x000323c0      0x2  standard.o [1]
  Debug.txt          ro code  0x000323c4      0x2  standard.o [1]
  Initializer bytes  ro data  0x000323c6    0x901  <for P2-1>
                            - 0x00032cc7  0x32bc7

"P2":                                      0xfee6
  CSTACK                      0x00200000    0xd00  <Block>
    CSTACK           uninit   0x00200000    0xd00  <Block tail>
  SVC_STACK                   0x00200d00     0xf0  <Block>
    SVC_STACK        uninit   0x00200d00     0xf0  <Block tail>
  IRQ_STACK                   0x00200df0     0xf0  <Block>
    IRQ_STACK        uninit   0x00200df0     0xf0  <Block tail>
  FIQ_STACK                   0x00200ee0     0x40  <Block>
    FIQ_STACK        uninit   0x00200ee0     0x40  <Block tail>
  UND_STACK                   0x00200f20     0x40  <Block>
    UND_STACK        uninit   0x00200f20     0x40  <Block tail>
  ABT_STACK                   0x00200f60     0x40  <Block>
    ABT_STACK        uninit   0x00200f60     0x40  <Block tail>
  .bss               zero     0x00200fa0   0xc670  Application_prog.o [1]
  .bss               zero     0x0020d610    0x710  Application_prog.o [1]
  .bss               zero     0x0020dd20    0x384  main.o [1]
  .bss               zero     0x0020e0a4    0x244  Modbus.o [1]
  .bss               zero     0x0020e2e8    0x244  USART.o [1]
  .bss               zero     0x0020e52c    0x230  RF_Exe.o [1]
  .bss               zero     0x0020e760    0x1c0  main.o [1]
  .bss               zero     0x0020e920    0x1a4  Application_prog.o [1]
  .bss               zero     0x0020eac4    0x12c  main.o [1]
  .bss               zero     0x0020ebf0    0x104  Modbus.o [1]
  .bss               zero     0x0020ecf4     0xe0  spi_main.o [1]
  .bss               zero     0x0020edd4     0xd8  Application_prog.o [1]
  .bss               zero     0x0020eeb0     0x40  main.o [1]
  .bss               zero     0x0020eef0     0x40  main.o [1]
  .bss               zero     0x0020ef30     0x2c  RF.o [1]
  .bss               zero     0x0020ef5c     0x28  Application_prog.o [1]
  .bss               zero     0x0020ef84     0x20  main.o [1]
  .bss               zero     0x0020efa4     0x18  RF.o [1]
  .bss               zero     0x0020efbc     0x18  RF.o [1]
  .bss               zero     0x0020efd4     0x14  ScreenMENU2.o [1]
  .bss               zero     0x0020efe8     0x14  main.o [1]
  .bss               zero     0x0020effc     0x10  Application_prog.o [1]
  .bss               zero     0x0020f00c     0x10  Application_prog.o [1]
  .bss               zero     0x0020f01c     0x10  Lcd_Negativ_Old.o [1]
  .bss               zero     0x0020f02c     0x10  RF_Exe.o [1]
  .bss               zero     0x0020f03c     0x10  main.o [1]
  .bss               zero     0x0020f04c     0x10  main.o [1]
  .bss               zero     0x0020f05c      0xc  Clock.o [1]
  .bss               zero     0x0020f068      0xc  ScreenMENU2.o [1]
  .bss               zero     0x0020f074      0xc  ScreenMENU2.o [1]
  .bss               zero     0x0020f080      0xc  ScreenMENU2.o [1]
  .bss               zero     0x0020f08c      0xc  ScreenMENU2.o [1]
  .bss               zero     0x0020f098      0x8  Lcd_Negativ_Old.o [1]
  .bss               zero     0x0020f0a0      0x8  Lcd_Negativ_Old.o [1]
  .bss               zero     0x0020f0a8      0x8  ScreenMENU2.o [1]
  .bss               zero     0x0020f0b0      0x8  ScreenMENU2.o [1]
  .bss               zero     0x0020f0b8      0x8  WizFi.o [1]
  .bss               zero     0x0020f0c0      0x8  main.o [1]
  .bss               zero     0x0020f0c8      0x8  main.o [1]
  .bss               zero     0x0020f0d0      0x8  main.o [1]
  .bss               zero     0x0020f0d8      0x8  Application_prog.o [1]
  .bss               zero     0x0020f0e0      0x8  RF_Exe.o [1]
  .bss               zero     0x0020f0e8      0x8  ScreenMENU2.o [1]
  .bss               zero     0x0020f0f0      0x8  ScreenMENU2.o [1]
  .bss               zero     0x0020f0f8      0x8  ScreenMENU2.o [1]
  .bss               zero     0x0020f100      0x8  main.o [1]
  .bss               zero     0x0020f108      0x8  main.o [1]
  .bss               zero     0x0020f110      0x8  main.o [1]
  .bss               zero     0x0020f118      0x4  Application_prog.o [1]
  .bss               zero     0x0020f11c      0x4  Application_prog.o [1]
  .bss               zero     0x0020f120      0x4  Application_prog.o [1]
  .bss               zero     0x0020f124      0x4  Application_prog.o [1]
  .bss               zero     0x0020f128      0x4  Lcd_Negativ_Old.o [1]
  .bss               zero     0x0020f12c      0x4  Lcd_Negativ_Old.o [1]
  .bss               zero     0x0020f130      0x4  RF_Exe.o [1]
  .bss               zero     0x0020f134      0x4  RF_Exe.o [1]
  .bss               zero     0x0020f138      0x4  RF_Exe.o [1]
  .bss               zero     0x0020f13c      0x4  RF_Exe.o [1]
  .bss               zero     0x0020f140      0x4  RF_Exe.o [1]
  .bss               zero     0x0020f144      0x4  RS_WIN.o [1]
  .bss               zero     0x0020f148      0x4  ScreenMENU2.o [1]
  .bss               zero     0x0020f14c      0x4  ScreenMENU2.o [1]
  .bss               zero     0x0020f150      0x4  ScreenMENU2.o [1]
  .bss               zero     0x0020f154      0x4  ScreenMENU2.o [1]
  .bss               zero     0x0020f158      0x4  ScreenMENU2.o [1]
  .bss               zero     0x0020f15c      0x4  ScreenMENU2.o [1]
  .bss               zero     0x0020f160      0x4  ScreenMENU2.o [1]
  .bss               zero     0x0020f164      0x4  ScreenMENU2.o [1]
  .bss               zero     0x0020f168      0x4  ScreenMENU2.o [1]
  .bss               zero     0x0020f16c      0x4  ScreenMENU2.o [1]
  .bss               zero     0x0020f170      0x4  ScreenMENU2.o [1]
  .bss               zero     0x0020f174      0x4  ScreenMENU2.o [1]
  .bss               zero     0x0020f178      0x4  ScreenMENU2.o [1]
  .bss               zero     0x0020f17c      0x4  ScreenMENU2.o [1]
  .bss               zero     0x0020f180      0x4  ScreenMENU2.o [1]
  .bss               zero     0x0020f184      0x4  ScreenMENU2.o [1]
  .bss               zero     0x0020f188      0x4  ScreenMENU2.o [1]
  .bss               zero     0x0020f18c      0x4  ScreenMENU2.o [1]
  .bss               zero     0x0020f190      0x4  ScreenMENU2.o [1]
  .bss               zero     0x0020f194      0x4  ScreenMENU2.o [1]
  .bss               zero     0x0020f198      0x4  ScreenMENU2.o [1]
  .bss               zero     0x0020f19c      0x4  ScreenMENU2.o [1]
  .bss               zero     0x0020f1a0      0x4  WizFi.o [1]
  .bss               zero     0x0020f1a4      0x4  WizFi.o [1]
  .bss               zero     0x0020f1a8      0x4  main.o [1]
  .bss               zero     0x0020f1ac      0x4  main.o [1]
  .bss               zero     0x0020f1b0      0x4  main.o [1]
  .bss               zero     0x0020f1b4      0x4  main.o [1]
  .bss               zero     0x0020f1b8      0x4  main.o [1]
  .bss               zero     0x0020f1bc      0x4  main.o [1]
  .bss               zero     0x0020f1c0      0x4  main.o [1]
  .bss               zero     0x0020f1c4      0x4  main.o [1]
  .bss               zero     0x0020f1c8      0x4  main.o [1]
  .bss               zero     0x0020f1cc      0x4  main.o [1]
  .bss               zero     0x0020f1d0      0x4  main.o [1]
  .bss               zero     0x0020f1d4      0x4  main.o [1]
  .bss               zero     0x0020f1d8      0x4  main.o [1]
  .bss               zero     0x0020f1dc      0x4  main.o [1]
  .bss               zero     0x0020f1e0      0x4  main.o [1]
  .bss               zero     0x0020f1e4      0x4  main.o [1]
  .bss               zero     0x0020f1e8      0x4  spi_main.o [1]
  .bss               zero     0x0020f1ec      0x4  spi_main.o [1]
  .bss               zero     0x0020f1f0      0x4  spi_main.o [1]
  .bss               zero     0x0020f1f4      0x4  spi_main.o [1]
  .bss               zero     0x0020f1f8      0x4  spi_main.o [1]
  .bss               zero     0x0020f1fc      0x2  Application_prog.o [1]
  .bss               zero     0x0020f1fe      0x2  Lcd_Negativ_Old.o [1]
  .bss               zero     0x0020f200      0x2  ScreenMENU2.o [1]
  .bss               zero     0x0020f202      0x2  ScreenMENU2.o [1]
  .bss               zero     0x0020f204      0x2  ScreenMENU2.o [1]
  .bss               zero     0x0020f206      0x2  ScreenMENU2.o [1]
  .bss               zero     0x0020f208      0x2  main.o [1]
  .bss               zero     0x0020f20a      0x2  main.o [1]
  .bss               zero     0x0020f20c      0x1  Application_prog.o [1]
  .bss               zero     0x0020f20d      0x1  Application_prog.o [1]
  .bss               zero     0x0020f20e      0x1  Application_prog.o [1]
  .bss               zero     0x0020f20f      0x1  Interrupt.o [1]
  .bss               zero     0x0020f210      0x1  Lcd_Negativ_Old.o [1]
  .bss               zero     0x0020f211      0x1  Lcd_Negativ_Old.o [1]
  .bss               zero     0x0020f212      0x1  Lcd_Negativ_Old.o [1]
  .bss               zero     0x0020f213      0x1  Lcd_Negativ_Old.o [1]
  .bss               zero     0x0020f214      0x1  Lcd_Negativ_Old.o [1]
  .bss               zero     0x0020f215      0x1  Lcd_Negativ_Old.o [1]
  .bss               zero     0x0020f216      0x1  RF.o [1]
  .bss               zero     0x0020f217      0x1  RF_Exe.o [1]
  .bss               zero     0x0020f218      0x1  RF_Exe.o [1]
  .bss               zero     0x0020f219      0x1  RF_Exe.o [1]
  .bss               zero     0x0020f21a      0x1  RF_Exe.o [1]
  .bss               zero     0x0020f21b      0x1  RF_Exe.o [1]
  .bss               zero     0x0020f21c      0x1  RS_WIN.o [1]
  .bss               zero     0x0020f21d      0x1  ScreenMENU2.o [1]
  .bss               zero     0x0020f21e      0x1  ScreenMENU2.o [1]
  .bss               zero     0x0020f21f      0x1  ScreenMENU2.o [1]
  .bss               zero     0x0020f220      0x1  ScreenMENU2.o [1]
  .bss               zero     0x0020f221      0x1  ScreenMENU2.o [1]
  .bss               zero     0x0020f222      0x1  ScreenMENU2.o [1]
  .bss               zero     0x0020f223      0x1  ScreenMENU2.o [1]
  .bss               zero     0x0020f224      0x1  ScreenMENU2.o [1]
  .bss               zero     0x0020f225      0x1  ScreenMENU2.o [1]
  .bss               zero     0x0020f226      0x1  ScreenMENU2.o [1]
  .bss               zero     0x0020f227      0x1  ScreenMENU2.o [1]
  .bss               zero     0x0020f228      0x1  ScreenMENU2.o [1]
  .bss               zero     0x0020f229      0x1  ScreenMENU2.o [1]
  .bss               zero     0x0020f22a      0x1  ScreenMENU2.o [1]
  .bss               zero     0x0020f22b      0x1  ScreenMENU2.o [1]
  .bss               zero     0x0020f22c      0x1  ScreenMENU2.o [1]
  .bss               zero     0x0020f22d      0x1  ScreenMENU2.o [1]
  .bss               zero     0x0020f22e      0x1  ScreenMENU2.o [1]
  .bss               zero     0x0020f22f      0x1  ScreenMENU2.o [1]
  .bss               zero     0x0020f230      0x1  ScreenMENU2.o [1]
  .bss               zero     0x0020f231      0x1  ScreenMENU2.o [1]
  .bss               zero     0x0020f232      0x1  ScreenMENU2.o [1]
  .bss               zero     0x0020f233      0x1  ScreenMENU2.o [1]
  .bss               zero     0x0020f234      0x1  ScreenMENU2.o [1]
  .bss               zero     0x0020f235      0x1  ScreenMENU2.o [1]
  .bss               zero     0x0020f236      0x1  ScreenMENU2.o [1]
  .bss               zero     0x0020f237      0x1  ScreenMENU2.o [1]
  .bss               zero     0x0020f238      0x1  ScreenMENU2.o [1]
  .bss               zero     0x0020f239      0x1  ScreenMENU2.o [1]
  .bss               zero     0x0020f23a      0x1  ScreenMENU2.o [1]
  .bss               zero     0x0020f23b      0x1  ScreenMENU2.o [1]
  .bss               zero     0x0020f23c      0x1  ScreenMENU2.o [1]
  .bss               zero     0x0020f23d      0x1  ScreenMENU2.o [1]
  .bss               zero     0x0020f23e      0x1  ScreenMENU2.o [1]
  .bss               zero     0x0020f23f      0x1  ScreenMENU2.o [1]
  .bss               zero     0x0020f240      0x1  ScreenMENU2.o [1]
  .bss               zero     0x0020f241      0x1  ScreenMENU2.o [1]
  .bss               zero     0x0020f242      0x1  ScreenMENU2.o [1]
  .bss               zero     0x0020f243      0x1  ScreenMENU2.o [1]
  .bss               zero     0x0020f244      0x1  ScreenMENU2.o [1]
  .bss               zero     0x0020f245      0x1  ScreenMENU2.o [1]
  .bss               zero     0x0020f246      0x1  ScreenMENU2.o [1]
  .bss               zero     0x0020f247      0x1  ScreenMENU2.o [1]
  .bss               zero     0x0020f248      0x1  ScreenMENU2.o [1]
  .bss               zero     0x0020f249      0x1  ScreenMENU2.o [1]
  .bss               zero     0x0020f24a      0x1  ScreenMENU2.o [1]
  .bss               zero     0x0020f24b      0x1  ScreenMENU2.o [1]
  .bss               zero     0x0020f24c      0x1  ScreenMENU2.o [1]
  .bss               zero     0x0020f24d      0x1  ScreenMENU2.o [1]
  .bss               zero     0x0020f24e      0x1  ScreenMENU2.o [1]
  .bss               zero     0x0020f24f      0x1  ScreenMENU2.o [1]
  .bss               zero     0x0020f250      0x1  ScreenMENU2.o [1]
  .bss               zero     0x0020f251      0x1  ScreenMENU2.o [1]
  .bss               zero     0x0020f252      0x1  ScreenMENU2.o [1]
  .bss               zero     0x0020f253      0x1  ScreenMENU2.o [1]
  .bss               zero     0x0020f254      0x1  ScreenMENU2.o [1]
  .bss               zero     0x0020f255      0x1  ScreenMENU2.o [1]
  .bss               zero     0x0020f256      0x1  ScreenMENU2.o [1]
  .bss               zero     0x0020f257      0x1  ScreenMENU2.o [1]
  .bss               zero     0x0020f258      0x1  USART.o [1]
  .bss               zero     0x0020f259      0x1  USART.o [1]
  .bss               zero     0x0020f25a      0x1  WizFi.o [1]
  .bss               zero     0x0020f25b      0x1  main.o [1]
  .bss               zero     0x0020f25c      0x1  main.o [1]
  .bss               zero     0x0020f25d      0x1  main.o [1]
  .bss               zero     0x0020f25e      0x1  main.o [1]
  .bss               zero     0x0020f25f      0x1  main.o [1]
  .bss               zero     0x0020f260      0x1  main.o [1]
  .bss               zero     0x0020f261      0x1  main.o [1]
  .bss               zero     0x0020f262      0x1  main.o [1]
  .bss               zero     0x0020f263      0x1  main.o [1]
  .bss               zero     0x0020f264      0x1  main.o [1]
  .bss               zero     0x0020f265      0x1  main.o [1]
  .bss               zero     0x0020f266      0x1  main.o [1]
  .bss               zero     0x0020f267      0x1  main.o [1]
  .bss               zero     0x0020f268      0x1  main.o [1]
  .bss               zero     0x0020f269      0x1  main.o [1]
  .bss               zero     0x0020f26a      0x1  main.o [1]
  .bss               zero     0x0020f26b      0x1  main.o [1]
  .bss               zero     0x0020f26c      0x1  main.o [1]
  .bss               zero     0x0020f26d      0x1  main.o [1]
  .bss               zero     0x0020f26e      0x1  main.o [1]
  .bss               zero     0x0020f26f      0x1  main.o [1]
  .bss               zero     0x0020f270      0x1  main.o [1]
  .bss               zero     0x0020f271      0x1  fenv.o [3]
  P2-1                        0x0020f274    0xc72  <Init block>
    .data            inited   0x0020f274    0x400  Lcd_Negativ_Old.o [1]
    .data            inited   0x0020f674    0x400  ScreenMENU2.o [1]
    .textrw          inited   0x0020fa74    0x324  flash.o [1]
    .data            inited   0x0020fd98     0xa0  main.o [1]
    .data            inited   0x0020fe38     0x18  ScreenMENU2.o [1]
    .data            inited   0x0020fe50     0x10  serial_driver.o [1]
    .data            inited   0x0020fe60      0xc  main.o [1]
    .data            inited   0x0020fe6c      0xc  serial_driver.o [1]
    .data            inited   0x0020fe78      0x8  Lcd_Negativ_Old.o [1]
    .data            inited   0x0020fe80      0x8  Lcd_Negativ_Old.o [1]
    .data            inited   0x0020fe88      0x8  main.o [1]
    .data            inited   0x0020fe90      0x8  main.o [1]
    .data            inited   0x0020fe98      0x4  Application_prog.o [1]
    .data            inited   0x0020fe9c      0x4  Clock.o [1]
    .data            inited   0x0020fea0      0x4  Lcd_Negativ_Old.o [1]
    .data            inited   0x0020fea4      0x4  Lcd_Negativ_Old.o [1]
    .data            inited   0x0020fea8      0x4  USART.o [1]
    .data            inited   0x0020feac      0x4  USART.o [1]
    .data            inited   0x0020feb0      0x4  main.o [1]
    .data            inited   0x0020feb4      0x4  main.o [1]
    .data            inited   0x0020feb8      0x4  main.o [1]
    .data            inited   0x0020febc      0x4  main.o [1]
    .data            inited   0x0020fec0      0x4  main.o [1]
    .data            inited   0x0020fec4      0x4  spi_main.o [1]
    .data            inited   0x0020fec8      0x4  spi_main.o [1]
    .data            inited   0x0020fecc      0x2  ScreenMENU2.o [1]
    .data            inited   0x0020fece      0x2  main.o [1]
    .data            inited   0x0020fed0      0x2  main.o [1]
    .data            inited   0x0020fed2      0x2  main.o [1]
    .data            inited   0x0020fed4      0x2  main.o [1]
    .data            inited   0x0020fed6      0x1  Application_prog.o [1]
    .data            inited   0x0020fed7      0x1  Application_prog.o [1]
    .data            inited   0x0020fed8      0x1  Lcd_Negativ_Old.o [1]
    .data            inited   0x0020fed9      0x1  Lcd_Negativ_Old.o [1]
    .data            inited   0x0020feda      0x1  Lcd_Negativ_Old.o [1]
    .data            inited   0x0020fedb      0x1  RF_Exe.o [1]
    .data            inited   0x0020fedc      0x1  RF_Exe.o [1]
    .data            inited   0x0020fedd      0x1  RF_Exe.o [1]
    .data            inited   0x0020fede      0x1  ScreenMENU2.o [1]
    .data            inited   0x0020fedf      0x1  ScreenMENU2.o [1]
    .data            inited   0x0020fee0      0x1  main.o [1]
    .data            inited   0x0020fee1      0x1  main.o [1]
    .data            inited   0x0020fee2      0x1  main.o [1]
    .data            inited   0x0020fee3      0x1  main.o [1]
    .data            inited   0x0020fee4      0x1  main.o [1]
    .data            inited   0x0020fee5      0x1  spi_main.o [1]
                            - 0x0020fee6   0xfee6


*******************************************************************************
*** MODULE SUMMARY
***

    Module              ro code  rw code  ro data  rw data
    ------              -------  -------  -------  -------
D:\Zeuron\Projekty\S300\S300-program v1.4 - 12.06.2013\S300X (Old)\Obj: [1]
    Application_prog.o    9 084                 7   53 351
    Clock.o                 696                16       16
    Interrupt.o             218                          1
    LCD_light_PWM.o         150
    Lcd_Negativ_Old.o    17 556             9 431    1 099
    Modbus.o                212               512      840
    RF.o                  2 134                 8       93
    RF_Exe.o              6 936                 7      612
    RS_WIN.o              2 188                          5
    SPI.o                   330
    ScreenMENU2.o       100 296             6 989    1 315
    USART.o                 530                 7      590
    WizFi.o               2 344                84       17
    WizFiCommand.o       11 304               492
    board.o                 160
    device.o                248
    flash.o                  92      804      970
    language.o                              5 372
    main.o               10 048               177    2 219
    serial_driver.o         432               205       28
    spi_main.o            1 084                 8      253
    standard.o              902
    startup.o               276
    udp.o                 3 840                76
    ------------------------------------------------------
    Total:              171 060      804   24 361   60 439

dl4t_tl_in.a: [2]
    abs.o                     8
    call_main.o              20
    div.o                    36
    exit.o                   12
    sprintf.o                48
    strcat.o                 34
    strstr.o                 50
    xdnorm.o                184
    xdscale.o               276
    xprintffull.o         4 012                 8
    xsprout.o                12
    ------------------------------------------------------
    Total:                4 692                 8

rt4t_al.a: [3]
    DblAdd.o                360
    DblCmpGe.o               64
    DblCmpLe.o               64
    DblDiv.o                936
    DblMul.o                688
    DblSub.o                544
    DblSubNrml.o             96
    DblToFlt.o              188
    DblToI32.o              156
    FltAdd.o                220
    FltCmpEq.o               36
    FltCmpGe.o               48
    FltCmpLe.o               48
    FltDiv.o                532
    FltFlgDivZer.o           24
    FltFlgInv.o              36
    FltFlgInx.o              24
    FltFlgOvf.o              24
    FltFlgUnf.o              24
    FltMul.o                448
    FltSub.o                352
    FltToDbl.o              104
    FltToS32.o               88
    FltToS64.o              164
    I32DivMod.o             468
    I32ToDbl.o              116
    I32ToFlt.o              120
    I64DivMod.o             292
    I64ToFlt.o              108
    IntDivZer.o               4
    cexit.o                  16
    cmain.o                  36
    data_init.o              64
    fenv.o                                               1
    memchr.o                152
    memclr4.o                 8
    memcpy.o                196
    memset48.o               72
    rle_init.o               64
    strchr.o                 32
    strlen.o                 88
    uread4.o                 32
    uread8.o                 60
    uwrite4.o                40
    uwrite8.o                68
    zero_init.o              28
    ------------------------------------------------------
    Total:                7 332                          1

shs_l.a: [4]
    exit.o                   28
    swi_return.o              4
    ------------------------------------------------------
    Total:                   32

    Gaps                     76                22       10
    Linker created          264                32    4 000
----------------------------------------------------------
    Grand Total:        183 456      804   24 423   64 450


*******************************************************************************
*** ENTRY LIST
***

Entry                      Address    Size  Type      Object
-----                      -------    ----  ----      ------
?main                   0x00031274          Code  Gb  cmain.o [3]
ABT_STACK$$Base         0x00200f60           --   Gb  - Linker created -
ABT_STACK$$Limit        0x00200fa0           --   Gb  - Linker created -
ACM_GetLineCoding       0x0002f105    0x20  Code  Lc  serial_driver.o [1]
ACM_SetControlLineState
                        0x0002f125    0x14  Code  Lc  serial_driver.o [1]
ACM_SetLineCoding       0x0002f0f1    0x12  Code  Lc  serial_driver.o [1]
APC                     0x0020f25b     0x1  Data  Gb  main.o [1]
AP_Associate            0x0002a969   0x106  Code  Gb  WizFi.o [1]
AP_AssociateResponseInterpreter
                        0x0002aa71   0x20c  Code  Gb  WizFi.o [1]
AT91F_AIC_ConfigureIt   0x00030e01    0x36  Code  Wk  Interrupt.o [1]
AT91F_AIC_EnableIt      0x00031ff5     0xc  Code  Wk  Interrupt.o [1]
AT91F_BUTTON_Init       0x0003077d    0x4c  Code  Wk  device.o [1]
AT91F_LCD_Init          0x0002fd11    0xa4  Code  Wk  main.o [1]
AT91F_PDC_DisableRx     0x00032325     0x6  Code  Wk  SPI.o [1]
AT91F_PDC_DisableTx     0x000322d5     0x8  Code  Wk  SPI.o [1]
AT91F_PDC_EnableRx      0x0003231d     0x6  Code  Wk  SPI.o [1]
AT91F_PDC_EnableTx      0x000322cd     0x8  Code  Wk  SPI.o [1]
AT91F_PDC_IsNextRxEmpty
                        0x00031d21     0xe  Code  Wk  SPI.o [1]
AT91F_PDC_IsNextTxEmpty
                        0x00031d01     0xe  Code  Wk  Modbus.o [1]
AT91F_PDC_IsRxEmpty     0x00031d11     0xe  Code  Wk  SPI.o [1]
AT91F_PDC_IsTxEmpty     0x00031cf1     0xe  Code  Wk  Modbus.o [1]
AT91F_PDC_Open          0x000307c9    0x4a  Code  Wk  SPI.o [1]
AT91F_PDC_ReceiveFrame  0x0003072d    0x4e  Code  Wk  SPI.o [1]
AT91F_PDC_SendFrame     0x000306dd    0x4e  Code  Wk  Modbus.o [1]
AT91F_PDC_SetNextRx     0x0003230d     0x6  Code  Wk  SPI.o [1]
AT91F_PDC_SetNextTx     0x000322fd     0x6  Code  Wk  Modbus.o [1]
AT91F_PDC_SetRx         0x00032315     0x6  Code  Wk  SPI.o [1]
AT91F_PDC_SetTx         0x00032305     0x6  Code  Wk  Modbus.o [1]
AT91F_PIO_CfgInput      0x000322f5     0x6  Code  Wk  Lcd_Negativ_Old.o [1]
AT91F_PIO_CfgOutput     0x000322ed     0x6  Code  Wk  Lcd_Negativ_Old.o [1]
AT91F_PIO_CfgPeriph     0x00032019     0xa  Code  Wk  LCD_light_PWM.o [1]
AT91F_PIO_CfgPullup     0x000322dd     0x8  Code  Wk  board.o [1]
AT91F_PIO_ClearOutput   0x0003239d     0x4  Code  Wk  Lcd_Negativ_Old.o [1]
AT91F_PIO_GetInput      0x000323a9     0x4  Code  Wk  board.o [1]
AT91F_PIO_GetInterruptStatus
                        0x00032395     0x4  Code  Wk  Interrupt.o [1]
AT91F_PIO_InterruptEnable
                        0x00032391     0x4  Code  Wk  Interrupt.o [1]
AT91F_PIO_SetOutput     0x000323ad     0x4  Code  Wk  board.o [1]
AT91F_PMC_EnablePeriphClock
                        0x00032399     0x4  Code  Wk  Interrupt.o [1]
AT91F_SPI_CfgCs         0x00032025     0xa  Code  Wk  SPI.o [1]
AT91F_SPI_CfgPIO        0x0003160d    0x1c  Code  Wk  SPI.o [1]
AT91F_SPI_CfgPMC        0x00031a05    0x14  Code  Wk  SPI.o [1]
AT91F_SPI_En_Dis        0x0002c155    0x40  Code  Gb  spi_main.o [1]
AT91F_SPI_Interrupt_handler
                        0x0002bdb9    0x78  Code  Gb  spi_main.o [1]
AT91F_SPI_Open          0x0002c195    0x60  Code  Gb  spi_main.o [1]
AT91F_SPI_ReceiveFrame  0x00031699    0x1a  Code  Wk  SPI.o [1]
AT91F_SPI_SWReset       0x0002c14d     0x6  Code  Gb  spi_main.o [1]
AT91F_SPI_SendFrame     0x000316b5    0x1a  Code  Wk  SPI.o [1]
AT91F_US1_CfgPIO        0x000318ed    0x18  Code  Wk  USART.o [1]
AT91F_US1_CfgPMC        0x00031a2d    0x14  Code  Wk  USART.o [1]
AT91F_US_Baudrate       0x00030c3d    0x3c  Code  Wk  USART.o [1]
AT91F_US_Configure      0x00030f09    0x34  Code  Wk  USART.o [1]
AT91F_US_EnableIt       0x000323a5     0x4  Code  Wk  USART.o [1]
AT91F_US_EnableRx       0x0003232d     0x6  Code  Wk  USART.o [1]
AT91F_US_EnableTx       0x00032335     0x6  Code  Wk  USART.o [1]
AT91F_US_ReceiveFrame   0x000316d1    0x1a  Code  Wk  USART.o [1]
AT91F_US_SendFrame      0x0003167d    0x1a  Code  Wk  Modbus.o [1]
AT91F_US_SetBaudrate    0x00031a19    0x14  Code  Wk  USART.o [1]
AT91F_US_SetTimeguard   0x000323a1     0x4  Code  Wk  USART.o [1]
AT91F_WDTRestart        0x0003200d     0xc  Code  Wk  main.o [1]
ATI2                    0x0003227c     0x8  Data  Gb  WizFiCommand.o [1]
AT_DNSLOOKUP            0x00031c74    0x10  Data  Gb  WizFiCommand.o [1]
AT_NCLOSE               0x00031fac     0xc  Data  Gb  WizFiCommand.o [1]
AT_NCTCP                0x00031fa0     0xc  Data  Gb  WizFiCommand.o [1]
AT_NDHCP_0              0x00031f58     0xc  Data  Gb  WizFiCommand.o [1]
AT_NDHCP_1              0x00031f64     0xc  Data  Gb  WizFiCommand.o [1]
AT_NSET                 0x00031f70     0xc  Data  Gb  WizFiCommand.o [1]
AT_VER                  0x00031f40     0xc  Data  Gb  WizFiCommand.o [1]
AT_WA                   0x0003228c     0x8  Data  Gb  WizFiCommand.o [1]
AT_WAUTH_1              0x00031f7c     0xc  Data  Gb  WizFiCommand.o [1]
AT_WD                   0x00032284     0x8  Data  Gb  WizFiCommand.o [1]
AT_WWEP1                0x00031f88     0xc  Data  Gb  WizFiCommand.o [1]
AT_WWPA                 0x00031f94     0xc  Data  Gb  WizFiCommand.o [1]
AT_XDUM0                0x00031f4c     0xc  Data  Gb  WizFiCommand.o [1]
AT_XRESET               0x00031fb8     0xc  Data  Gb  WizFiCommand.o [1]
AddRfTask               0x00023ad9   0x344  Code  Gb  Application_prog.o [1]
AddRfTask_RemoveSearchNodeTask
                        0x000235b9   0x124  Code  Gb  Application_prog.o [1]
AddRfTask_SearchNodeTask
                        0x00023481   0x138  Code  Gb  Application_prog.o [1]
AddRow                  0x00008595   0x1e4  Code  Gb  ScreenMENU2.o [1]
AddRsTask               0x00023349   0x138  Code  Gb  Application_prog.o [1]
AdvanceSet_Event        0x00004319    0x80  Code  Gb  ScreenMENU2.o [1]
AdvanceSet_Paint        0x0000429d    0x7c  Code  Gb  ScreenMENU2.o [1]
AlarmExecute            0x000205a5   0x2dc  Code  Gb  main.o [1]
AlarmOn                 0x0020f265     0x1  Data  Gb  main.o [1]
AlarmPassChange_Event   0x00014305   0x2c8  Code  Gb  ScreenMENU2.o [1]
AlarmPassChange_Paint   0x00014249    0xbc  Code  Gb  ScreenMENU2.o [1]
AlarmPass_Event         0x00013e6d   0x284  Code  Gb  ScreenMENU2.o [1]
AlarmPass_Paint         0x00013df1    0x7c  Code  Gb  ScreenMENU2.o [1]
AlarmPass_Refresh       0x000140f1   0x158  Code  Gb  ScreenMENU2.o [1]
AlarmScreenAction       0x0020f03c    0x10  Data  Gb  main.o [1]
Alarm_Event             0x00013b8d   0x13c  Code  Gb  ScreenMENU2.o [1]
Alarm_Paint             0x00013ab9    0xd4  Code  Gb  ScreenMENU2.o [1]
Alarm_Refresh           0x00013cc9   0x128  Code  Gb  ScreenMENU2.o [1]
AlfaType                0x0020f241     0x1  Data  Gb  ScreenMENU2.o [1]
AnaVarToMaster          0x0002b561     0x4  Code  Gb  RS_WIN.o [1]
AnalogGraph_Event       0x0000d8a5   0x300  Code  Gb  ScreenMENU2.o [1]
AnalogGraph_Paint       0x0000d449   0x45c  Code  Gb  ScreenMENU2.o [1]
AnalogToChange          0x0020f168     0x4  Data  Gb  ScreenMENU2.o [1]
AnimationNr             0x0020f22c     0x1  Data  Gb  ScreenMENU2.o [1]
Arial_18                0x00027208  0x1450  Data  Gb  Lcd_Negativ_Old.o [1]
Arial_7                 0x0002c9f4   0x3f4  Data  Gb  Lcd_Negativ_Old.o [1]
AsciToHexStr            0x0001d589    0x66  Code  Gb  WizFiCommand.o [1]
Ask_Event               0x0001abfd   0x16c  Code  Gb  Lcd_Negativ_Old.o [1]
Ask_Paint               0x0001ab2d    0xd0  Code  Gb  Lcd_Negativ_Old.o [1]
BRD_ConfigurePullUp     0x00030061    0x1a  Code  Gb  board.o [1]
BRD_ConfigureVBus       0x0003007d    0x22  Code  Gb  board.o [1]
BRD_ConnectPullUp       0x00030039    0x12  Code  Gb  board.o [1]
BRD_DisconnectPullUp    0x0003004d    0x12  Code  Gb  board.o [1]
BRD_IsVBusConnected     0x00030019    0x1e  Code  Gb  board.o [1]
BRD_SetFlashWaitStates  0x00031a41    0x14  Code  Wk  device.o [1]
BateriaWyladowana       0x00031f04     0xc  Data  Gb  ScreenMENU2.o [1]
BateriaWyladowanaDuza   0x0020fe38    0x18  Data  Gb  ScreenMENU2.o [1]
BigTemperLabel_Event    0x0000bbb5   0x1a8  Code  Gb  ScreenMENU2.o [1]
BigTemperLabel_Paint    0x0000ba4d   0x168  Code  Gb  ScreenMENU2.o [1]
BinVarToMaster          0x0002b55d     0x2  Code  Gb  RS_WIN.o [1]
BridgeMode              0x0020f219     0x1  Data  Gb  RF_Exe.o [1]
Buff_TX_1               0x0020e0a4   0x244  Data  Gb  Modbus.o [1]
Busy_program            0x0020f20d     0x1  Data  Gb  Application_prog.o [1]
Button                  0x0001c245   0x3a8  Code  Gb  Lcd_Negativ_Old.o [1]
ButtonAction_Event      0x0000b8b5   0x198  Code  Gb  ScreenMENU2.o [1]
ButtonAction_Paint      0x0000b755   0x160  Code  Gb  ScreenMENU2.o [1]
ButtonBipCounter        0x0020f0a0     0x8  Data  Gb  Lcd_Negativ_Old.o [1]
ButtonEventTime         0x0020f098     0x8  Data  Gb  Lcd_Negativ_Old.o [1]
ButtonName              0x0002ea24   0x18c  Data  Gb  ScreenMENU2.o [1]
ButtonOptions_Event     0x0000b699    0xbc  Code  Gb  ScreenMENU2.o [1]
ButtonOptions_Paint     0x0000b5d5    0xc4  Code  Gb  ScreenMENU2.o [1]
ButtonToChange          0x0020f154     0x4  Data  Gb  ScreenMENU2.o [1]
CBK_Init                0x0001f9b9    0x50  Code  Lc  main.o [1]
CBK_NewRequest          0x0001fa21     0xe  Code  Lc  main.o [1]
CBK_Resume              0x0001fa15     0xc  Code  Lc  main.o [1]
CCKier                  0x0020f22b     0x1  Data  Gb  ScreenMENU2.o [1]
CSTACK$$Base            0x00200000           --   Gb  - Linker created -
CSTACK$$Limit           0x00200d00           --   Gb  - Linker created -
CanvasPixel             0x00018ad9    0x8c  Code  Gb  Lcd_Negativ_Old.o [1]
ChangeID_Event          0x0000dfe5   0x150  Code  Gb  ScreenMENU2.o [1]
ChangeID_Paint          0x0000dd4d   0x298  Code  Gb  ScreenMENU2.o [1]
ChangeID_Refresh        0x0000e135   0x388  Code  Gb  ScreenMENU2.o [1]
ChangeStageFlag         0x0020fee2     0x1  Data  Gb  main.o [1]
ChangeingIdMode         0x0020f266     0x1  Data  Gb  main.o [1]
CharToStr               0x00019aed    0xb2  Code  Gb  Lcd_Negativ_Old.o [1]
CharToStr2              0x00019ba1    0x5c  Code  Gb  Lcd_Negativ_Old.o [1]
CharToStrData           0x00019bfd    0x3c  Code  Gb  Lcd_Negativ_Old.o [1]
CheckChannel            0x000013e5    0xb8  Code  Gb  ScreenMENU2.o [1]
CheckExistDomenaIP      0x0001daad    0xd6  Code  Gb  WizFiCommand.o [1]
CheckIP                 0x00017791    0x70  Code  Gb  ScreenMENU2.o [1]
CheckLCD                0x0001c8bd    0xe0  Code  Gb  Lcd_Negativ_Old.o [1]
CheckScreenUse          0x00023195    0xbc  Code  Gb  Application_prog.o [1]
CheckSum                0x0002b50d    0x48  Code  Gb  RS_WIN.o [1]
CheckVarChangeHTTP      0x0002a3bd   0x238  Code  Gb  WizFi.o [1]
CheckingModule_Event    0x0000e795   0x148  Code  Gb  ScreenMENU2.o [1]
CheckingModule_Paint    0x0000e4bd   0x2d8  Code  Gb  ScreenMENU2.o [1]
CheckingModule_Refresh  0x0000e8dd   0x264  Code  Gb  ScreenMENU2.o [1]
ChoseCol                0x0020f235     0x1  Data  Gb  ScreenMENU2.o [1]
ChoseRow                0x0020f234     0x1  Data  Gb  ScreenMENU2.o [1]
CleanAll_Event          0x00004399    0xe8  Code  Gb  ScreenMENU2.o [1]
CleanCanvas             0x000189b1    0x28  Code  Gb  Lcd_Negativ_Old.o [1]
CleanCanvasArea         0x000189d9   0x100  Code  Gb  Lcd_Negativ_Old.o [1]
CleanFlash              0x0020fcb1    0xe0  Code  Gb  flash.o [1]
ComandCLK               0x0020f05c     0xc  Data  Lc  Clock.o [1]
Convers_DW_B            0x0020f144     0x4  Data  Gb  RS_WIN.o [1]
CopyToCanvas            0x00018b65    0x2e  Code  Gb  Lcd_Negativ_Old.o [1]
CopyToCanvasPoint       0x00018b99    0xf8  Code  Gb  Lcd_Negativ_Old.o [1]
CountLines              0x00023251    0x50  Code  Gb  Application_prog.o [1]
CurModifSheet           0x0020f223     0x1  Data  Gb  ScreenMENU2.o [1]
CurTimeQual             0x0020f208     0x2  Data  Gb  main.o [1]
CurentChartModyfi       0x0020f220     0x1  Data  Gb  ScreenMENU2.o [1]
CurrentSheet            0x0020f222     0x1  Data  Gb  ScreenMENU2.o [1]
CyklPerSek              0x0020fec0     0x4  Data  Gb  main.o [1]
CyklPerSekCount         0x0020f1d0     0x4  Data  Gb  main.o [1]
DEV_Resume              0x0002ff29    0x58  Code  Gb  device.o [1]
DateTime                0x0020f100     0x8  Data  Gb  main.o [1]
DateToStr               0x00019a3d    0xb0  Code  Gb  Lcd_Negativ_Old.o [1]
Delay                   0x0001fab9    0x14  Code  Gb  main.o [1]
DeyOfWeekLongStr        0x0002f8d0    0xc0  Data  Gb  ScreenMENU2.o [1]
DeyOfWeekStr            0x0003136c    0x20  Data  Gb  ScreenMENU2.o [1]
Diff_X                  0x0020f0f0     0x8  Data  Gb  ScreenMENU2.o [1]
Diff_Y                  0x0020f0f8     0x8  Data  Gb  ScreenMENU2.o [1]
DispWait                0x0020f228     0x1  Data  Gb  ScreenMENU2.o [1]
Down                    0x0020f12c     0x4  Data  Gb  Lcd_Negativ_Old.o [1]
ExecuteSpecialThermVar  0x00002ead    0x54  Code  Gb  ScreenMENU2.o [1]
FIQ_STACK$$Base         0x00200ee0           --   Gb  - Linker created -
FIQ_STACK$$Limit        0x00200f20           --   Gb  - Linker created -
FLASH                   0x0020f1e4     0x4  Data  Gb  main.o [1]
FirstNodeStanIO_Paint   0x0020f24f     0x1  Data  Gb  ScreenMENU2.o [1]
FlagChangeTime          0x0020f26d     0x1  Data  Gb  main.o [1]
FlashProgramOfset       0x0020feb0     0x4  Data  Gb  main.o [1]
FlashProgramReserveOfset
                        0x0020feb4     0x4  Data  Gb  main.o [1]
FlashWrite              0x00030595    0x3c  Code  Gb  flash.o [1]
FlashWriteExe           0x0020fb41   0x170  Code  Gb  flash.o [1]
FloToStr                0x0001b201   0xda4  Code  Gb  Lcd_Negativ_Old.o [1]
ForwardUSB2Serial       0x0001fa51    0x64  Code  Lc  main.o [1]
ForwardUSB2Serialferst  0x0020f26c     0x1  Data  Gb  main.o [1]
Frame                   0x000317b0    0x18  Data  Gb  ScreenMENU2.o [1]
FuseLastWiFiDataIn      0x0020f0d0     0x8  Data  Gb  main.o [1]
GetDateTimeFromRTC      0x0002db51    0x24  Code  Gb  Clock.o [1]
GetSpecialAnalogVar     0x0001e1c9    0xbc  Code  Gb  WizFiCommand.o [1]
GetSpecialBinarVar      0x0001e285   0x170  Code  Gb  WizFiCommand.o [1]
GetTouchPoint           0x0001c99d   0x2c4  Code  Gb  Lcd_Negativ_Old.o [1]
GraphTab                0x0002e874   0x1b0  Data  Gb  ScreenMENU2.o [1]
HTTP_Query              0x0001e5cd   0xc80  Code  Gb  WizFiCommand.o [1]
HTTP_QueryResponse      0x0001f24d   0x63c  Code  Gb  WizFiCommand.o [1]
HTTP_Task               0x0002ac7d    0x5c  Code  Gb  WizFi.o [1]
H_line                  0x0001bfa5   0x11c  Code  Gb  Lcd_Negativ_Old.o [1]
Host_WiFi_Event         0x0001708d   0x210  Code  Gb  ScreenMENU2.o [1]
Host_WiFi_Paint         0x00016d8d   0x300  Code  Gb  ScreenMENU2.o [1]
IRQ_STACK$$Base         0x00200df0           --   Gb  - Linker created -
IRQ_STACK$$Limit        0x00200ee0           --   Gb  - Linker created -
ISR_Driver              0x0001f889     0xe  Code  Gb  main.o [1]
ISR_VBus                0x0001f899   0x100  Code  Gb  main.o [1]
IncCurentRfTask         0x000254f5   0x10c  Code  Gb  RF_Exe.o [1]
IndWys                  0x0020f217     0x1  Data  Gb  RF_Exe.o [1]
Info_Event              0x00012c0d    0x50  Code  Gb  ScreenMENU2.o [1]
Info_Paint              0x000129ad   0x1d8  Code  Gb  ScreenMENU2.o [1]
Info_Refresh            0x00012b85    0x88  Code  Gb  ScreenMENU2.o [1]
InitFlash               0x00030575    0x20  Code  Gb  flash.o [1]
InitFramework           0x0001fad1   0x264  Code  Gb  main.o [1]
InitPioInterrupt        0x0003017d    0x40  Code  Gb  Interrupt.o [1]
InitPointer             0x0020f22a     0x1  Data  Gb  ScreenMENU2.o [1]
InitRF_Interrupt        0x0002b619    0x28  Code  Gb  RF.o [1]
InitRTC                 0x0002db31    0x20  Code  Gb  Clock.o [1]
InitWizFi               0x0002a5f5    0x88  Code  Gb  WizFi.o [1]
Init_LCD_Light_PWM      0x000301e5    0x68  Code  Gb  LCD_light_PWM.o [1]
Init_LCD_TS             0x000190b1    0x78  Code  Gb  Lcd_Negativ_Old.o [1]
InsertNewPass1          0x0020f08c     0xc  Data  Gb  ScreenMENU2.o [1]
InsertOldPass1          0x0020f080     0xc  Data  Gb  ScreenMENU2.o [1]
InsertPass1             0x0020f074     0xc  Data  Gb  ScreenMENU2.o [1]
IntCA81Flag             0x0020f216     0x1  Data  Gb  RF.o [1]
IpConfig_Event          0x00017ae9   0x27c  Code  Gb  ScreenMENU2.o [1]
IpConfig_Paint          0x00017801   0x2e8  Code  Gb  ScreenMENU2.o [1]
IpTCP_Event             0x000175d1   0x1c0  Code  Gb  ScreenMENU2.o [1]
IpTCP_Paint             0x00017511    0xc0  Code  Gb  ScreenMENU2.o [1]
LCD_Canvas              0x0020f274   0x400  Data  Gb  Lcd_Negativ_Old.o [1]
Label                   0x00019129   0x400  Code  Gb  Lcd_Negativ_Old.o [1]
Label20                 0x0001959d   0x3f0  Code  Gb  Lcd_Negativ_Old.o [1]
LabelLength             0x00019529    0x74  Code  Gb  Lcd_Negativ_Old.o [1]
LaderChange_Event       0x000084dd    0xb8  Code  Gb  ScreenMENU2.o [1]
LaderChange_Paint       0x00008461    0x7c  Code  Gb  ScreenMENU2.o [1]
LaderCol                0x0020f233     0x1  Data  Gb  ScreenMENU2.o [1]
LaderLine               0x0020f232     0x1  Data  Gb  ScreenMENU2.o [1]
Lader_Event             0x00005ce5   0x3b4  Code  Gb  ScreenMENU2.o [1]
Lader_Paint             0x00005ab5   0x230  Code  Gb  ScreenMENU2.o [1]
LastScene               0x0020f20c     0x1  Data  Gb  Application_prog.o [1]
LastSendTime            0x0020f198     0x4  Data  Gb  ScreenMENU2.o [1]
LiczOds                 0x0020f1cc     0x4  Data  Gb  main.o [1]
List_Event              0x0001a469   0x6c4  Code  Gb  Lcd_Negativ_Old.o [1]
List_Paint              0x00019dd5   0x694  Code  Gb  Lcd_Negativ_Old.o [1]
Logo_Ceuron             0x0003024c    0x80  Data  Gb  ScreenMENU2.o [1]
MESSAGE                 0x00001a29   0x268  Code  Gb  ScreenMENU2.o [1]
MESSAGE_Refresh         0x00001c91    0xc8  Code  Gb  ScreenMENU2.o [1]
MainSide_Event          0x00001d59   0x3b4  Code  Gb  ScreenMENU2.o [1]
MainSide_Paint          0x0000149d   0x58c  Code  Gb  ScreenMENU2.o [1]
MainSide_Refresh        0x0000210d   0xb54  Code  Gb  ScreenMENU2.o [1]
MainSide_puls           0x0020f21d     0x1  Data  Gb  ScreenMENU2.o [1]
MainStage               0x0020d610   0x710  Data  Gb  Application_prog.o [1]
MasterSlave_Event       0x000111c9   0x1d4  Code  Gb  ScreenMENU2.o [1]
MasterSlave_Paint       0x00011149    0x80  Code  Gb  ScreenMENU2.o [1]
MasterToAnaVar          0x0002b555     0x4  Code  Gb  RS_WIN.o [1]
MasterToBinVar          0x0002b559     0x2  Code  Gb  RS_WIN.o [1]
MaxTime                 0x0020f204     0x2  Data  Gb  ScreenMENU2.o [1]
MenuAccessPass_Event    0x00004655   0x2e4  Code  Gb  ScreenMENU2.o [1]
MenuAccessPass_Paint    0x000045ad    0xa8  Code  Gb  ScreenMENU2.o [1]
MenuLevel               0x0020f148     0x4  Data  Gb  ScreenMENU2.o [1]
MenuLevel_old           0x0020f1d8     0x4  Data  Gb  main.o [1]
MenuPaint               0x00000141   0x724  Code  Gb  ScreenMENU2.o [1]
MenuPaintExecute        0x0020f23a     0x1  Data  Gb  ScreenMENU2.o [1]
MenuRefresh             0x00000ec1   0x318  Code  Gb  ScreenMENU2.o [1]
MenuSide_Event          0x00004521    0x8c  Code  Gb  ScreenMENU2.o [1]
MenuSide_Paint          0x00004481    0xa0  Code  Gb  ScreenMENU2.o [1]
Message                 0x0001ad69    0xe8  Code  Gb  Lcd_Negativ_Old.o [1]
Message_Paint           0x0001b0d1   0x130  Code  Gb  Lcd_Negativ_Old.o [1]
NET                     0x0020e760   0x1c0  Data  Gb  main.o [1]
NODE_ID                 0x00032368     0x4  Data  Lc  RF_Exe.o [1]
NetInfo_Event           0x00017fd9    0x98  Code  Gb  ScreenMENU2.o [1]
NetInfo_Paint           0x00017d65   0x274  Code  Gb  ScreenMENU2.o [1]
NetInfo_Refresh         0x00018071   0x2d4  Code  Gb  ScreenMENU2.o [1]
NetPeriodicity_Event    0x000173ad   0x164  Code  Gb  ScreenMENU2.o [1]
NetPeriodicity_Paint    0x0001729d   0x110  Code  Gb  ScreenMENU2.o [1]
Net_Event               0x00016519   0x1c0  Code  Gb  ScreenMENU2.o [1]
Net_Paint               0x00016401   0x118  Code  Gb  ScreenMENU2.o [1]
NeuronIdAfterChange     0x0020f15c     0x4  Data  Gb  ScreenMENU2.o [1]
NeuronIdChange          0x0020f164     0x4  Data  Gb  ScreenMENU2.o [1]
NeuronIdToChange        0x0020f158     0x4  Data  Gb  ScreenMENU2.o [1]
NeuronNrChange          0x0020f221     0x1  Data  Gb  ScreenMENU2.o [1]
NeuronNrChange_Evant    0x000126f5   0x2b8  Code  Gb  ScreenMENU2.o [1]
NeuronNrChange_Paint    0x00012585   0x170  Code  Gb  ScreenMENU2.o [1]
NeuronsList             0x0020e920   0x1a4  Data  Gb  Application_prog.o [1]
NeuronsListLine         0x0020f224     0x1  Data  Gb  ScreenMENU2.o [1]
NeuronsList_Event       0x00011bc9   0x4b8  Code  Gb  ScreenMENU2.o [1]
NeuronsList_Paint       0x00011935   0x294  Code  Gb  ScreenMENU2.o [1]
NeuronsList_Refresh     0x00012081   0x504  Code  Gb  ScreenMENU2.o [1]
NodeInfo_Event          0x00016299    0x6c  Code  Gb  ScreenMENU2.o [1]
NodeInfo_Paint          0x00016215    0x84  Code  Gb  ScreenMENU2.o [1]
NodeInfo_Refresh        0x00016305    0xfc  Code  Gb  ScreenMENU2.o [1]
NodeModelName           0x000300a8    0x8c  Data  Gb  ScreenMENU2.o [1]
NodeStanIO_Event        0x00014cc1   0x198  Code  Gb  ScreenMENU2.o [1]
NodeStanIO_Paint        0x00014c31    0x90  Code  Gb  ScreenMENU2.o [1]
NodeStanIO_Refresh      0x00014e59   0x3fc  Code  Gb  ScreenMENU2.o [1]
NodeTestTrans_Event     0x00014abd    0xa8  Code  Gb  ScreenMENU2.o [1]
NodeTestTrans_Paint     0x00014909   0x1b4  Code  Gb  ScreenMENU2.o [1]
NodeTestTrans_Refresh   0x00014b65    0xcc  Code  Gb  ScreenMENU2.o [1]
NodeWeAnalog_Event      0x00015361    0x88  Code  Gb  ScreenMENU2.o [1]
NodeWeAnalog_Paint      0x00015255   0x10c  Code  Gb  ScreenMENU2.o [1]
NodeWeAnalog_Refresh    0x000153e9   0x160  Code  Gb  ScreenMENU2.o [1]
Node_Event              0x00014749   0x1c0  Code  Gb  ScreenMENU2.o [1]
Node_Paint              0x000145cd   0x17c  Code  Gb  ScreenMENU2.o [1]
NumberScene             0x0020fed6     0x1  Data  Gb  Application_prog.o [1]
Number_Event            0x0001aee9   0x1e8  Code  Gb  Lcd_Negativ_Old.o [1]
Number_Paint            0x0001ae51    0x98  Code  Gb  Lcd_Negativ_Old.o [1]
OpenScreenSet           0x0020f239     0x1  Data  Gb  ScreenMENU2.o [1]
OpisWezl                0x0020f24a     0x1  Data  Gb  ScreenMENU2.o [1]
Options_Event           0x0000dc35   0x118  Code  Gb  ScreenMENU2.o [1]
Options_Paint           0x0000dba5    0x90  Code  Gb  ScreenMENU2.o [1]
PaintProc               0x00004939  0x117c  Code  Gb  ScreenMENU2.o [1]
PioInterrupt            0x00030135    0x48  Code  Gb  Interrupt.o [1]
PortStageRead           0x00021eb9    0x16  Code  Gb  Application_prog.o [1]
PortStageSet            0x00021ed1    0x20  Code  Gb  Application_prog.o [1]
Preambu                 0x00032360     0x4  Data  Gb  RF.o [1]
ProcAnl_iko             0x00031c34    0x10  Data  Gb  ScreenMENU2.o [1]
ProcClock_Action        0x000228b9    0x8c  Code  Gb  Application_prog.o [1]
ProcClock_graf          0x00031750    0x18  Data  Gb  ScreenMENU2.o [1]
ProcConect_Action       0x000226a9     0x6  Code  Gb  Application_prog.o [1]
ProcConstAnal_Action    0x0002209d     0x6  Code  Gb  Application_prog.o [1]
ProcDay_Action          0x00022945    0x28  Code  Gb  Application_prog.o [1]
ProcDay_graf            0x00031768    0x18  Data  Gb  ScreenMENU2.o [1]
ProcDec_Action          0x00022775    0x40  Code  Gb  Application_prog.o [1]
ProcDiv_Action          0x00022629    0x80  Code  Gb  Application_prog.o [1]
ProcDiv_graf            0x00030dc8    0x38  Data  Gb  ScreenMENU2.o [1]
ProcDownRight_Action    0x000226b9     0x6  Code  Gb  Application_prog.o [1]
ProcDown_Action         0x000226b1     0x6  Code  Gb  Application_prog.o [1]
ProcEven_Action         0x000225a9    0x1e  Code  Gb  Application_prog.o [1]
ProcEven_graf           0x00030ce8    0x38  Data  Gb  ScreenMENU2.o [1]
ProcGetAnal_graf        0x00030e38    0x34  Data  Gb  ScreenMENU2.o [1]
ProcGetReg_Action       0x00021fe9    0x74  Code  Gb  Application_prog.o [1]
ProcGlobType_down       0x0020f236     0x1  Data  Gb  ScreenMENU2.o [1]
ProcInc_Action          0x0002272d    0x48  Code  Gb  Application_prog.o [1]
ProcLim_Action          0x00022589    0x1e  Code  Gb  Application_prog.o [1]
ProcLim_graf            0x00030cb0    0x38  Data  Gb  ScreenMENU2.o [1]
ProcLog_iko             0x00031c24    0x10  Data  Gb  ScreenMENU2.o [1]
ProcMinus_Action        0x000225d9     0xe  Code  Gb  Application_prog.o [1]
ProcMinus_graf          0x00030d58    0x38  Data  Gb  ScreenMENU2.o [1]
ProcMul_Action          0x000225e9    0x40  Code  Gb  Application_prog.o [1]
ProcMul_graf            0x00030d90    0x38  Data  Gb  ScreenMENU2.o [1]
ProcNOT_Action          0x000224ed     0xe  Code  Gb  Application_prog.o [1]
ProcNot_graf            0x00031780    0x18  Data  Gb  ScreenMENU2.o [1]
ProcPlus_Action         0x000225c9     0xe  Code  Gb  Application_prog.o [1]
ProcPlus_graf           0x00030d20    0x38  Data  Gb  ScreenMENU2.o [1]
ProcSPK_Action          0x000227b5    0xb0  Code  Gb  Application_prog.o [1]
ProcSPK_graf            0x00031564    0x1c  Data  Gb  ScreenMENU2.o [1]
ProcSetAnal_Action      0x0002205d    0x3a  Code  Gb  Application_prog.o [1]
ProcSetAnal_graf        0x00030e6c    0x34  Data  Gb  ScreenMENU2.o [1]
ProcSetScn_Action       0x000226d1    0x5c  Code  Gb  Application_prog.o [1]
ProcSet_graf            0x000314f4    0x1c  Data  Gb  ScreenMENU2.o [1]
ProcSet_iko             0x00031c14    0x10  Data  Gb  ScreenMENU2.o [1]
ProcStB_Action          0x000220a5    0x22  Code  Gb  Application_prog.o [1]
ProcStI_Action          0x00021ef1    0x6e  Code  Gb  Application_prog.o [1]
ProcStNI_Action         0x00021f61    0x80  Code  Gb  Application_prog.o [1]
ProcStQ_Action          0x000220c9    0x34  Code  Gb  Application_prog.o [1]
ProcStS_Action          0x00022101    0x30  Code  Gb  Application_prog.o [1]
ProcSt_Button           0x000319a0    0x14  Data  Gb  ScreenMENU2.o [1]
ProcSt_graf             0x00031720    0x18  Data  Gb  ScreenMENU2.o [1]
ProcSt_iko              0x00031c04    0x10  Data  Gb  ScreenMENU2.o [1]
ProcSumL_Action         0x00022865     0xa  Code  Gb  Application_prog.o [1]
ProcTLI1_Action         0x00022565    0x24  Code  Gb  Application_prog.o [1]
ProcTLI1_graf           0x00030bc0    0x3c  Data  Gb  ScreenMENU2.o [1]
ProcTime_graf           0x00031738    0x18  Data  Gb  ScreenMENU2.o [1]
ProcTime_iko            0x00031798    0x18  Data  Gb  ScreenMENU2.o [1]
ProcTimerSet_Action     0x00022871    0x48  Code  Gb  Application_prog.o [1]
ProcToggleRS_Action     0x000224fd    0x22  Code  Gb  Application_prog.o [1]
ProcToggleRS_graf       0x00030b48    0x3c  Data  Gb  ScreenMENU2.o [1]
ProcToggleT_Action      0x00022521    0x42  Code  Gb  Application_prog.o [1]
ProcToggleT_graf        0x00030b84    0x3c  Data  Gb  ScreenMENU2.o [1]
ProcUpToRightDown_Action
                        0x000226c9     0x6  Code  Gb  Application_prog.o [1]
ProcUpToRight_Action    0x000226c1     0x6  Code  Gb  Application_prog.o [1]
ProcWOUTC_Action        0x000223bd   0x130  Code  Gb  Application_prog.o [1]
ProcWOUTC_graf          0x00031548    0x1c  Data  Gb  ScreenMENU2.o [1]
ProcWOUTR_Action        0x00022315    0xa8  Code  Gb  Application_prog.o [1]
ProcWOUTR_graf          0x0003152c    0x1c  Data  Gb  ScreenMENU2.o [1]
ProcWOUTS_Action        0x0002226d    0xa8  Code  Gb  Application_prog.o [1]
ProcWOUTS_graf          0x00031510    0x1c  Data  Gb  ScreenMENU2.o [1]
ProcWOUT_Action         0x00022131   0x13c  Code  Gb  Application_prog.o [1]
Procedure_Event         0x00006f49   0xf40  Code  Gb  ScreenMENU2.o [1]
Procedure_Paint         0x00006131   0xe18  Code  Gb  ScreenMENU2.o [1]
ProgStopStartLabel      0x0003138c    0x20  Data  Gb  ScreenMENU2.o [1]
Program                 0x0002296d   0x7c0  Code  Gb  Application_prog.o [1]
ProgramChange           0x0020f226     0x1  Data  Gb  ScreenMENU2.o [1]
ProgramChangeExecute    0x000241fd    0x38  Code  Gb  Application_prog.o [1]
PtogTime                0x0020f118     0x4  Data  Gb  Application_prog.o [1]
Punkt_dostepuWiFi_Event
                        0x00016945   0x16c  Code  Gb  ScreenMENU2.o [1]
Punkt_dostepuWiFi_Paint
                        0x000167c5   0x180  Code  Gb  ScreenMENU2.o [1]
QWERTY                  0x0003085c    0x48  Data  Gb  ScreenMENU2.o [1]
RF_ChOkBlock            0x0020f249     0x1  Data  Gb  ScreenMENU2.o [1]
RF_Channel_Event        0x000116ed   0x248  Code  Gb  ScreenMENU2.o [1]
RF_Channel_Paint        0x0001139d   0x1dc  Code  Gb  ScreenMENU2.o [1]
RF_Channel_Refresh      0x00011579   0x174  Code  Gb  ScreenMENU2.o [1]
RF_Channel_nr_tmp       0x0020f246     0x1  Data  Gb  ScreenMENU2.o [1]
RF_CheckChannel         0x0002bd81    0x38  Code  Gb  RF.o [1]
RF_CurrentTask          0x0020fedb     0x1  Data  Gb  RF_Exe.o [1]
RF_ExecuteOrder         0x000246c9   0xe1c  Code  Gb  RF_Exe.o [1]
RF_Init                 0x0002b6ad    0x94  Code  Gb  RF.o [1]
RF_Int                  0x0002b641    0x64  Code  Gb  RF.o [1]
RF_MasterExecut         0x00025601   0x70c  Code  Gb  RF_Exe.o [1]
RF_NodeTest             0x0020f02c    0x10  Data  Gb  RF_Exe.o [1]
RF_Period               0x0020f134     0x4  Data  Gb  RF_Exe.o [1]
RF_ReciveByte           0x0002bacd    0xf8  Code  Gb  RF.o [1]
RF_ReciveFarm           0x00024385   0x340  Code  Gb  RF_Exe.o [1]
RF_Rx                   0x0020efa4    0x18  Data  Gb  RF.o [1]
RF_SendData             0x000254e5    0x10  Code  Gb  RF_Exe.o [1]
RF_SendFarm             0x0002bbc5   0x148  Code  Gb  RF.o [1]
RF_SpecialTask          0x0020fedc     0x1  Data  Gb  RF_Exe.o [1]
RF_Status               0x0020ef30    0x2c  Data  Gb  RF.o [1]
RF_TaskTab              0x0020e52c   0x230  Data  Gb  RF_Exe.o [1]
RF_Tx                   0x0020efbc    0x18  Data  Gb  RF.o [1]
RF_transmit             0x0002bd0d    0x74  Code  Gb  RF.o [1]
RamToFlash              0x000217e5   0x150  Code  Gb  main.o [1]
ReadADC                 0x00018fd9    0xd8  Code  Gb  Lcd_Negativ_Old.o [1]
ReadTP                  0x00018f19    0xc0  Code  Gb  Lcd_Negativ_Old.o [1]
RealPrcLines            0x0020fed7     0x1  Data  Gb  Application_prog.o [1]
RealRows                0x0020f210     0x1  Data  Gb  Lcd_Negativ_Old.o [1]
Real_Cs_RF              0x0020fee5     0x1  Data  Gb  spi_main.o [1]
ReciveFrameToMe         0x0020f26b     0x1  Data  Gb  main.o [1]
Rectangle               0x0001c835    0x86  Code  Gb  Lcd_Negativ_Old.o [1]
RefreshNeuronsList      0x000232a1    0xa8  Code  Gb  Application_prog.o [1]
Region$$Table$$Base     0x0003134c          Data  Gb  - Linker created -
Region$$Table$$Limit    0x0003136c          Data  Gb  - Linker created -
Rej_poz                 0x0020f14c     0x4  Data  Gb  ScreenMENU2.o [1]
RemRow                  0x00008779   0x178  Code  Gb  ScreenMENU2.o [1]
RemRow_Event            0x00008989    0x78  Code  Gb  ScreenMENU2.o [1]
RemRow_Paint            0x000088f1    0x98  Code  Gb  ScreenMENU2.o [1]
RemoveRfNodeAllTaska    0x000236dd   0x214  Code  Gb  Application_prog.o [1]
RemoveRfTask            0x000238f1   0x1e8  Code  Gb  Application_prog.o [1]
RepaintLCD              0x00018919    0x98  Code  Gb  Lcd_Negativ_Old.o [1]
Restart_Event           0x0000fd8d    0x68  Code  Gb  ScreenMENU2.o [1]
RowsPoz                 0x0020f211     0x1  Data  Gb  Lcd_Negativ_Old.o [1]
SER_Init                0x0002f1a9    0x2c  Code  Gb  serial_driver.o [1]
SER_Read                0x0002f1d5    0x22  Code  Gb  serial_driver.o [1]
SER_RequestHandler      0x0002f139    0x70  Code  Gb  serial_driver.o [1]
SER_Write               0x0002f1f9    0x22  Code  Gb  serial_driver.o [1]
SK                      0x0020f21c     0x1  Data  Gb  RS_WIN.o [1]
SPI_Buff                0x0020ecf4    0xe0  Data  Gb  spi_main.o [1]
SPI_Clock_Execute       0x0002dccd   0x11c  Code  Gb  Clock.o [1]
SPI_RFM12_Execute       0x0002b76d   0x360  Code  Gb  RF.o [1]
SPI_Response_Interpretation
                        0x0002c0f9    0x54  Code  Gb  spi_main.o [1]
SPI_SendB_Buff          0x0002bf01    0xd0  Code  Gb  spi_main.o [1]
SPI_SendWord            0x0002c0cd    0x2c  Code  Gb  spi_main.o [1]
SPI_Send_Executive      0x0002bfd5    0xe4  Code  Gb  spi_main.o [1]
SPK_1                   0x00031148    0x28  Data  Gb  ScreenMENU2.o [1]
STD_ConfigureEndpoints  0x0002d55d    0x3a  Code  Lc  standard.o [1]
STD_GetConfiguration    0x0002d5b1    0x34  Code  Lc  standard.o [1]
STD_GetConfigurationDescriptor
                        0x0002d685    0x3a  Code  Lc  standard.o [1]
STD_GetDeviceDescriptor
                        0x0002d659    0x2a  Code  Lc  standard.o [1]
STD_GetDeviceStatus     0x0002d5e5    0x44  Code  Lc  standard.o [1]
STD_GetEndpointStatus   0x0002d629    0x2e  Code  Lc  standard.o [1]
STD_GetStringDescriptor
                        0x0002d6c1    0x46  Code  Lc  standard.o [1]
STD_RequestHandler      0x0002d709   0x168  Code  Gb  standard.o [1]
STD_SetConfiguration    0x0002d599    0x18  Code  Lc  standard.o [1]
SVC_STACK$$Base         0x00200d00           --   Gb  - Linker created -
SVC_STACK$$Limit        0x00200df0           --   Gb  - Linker created -
SaveChanges_Evant       0x00008a01    0xbc  Code  Gb  ScreenMENU2.o [1]
SceneNrCount            0x0002312d    0x68  Code  Gb  Application_prog.o [1]
SceneNrLast             0x0020f20e     0x1  Data  Gb  Application_prog.o [1]
ScreenAlarmSet_Event    0x0000a135   0x2bc  Code  Gb  ScreenMENU2.o [1]
ScreenAlarmSet_Paint    0x00009d1d   0x418  Code  Gb  ScreenMENU2.o [1]
ScreenBrightness_Event  0x00010ac9   0x258  Code  Gb  ScreenMENU2.o [1]
ScreenBrightness_Paint  0x00010815   0x2b4  Code  Gb  ScreenMENU2.o [1]
ScreenDesign1_Event     0x0000b115   0x4c0  Code  Gb  ScreenMENU2.o [1]
ScreenDesign1_Paint     0x0000acb9   0x45c  Code  Gb  ScreenMENU2.o [1]
ScreenEvent             0x00000865   0x65c  Code  Gb  ScreenMENU2.o [1]
ScreenGraph             0x0000a819   0x4a0  Code  Gb  ScreenMENU2.o [1]
ScreenSetTab_0          0x0002cde8   0x3c8  Data  Gb  ScreenMENU2.o [1]
ScreenSetTab_1          0x0002d870   0x2c0  Data  Gb  ScreenMENU2.o [1]
ScreenSet_Event         0x00008ded   0x1e8  Code  Gb  ScreenMENU2.o [1]
ScreenSet_Paint         0x00008abd   0x330  Code  Gb  ScreenMENU2.o [1]
ScreenSetup_Event       0x0000f86d    0x74  Code  Gb  ScreenMENU2.o [1]
ScreenSetup_Paint       0x0000f7e1    0x8c  Code  Gb  ScreenMENU2.o [1]
ScreenSever_Event       0x00010f5d   0x1ec  Code  Gb  ScreenMENU2.o [1]
ScreenSever_Paint       0x00010d21   0x23c  Code  Gb  ScreenMENU2.o [1]
ScreenTimetableSet_Event
                        0x00009a5d   0x2c0  Code  Gb  ScreenMENU2.o [1]
ScreenTimetableSet_Paint
                        0x00009725   0x338  Code  Gb  ScreenMENU2.o [1]
ScreenUse               0x0020f1fc     0x2  Data  Gb  Application_prog.o [1]
SendViaUSB              0x0001fa31    0x20  Code  Gb  main.o [1]
SetRTC_DateTime         0x0002db75   0x158  Code  Gb  Clock.o [1]
SetSpecialBinarVar      0x0001e3f5   0x1d8  Code  Gb  WizFiCommand.o [1]
SetTask                 0x00023e1d   0x3e0  Code  Gb  Application_prog.o [1]
SetTouchScreen_Event    0x0000fafd   0x290  Code  Gb  ScreenMENU2.o [1]
SetTouchScreen_Paint    0x0000f8e1   0x21c  Code  Gb  ScreenMENU2.o [1]
SetTouchStep            0x0020f247     0x1  Data  Gb  ScreenMENU2.o [1]
Set_LCD_Light_PWM_Fill  0x000301c1    0x24  Code  Gb  LCD_light_PWM.o [1]
SetupLang_Event         0x0000efe5    0x98  Code  Gb  ScreenMENU2.o [1]
SetupLang_Paint         0x0000ef4d    0x98  Code  Gb  ScreenMENU2.o [1]
SetupNewPass_Event      0x0000f5d5   0x20c  Code  Gb  ScreenMENU2.o [1]
SetupNewPass_Paint      0x0000f53d    0x98  Code  Gb  ScreenMENU2.o [1]
SetupOldPass_Event      0x0000f32d   0x210  Code  Gb  ScreenMENU2.o [1]
SetupOldPass_Paint      0x0000f295    0x98  Code  Gb  ScreenMENU2.o [1]
SetupPass_Event         0x0000f165   0x130  Code  Gb  ScreenMENU2.o [1]
SetupPass_Paint         0x0000f07d    0xe8  Code  Gb  ScreenMENU2.o [1]
SetupTimeCarPoz         0x0020fede     0x1  Data  Gb  ScreenMENU2.o [1]
SetupTime_Event         0x00010399   0x47c  Code  Gb  ScreenMENU2.o [1]
SetupTime_Paint         0x0000fdf5   0x33c  Code  Gb  ScreenMENU2.o [1]
SetupTime_Refresh       0x00010131   0x1ac  Code  Gb  ScreenMENU2.o [1]
Setup_Event             0x0000ecf1   0x25c  Code  Gb  ScreenMENU2.o [1]
Setup_Paint             0x0000eb41   0x1b0  Code  Gb  ScreenMENU2.o [1]
SheetHistory            0x0020efd4    0x14  Data  Gb  ScreenMENU2.o [1]
SheetHistoryIndex       0x0020f225     0x1  Data  Gb  ScreenMENU2.o [1]
ShortDate               0x000317c8    0x18  Data  Gb  ScreenMENU2.o [1]
Siec                    0x0002fbc0    0xa8  Data  Gb  ScreenMENU2.o [1]
SlaveMode               0x0020f26a     0x1  Data  Gb  main.o [1]
SleepModTime            0x0020f248     0x1  Data  Gb  ScreenMENU2.o [1]
SourRam                 0x0020f1c4     0x4  Data  Gb  main.o [1]
Speaker                 0x0020f1bc     0x4  Data  Gb  main.o [1]
Speech                  0x00025d0c  0x14fc  Data  Gb  language.o [1]
SpiMaster_Init          0x0002be31    0xcc  Code  Gb  spi_main.o [1]
StartAdvance            0x0020f22d     0x1  Data  Gb  ScreenMENU2.o [1]
StartAnimation_Event    0x000013a9    0x3c  Code  Gb  ScreenMENU2.o [1]
StartAnimation_Paint    0x000011d9   0x1d0  Code  Gb  ScreenMENU2.o [1]
StrToWord               0x0001e151    0x78  Code  Gb  WizFiCommand.o [1]
StrzalkaLewo            0x00031f1c     0xc  Data  Gb  ScreenMENU2.o [1]
StrzalkaPrawo           0x00031f10     0xc  Data  Gb  ScreenMENU2.o [1]
SwitchToMaster          0x00024235    0x94  Code  Gb  RF_Exe.o [1]
SwitchToSlave           0x000242c9    0x88  Code  Gb  RF_Exe.o [1]
SynKay                  0x00032364     0x4  Data  Gb  RF.o [1]
TS_pPio                 0x0020fea4     0x4  Data  Gb  Lcd_Negativ_Old.o [1]
TaskToChange            0x0020f174     0x4  Data  Gb  ScreenMENU2.o [1]
Termostat_Event         0x00002f01   0x3ec  Code  Gb  ScreenMENU2.o [1]
Termostat_Paint         0x00002c61   0x24c  Code  Gb  ScreenMENU2.o [1]
Termostat_Refresh       0x000032ed   0x294  Code  Gb  ScreenMENU2.o [1]
TestAmount              0x0020fecc     0x2  Data  Gb  ScreenMENU2.o [1]
TestStartTime           0x0020f19c     0x4  Data  Gb  ScreenMENU2.o [1]
TestStep                0x0020f206     0x2  Data  Gb  ScreenMENU2.o [1]
Tester_MG1_Event        0x000156d5   0x100  Code  Gb  ScreenMENU2.o [1]
Tester_MG1_Paint        0x00015549   0x18c  Code  Gb  ScreenMENU2.o [1]
Tester_MG1_Refresh      0x000157d5   0xa40  Code  Gb  ScreenMENU2.o [1]
TextChangeCharNr        0x0020f23f     0x1  Data  Gb  ScreenMENU2.o [1]
TextChangePoz           0x0020f240     0x1  Data  Gb  ScreenMENU2.o [1]
TextChange_Evant        0x0000ce35   0x614  Code  Gb  ScreenMENU2.o [1]
TextChange_Paint        0x0000cb91   0x1f0  Code  Gb  ScreenMENU2.o [1]
TextChange_Refresh      0x0000cd81    0xb4  Code  Gb  ScreenMENU2.o [1]
TextToChange            0x0020f150     0x4  Data  Gb  ScreenMENU2.o [1]
TextToChangeLength      0x0020f21e     0x1  Data  Gb  ScreenMENU2.o [1]
TextToChangeMaxPixSize  0x0020f21f     0x1  Data  Gb  ScreenMENU2.o [1]
ThermHourModyfi         0x0020f24c     0x1  Data  Gb  ScreenMENU2.o [1]
ThermostatAutoSet_Event
                        0x00013191   0x350  Code  Gb  ScreenMENU2.o [1]
ThermostatAutoSet_Paint
                        0x00012c5d   0x534  Code  Gb  ScreenMENU2.o [1]
ThermostatChartSet_Event
                        0x00013775   0x280  Code  Gb  ScreenMENU2.o [1]
ThermostatChartSet_Paint
                        0x000134e1   0x294  Code  Gb  ScreenMENU2.o [1]
ThermostatChartSet_Refresh
                        0x000139f5    0xc4  Code  Gb  ScreenMENU2.o [1]
ThermostatSet_Event     0x0000942d   0x2f8  Code  Gb  ScreenMENU2.o [1]
ThermostatSet_Paint     0x00008fd5   0x458  Code  Gb  ScreenMENU2.o [1]
ThermostatsExecute      0x000202e5   0x2c0  Code  Gb  main.o [1]
ThermostatsTimeChartExecute
                        0x0002018d   0x158  Code  Gb  main.o [1]
TimeToStr               0x0001998d    0xb0  Code  Gb  Lcd_Negativ_Old.o [1]
Timer_10ms              0x000211fd   0x19c  Code  Gb  main.o [1]
Timer_10ms_Setup        0x00021399    0x8c  Code  Gb  main.o [1]
Timer_1h                0x00020881     0xc  Code  Gb  main.o [1]
Timer_1min              0x0002088d    0x10  Code  Gb  main.o [1]
Timer_1ms               0x00021425   0x330  Code  Gb  main.o [1]
Timer_1ms_Setup         0x00021755    0x90  Code  Gb  main.o [1]
Timer_1s                0x0002089d   0x960  Code  Gb  main.o [1]
TimetableExecute        0x0001fd35   0x458  Code  Gb  main.o [1]
TimetableSet_Event      0x00003fbd   0x2a8  Code  Gb  ScreenMENU2.o [1]
TimetableSet_Hour       0x0020f22f     0x1  Data  Gb  ScreenMENU2.o [1]
TimetableSet_Minute     0x0020f230     0x1  Data  Gb  ScreenMENU2.o [1]
TimetableSet_Paint      0x00003d19   0x2a4  Code  Gb  ScreenMENU2.o [1]
TimetableSet_Week       0x0020f231     0x1  Data  Gb  ScreenMENU2.o [1]
Timetable_Event         0x00003875   0x4a4  Code  Gb  ScreenMENU2.o [1]
Timetable_Paint         0x00003581   0x2f4  Code  Gb  ScreenMENU2.o [1]
TmpFlg                  0x0020f227     0x1  Data  Gb  ScreenMENU2.o [1]
TouchTestSor            0x0003222c     0x8  Data  Gb  ScreenMENU2.o [1]
Touch_EventTime         0x0020f0a8     0x8  Data  Gb  ScreenMENU2.o [1]
TransLoopTime           0x0020f1d4     0x4  Data  Gb  main.o [1]
TransQuality            0x0020edd4    0xd8  Data  Gb  Application_prog.o [1]
TransferInfo            0x0020f255     0x1  Data  Gb  ScreenMENU2.o [1]
Trap                    0x0020f0d8     0x8  Data  Gb  Application_prog.o [1]
TxtSpaceAvable          0x0020f17c     0x4  Data  Gb  ScreenMENU2.o [1]
UDP_Attach              0x0002a179    0xfc  Code  Gb  udp.o [1]
UDP_ClearRXFlag         0x0002969d    0x72  Code  Lc  udp.o [1]
UDP_ConfigureEndpoint   0x00029bf9   0x11c  Code  Gb  udp.o [1]
UDP_Connect             0x0002a321    0x10  Code  Gb  udp.o [1]
UDP_DisableEndpoints    0x00029849    0x34  Code  Lc  udp.o [1]
UDP_DisableMCK          0x0003191d    0x18  Code  Wk  udp.o [1]
UDP_DisableTransceiver  0x000312e1    0x24  Code  Wk  udp.o [1]
UDP_DisableUDPCK        0x00031645    0x1c  Code  Wk  udp.o [1]
UDP_Disconnect          0x0002a331    0x20  Code  Gb  udp.o [1]
UDP_EnableMCK           0x00031905    0x18  Code  Wk  udp.o [1]
UDP_EnableTransceiver   0x00031935    0x18  Code  Wk  udp.o [1]
UDP_EnableUDPCK         0x00031629    0x1c  Code  Wk  udp.o [1]
UDP_EndOfTransfer       0x00030f3d    0x34  Code  Wk  udp.o [1]
UDP_EndpointHandler     0x0002987d   0x37c  Code  Lc  udp.o [1]
UDP_GetDriverInterface  0x00032355     0x6  Code  Wk  udp.o [1]
UDP_GetPayload          0x00029769    0x6a  Code  Lc  udp.o [1]
UDP_GetSetup            0x000297d5    0x2a  Code  Lc  udp.o [1]
UDP_Halt                0x00029fd9    0xfe  Code  Gb  udp.o [1]
UDP_Handler             0x00029d15   0x1a8  Code  Gb  udp.o [1]
UDP_Init                0x0002a351    0x6c  Code  Gb  udp.o [1]
UDP_Read                0x00029f85    0x54  Code  Gb  udp.o [1]
UDP_RemoteWakeUp        0x0002a141    0x36  Code  Gb  udp.o [1]
UDP_ResetEndpoints      0x00029801    0x48  Code  Lc  udp.o [1]
UDP_SetAddress          0x0002a275    0x58  Code  Gb  udp.o [1]
UDP_SetConfiguration    0x0002a2cd    0x52  Code  Gb  udp.o [1]
UDP_Stall               0x0002a0d9    0x66  Code  Gb  udp.o [1]
UDP_Write               0x00029ebd    0xc8  Code  Gb  udp.o [1]
UDP_WritePayload        0x00029711    0x56  Code  Lc  udp.o [1]
UND_STACK$$Base         0x00200f20           --   Gb  - Linker created -
UND_STACK$$Limit        0x00200f60           --   Gb  - Linker created -
US1_Buffer              0x0020e2e8   0x244  Data  Gb  USART.o [1]
US1_init                0x0002efbd    0xc4  Code  Gb  USART.o [1]
USB_Attach              0x00031a69    0x12  Code  Wk  main.o [1]
USB_ConfigureEndpoint   0x00031ae1    0x12  Code  Wk  standard.o [1]
USB_Connect             0x00031a7d    0x12  Code  Wk  main.o [1]
USB_Disconnect          0x00031a91    0x12  Code  Wk  main.o [1]
USB_GetDriverID         0x00032345     0x6  Code  Wk  main.o [1]
USB_GetDriverInterface  0x0003233d     0x6  Code  Wk  main.o [1]
USB_GetDriverPMC        0x0003234d     0x6  Code  Wk  udp.o [1]
USB_GetEndpoint         0x00031329    0x22  Code  Wk  udp.o [1]
USB_GetSetup            0x000323b1     0x4  Code  Wk  serial_driver.o [1]
USB_GetState            0x00032031     0xa  Code  Wk  main.o [1]
USB_Halt                0x000316ed    0x1a  Code  Wk  standard.o [1]
USB_Handler             0x00031a55    0x12  Code  Wk  main.o [1]
USB_Init                0x00031aa5    0x12  Code  Wk  serial_driver.o [1]
USB_InitCallback        0x00029615    0x18  Code  Lc  udp.o [1]
USB_NewRequestCallback  0x00029675    0x18  Code  Lc  udp.o [1]
USB_Read                0x000311c5    0x28  Code  Wk  serial_driver.o [1]
USB_ResetCallback       0x0002962d    0x18  Code  Lc  udp.o [1]
USB_ResumeCallback      0x0002965d    0x18  Code  Lc  udp.o [1]
USB_SendZLP0            0x000313f5    0x1e  Code  Wk  serial_driver.o [1]
USB_SetAddress          0x00031ab9    0x12  Code  Wk  standard.o [1]
USB_SetConfiguration    0x00031acd    0x12  Code  Wk  standard.o [1]
USB_Stall               0x0003194d    0x16  Code  Wk  standard.o [1]
USB_StartOfFrameCallback
                        0x0002968d    0x10  Code  Lc  udp.o [1]
USB_SuspendCallback     0x00029645    0x18  Code  Lc  udp.o [1]
USB_Write               0x0003119d    0x28  Code  Wk  serial_driver.o [1]
Up                      0x0020f128     0x4  Data  Gb  Lcd_Negativ_Old.o [1]
Usart1_handler          0x0002f08d    0x5c  Code  Gb  USART.o [1]
UstawSiec_Event         0x00016745    0x80  Code  Gb  ScreenMENU2.o [1]
UstawSiec_Paint         0x000166d9    0x6c  Code  Gb  ScreenMENU2.o [1]
VBUS_old                0x0020f20f     0x1  Data  Gb  Interrupt.o [1]
VCTT_ill                0x0020f237     0x1  Data  Gb  ScreenMENU2.o [1]
VCTT_point_flag         0x0020f238     0x1  Data  Gb  ScreenMENU2.o [1]
V_line                  0x0001c0c1   0x184  Code  Gb  Lcd_Negativ_Old.o [1]
ValNTT                  0x0020f202     0x2  Data  Gb  ScreenMENU2.o [1]
ValueChange             0x0020f160     0x4  Data  Gb  ScreenMENU2.o [1]
ValueChangeTxtTmp       0x0020f0e8     0x8  Data  Gb  ScreenMENU2.o [1]
ValueChange_Evant       0x00008035   0x42c  Code  Gb  ScreenMENU2.o [1]
ValueChange_Paint       0x00007e89   0x1ac  Code  Gb  ScreenMENU2.o [1]
Variables               0x0020effc    0x10  Data  Gb  Application_prog.o [1]
VariablesAnal           0x0020ef5c    0x28  Data  Gb  Application_prog.o [1]
VariablesImpulse        0x0020f00c    0x10  Data  Gb  Application_prog.o [1]
WaitOnCheckNode         0x0020f0b0     0x8  Data  Gb  ScreenMENU2.o [1]
Wait_Paint              0x00004265    0x38  Code  Gb  ScreenMENU2.o [1]
WiFi                    0x0002a685   0x15c  Code  Gb  WizFi.o [1]
WiFiConecting_Paint     0x00016ab1    0x5c  Code  Gb  ScreenMENU2.o [1]
WiFiConecting_Refresh   0x00016b0d   0x280  Code  Gb  ScreenMENU2.o [1]
WiFiDebug               0x0020f25a     0x1  Data  Gb  WizFi.o [1]
WiFiReConnect           0x0020f254     0x1  Data  Gb  ScreenMENU2.o [1]
WizFiCommand_AT         0x0001cc61    0xaa  Code  Gb  WizFiCommand.o [1]
WizFiCommand_ATI2       0x0001ce55    0x68  Code  Gb  WizFiCommand.o [1]
WizFiCommand_AT_DNSLOOKUP
                        0x0001db85   0x128  Code  Gb  WizFiCommand.o [1]
WizFiCommand_AT_NCTCP   0x0001dd69   0x198  Code  Gb  WizFiCommand.o [1]
WizFiCommand_AT_NDHCP   0x0001d18d    0xa8  Code  Gb  WizFiCommand.o [1]
WizFiCommand_AT_NSET    0x0001d2b1   0x16c  Code  Gb  WizFiCommand.o [1]
WizFiCommand_AT_VER     0x0001cd7d    0x68  Code  Gb  WizFiCommand.o [1]
WizFiCommand_AT_WA      0x0001d939    0xf4  Code  Gb  WizFiCommand.o [1]
WizFiCommand_AT_WAUTH_1
                        0x0001d499    0x74  Code  Gb  WizFiCommand.o [1]
WizFiCommand_AT_WD      0x0001d09d    0x74  Code  Gb  WizFiCommand.o [1]
WizFiCommand_AT_WWEP1   0x0001d5f1   0x154  Code  Gb  WizFiCommand.o [1]
WizFiCommand_AT_WWPA    0x0001d7c1    0xfc  Code  Gb  WizFiCommand.o [1]
WizFiCommand_AT_XDUM0   0x0001cf39    0x6c  Code  Gb  WizFiCommand.o [1]
WizFiResponseCommand_AT
                        0x0001cd0d    0x70  Code  Gb  WizFiCommand.o [1]
WizFiResponseCommand_ATI2
                        0x0001cebd    0x70  Code  Gb  WizFiCommand.o [1]
WizFiResponseCommand_AT_DNSLOOKUP
                        0x0001dcad    0xbc  Code  Gb  WizFiCommand.o [1]
WizFiResponseCommand_AT_NCLOSEALL0
                        0x0001d029    0x74  Code  Gb  WizFiCommand.o [1]
WizFiResponseCommand_AT_NCTCP
                        0x0001df01   0x250  Code  Gb  WizFiCommand.o [1]
WizFiResponseCommand_AT_NDHCP
                        0x0001d235    0x7c  Code  Gb  WizFiCommand.o [1]
WizFiResponseCommand_AT_NSET
                        0x0001d41d    0x7c  Code  Gb  WizFiCommand.o [1]
WizFiResponseCommand_AT_VER
                        0x0001cde5    0x70  Code  Gb  WizFiCommand.o [1]
WizFiResponseCommand_AT_WA
                        0x0001da2d    0x80  Code  Gb  WizFiCommand.o [1]
WizFiResponseCommand_AT_WAUTH_1
                        0x0001d50d    0x7c  Code  Gb  WizFiCommand.o [1]
WizFiResponseCommand_AT_WD
                        0x0001d111    0x7c  Code  Gb  WizFiCommand.o [1]
WizFiResponseCommand_AT_WWEP1
                        0x0001d745    0x7c  Code  Gb  WizFiCommand.o [1]
WizFiResponseCommand_AT_WWPA
                        0x0001d8bd    0x7c  Code  Gb  WizFiCommand.o [1]
WizFiResponseCommand_AT_XDUM0
                        0x0001cfad    0x7c  Code  Gb  WizFiCommand.o [1]
WizFiResponseInterpreter
                        0x0002a7e1   0x188  Code  Gb  WizFi.o [1]
WybProc                 0x00006099    0x96  Code  Gb  ScreenMENU2.o [1]
WypMaxJasnosci          0x0020f267     0x1  Data  Gb  main.o [1]
WypMinJasnosci          0x0020f268     0x1  Data  Gb  main.o [1]
X_down                  0x0020fed0     0x2  Data  Gb  main.o [1]
X_up                    0x0020fed4     0x2  Data  Gb  main.o [1]
Xo1                     0x0020f180     0x4  Data  Gb  ScreenMENU2.o [1]
Xo2                     0x0020f184     0x4  Data  Gb  ScreenMENU2.o [1]
Y_down                  0x0020fece     0x2  Data  Gb  main.o [1]
Y_up                    0x0020fed2     0x2  Data  Gb  main.o [1]
Yo1                     0x0020f188     0x4  Data  Gb  ScreenMENU2.o [1]
Yo2                     0x0020f18c     0x4  Data  Gb  ScreenMENU2.o [1]
ZD_MODBUS_0             0x0020ebf0   0x104  Data  Gb  Modbus.o [1]
ZM_OFFSET               0x0020f257     0x1  Data  Gb  ScreenMENU2.o [1]
ZmienneAnalogowe_Event  0x00018751    0xe0  Code  Gb  ScreenMENU2.o [1]
ZmienneAnalogowe_Paint  0x000186b9    0x98  Code  Gb  ScreenMENU2.o [1]
ZmienneAnalogowe_Repaint
                        0x00018831    0xd8  Code  Gb  ScreenMENU2.o [1]
ZmienneDwustanowe_Event
                        0x000184dd    0xe0  Code  Gb  ScreenMENU2.o [1]
ZmienneDwustanowe_Paint
                        0x00018445    0x98  Code  Gb  ScreenMENU2.o [1]
ZmienneDwustanowe_Repaint
                        0x000185bd    0xfc  Code  Gb  ScreenMENU2.o [1]
Zmienne_Event           0x000183b1    0x94  Code  Gb  ScreenMENU2.o [1]
Zmienne_Paint           0x00018345    0x6c  Code  Gb  ScreenMENU2.o [1]
Zone                    0x0001c5ed   0x248  Code  Gb  Lcd_Negativ_Old.o [1]
ZoneButon               0x0000a3f1   0x116  Code  Gb  ScreenMENU2.o [1]
ZoneButtonClick         0x0020f23b     0x1  Data  Gb  ScreenMENU2.o [1]
ZoneGrapfNrClick        0x0020f23c     0x1  Data  Gb  ScreenMENU2.o [1]
ZoneGraph               0x0000a509   0x310  Code  Gb  ScreenMENU2.o [1]
ZoneGraph_Event         0x0000c4fd   0x694  Code  Gb  ScreenMENU2.o [1]
ZoneGraph_Paint         0x0000bd5d   0x7a0  Code  Gb  ScreenMENU2.o [1]
ZoneLabelClick          0x0020f23e     0x1  Data  Gb  ScreenMENU2.o [1]
ZoneValueNrClick        0x0020f23d     0x1  Data  Gb  ScreenMENU2.o [1]
_GenldDefault           0x00029315   0x2c0  Code  Lc  xprintffull.o [2]
_LdtobDefault           0x00028e61   0x4b4  Code  Lc  xprintffull.o [2]
_LitobDefault           0x00028d4d   0x114  Code  Lc  xprintffull.o [2]
_Printf                 0x00028669   0x6e2  Code  Gb  xprintffull.o [2]
_PutcharsDefault        0x000295d5    0x40  Code  Lc  xprintffull.o [2]
_RF_EnableRX            0x0002b5ad    0x4c  Code  Gb  RF.o [1]
_RF_EnableTX            0x0002b565    0x40  Code  Gb  RF.o [1]
_SProut                 0x00031fdd     0xc  Code  Gb  xsprout.o [2]
__FloatingPointEnvironment
                        0x0020f271     0x1  Data  Gb  fenv.o [3]
__aeabi_cdcmple         0x00030a84          Code  Gb  DblCmpLe.o [3]
__aeabi_cdrcmple        0x00030ac8          Code  Gb  DblCmpGe.o [3]
__aeabi_cfcmpeq         0x00031238          Code  Gb  FltCmpEq.o [3]
__aeabi_cfcmple         0x00031008          Code  Gb  FltCmpLe.o [3]
__aeabi_cfrcmple        0x0003103c          Code  Gb  FltCmpGe.o [3]
__aeabi_d2f             0x0002f994          Code  Gb  DblToFlt.o [3]
__aeabi_d2iz            0x0002fdb8          Code  Gb  DblToI32.o [3]
__aeabi_d2uiz           0x0002fe18          Code  Gb  DblToI32.o [3]
__aeabi_dadd            0x0002ebb4          Code  Gb  DblAdd.o [3]
__aeabi_ddiv            0x0002d1b4          Code  Gb  DblDiv.o [3]
__aeabi_dmul            0x0002ddec          Code  Gb  DblMul.o [3]
__aeabi_dsub            0x0002e0a0          Code  Gb  DblSub.o [3]
__aeabi_f2d             0x000304ac          Code  Gb  FltToDbl.o [3]
__aeabi_f2iz            0x000305d4          Code  Gb  FltToS32.o [3]
__aeabi_f2lz            0x0002fc6c          Code  Gb  FltToS64.o [3]
__aeabi_fadd            0x0002f658          Code  Gb  FltAdd.o [3]
__aeabi_fdiv            0x0002e2c4          Code  Gb  FltDiv.o [3]
__aeabi_fdiv0           0x000318b8          Code  Gb  FltFlgDivZer.o [3]
__aeabi_fmul            0x0002e6b4          Code  Gb  FltMul.o [3]
__aeabi_fsub            0x0002ed20          Code  Gb  FltSub.o [3]
__aeabi_i2d             0x000303c4          Code  Gb  I32ToDbl.o [3]
__aeabi_i2f             0x00030348          Code  Gb  I32ToFlt.o [3]
__aeabi_idiv            0x0002e4dc          Code  Gb  I32DivMod.o [3]
__aeabi_idiv0           0x00032388          Code  Gb  IntDivZer.o [3]
__aeabi_idivmod         0x0002e4dc          Code  Gb  I32DivMod.o [3]
__aeabi_l2f             0x0003043c          Code  Gb  I64ToFlt.o [3]
__aeabi_ldivmod         0x0002f258          Code  Gb  I64DivMod.o [3]
__aeabi_memclr4         0x000322b0          Code  Gb  memclr4.o [3]
__aeabi_memcpy          0x0002f80c          Code  Gb  memcpy.o [3]
__aeabi_memcpy4         0x0002f80c          Code  Gb  memcpy.o [3]
__aeabi_memcpy8         0x0002f80c          Code  Gb  memcpy.o [3]
__aeabi_memset4         0x000308a4          Code  Gb  memset48.o [3]
__aeabi_memset8         0x000308a4          Code  Gb  memset48.o [3]
__aeabi_ui2d            0x00030420          Code  Gb  I32ToDbl.o [3]
__aeabi_ui2f            0x000303b0          Code  Gb  I32ToFlt.o [3]
__aeabi_uidiv           0x0002e4ec          Code  Gb  I32DivMod.o [3]
__aeabi_uidivmod        0x0002e4ec          Code  Gb  I32DivMod.o [3]
__aeabi_uldivmod        0x0002f270          Code  Gb  I64DivMod.o [3]
__aeabi_uread4          0x000313b0          Code  Gb  uread4.o [3]
__aeabi_uread8          0x00030c00          Code  Gb  uread8.o [3]
__aeabi_uwrite4         0x00031174          Code  Gb  uwrite4.o [3]
__aeabi_uwrite8         0x00030978          Code  Gb  uwrite8.o [3]
__exit                  0x000315f0    0x1c  Code  Gb  exit.o [4]
__iar_Dnorm             0x0002fb09    0xb8  Code  Gb  xdnorm.o [2]
__iar_Dscale            0x0002f341   0x114  Code  Gb  xdscale.o [2]
__iar_Memchr            0x0002fe58          Code  Gb  memchr.o [3]
__iar_Memset4_word      0x000308b0          Code  Gb  memset48.o [3]
__iar_Memset8_word      0x000308b0          Code  Gb  memset48.o [3]
__iar_Strchr            0x000313d4          Code  Gb  strchr.o [3]
__iar_Strstr            0x00030f71    0x32  Code  Wk  strstr.o [2]
__iar_SubNrmlX          0x00030514          Code  Gb  DblSubNrml.o [3]
__iar_SubNrmlY          0x00030544          Code  Gb  DblSubNrml.o [3]
__iar_call_main         0x000319f1    0x14  Code  Gb  call_main.o [2]
__iar_dadd              0x0002ebc4          Code  Gb  DblAdd.o [3]
__iar_data_init         0x00030a40    0x40  Code  Gb  data_init.o [3]
__iar_disable_interrupt
                        0x00031ccc          Code  Wk  RF_Exe.o [1]
__iar_dsub              0x0002e0b0          Code  Gb  DblSub.o [3]
__iar_enable_interrupt  0x00031ce0          Code  Wk  RF_Exe.o [1]
__iar_fadd              0x0002f664          Code  Gb  FltAdd.o [3]
__iar_finexact          0x00031870          Code  Gb  FltFlgInx.o [3]
__iar_finvalid          0x0003129c          Code  Gb  FltFlgInv.o [3]
__iar_finvalidClr       0x00031298          Code  Gb  FltFlgInv.o [3]
__iar_foverflow         0x00031888          Code  Gb  FltFlgOvf.o [3]
__iar_fsub              0x0002ed2c          Code  Gb  FltSub.o [3]
__iar_fsubStart         0x0002ed3c          Code  Gb  FltSub.o [3]
__iar_funderflow        0x000318a0          Code  Gb  FltFlgUnf.o [3]
__iar_get_interrupt_state
                        0x000322c4          Code  Wk  RF_Exe.o [1]
__iar_i2d               0x000303e0          Code  Gb  I32ToDbl.o [3]
__iar_i2f               0x0003035c          Code  Gb  I32ToFlt.o [3]
__iar_l2f               0x0003045c          Code  Gb  I64ToFlt.o [3]
__iar_program_start     0x0002f734          Code  Gb  startup.o [1]
__iar_return_from_swi   0x0003238c          Code  Gb  swi_return.o [4]
__iar_rle_init          0x00030b08    0x40  Code  Gb  rle_init.o [3]
__iar_set_interrupt_state
                        0x000318d4          Code  Wk  RF_Exe.o [1]
__iar_via_R0            0x000323b5          Code  Wk  RF.o [1]
__iar_via_R1            0x000323b9          Code  Wk  main.o [1]
__iar_via_R2            0x000323c1          Code  Wk  standard.o [1]
__iar_via_R3            0x000323c5          Code  Wk  standard.o [1]
__iar_via_R4            0x000323bd          Code  Wk  serial_driver.o [1]
__iar_zero_init         0x00031660    0x1c  Code  Gb  zero_init.o [3]
__low_level_init        0x0002fef1    0x38  Code  Gb  device.o [1]
__vector                0x00000000          Code  Gb  startup.o [1]
_exit                   0x00031cb8          Code  Gb  cexit.o [3]
_pRF_Status             0x0002b5fd    0x18  Code  Gb  RF.o [1]
abs                     0x000322b9     0x8  Code  Wk  abs.o [2]
at91ChipSelect          0x00018ecd    0x4c  Code  Gb  Lcd_Negativ_Old.o [1]
at91DisplayData         0x0002ee81   0x13c  Code  Wk  Lcd_Negativ_Old.o [1]
at91DisplayOnOff        0x00018c91    0x64  Code  Gb  Lcd_Negativ_Old.o [1]
at91DisplayStartLine    0x00018cf5    0x50  Code  Gb  Lcd_Negativ_Old.o [1]
at91DisplayStartPage    0x00018d45    0x7c  Code  Gb  Lcd_Negativ_Old.o [1]
at91DisplayYAdress      0x00018dc1   0x10c  Code  Gb  Lcd_Negativ_Old.o [1]
at91flashWrite          0x0020fa75    0xcc  Code  Gb  flash.o [1]
bCRC_Hi                 0x0002f454   0x100  Data  Gb  Modbus.o [1]
bCRC_Lo                 0x0002f554   0x100  Data  Gb  Modbus.o [1]
chipSelect              0x0020fed8     0x1  Data  Gb  Lcd_Negativ_Old.o [1]
crc16                   0x000309bd    0x44  Code  Gb  Modbus.o [1]
dState                  0x0020f1c0     0x4  Data  Lc  main.o [1]
div                     0x000312bd    0x24  Code  Gb  div.o [2]
dzienTygodnia           0x00010319    0x80  Code  Gb  ScreenMENU2.o [1]
ekran_komunikacja       0x0020f674   0x400  Data  Gb  ScreenMENU2.o [1]
exit                    0x00031fe9     0xc  Code  Gb  exit.o [2]
gProg                   0x00200fa0  0xc670  Data  Gb  Application_prog.o [1]
gWypMinJasnosciTest     0x0020f269     0x1  Data  Gb  main.o [1]
g_LightCouterLCD        0x0020f1b8     0x4  Data  Gb  main.o [1]
g_LightLCDEnable        0x0020f25e     0x1  Data  Gb  main.o [1]
g_Message               0x0020f1ac     0x4  Data  Gb  main.o [1]
g_NeedPass              0x0020f264     0x1  Data  Gb  main.o [1]
g_NextTimeProgram       0x0020f0c8     0x8  Data  Gb  main.o [1]
g_PC_Connected          0x0020f25d     0x1  Data  Gb  main.o [1]
g_Password_1            0x0020fe88     0x8  Data  Gb  main.o [1]
g_Password_2            0x0020fe90     0x8  Data  Gb  main.o [1]
g_RF_TimeOutCounter     0x0020f218     0x1  Data  Gb  RF_Exe.o [1]
g_Restart_Program       0x0020fee1     0x1  Data  Gb  main.o [1]
g_ScreenSever_On        0x0020f25f     0x1  Data  Gb  main.o [1]
g_ScreenSever_Time_Off  0x0020f261     0x1  Data  Gb  main.o [1]
g_ScreenSever_Time_On   0x0020f260     0x1  Data  Gb  main.o [1]
g_SlaveConnect          0x0020f262     0x1  Data  Gb  main.o [1]
g_Stop_Program          0x0020f263     0x1  Data  Gb  main.o [1]
g_US0_Connect_OK        0x0020f258     0x1  Data  Gb  USART.o [1]
g_US1_BAUDRATE          0x0020fea8     0x4  Data  Gb  USART.o [1]
g_US1_Connect_OK        0x0020f259     0x1  Data  Gb  USART.o [1]
g_US1_OneByteTxTime     0x0020feac     0x4  Data  Gb  USART.o [1]
g_counter               0x0020f0c0     0x8  Data  Gb  main.o [1]
g_czas_petli            0x0020fee0     0x1  Data  Gb  main.o [1]
g_info                  0x0020f1b0     0x4  Data  Gb  main.o [1]
g_leng                  0x0020f1a8     0x4  Data  Gb  main.o [1]
g_level                 0x0020f25c     0x1  Data  Gb  main.o [1]
g_seconds_counter       0x0020f1b4     0x4  Data  Gb  main.o [1]
identyfikacja           0x00031c94    0x10  Data  Gb  main.o [1]
komunikcja_RSwin        0x0002acd9   0x834  Code  Gb  RS_WIN.o [1]
korekta_X               0x0020fe80     0x8  Data  Gb  Lcd_Negativ_Old.o [1]
korekta_Y               0x0020fe78     0x8  Data  Gb  Lcd_Negativ_Old.o [1]
lastSetBit              0x00030689    0x52  Code  Wk  udp.o [1]
last_time               0x0020f11c     0x4  Data  Gb  Application_prog.o [1]
licznik_cykli           0x0020f138     0x4  Data  Gb  RF_Exe.o [1]
m_pPio                  0x0020fea0     0x4  Data  Gb  Lcd_Negativ_Old.o [1]
main                    0x00021935   0x584  Code  Gb  main.o [1]
memchr                  0x0002fe58          Code  Gb  memchr.o [3]
memcpy                  0x0002f80c          Code  Gb  memcpy.o [3]
min                     0x000322e5     0x8  Code  Wk  standard.o [1]
odb                     0x0020f0e0     0x8  Data  Gb  RF_Exe.o [1]
odp                     0x0020f1fe     0x2  Data  Gb  Lcd_Negativ_Old.o [1]
out                     0x0020fe60     0xc  Data  Gb  main.o [1]
pAT91C_IFLASH_MEM       0x0020feb8     0x4  Data  Gb  main.o [1]
pDateTime               0x0020fe9c     0x4  Data  Gb  Clock.o [1]
pEndpoints              0x0020fd98    0xa0  Data  Lc  main.o [1]
pEndpoints              0x0020fe6c     0xc  Data  Gb  serial_driver.o [1]
pManufacturer           0x00031fd0     0xc  Data  Gb  serial_driver.o [1]
pProduct                0x000315b8    0x1c  Data  Gb  serial_driver.o [1]
pProg                   0x0020fe98     0x4  Data  Gb  Application_prog.o [1]
pRF_Command             0x0020f13c     0x4  Data  Gb  RF_Exe.o [1]
pSPI                    0x0020fec4     0x4  Data  Gb  spi_main.o [1]
pSPI_Buff               0x0020fec8     0x4  Data  Gb  spi_main.o [1]
pSerialNumber           0x000315d4    0x1c  Data  Gb  serial_driver.o [1]
pStrings                0x0020fe50    0x10  Data  Gb  serial_driver.o [1]
pUsbBuffer              0x0020eac4   0x12c  Data  Lc  main.o [1]
pass_tmp                0x0020f068     0xc  Data  Gb  ScreenMENU2.o [1]
poprawnych              0x0020f130     0x4  Data  Gb  RF_Exe.o [1]
przestepny              0x000102dd    0x3c  Code  Gb  ScreenMENU2.o [1]
pt1                     0x0020f1a0     0x4  Data  Gb  WizFi.o [1]
pt2                     0x0020f1a4     0x4  Data  Gb  WizFi.o [1]
row_tmp                 0x0020f178     0x4  Data  Gb  ScreenMENU2.o [1]
sCallbacks              0x00031828    0x18  Data  Lc  main.o [1]
sConfiguration          0x00030930    0x44  Data  Gb  serial_driver.o [1]
sDefaultDriver          0x00031858    0x18  Data  Gb  udp.o [1]
sDescriptors            0x00031ca4    0x10  Data  Gb  serial_driver.o [1]
sDevice                 0x000319dc    0x14  Data  Gb  serial_driver.o [1]
sIntToStr               0x00019c39   0x19c  Code  Gb  Lcd_Negativ_Old.o [1]
sLanguageID             0x00032384     0x4  Data  Gb  serial_driver.o [1]
sSer                    0x0020efe8    0x14  Data  Lc  main.o [1]
sSetup                  0x0020f108     0x8  Data  Lc  main.o [1]
sUDPMethods             0x00030ed4    0x34  Data  Gb  udp.o [1]
sUsb                    0x00031840    0x18  Data  Lc  main.o [1]
siz                     0x0020f1c8     0x4  Data  Gb  main.o [1]
spi_Endrx_Flag          0x0020f1ec     0x4  Data  Gb  spi_main.o [1]
spi_Endtx_Flag          0x0020f1f0     0x4  Data  Gb  spi_main.o [1]
spi_Rxbuff_Flag         0x0020f1f4     0x4  Data  Gb  spi_main.o [1]
spi_Status              0x0020f1f8     0x4  Data  Gb  spi_main.o [1]
spi_Txempty_Flag        0x0020f1e8     0x4  Data  Gb  spi_main.o [1]
sprintf                 0x0003106d    0x30  Code  Gb  sprintf.o [2]
strcat                  0x00031305    0x22  Code  Wk  strcat.o [2]
strchr                  0x000313d4          Code  Gb  strchr.o [3]
strlen                  0x00030630          Code  Gb  strlen.o [3]
strstr                  0x00032001     0xc  Code  Wk  WizFi.o [1]
system                  0x00032380     0x4  Data  Gb  main.o [1]


[1] = D:\Zeuron\Projekty\S300\S300-program v1.4 - 12.06.2013\S300X (Old)\Obj
[2] = dl4t_tl_in.a
[3] = rt4t_al.a
[4] = shs_l.a

  183 456 bytes of readonly  code memory
      804 bytes of readwrite code memory
   24 423 bytes of readonly  data memory
   64 450 bytes of readwrite data memory
