###############################################################################
#                                                                             #
# IAR ARM ANSI C/C++ Compiler V5.10.5.372/W32           11/Sep/2013  19:44:43 #
# Copyright 1999-2007 IAR Systems. All rights reserved.                       #
#                                                                             #
#    Cpu mode     =  thumb                                                    #
#    Endian       =  little                                                   #
#    Source file  =  D:\Zeuron\Projekty\S300\S300-program v1.4 -              #
#                    12.06.2013\Framework\Lcd_Negativ_Old.c                   #
#    Command line =  "D:\Zeuron\Projekty\S300\S300-program v1.4 -             #
#                    12.06.2013\Framework\Lcd_Negativ_Old.c" -D AT91SAM7S256  #
#                    -D AT91SAM7SEK -D iH -D _LCD_NEGATIV_OLD_ -D __ALARM -D  #
#                    __WIFI_MODULE -D _DEBUG_ -D S300iOld -D _ADMINISTRATOR_  #
#                    -lC "D:\Zeuron\Projekty\S300\S300-program v1.4 -         #
#                    12.06.2013\S300X (Old)\List\" --diag_suppress Pa082 -o   #
#                    "D:\Zeuron\Projekty\S300\S300-program v1.4 -             #
#                    12.06.2013\S300X (Old)\Obj\" --no_cse --no_unroll        #
#                    --no_inline --no_code_motion --no_tbaa --no_clustering   #
#                    --no_scheduling --debug --endian little --cpu ARM7TDMI   #
#                    -e --fpu None --dlib_config "C:\Program Files (x86)\IAR  #
#                    Systems\Embedded Workbench 5.0\ARM\INC\DLib_Config_Norma #
#                    l.h" -I "D:\Zeuron\Projekty\S300\S300-program v1.4 -     #
#                    12.06.2013\lib\AT91SAM7S256\" -I                         #
#                    "D:\Zeuron\Projekty\S300\S300-program v1.4 -             #
#                    12.06.2013\lib\AT91SAM7S64\" -I                          #
#                    "D:\Zeuron\Projekty\S300\S300-program v1.4 -             #
#                    12.06.2013\" -I "D:\Zeuron\Projekty\S300\S300-program    #
#                    v1.4 - 12.06.2013\cdc\" -I "D:\Zeuron\Projekty\S300\S300 #
#                    -program v1.4 - 12.06.2013\core\" -I                     #
#                    "D:\Zeuron\Projekty\S300\S300-program v1.4 -             #
#                    12.06.2013\startup\" -I "D:\Zeuron\Projekty\S300\S300-pr #
#                    ogram v1.4 - 12.06.2013\Framework\" -I                   #
#                    "D:\Zeuron\Projekty\S300\S300-program v1.4 -             #
#                    12.06.2013\Framework\Configuration\" -I "C:\Program      #
#                    Files (x86)\IAR Systems\Embedded Workbench               #
#                    5.0\ARM\INC\" --section .text=Debug.txt --interwork      #
#                    --cpu_mode thumb -Ol                                     #
#    List file    =  D:\Zeuron\Projekty\S300\S300-program v1.4 -              #
#                    12.06.2013\S300X (Old)\List\Lcd_Negativ_Old.lst          #
#    Object file  =  D:\Zeuron\Projekty\S300\S300-program v1.4 -              #
#                    12.06.2013\S300X (Old)\Obj\Lcd_Negativ_Old.o             #
#                                                                             #
#                                                                             #
###############################################################################

D:\Zeuron\Projekty\S300\S300-program v1.4 - 12.06.2013\Framework\Lcd_Negativ_Old.c
      1          //****************************************************************************//
      2          //*--------------------------------------------------------------------------*//
      3          //*                                 CEURON                                   *//                     
      4          //*--------------------------------------------------------------------------*//
      5          //*--------------------------------------------------------------------------*//
      6          //*  Nazwa pliku                  : LCD.c                                    *//
      7          //*  Opis                         : Plik obs³ugi wyœwietlacza LCD            *//
      8          //*  Autor                        : Pawe³ Narwojsz                           *//
      9          //*  Data utrzorzenia             : 15.09.2007                               *//
     10          //*  Data ostatniej modyfikacji   : --.--.----                               *//
     11          //*--------------------------------------------------------------------------*//
     12          //*                                                                          *//
     13          //*--------------------------------------------------------------------------*//
     14          //* Rejestr zmian  (data - opis):                                            *//
     15          //*                                                                          *//
     16          //*                               Brak zmian                                 *//
     17          //*                                                                          *//
     18          //*__________________________________________________________________________*// 
     19          //****************************************************************************//
     20          //****************************************************************************//
     21          
     22          
     23          
     24          
     25          
     26          
     27          
     28          // Pliki do³¹czane -------------------------------------------------------------
     29               #include "common.h"
     30               #include "core/device.h"                                                   //aduje bibliotreki dla odpowiedniego procesora

   \                                 In section Debug.txt, align 4
   \   __??Code16?? __code __interwork void AT91F_PIO_CfgOutput(AT91PS_PIO, unsigned int)
   \                     AT91F_PIO_CfgOutput:
   \   00000000   0160               STR      R1,[R0, #+0]
   \   00000002   0161               STR      R1,[R0, #+16]
   \   00000004   7047               BX       LR               ;; return

   \                                 In section Debug.txt, align 4
   \   __??Code16?? __code __interwork void AT91F_PIO_CfgInput(AT91PS_PIO, unsigned int)
   \                     AT91F_PIO_CfgInput:
   \   00000000   4161               STR      R1,[R0, #+20]
   \   00000002   0160               STR      R1,[R0, #+0]
   \   00000004   7047               BX       LR               ;; return

   \                                 In section Debug.txt, align 4
   \   __??Code16?? __code __interwork void AT91F_PIO_ClearOutput(AT91PS_PIO, unsigned int)
   \                     AT91F_PIO_ClearOutput:
   \   00000000   4163               STR      R1,[R0, #+52]
   \   00000002   7047               BX       LR               ;; return
     31               //#include "AT91SAM7S256.h"
     32               #include "core/trace.h"
     33               #include "LCD.h"
     34               #include "Framework.h "
     35               #include <stdarg.h>
     36          
     37          //-----------------------Koniec plików do³¹czanych -----------------------------
     38          
     39          #ifdef _LCD_NEGATIV_OLD_
     40          #define LCD_delay 40
     41          
     42          //Zmienne globalne -------------------------------------------------------------

   \                                 In section .data, align 4
     43            _Correct korekta_Y=1;
                                      ^
Warning[Pe520]: initialization with "{...}" expected for aggregate object
   \                     korekta_Y:
   \   00000000   0000803F           DC32 3F800000H
   \   00000004   00000000           DC8 0, 0, 0, 0

   \                                 In section .data, align 4
     44            _Correct korekta_X=1;
                                      ^
Warning[Pe520]: initialization with "{...}" expected for aggregate object
   \                     korekta_X:
   \   00000000   0000803F           DC32 3F800000H
   \   00000004   00000000           DC8 0, 0, 0, 0
     45          //___________________________Koniec zmiennych globalnych________________________
     46          
     47          
     48          extern void Delay (unsigned long a);
     49          //extern MenuPaint(void);
     50          extern long long int g_counter;
     51          extern int MenuLevel;
     52          extern char AlarmOn; 
     53          extern char g_info;
     54          //Definicje --------------------------------------------------------------------

   \                                 In section .data, align 4
     55                AT91PS_PIO    m_pPio   = AT91C_BASE_PIOA;
   \                     m_pPio:
   \   00000000   00F4FFFF           DC32 0FFFFF400H

   \                                 In section .data, align 4
     56                AT91PS_PIO    TS_pPio  = AT91C_BASE_PIOA;
   \                     TS_pPio:
   \   00000000   00F4FFFF           DC32 0FFFFF400H
     57                //TouchScreen
     58          
     59          #define  TS_ADC             AT91C_BASE_PDC_ADC
     60          #define  TS_ADC_CH0         AT91C_ADC_CH0
     61          #define  TS_ADC_CH1         AT91C_ADC_CH1
     62          #define  TS_ADC_CH2         AT91C_ADC_CH2
     63          #define  TS_ADC_CH3         AT91C_ADC_CH3
     64          #define  TS_PIO             AT91C_BASE_PIOA
     65          #define  TS_PIO_CH0         AT91C_PIO_PA17
     66          #define  TS_PIO_CH1         AT91C_PIO_PA18
     67          #define  TS_PIO_CH2         AT91C_PIO_PA19
     68          #define  TS_PIO_CH3         AT91C_PIO_PA20
     69          
     70          #define  TS_ADC_ID         AT91C_ID_ADC        
     71          // Leds
     72          //___________________________Koniec definicji___________________________________
     73          
     74          
     75                
     76          extern signed short X_down;
     77          extern signed short Y_down;
     78          extern signed short X_up;
     79          extern signed short Y_up;
     80          
     81          

   \                                 In section .data, align 4
     82          char LCD_Canvas[8][128] = {
   \                     LCD_Canvas:
   \   00000000   FE0101010101       DC8 254, 1, 1, 1, 1, 1, 1, 1, 131, 69, 125, 69, 41, 41, 17, 1, 1, 169
   \              010183457D45
   \              2929110101A9
   \   00000012   010101010101       DC8 1, 1, 1, 1, 1, 1, 1, 1, 1, 1, 131, 69, 125, 69, 41, 41, 17, 1, 1
   \              010101018345
   \              7D4529291101
   \              01          
   \   00000025   A90101010101       DC8 169, 1, 1, 1, 1, 1, 1, 1, 1, 1, 1, 131, 69, 125, 69, 41, 41, 17, 1
   \              010101010183
   \              457D45292911
   \              01          
   \   00000038   01A901010101       DC8 1, 169, 1, 1, 1, 1, 1, 1, 1, 1, 1, 1, 131, 69, 125, 69, 41, 41, 17
   \              010101010101
   \              83457D452929
   \              11          
   \   0000004B   0101A9010101       DC8 1, 1, 169, 1, 1, 1, 1, 1, 1, 1, 1, 1, 1, 131, 69, 125, 69, 41, 41
   \              010101010101
   \              0183457D4529
   \              29          
   \   0000005E   110101A90101       DC8 17, 1, 1, 169, 1, 1, 1, 1, 1, 1, 1, 1, 1, 1, 131, 69, 125, 69, 41
   \              010101010101
   \              010183457D45
   \              29          
   \   00000071   2911010101FF       DC8 41, 17, 1, 1, 1, 255, 7, 243, 107, 155, 155, 107, 243, 6, 252, 255
   \              07F36B9B9B6B
   \              F306FCFF    
   \   00000081   A4A090A0A418       DC8 164, 160, 144, 160, 164, 24, 0, 66, 66, 66, 66, 66, 99, 66, 0, 0
   \              004242424242
   \              63420000    
   \   00000091   AA0000202020       DC8 170, 0, 0, 32, 32, 32, 32, 32, 48, 32, 0, 66, 66, 66, 66, 66, 99
   \              202030200042
   \              4242424263  
   \   000000A2   420000AA0000       DC8 66, 0, 0, 170, 0, 0, 28, 36, 36, 36, 36, 36, 24, 0, 66, 66, 66, 66
   \              1C2424242424
   \              180042424242
   \   000000B4   4263420000AA       DC8 66, 99, 66, 0, 0, 170, 0, 0, 16, 16, 16, 16, 16, 24, 16, 0, 66, 66
   \              000010101010
   \              101810004242
   \   000000C6   424242634200       DC8 66, 66, 66, 99, 66, 0, 0, 170, 0, 0, 60, 8, 16, 16, 32, 36, 24, 0
   \              00AA00003C08
   \              101020241800
   \   000000D8   424242424263       DC8 66, 66, 66, 66, 66, 99, 66, 0, 0, 170, 0, 0, 152, 164, 160, 144
   \              420000AA0000
   \              98A4A090    
   \   000000E8   A0A418004242       DC8 160, 164, 24, 0, 66, 66, 66, 66, 66, 99, 66, 0, 0, 0, 255, 254, 60
   \              424242634200
   \              0000FFFE3C  
   \   000000F9   BD7DFDBD3CFE       DC8 189, 125, 253, 189, 60, 254, 255, 255, 148, 148, 148, 148, 148, 99
   \              FFFF94949494
   \              9463        
   \   00000107   0082447C4428       DC8 0, 130, 68, 124, 68, 40, 40, 16, 0, 0, 170, 0, 0, 207, 34, 4, 132
   \              28100000AA00
   \              00CF220484  
   \   00000118   0829C6007C04       DC8 8, 41, 198, 0, 124, 4, 4, 124, 4, 4, 124, 0, 0, 170, 0, 1, 9, 136
   \              047C04047C00
   \              00AA00010988
   \   0000012A   889090A03C00       DC8 136, 144, 144, 160, 60, 0, 60, 68, 68, 68, 68, 68, 60, 0, 0, 170, 0
   \              3C4444444444
   \              3C0000AA00  
   \   0000013B   013D88101020       DC8 1, 61, 136, 16, 16, 32, 164, 24, 0, 56, 68, 4, 4, 4, 68, 56, 0, 0
   \              A41800384404
   \              040444380000
   \   0000014D   AA0000222222       DC8 170, 0, 0, 34, 34, 34, 66, 66, 131, 242, 0, 28, 36, 36, 60, 36, 36
   \              424283F2001C
   \              24243C2424  
   \   0000015E   1C0000AA0000       DC8 28, 0, 0, 170, 0, 0, 115, 148, 148, 148, 148, 148, 99, 0, 130, 68
   \              739494949494
   \              63008244    
   \   0000016E   7C4428281000       DC8 124, 68, 40, 40, 16, 0, 0, 0, 255, 255, 36, 117, 87, 38, 37, 36
   \              0000FFFF2475
   \              57262524    
   \   0000017E   FFFFFF040808       DC8 255, 255, 255, 4, 8, 8, 16, 18, 12, 0, 0, 0, 0, 0, 0, 0, 0, 0, 0
   \              10120C000000
   \              000000000000
   \              00          
   \   00000191   AA000020A17D       DC8 170, 0, 0, 32, 161, 125, 164, 169, 49, 32, 0, 0, 0, 0, 0, 0, 0, 0
   \              A4A931200000
   \              000000000000
   \   000001A3   0000AA000063       DC8 0, 0, 170, 0, 0, 99, 148, 132, 148, 115, 36, 227, 0, 0, 0, 0, 0, 0
   \              9484947324E3
   \              000000000000
   \   000001B5   00000000AA00       DC8 0, 0, 0, 0, 170, 0, 0, 131, 132, 244, 146, 164, 196, 131, 0, 0, 0
   \              008384F492A4
   \              C483000000  
   \   000001C6   000000000000       DC8 0, 0, 0, 0, 0, 0, 0, 170, 0, 0, 16, 16, 254, 82, 148, 24, 16, 0, 0
   \              00AA00001010
   \              FE5294181000
   \              00          
   \   000001D9   000000000000       DC8 0, 0, 0, 0, 0, 0, 0, 0, 170, 0, 0, 158, 4, 8, 8, 16, 18, 12, 0, 0
   \              0000AA00009E
   \              04080810120C
   \              0000        
   \   000001ED   000000000000       DC8 0, 0, 0, 0, 0, 0, 0, 0, 0, 255, 255, 159, 223, 63, 191, 127, 63
   \              000000FFFF9F
   \              DF3FBF7F3F  
   \   000001FE   FFFFFF444888       DC8 255, 255, 255, 68, 72, 136, 80, 82, 140, 0, 0, 0, 0, 0, 0, 0, 0, 0
   \              50528C000000
   \              000000000000
   \   00000210   00AA00006394       DC8 0, 170, 0, 0, 99, 148, 148, 148, 115, 145, 103, 0, 0, 0, 0, 0, 0, 0
   \              949473916700
   \              000000000000
   \   00000222   000000AA0000       DC8 0, 0, 0, 170, 0, 0, 208, 80, 126, 82, 84, 88, 144, 0, 0, 0, 0, 0, 0
   \              D0507E525458
   \              900000000000
   \              00          
   \   00000235   00000000AA00       DC8 0, 0, 0, 0, 170, 0, 0, 142, 82, 147, 82, 82, 82, 140, 0, 0, 0, 0, 0
   \              008E52935252
   \              528C00000000
   \              00          
   \   00000248   0000000000AA       DC8 0, 0, 0, 0, 0, 170, 0, 16, 210, 130, 7, 2, 2, 67, 130, 0, 0, 0, 0
   \              0010D2820702
   \              024382000000
   \              00          
   \   0000025B   000000000000       DC8 0, 0, 0, 0, 0, 0, 170, 0, 0, 158, 68, 72, 136, 80, 82, 140, 0, 0, 0
   \              AA00009E4448
   \              8850528C0000
   \              00          
   \   0000026E   000000000000       DC8 0, 0, 0, 0, 0, 0, 0, 0, 255, 255, 180, 149, 150, 166, 167, 147, 255
   \              0000FFFFB495
   \              96A6A793FF  
   \   0000027F   FFFF12122122       DC8 255, 255, 18, 18, 33, 34, 66, 121, 0, 0, 0, 0, 0, 0, 0, 0, 0, 0
   \              427900000000
   \              000000000000
   \   00000291   AA0080840404       DC8 170, 0, 128, 132, 4, 4, 8, 8, 16, 30, 0, 0, 0, 0, 0, 0, 0, 0, 0, 0
   \              0808101E0000
   \              000000000000
   \              0000        
   \   000002A5   AA0000394A4A       DC8 170, 0, 0, 57, 74, 74, 74, 74, 74, 49, 0, 0, 0, 0, 0, 0, 0, 0, 0, 0
   \              4A4A4A310000
   \              000000000000
   \              0000        
   \   000002B9   AA0000314A4B       DC8 170, 0, 0, 49, 74, 75, 50, 74, 74, 49, 0, 0, 0, 0, 0, 0, 0, 0, 0, 0
   \              324A4A310000
   \              000000000000
   \              0000        
   \   000002CD   AA0000334841       DC8 170, 0, 0, 51, 72, 65, 33, 66, 74, 49, 0, 0, 0, 0, 0, 0, 0, 0, 0, 0
   \              21424A310000
   \              000000000000
   \              0000        
   \   000002E1   AA0000111212       DC8 170, 0, 0, 17, 18, 18, 33, 34, 66, 121, 0, 0, 0, 0, 0, 0, 0, 0, 0
   \              212242790000
   \              000000000000
   \              00          
   \   000002F4   0000FFFF246E       DC8 0, 0, 255, 255, 36, 110, 113, 117, 123, 57, 255, 255, 255, 201, 72
   \              71757B39FFFF
   \              FFC948      
   \   00000303   444849464040       DC8 68, 72, 73, 70, 64, 64, 64, 64, 64, 64, 64, 64, 192, 192, 202, 64
   \              404040404040
   \              C0C0CA40    
   \   00000313   C04ED252D252       DC8 192, 78, 210, 82, 210, 82, 210, 76, 192, 64, 192, 64, 192, 64, 192
   \              D24CC040C040
   \              C040C0      
   \   00000322   40C040CA40C0       DC8 64, 192, 64, 202, 64, 192, 71, 201, 73, 201, 73, 201, 70, 192, 64
   \              47C949C949C9
   \              46C040      
   \   00000331   C040C040C040       DC8 192, 64, 192, 64, 192, 64, 192, 64, 202, 64, 192, 70, 201, 73, 198
   \              C040CA40C046
   \              C949C6      
   \   00000340   49C946C040C0       DC8 73, 201, 70, 192, 64, 192, 64, 192, 64, 192, 64, 192, 64, 202, 64
   \              40C040C040C0
   \              40CA40      
   \   0000034F   C0C8C8DFC9CA       DC8 192, 200, 200, 223, 201, 202, 204, 200, 192, 192, 192, 192, 64, 64
   \              CCC8C0C0C0C0
   \              4040        
   \   0000035D   C040C040CA40       DC8 192, 64, 192, 64, 202, 64, 192, 70, 201, 72, 196, 200, 73, 70, 64
   \              C046C948C4C8
   \              494640      
   \   0000036C   404040404040       DC8 64, 64, 64, 64, 64, 64, 64, 64, 64, 192, 255, 255, 248, 251, 255
   \              404040C0FFFF
   \              F8FBFF      
   \   0000037B   FFFFFEFFFFFF       DC8 255, 255, 254, 255, 255, 255, 192, 128, 128, 128, 128, 128, 140
   \              C08080808080
   \              8C          
   \   00000388   9EBFBF808080       DC8 158, 191, 191, 128, 128, 128, 128, 192, 255, 170, 213, 170, 213
   \              80C0FFAAD5AA
   \              D5          
   \   00000395   AAD5AAD5AAD5       DC8 170, 213, 170, 213, 170, 213, 170, 213, 170, 213, 170, 213, 170
   \              AAD5AAD5AAD5
   \              AA          
   \   000003A2   D5AAD5AAD5AA       DC8 213, 170, 213, 170, 213, 170, 213, 170, 213, 170, 213, 170, 213
   \              D5AAD5AAD5AA
   \              D5          
   \   000003AF   AAD5AAD5AAD5       DC8 170, 213, 170, 213, 170, 213, 170, 213, 170, 213, 170, 213, 170
   \              AAD5AAD5AAD5
   \              AA          
   \   000003BC   D5AAD5AAD5AA       DC8 213, 170, 213, 170, 213, 170, 213, 170, 213, 170, 213, 170, 213
   \              D5AAD5AAD5AA
   \              D5          
   \   000003C9   AAD5AAD5AA80       DC8 170, 213, 170, 213, 170, 128, 255, 255, 255, 255, 192, 222, 222
   \              FFFFFFFFC0DE
   \              DE          
   \   000003D6   C0FFFFFFFF80       DC8 192, 255, 255, 255, 255, 128, 213, 170, 213, 170, 213, 170, 213
   \              D5AAD5AAD5AA
   \              D5          
   \   000003E3   AAD5AAD5FFC0       DC8 170, 213, 170, 213, 255, 192, 128, 128, 128, 191, 191, 158, 140
   \              808080BFBF9E
   \              8C          
   \   000003F0   8080808080C0       DC8 128, 128, 128, 128, 128, 192, 255, 255, 255, 255, 255, 255, 255
   \              FFFFFFFFFFFF
   \              FF          
   \   000003FD   FF7F3F             DC8 255, 127, 63
     83                            {254,1,1,1,1,1,1,1,131,69,125,69,41,41,17,1,1,169,1,1,1,1,1,1,1,1,1,1,131,69,125,69,41,41,17,1,1,169,1,1,1,1,1,1,1,1,1,1,131,69,125,69,41,41,17,1,1,169,1,1,1,1,1,1,1,1,1,1,131,69,125,69,41,41,17,1,1,169,1,1,1,1,1,1,1,1,1,1,131,69,125,69,41,41,17,1,1,169,1,1,1,1,1,1,1,1,1,1,131,69,125,69,41,41,17,1,1,1,255,7,243,107,155,155,107,243,6,252},
     84                            {255,164,160,144,160,164,24,0,66,66,66,66,66,99,66,0,0,170,0,0,32,32,32,32,32,48,32,0,66,66,66,66,66,99,66,0,0,170,0,0,28,36,36,36,36,36,24,0,66,66,66,66,66,99,66,0,0,170,0,0,16,16,16,16,16,24,16,0,66,66,66,66,66,99,66,0,0,170,0,0,60,8,16,16,32,36,24,0,66,66,66,66,66,99,66,0,0,170,0,0,152,164,160,144,160,164,24,0,66,66,66,66,66,99,66,0,0,0,255,254,60,189,125,253,189,60,254,255},
     85                            {255,148,148,148,148,148,99,0,130,68,124,68,40,40,16,0,0,170,0,0,207,34,4,132,8,41,198,0,124,4,4,124,4,4,124,0,0,170,0,1,9,136,136,144,144,160,60,0,60,68,68,68,68,68,60,0,0,170,0,1,61,136,16,16,32,164,24,0,56,68,4,4,4,68,56,0,0,170,0,0,34,34,34,66,66,131,242,0,28,36,36,60,36,36,28,0,0,170,0,0,115,148,148,148,148,148,99,0,130,68,124,68,40,40,16,0,0,0,255,255,36,117,87,38,37,36,255,255},
     86                            {255,4,8,8,16,18,12,0,0,0,0,0,0,0,0,0,0,170,0,0,32,161,125,164,169,49,32,0,0,0,0,0,0,0,0,0,0,170,0,0,99,148,132,148,115,36,227,0,0,0,0,0,0,0,0,0,0,170,0,0,131,132,244,146,164,196,131,0,0,0,0,0,0,0,0,0,0,170,0,0,16,16,254,82,148,24,16,0,0,0,0,0,0,0,0,0,0,170,0,0,158,4,8,8,16,18,12,0,0,0,0,0,0,0,0,0,0,0,255,255,159,223,63,191,127,63,255,255},
     87                            {255,68,72,136,80,82,140,0,0,0,0,0,0,0,0,0,0,170,0,0,99,148,148,148,115,145,103,0,0,0,0,0,0,0,0,0,0,170,0,0,208,80,126,82,84,88,144,0,0,0,0,0,0,0,0,0,0,170,0,0,142,82,147,82,82,82,140,0,0,0,0,0,0,0,0,0,0,170,0,16,210,130,7,2,2,67,130,0,0,0,0,0,0,0,0,0,0,170,0,0,158,68,72,136,80,82,140,0,0,0,0,0,0,0,0,0,0,0,255,255,180,149,150,166,167,147,255,255},
     88                            {255,18,18,33,34,66,121,0,0,0,0,0,0,0,0,0,0,170,0,128,132,4,4,8,8,16,30,0,0,0,0,0,0,0,0,0,0,170,0,0,57,74,74,74,74,74,49,0,0,0,0,0,0,0,0,0,0,170,0,0,49,74,75,50,74,74,49,0,0,0,0,0,0,0,0,0,0,170,0,0,51,72,65,33,66,74,49,0,0,0,0,0,0,0,0,0,0,170,0,0,17,18,18,33,34,66,121,0,0,0,0,0,0,0,0,0,0,0,255,255,36,110,113,117,123,57,255,255},
     89                            {255,201,72,68,72,73,70,64,64,64,64,64,64,64,64,192,192,202,64,192,78,210,82,210,82,210,76,192,64,192,64,192,64,192,64,192,64,202,64,192,71,201,73,201,73,201,70,192,64,192,64,192,64,192,64,192,64,202,64,192,70,201,73,198,73,201,70,192,64,192,64,192,64,192,64,192,64,202,64,192,200,200,223,201,202,204,200,192,192,192,192,64,64,192,64,192,64,202,64,192,70,201,72,196,200,73,70,64,64,64,64,64,64,64,64,64,64,192,255,255,248,251,255,255,255,254,255,255},
     90                            {255,192,128,128,128,128,128,140,158,191,191,128,128,128,128,192,255,170,213,170,213,170,213,170,213,170,213,170,213,170,213,170,213,170,213,170,213,170,213,170,213,170,213,170,213,170,213,170,213,170,213,170,213,170,213,170,213,170,213,170,213,170,213,170,213,170,213,170,213,170,213,170,213,170,213,170,213,170,128,255,255,255,255,192,222,222,192,255,255,255,255,128,213,170,213,170,213,170,213,170,213,170,213,255,192,128,128,128,191,191,158,140,128,128,128,128,128,192,255,255,255,255,255,255,255,255,127,63}
     91                            };
     92          
     93          
     94          
     95          
     96          
     97          //===================================================================================================================================================================//
     98          //===================================================================================================================================================================//
     99          //===================================================================================================================================================================//
    100          //===================================================================================================================================================================//
    101          //============================================================      F U N K C J E      ==============================================================================//
    102          //===================================================================================================================================================================//
    103          //===================================================================================================================================================================//
    104          
    105          
    106          
    107          //*-----------------------------------------------------------------------------
    108          //* Nazwa funkcji :    RepaintLCD
    109          //* Funkcja g³ówna wyrysowywania tabeli LCD_Canvas na ekran LCD
    110          //*-----------------------------------------------------------------------------
    111          //* Konieczne zdefiniowanie zmiennej globalnej "char LCD_Canvas[8][128];"
    112          //*-----------------------------------------------------------------------------
    113          

   \                                 In section .data, align 1
    114          char chipSelect=1;
   \                     chipSelect:
   \   00000000   01                 DC8 1

   \                                 In section Debug.txt, align 4, keep-with-next
    115          void RepaintLCD(void)
    116          {
   \                     RepaintLCD:
   \   00000000   31B5               PUSH     {R0,R4,R5,LR}
    117            
    118          
    119          char lcdData=0;
   \   00000002   0024               MOVS     R4,#+0
    120          //char lcdStartPage=0;
    121          //char chipSelect=0;
    122          char displayY=0;
   \   00000004   0025               MOVS     R5,#+0
    123            
    124          //  for (char chipSelect=1; chipSelect<=2; chipSelect++)
    125          //{
    126          
    127             if (chipSelect<2) {chipSelect=2;} else {chipSelect=1;}
   \   00000006   2348               LDR      R0,??RepaintLCD_0  ;; chipSelect
   \   00000008   0078               LDRB     R0,[R0, #+0]
   \   0000000A   0228               CMP      R0,#+2
   \   0000000C   03D2               BCS      ??RepaintLCD_1
   \   0000000E   2148               LDR      R0,??RepaintLCD_0  ;; chipSelect
   \   00000010   0221               MOVS     R1,#+2
   \   00000012   0170               STRB     R1,[R0, #+0]
   \   00000014   02E0               B        ??RepaintLCD_2
   \                     ??RepaintLCD_1:
   \   00000016   1F48               LDR      R0,??RepaintLCD_0  ;; chipSelect
   \   00000018   0121               MOVS     R1,#+1
   \   0000001A   0170               STRB     R1,[R0, #+0]
    128               at91ChipSelect(chipSelect);   
   \                     ??RepaintLCD_2:
   \   0000001C   1D48               LDR      R0,??RepaintLCD_0  ;; chipSelect
   \   0000001E   0078               LDRB     R0,[R0, #+0]
   \   00000020   ........           BL       at91ChipSelect
    129          
    130               at91DisplayYAdress(displayY);
   \   00000024   2800               MOVS     R0,R5
   \   00000026   0006               LSLS     R0,R0,#+24       ;; ZeroExtS R0,R0,#+24,#+24
   \   00000028   000E               LSRS     R0,R0,#+24
   \   0000002A   ........           BL       at91DisplayYAdress
    131               Delay(50);  
   \   0000002E   3220               MOVS     R0,#+50
   \   00000030   ........           BL       Delay
    132               
    133                for (char lcdStartPage=0; lcdStartPage<8; lcdStartPage++)
   \   00000034   0025               MOVS     R5,#+0
   \   00000036   17E0               B        ??RepaintLCD_3
    134                {
    135                   
    136                  at91DisplayStartPage(lcdStartPage); 
    137                  Delay(50);
    138                  for (lcdData=(64*chipSelect-64); lcdData<(64*chipSelect); lcdData++)
    139                  {
    140                    
    141                    at91DisplayData(LCD_Canvas[lcdStartPage][lcdData]);
   \                     ??RepaintLCD_4:
   \   00000038   2406               LSLS     R4,R4,#+24       ;; ZeroExtS R4,R4,#+24,#+24
   \   0000003A   240E               LSRS     R4,R4,#+24
   \   0000003C   2D06               LSLS     R5,R5,#+24       ;; ZeroExtS R5,R5,#+24,#+24
   \   0000003E   2D0E               LSRS     R5,R5,#+24
   \   00000040   8020               MOVS     R0,#+128
   \   00000042   6843               MULS     R0,R5,R0
   \   00000044   ....               LDR      R1,??DataTable14  ;; LCD_Canvas
   \   00000046   0818               ADDS     R0,R1,R0
   \   00000048   005D               LDRB     R0,[R0, R4]
   \   0000004A   ........           BL       at91DisplayData
    142                    Delay(50);
   \   0000004E   3220               MOVS     R0,#+50
   \   00000050   ........           BL       Delay
    143                  }
   \   00000054   641C               ADDS     R4,R4,#+1
   \                     ??RepaintLCD_5:
   \   00000056   2406               LSLS     R4,R4,#+24       ;; ZeroExtS R4,R4,#+24,#+24
   \   00000058   240E               LSRS     R4,R4,#+24
   \   0000005A   0E48               LDR      R0,??RepaintLCD_0  ;; chipSelect
   \   0000005C   0078               LDRB     R0,[R0, #+0]
   \   0000005E   4021               MOVS     R1,#+64
   \   00000060   4843               MULS     R0,R1,R0
   \   00000062   8442               CMP      R4,R0
   \   00000064   E8DB               BLT      ??RepaintLCD_4
   \   00000066   6D1C               ADDS     R5,R5,#+1
   \                     ??RepaintLCD_3:
   \   00000068   2D06               LSLS     R5,R5,#+24       ;; ZeroExtS R5,R5,#+24,#+24
   \   0000006A   2D0E               LSRS     R5,R5,#+24
   \   0000006C   082D               CMP      R5,#+8
   \   0000006E   0DD2               BCS      ??RepaintLCD_6
   \   00000070   2800               MOVS     R0,R5
   \   00000072   0006               LSLS     R0,R0,#+24       ;; ZeroExtS R0,R0,#+24,#+24
   \   00000074   000E               LSRS     R0,R0,#+24
   \   00000076   ........           BL       at91DisplayStartPage
   \   0000007A   3220               MOVS     R0,#+50
   \   0000007C   ........           BL       Delay
   \   00000080   0448               LDR      R0,??RepaintLCD_0  ;; chipSelect
   \   00000082   0478               LDRB     R4,[R0, #+0]
   \   00000084   4020               MOVS     R0,#+64
   \   00000086   4443               MULS     R4,R0,R4
   \   00000088   403C               SUBS     R4,R4,#+64
   \   0000008A   E4E7               B        ??RepaintLCD_5
    144                }
    145           //}
    146          
    147          }//_______________________ Koniec funkcji RepaintLCD __________________________
   \                     ??RepaintLCD_6:
   \   0000008C   01B0               ADD      SP,SP,#+4
   \   0000008E   30BC               POP      {R4,R5}
   \   00000090   01BC               POP      {R0}
   \   00000092   0047               BX       R0               ;; return
   \                     ??RepaintLCD_0:
   \   00000094   ........           DC32     chipSelect
    148          
    149          
    150          
    151          
    152          
    153          
    154          //*-----------------------------------------------------------------------------
    155          //* Nazwa funkcji :    CleanCanvas
    156          //* Funkcja czyszczenia bufora ekranu. 
    157          //*-----------------------------------------------------------------------------
    158          //* Efekt widoczny po odœwierzeniu LCD (RepaintLCD)
    159          //*-----------------------------------------------------------------------------

   \                                 In section Debug.txt, align 4, keep-with-next
    160          void CleanCanvas(void)
    161          {
   \                     CleanCanvas:
   \   00000000   01B5               PUSH     {R0,LR}
    162            for (int i=0; i<=7; i++)
   \   00000002   0020               MOVS     R0,#+0
   \   00000004   09E0               B        ??CleanCanvas_0
    163            {
    164              for (int j=0; j<=127; j++)
    165              {
    166                LCD_Canvas[i][j] =0; 
   \                     ??CleanCanvas_1:
   \   00000006   8022               MOVS     R2,#+128
   \   00000008   4243               MULS     R2,R0,R2
   \   0000000A   ....               LDR      R3,??DataTable14  ;; LCD_Canvas
   \   0000000C   9A18               ADDS     R2,R3,R2
   \   0000000E   0023               MOVS     R3,#+0
   \   00000010   5354               STRB     R3,[R2, R1]
    167              }
   \   00000012   491C               ADDS     R1,R1,#+1
   \                     ??CleanCanvas_2:
   \   00000014   8029               CMP      R1,#+128
   \   00000016   F6DB               BLT      ??CleanCanvas_1
   \   00000018   401C               ADDS     R0,R0,#+1
   \                     ??CleanCanvas_0:
   \   0000001A   0828               CMP      R0,#+8
   \   0000001C   01DA               BGE      ??CleanCanvas_3
   \   0000001E   0021               MOVS     R1,#+0
   \   00000020   F8E7               B        ??CleanCanvas_2
    168            }
    169          }//_______________________ Koniec funkcji CleanCanvas __________________________
   \                     ??CleanCanvas_3:
   \   00000022   01B0               ADD      SP,SP,#+4
   \   00000024   01BC               POP      {R0}
   \   00000026   0047               BX       R0               ;; return
    170          
    171          
    172          
    173          
    174          
    175          //*-----------------------------------------------------------------------------
    176          //* Nazwa funkcji :    HalfCleanCanvas
    177          //* Funkcja szatkowania bufora ekranu. 
    178          //*-----------------------------------------------------------------------------
    179          //* Efekt widoczny po odœwierzeniu LCD (RepaintLCD)
    180          //*-----------------------------------------------------------------------------

   \                                 In section Debug.txt, align 4, keep-with-next
    181          void HalfCleanCanvas(void)
    182          {
   \                     HalfCleanCanvas:
   \   00000000   31B5               PUSH     {R0,R4,R5,LR}
    183            for (int i=0; i<=7; i++)
   \   00000002   0024               MOVS     R4,#+0
   \   00000004   00E0               B        ??HalfCleanCanvas_0
   \                     ??HalfCleanCanvas_1:
   \   00000006   641C               ADDS     R4,R4,#+1
   \                     ??HalfCleanCanvas_0:
   \   00000008   082C               CMP      R4,#+8
   \   0000000A   23DA               BGE      ??HalfCleanCanvas_2
    184            {
    185              for (int j=0; j<=127; j++)
   \   0000000C   0025               MOVS     R5,#+0
   \   0000000E   0CE0               B        ??HalfCleanCanvas_3
    186              {
    187                if ((j+i)%2) 
    188                {
    189                  LCD_Canvas[i][j] &=0xAA; 
    190                }
    191                else
    192                {
    193                  LCD_Canvas[i][j] &=0x55; 
   \                     ??HalfCleanCanvas_4:
   \   00000010   8020               MOVS     R0,#+128
   \   00000012   6043               MULS     R0,R4,R0
   \   00000014   ....               LDR      R1,??DataTable14  ;; LCD_Canvas
   \   00000016   0818               ADDS     R0,R1,R0
   \   00000018   8021               MOVS     R1,#+128
   \   0000001A   6143               MULS     R1,R4,R1
   \   0000001C   ....               LDR      R2,??DataTable14  ;; LCD_Canvas
   \   0000001E   5118               ADDS     R1,R2,R1
   \   00000020   495D               LDRB     R1,[R1, R5]
   \   00000022   5522               MOVS     R2,#+85
   \   00000024   0A40               ANDS     R2,R2,R1
   \   00000026   4255               STRB     R2,[R0, R5]
    194                } 
   \                     ??HalfCleanCanvas_5:
   \   00000028   6D1C               ADDS     R5,R5,#+1
   \                     ??HalfCleanCanvas_3:
   \   0000002A   802D               CMP      R5,#+128
   \   0000002C   EBDA               BGE      ??HalfCleanCanvas_1
   \   0000002E   2819               ADDS     R0,R5,R4
   \   00000030   0221               MOVS     R1,#+2
   \   00000032   ........           BL       __aeabi_idivmod
   \   00000036   0029               CMP      R1,#+0
   \   00000038   EAD0               BEQ      ??HalfCleanCanvas_4
   \   0000003A   8020               MOVS     R0,#+128
   \   0000003C   6043               MULS     R0,R4,R0
   \   0000003E   ....               LDR      R1,??DataTable14  ;; LCD_Canvas
   \   00000040   0818               ADDS     R0,R1,R0
   \   00000042   8021               MOVS     R1,#+128
   \   00000044   6143               MULS     R1,R4,R1
   \   00000046   ....               LDR      R2,??DataTable14  ;; LCD_Canvas
   \   00000048   5118               ADDS     R1,R2,R1
   \   0000004A   495D               LDRB     R1,[R1, R5]
   \   0000004C   AA22               MOVS     R2,#+170
   \   0000004E   0A40               ANDS     R2,R2,R1
   \   00000050   4255               STRB     R2,[R0, R5]
   \   00000052   E9E7               B        ??HalfCleanCanvas_5
    195              }
    196            }
    197          }//_______________________ Koniec funkcji HalfCleanCanvas __________________________
   \                     ??HalfCleanCanvas_2:
   \   00000054   01B0               ADD      SP,SP,#+4
   \   00000056   30BC               POP      {R4,R5}
   \   00000058   01BC               POP      {R0}
   \   0000005A   0047               BX       R0               ;; return
    198          
    199          
    200          
    201          //*-----------------------------------------------------------------------------
    202          //* Nazwa funkcji :    CleanCanvasArea
    203          //* Funkcja czyszczenia okreœlonego obszaru
    204          //* Colour  -  0= bia³y, 1=czarny
    205          //*-----------------------------------------------------------------------------
    206          //* Efekt widoczny po odœwierzeniu LCD (RepaintLCD)
    207          //*-----------------------------------------------------------------------------

   \                                 In section Debug.txt, align 4, keep-with-next
    208          void CleanCanvasArea(char X, char Y, char X_Lenght, char Y_Lenght, char Colour)
    209          {
   \                     CleanCanvasArea:
   \   00000000   FDB5               PUSH     {R0,R2-R7,LR}
   \   00000002   0C00               MOVS     R4,R1
   \   00000004   08A8               ADD      R0,SP,#+32
   \   00000006   0078               LDRB     R0,[R0, #+0]
    210          
    211            char kol=0;
   \   00000008   0026               MOVS     R6,#+0
    212            char bit=0;
   \   0000000A   0021               MOVS     R1,#+0
    213            char linia=Y;
    214            
    215          if ( Colour == 0 )
   \   0000000C   0006               LSLS     R0,R0,#+24       ;; ZeroExtS R0,R0,#+24,#+24
   \   0000000E   000E               LSRS     R0,R0,#+24
   \   00000010   0028               CMP      R0,#+0
   \   00000012   38D1               BNE      ??CleanCanvasArea_0
    216          {
    217            for (int i=0; i<=Y_Lenght-1; i++)
   \   00000014   0025               MOVS     R5,#+0
   \   00000016   01E0               B        ??CleanCanvasArea_1
    218             { 
    219               kol=(X)/8;
    220               bit=(X)%8;
    221               
    222          
    223              
    224               for (int j=0; j<=X_Lenght-1; j++)
    225                {
    226                     LCD_Canvas[kol][linia] &=~(1<<bit);  
    227                     if (bit<7)  { bit++;}  else {bit=0;   kol++;  }
    228                }   
    229                linia++;
   \                     ??CleanCanvasArea_2:
   \   00000018   641C               ADDS     R4,R4,#+1
   \   0000001A   6D1C               ADDS     R5,R5,#+1
   \                     ??CleanCanvasArea_1:
   \   0000001C   6846               MOV      R0,SP
   \   0000001E   007A               LDRB     R0,[R0, #+8]
   \   00000020   401E               SUBS     R0,R0,#+1
   \   00000022   A842               CMP      R0,R5
   \   00000024   68DB               BLT      ??CleanCanvasArea_3
   \   00000026   6846               MOV      R0,SP
   \   00000028   0078               LDRB     R0,[R0, #+0]
   \   0000002A   0821               MOVS     R1,#+8
   \   0000002C   ........           BL       __aeabi_idivmod
   \   00000030   0600               MOVS     R6,R0
   \   00000032   6846               MOV      R0,SP
   \   00000034   0078               LDRB     R0,[R0, #+0]
   \   00000036   0821               MOVS     R1,#+8
   \   00000038   ........           BL       __aeabi_idivmod
   \   0000003C   0022               MOVS     R2,#+0
   \   0000003E   02E0               B        ??CleanCanvasArea_4
   \                     ??CleanCanvasArea_5:
   \   00000040   0021               MOVS     R1,#+0
   \   00000042   761C               ADDS     R6,R6,#+1
   \                     ??CleanCanvasArea_6:
   \   00000044   521C               ADDS     R2,R2,#+1
   \                     ??CleanCanvasArea_4:
   \   00000046   6846               MOV      R0,SP
   \   00000048   0079               LDRB     R0,[R0, #+4]
   \   0000004A   401E               SUBS     R0,R0,#+1
   \   0000004C   9042               CMP      R0,R2
   \   0000004E   E3DB               BLT      ??CleanCanvasArea_2
   \   00000050   2406               LSLS     R4,R4,#+24       ;; ZeroExtS R4,R4,#+24,#+24
   \   00000052   240E               LSRS     R4,R4,#+24
   \   00000054   3606               LSLS     R6,R6,#+24       ;; ZeroExtS R6,R6,#+24,#+24
   \   00000056   360E               LSRS     R6,R6,#+24
   \   00000058   8020               MOVS     R0,#+128
   \   0000005A   7043               MULS     R0,R6,R0
   \   0000005C   ....               LDR      R3,??DataTable14  ;; LCD_Canvas
   \   0000005E   1818               ADDS     R0,R3,R0
   \   00000060   2406               LSLS     R4,R4,#+24       ;; ZeroExtS R4,R4,#+24,#+24
   \   00000062   240E               LSRS     R4,R4,#+24
   \   00000064   3606               LSLS     R6,R6,#+24       ;; ZeroExtS R6,R6,#+24,#+24
   \   00000066   360E               LSRS     R6,R6,#+24
   \   00000068   8023               MOVS     R3,#+128
   \   0000006A   7343               MULS     R3,R6,R3
   \   0000006C   ....               LDR      R7,??DataTable14  ;; LCD_Canvas
   \   0000006E   FB18               ADDS     R3,R7,R3
   \   00000070   1B5D               LDRB     R3,[R3, R4]
   \   00000072   0127               MOVS     R7,#+1
   \   00000074   8F40               LSLS     R7,R7,R1
   \   00000076   BB43               BICS     R3,R3,R7
   \   00000078   0355               STRB     R3,[R0, R4]
   \   0000007A   0906               LSLS     R1,R1,#+24       ;; ZeroExtS R1,R1,#+24,#+24
   \   0000007C   090E               LSRS     R1,R1,#+24
   \   0000007E   0729               CMP      R1,#+7
   \   00000080   DED2               BCS      ??CleanCanvasArea_5
   \   00000082   491C               ADDS     R1,R1,#+1
   \   00000084   DEE7               B        ??CleanCanvasArea_6
    230             }
    231          }
    232          else
    233          {
    234            for (int i=0; i<=Y_Lenght-1; i++)
   \                     ??CleanCanvasArea_0:
   \   00000086   0025               MOVS     R5,#+0
   \   00000088   01E0               B        ??CleanCanvasArea_7
    235             { 
    236               kol=(X)/8;
    237               bit=(X)%8;
    238               
    239               for (int j=0; j<=X_Lenght-1; j++)
    240                {
    241                     LCD_Canvas[kol][linia] |=(1<<bit);  
    242                     if (bit<7)  { bit++;}  else {bit=0;   kol++;  }
    243                }   
    244                linia++;
   \                     ??CleanCanvasArea_8:
   \   0000008A   641C               ADDS     R4,R4,#+1
   \   0000008C   6D1C               ADDS     R5,R5,#+1
   \                     ??CleanCanvasArea_7:
   \   0000008E   6846               MOV      R0,SP
   \   00000090   007A               LDRB     R0,[R0, #+8]
   \   00000092   401E               SUBS     R0,R0,#+1
   \   00000094   A842               CMP      R0,R5
   \   00000096   2FDB               BLT      ??CleanCanvasArea_3
   \   00000098   6846               MOV      R0,SP
   \   0000009A   0078               LDRB     R0,[R0, #+0]
   \   0000009C   0821               MOVS     R1,#+8
   \   0000009E   ........           BL       __aeabi_idivmod
   \   000000A2   0600               MOVS     R6,R0
   \   000000A4   6846               MOV      R0,SP
   \   000000A6   0078               LDRB     R0,[R0, #+0]
   \   000000A8   0821               MOVS     R1,#+8
   \   000000AA   ........           BL       __aeabi_idivmod
   \   000000AE   0020               MOVS     R0,#+0
   \   000000B0   02E0               B        ??CleanCanvasArea_9
   \                     ??CleanCanvasArea_10:
   \   000000B2   0021               MOVS     R1,#+0
   \   000000B4   761C               ADDS     R6,R6,#+1
   \                     ??CleanCanvasArea_11:
   \   000000B6   401C               ADDS     R0,R0,#+1
   \                     ??CleanCanvasArea_9:
   \   000000B8   6A46               MOV      R2,SP
   \   000000BA   1279               LDRB     R2,[R2, #+4]
   \   000000BC   521E               SUBS     R2,R2,#+1
   \   000000BE   8242               CMP      R2,R0
   \   000000C0   E3DB               BLT      ??CleanCanvasArea_8
   \   000000C2   2406               LSLS     R4,R4,#+24       ;; ZeroExtS R4,R4,#+24,#+24
   \   000000C4   240E               LSRS     R4,R4,#+24
   \   000000C6   3606               LSLS     R6,R6,#+24       ;; ZeroExtS R6,R6,#+24,#+24
   \   000000C8   360E               LSRS     R6,R6,#+24
   \   000000CA   8022               MOVS     R2,#+128
   \   000000CC   7243               MULS     R2,R6,R2
   \   000000CE   ....               LDR      R3,??DataTable14  ;; LCD_Canvas
   \   000000D0   9A18               ADDS     R2,R3,R2
   \   000000D2   2406               LSLS     R4,R4,#+24       ;; ZeroExtS R4,R4,#+24,#+24
   \   000000D4   240E               LSRS     R4,R4,#+24
   \   000000D6   3606               LSLS     R6,R6,#+24       ;; ZeroExtS R6,R6,#+24,#+24
   \   000000D8   360E               LSRS     R6,R6,#+24
   \   000000DA   8023               MOVS     R3,#+128
   \   000000DC   7343               MULS     R3,R6,R3
   \   000000DE   ....               LDR      R7,??DataTable14  ;; LCD_Canvas
   \   000000E0   FB18               ADDS     R3,R7,R3
   \   000000E2   1B5D               LDRB     R3,[R3, R4]
   \   000000E4   0127               MOVS     R7,#+1
   \   000000E6   8F40               LSLS     R7,R7,R1
   \   000000E8   1F43               ORRS     R7,R7,R3
   \   000000EA   1755               STRB     R7,[R2, R4]
   \   000000EC   0906               LSLS     R1,R1,#+24       ;; ZeroExtS R1,R1,#+24,#+24
   \   000000EE   090E               LSRS     R1,R1,#+24
   \   000000F0   0729               CMP      R1,#+7
   \   000000F2   DED2               BCS      ??CleanCanvasArea_10
   \   000000F4   491C               ADDS     R1,R1,#+1
   \   000000F6   DEE7               B        ??CleanCanvasArea_11
    245             }
    246          }
    247            
    248          }//_______________________ Koniec funkcji CleanCanvasArea __________________________
   \                     ??CleanCanvasArea_3:
   \   000000F8   03B0               ADD      SP,SP,#+12
   \   000000FA   F0BC               POP      {R4-R7}
   \   000000FC   01BC               POP      {R0}
   \   000000FE   0047               BX       R0               ;; return
    249          
    250          
    251          
    252          
    253          //*-----------------------------------------------------------------------------
    254          //* Nazwa funkcji :    CleanCanvasArea
    255          //* Funkcja czyszczenia okreœlonego obszaru
    256          //* Colour  -  0= bia³y, 1=czarny
    257          //*-----------------------------------------------------------------------------
    258          //* Efekt widoczny po odœwierzeniu LCD (RepaintLCD)
    259          //*-----------------------------------------------------------------------------

   \                                 In section Debug.txt, align 4, keep-with-next
    260          void CanvasPixel(char X, char Y, char Colour)
    261          {
   \                     CanvasPixel:
   \   00000000   F1B5               PUSH     {R0,R4-R7,LR}
   \   00000002   0700               MOVS     R7,R0
   \   00000004   0C00               MOVS     R4,R1
   \   00000006   1600               MOVS     R6,R2
    262               char kol=(X)/8;
   \   00000008   3F06               LSLS     R7,R7,#+24       ;; ZeroExtS R7,R7,#+24,#+24
   \   0000000A   3F0E               LSRS     R7,R7,#+24
   \   0000000C   3800               MOVS     R0,R7
   \   0000000E   0821               MOVS     R1,#+8
   \   00000010   ........           BL       __aeabi_idivmod
   \   00000014   0500               MOVS     R5,R0
    263               char bit=(X)%8;
   \   00000016   3F06               LSLS     R7,R7,#+24       ;; ZeroExtS R7,R7,#+24,#+24
   \   00000018   3F0E               LSRS     R7,R7,#+24
   \   0000001A   3800               MOVS     R0,R7
   \   0000001C   0821               MOVS     R1,#+8
   \   0000001E   ........           BL       __aeabi_idivmod
    264               
    265               if ( Colour == 0 )
   \   00000022   3606               LSLS     R6,R6,#+24       ;; ZeroExtS R6,R6,#+24,#+24
   \   00000024   360E               LSRS     R6,R6,#+24
   \   00000026   002E               CMP      R6,#+0
   \   00000028   16D1               BNE      ??CanvasPixel_0
    266               {
    267                 LCD_Canvas[kol][Y] &=~(1<<bit); 
   \   0000002A   2406               LSLS     R4,R4,#+24       ;; ZeroExtS R4,R4,#+24,#+24
   \   0000002C   240E               LSRS     R4,R4,#+24
   \   0000002E   2D06               LSLS     R5,R5,#+24       ;; ZeroExtS R5,R5,#+24,#+24
   \   00000030   2D0E               LSRS     R5,R5,#+24
   \   00000032   8020               MOVS     R0,#+128
   \   00000034   6843               MULS     R0,R5,R0
   \   00000036   ....               LDR      R2,??DataTable14  ;; LCD_Canvas
   \   00000038   1018               ADDS     R0,R2,R0
   \   0000003A   2200               MOVS     R2,R4
   \   0000003C   1206               LSLS     R2,R2,#+24       ;; ZeroExtS R2,R2,#+24,#+24
   \   0000003E   120E               LSRS     R2,R2,#+24
   \   00000040   2D06               LSLS     R5,R5,#+24       ;; ZeroExtS R5,R5,#+24,#+24
   \   00000042   2D0E               LSRS     R5,R5,#+24
   \   00000044   8023               MOVS     R3,#+128
   \   00000046   5D43               MULS     R5,R3,R5
   \   00000048   ....               LDR      R3,??DataTable14  ;; LCD_Canvas
   \   0000004A   5B19               ADDS     R3,R3,R5
   \   0000004C   9A5C               LDRB     R2,[R3, R2]
   \   0000004E   0123               MOVS     R3,#+1
   \   00000050   8B40               LSLS     R3,R3,R1
   \   00000052   9A43               BICS     R2,R2,R3
   \   00000054   0255               STRB     R2,[R0, R4]
   \   00000056   15E0               B        ??CanvasPixel_1
    268               }
    269               else
    270               {
    271                 LCD_Canvas[kol][Y] |=(1<<bit);  
   \                     ??CanvasPixel_0:
   \   00000058   2406               LSLS     R4,R4,#+24       ;; ZeroExtS R4,R4,#+24,#+24
   \   0000005A   240E               LSRS     R4,R4,#+24
   \   0000005C   2D06               LSLS     R5,R5,#+24       ;; ZeroExtS R5,R5,#+24,#+24
   \   0000005E   2D0E               LSRS     R5,R5,#+24
   \   00000060   8020               MOVS     R0,#+128
   \   00000062   6843               MULS     R0,R5,R0
   \   00000064   ....               LDR      R2,??DataTable14  ;; LCD_Canvas
   \   00000066   1018               ADDS     R0,R2,R0
   \   00000068   2200               MOVS     R2,R4
   \   0000006A   1206               LSLS     R2,R2,#+24       ;; ZeroExtS R2,R2,#+24,#+24
   \   0000006C   120E               LSRS     R2,R2,#+24
   \   0000006E   2D06               LSLS     R5,R5,#+24       ;; ZeroExtS R5,R5,#+24,#+24
   \   00000070   2D0E               LSRS     R5,R5,#+24
   \   00000072   8023               MOVS     R3,#+128
   \   00000074   5D43               MULS     R5,R3,R5
   \   00000076   ....               LDR      R3,??DataTable14  ;; LCD_Canvas
   \   00000078   5B19               ADDS     R3,R3,R5
   \   0000007A   9A5C               LDRB     R2,[R3, R2]
   \   0000007C   0123               MOVS     R3,#+1
   \   0000007E   8B40               LSLS     R3,R3,R1
   \   00000080   1343               ORRS     R3,R3,R2
   \   00000082   0355               STRB     R3,[R0, R4]
    272               }
    273          }//_______________________ Koniec funkcji CleanCanvasArea __________________________
   \                     ??CanvasPixel_1:
   \   00000084   01B0               ADD      SP,SP,#+4
   \   00000086   F0BC               POP      {R4-R7}
   \   00000088   01BC               POP      {R0}
   \   0000008A   0047               BX       R0               ;; return
    274          
    275          
    276          
    277          
    278          
    279          
    280          //*-----------------------------------------------------------------------------
    281          //* Nazwa funkcji :    CopyToCanvas
    282          //* Funkcja kopiowania dowolnej tablicy[8][128] do bufora wyœwietlacza 
    283          //*-----------------------------------------------------------------------------
    284          //* Efekt widoczny po odœwierzeniu LCD (RepaintLCD)
    285          //*-----------------------------------------------------------------------------

   \                                 In section Debug.txt, align 4, keep-with-next
    286          void CopyToCanvas(char Tabela[8][128])
    287          {
   \                     CopyToCanvas:
   \   00000000   10B5               PUSH     {R4,LR}
    288            for (int i=0; i<=7; i++)
   \   00000002   0021               MOVS     R1,#+0
   \   00000004   0CE0               B        ??CopyToCanvas_0
    289            {
    290              for (int j=0; j<=127; j++)
    291              {
    292                LCD_Canvas[i][j] =Tabela[i][j]; 
   \                     ??CopyToCanvas_1:
   \   00000006   8023               MOVS     R3,#+128
   \   00000008   4B43               MULS     R3,R1,R3
   \   0000000A   ....               LDR      R4,??DataTable14  ;; LCD_Canvas
   \   0000000C   E318               ADDS     R3,R4,R3
   \   0000000E   8024               MOVS     R4,#+128
   \   00000010   4C43               MULS     R4,R1,R4
   \   00000012   0419               ADDS     R4,R0,R4
   \   00000014   A45C               LDRB     R4,[R4, R2]
   \   00000016   9C54               STRB     R4,[R3, R2]
    293              }
   \   00000018   521C               ADDS     R2,R2,#+1
   \                     ??CopyToCanvas_2:
   \   0000001A   802A               CMP      R2,#+128
   \   0000001C   F3DB               BLT      ??CopyToCanvas_1
   \   0000001E   491C               ADDS     R1,R1,#+1
   \                     ??CopyToCanvas_0:
   \   00000020   0829               CMP      R1,#+8
   \   00000022   01DA               BGE      ??CopyToCanvas_3
   \   00000024   0022               MOVS     R2,#+0
   \   00000026   F8E7               B        ??CopyToCanvas_2
    294            }
    295          }//_______________________ Koniec funkcji CopyToCanvas __________________________
   \                     ??CopyToCanvas_3:
   \   00000028   10BC               POP      {R4}
   \   0000002A   01BC               POP      {R0}
   \   0000002C   0047               BX       R0               ;; return
    296          
    297          
    298          
    299          
    300          
    301          
    302          //*-----------------------------------------------------------------------------
    303          //* Nazwa funkcji :    CopyToCanvas
    304          //* Funkcja kopiowania dowolnej tablicy[8][128] do bufora wyœwietlacza 
    305          //*-----------------------------------------------------------------------------
    306          //* Efekt widoczny po odœwierzeniu LCD (RepaintLCD)
    307          //*-----------------------------------------------------------------------------

   \                                 In section Debug.txt, align 4, keep-with-next
    308          void CopyToCanvasPoint(char *Tabela, char X, char Y, char X_Lenght, char Y_Lenght)
    309          {
   \                     CopyToCanvasPoint:
   \   00000000   FBB5               PUSH     {R0,R1,R3-R7,LR}
   \   00000002   82B0               SUB      SP,SP,#+8
   \   00000004   1500               MOVS     R5,R2
    310          
    311            char kol=0;
   \   00000006   0024               MOVS     R4,#+0
    312            char bit=0;
   \   00000008   0021               MOVS     R1,#+0
    313            char kol2=0;
   \   0000000A   0022               MOVS     R2,#+0
    314            char bit2=0;
   \   0000000C   0020               MOVS     R0,#+0
    315            char linia=Y;
    316            
    317            for (int i=0; i<=Y_Lenght-1; i++)
   \   0000000E   0023               MOVS     R3,#+0
   \   00000010   0093               STR      R3,[SP, #+0]
   \   00000012   03E0               B        ??CopyToCanvasPoint_0
    318             {
    319          
    320               
    321               kol=(X)/8;
    322               bit=(X)%8;
    323               
    324               kol2=0;
    325               bit2=0;
    326                 
    327               for (int j=0; j<=X_Lenght-1; j++)
    328                {
    329                   if (((Tabela[(kol2*Y_Lenght)+(i)]>>bit2)&0x1)>0)
    330                    {
    331                       
    332                       LCD_Canvas[kol][linia] |=(1<<bit); 
    333                    }
    334                    else
    335                    {
    336                       LCD_Canvas[kol][linia] &=~(1<<bit);  
    337                    }
    338                   
    339            
    340                     if (bit<7)  { bit++;}  else {bit=0;   kol++;  }
    341                     if (bit2<7) { bit2++;} else {bit2=0;  kol2++; }           
    342                }   
    343               
    344                linia++;
   \                     ??CopyToCanvasPoint_1:
   \   00000014   6D1C               ADDS     R5,R5,#+1
   \   00000016   0098               LDR      R0,[SP, #+0]
   \   00000018   401C               ADDS     R0,R0,#+1
   \   0000001A   0090               STR      R0,[SP, #+0]
   \                     ??CopyToCanvasPoint_0:
   \   0000001C   0AA8               ADD      R0,SP,#+40
   \   0000001E   0078               LDRB     R0,[R0, #+0]
   \   00000020   401E               SUBS     R0,R0,#+1
   \   00000022   0099               LDR      R1,[SP, #+0]
   \   00000024   8842               CMP      R0,R1
   \   00000026   61DB               BLT      ??CopyToCanvasPoint_2
   \   00000028   6846               MOV      R0,SP
   \   0000002A   007B               LDRB     R0,[R0, #+12]
   \   0000002C   0821               MOVS     R1,#+8
   \   0000002E   ........           BL       __aeabi_idivmod
   \   00000032   0400               MOVS     R4,R0
   \   00000034   6846               MOV      R0,SP
   \   00000036   007B               LDRB     R0,[R0, #+12]
   \   00000038   0821               MOVS     R1,#+8
   \   0000003A   ........           BL       __aeabi_idivmod
   \   0000003E   0022               MOVS     R2,#+0
   \   00000040   0020               MOVS     R0,#+0
   \   00000042   0023               MOVS     R3,#+0
   \   00000044   02E0               B        ??CopyToCanvasPoint_3
   \                     ??CopyToCanvasPoint_4:
   \   00000046   0020               MOVS     R0,#+0
   \   00000048   521C               ADDS     R2,R2,#+1
   \                     ??CopyToCanvasPoint_5:
   \   0000004A   5B1C               ADDS     R3,R3,#+1
   \                     ??CopyToCanvasPoint_3:
   \   0000004C   6E46               MOV      R6,SP
   \   0000004E   367C               LDRB     R6,[R6, #+16]
   \   00000050   761E               SUBS     R6,R6,#+1
   \   00000052   9E42               CMP      R6,R3
   \   00000054   DEDB               BLT      ??CopyToCanvasPoint_1
   \   00000056   1206               LSLS     R2,R2,#+24       ;; ZeroExtS R2,R2,#+24,#+24
   \   00000058   120E               LSRS     R2,R2,#+24
   \   0000005A   0AAE               ADD      R6,SP,#+40
   \   0000005C   3678               LDRB     R6,[R6, #+0]
   \   0000005E   5643               MULS     R6,R2,R6
   \   00000060   009F               LDR      R7,[SP, #+0]
   \   00000062   F619               ADDS     R6,R6,R7
   \   00000064   029F               LDR      R7,[SP, #+8]
   \   00000066   BE5D               LDRB     R6,[R7, R6]
   \   00000068   0641               ASRS     R6,R6,R0
   \   0000006A   0127               MOVS     R7,#+1
   \   0000006C   3740               ANDS     R7,R7,R6
   \   0000006E   012F               CMP      R7,#+1
   \   00000070   17DB               BLT      ??CopyToCanvasPoint_6
   \   00000072   2D06               LSLS     R5,R5,#+24       ;; ZeroExtS R5,R5,#+24,#+24
   \   00000074   2D0E               LSRS     R5,R5,#+24
   \   00000076   2406               LSLS     R4,R4,#+24       ;; ZeroExtS R4,R4,#+24,#+24
   \   00000078   240E               LSRS     R4,R4,#+24
   \   0000007A   8026               MOVS     R6,#+128
   \   0000007C   6643               MULS     R6,R4,R6
   \   0000007E   1D4F               LDR      R7,??CopyToCanvasPoint_7  ;; LCD_Canvas
   \   00000080   BF19               ADDS     R7,R7,R6
   \   00000082   BC46               MOV      R12,R7
   \   00000084   2D06               LSLS     R5,R5,#+24       ;; ZeroExtS R5,R5,#+24,#+24
   \   00000086   2D0E               LSRS     R5,R5,#+24
   \   00000088   2406               LSLS     R4,R4,#+24       ;; ZeroExtS R4,R4,#+24,#+24
   \   0000008A   240E               LSRS     R4,R4,#+24
   \   0000008C   8027               MOVS     R7,#+128
   \   0000008E   6743               MULS     R7,R4,R7
   \   00000090   184E               LDR      R6,??CopyToCanvasPoint_7  ;; LCD_Canvas
   \   00000092   F619               ADDS     R6,R6,R7
   \   00000094   775D               LDRB     R7,[R6, R5]
   \   00000096   0126               MOVS     R6,#+1
   \   00000098   8E40               LSLS     R6,R6,R1
   \   0000009A   3E43               ORRS     R6,R6,R7
   \   0000009C   6746               MOV      R7,R12
   \   0000009E   7E55               STRB     R6,[R7, R5]
   \   000000A0   16E0               B        ??CopyToCanvasPoint_8
   \                     ??CopyToCanvasPoint_6:
   \   000000A2   2D06               LSLS     R5,R5,#+24       ;; ZeroExtS R5,R5,#+24,#+24
   \   000000A4   2D0E               LSRS     R5,R5,#+24
   \   000000A6   2406               LSLS     R4,R4,#+24       ;; ZeroExtS R4,R4,#+24,#+24
   \   000000A8   240E               LSRS     R4,R4,#+24
   \   000000AA   8026               MOVS     R6,#+128
   \   000000AC   6643               MULS     R6,R4,R6
   \   000000AE   114F               LDR      R7,??CopyToCanvasPoint_7  ;; LCD_Canvas
   \   000000B0   BE19               ADDS     R6,R7,R6
   \   000000B2   B446               MOV      R12,R6
   \   000000B4   2D06               LSLS     R5,R5,#+24       ;; ZeroExtS R5,R5,#+24,#+24
   \   000000B6   2D0E               LSRS     R5,R5,#+24
   \   000000B8   2406               LSLS     R4,R4,#+24       ;; ZeroExtS R4,R4,#+24,#+24
   \   000000BA   240E               LSRS     R4,R4,#+24
   \   000000BC   8027               MOVS     R7,#+128
   \   000000BE   6743               MULS     R7,R4,R7
   \   000000C0   0C4E               LDR      R6,??CopyToCanvasPoint_7  ;; LCD_Canvas
   \   000000C2   F619               ADDS     R6,R6,R7
   \   000000C4   775D               LDRB     R7,[R6, R5]
   \   000000C6   0126               MOVS     R6,#+1
   \   000000C8   8E40               LSLS     R6,R6,R1
   \   000000CA   B743               BICS     R7,R7,R6
   \   000000CC   6646               MOV      R6,R12
   \   000000CE   7755               STRB     R7,[R6, R5]
   \                     ??CopyToCanvasPoint_8:
   \   000000D0   0906               LSLS     R1,R1,#+24       ;; ZeroExtS R1,R1,#+24,#+24
   \   000000D2   090E               LSRS     R1,R1,#+24
   \   000000D4   0729               CMP      R1,#+7
   \   000000D6   01D2               BCS      ??CopyToCanvasPoint_9
   \   000000D8   491C               ADDS     R1,R1,#+1
   \   000000DA   01E0               B        ??CopyToCanvasPoint_10
   \                     ??CopyToCanvasPoint_9:
   \   000000DC   0021               MOVS     R1,#+0
   \   000000DE   641C               ADDS     R4,R4,#+1
   \                     ??CopyToCanvasPoint_10:
   \   000000E0   0006               LSLS     R0,R0,#+24       ;; ZeroExtS R0,R0,#+24,#+24
   \   000000E2   000E               LSRS     R0,R0,#+24
   \   000000E4   0728               CMP      R0,#+7
   \   000000E6   AED2               BCS      ??CopyToCanvasPoint_4
   \   000000E8   401C               ADDS     R0,R0,#+1
   \   000000EA   AEE7               B        ??CopyToCanvasPoint_5
    345             }
    346          
    347          }//_______________________ Koniec funkcji CopyToCanvas __________________________
   \                     ??CopyToCanvasPoint_2:
   \   000000EC   05B0               ADD      SP,SP,#+20
   \   000000EE   F0BC               POP      {R4-R7}
   \   000000F0   01BC               POP      {R0}
   \   000000F2   0047               BX       R0               ;; return
   \                     ??CopyToCanvasPoint_7:
   \   000000F4   ........           DC32     LCD_Canvas
    348          
    349          
    350          
    351          
    352          //*-----------------------------------------------------------------------------
    353          //* Nazwa funkcji :    at91DisplayOnOff
    354          //* Funkcja za³¹czania/wy³¹czania LCD
    355          //*-----------------------------------------------------------------------------
    356          //////////////////////////////////////////////////////
    357          // R/W  D/I  DB7  DB6  DB5  DB4  DB3  DB2  DB1  DB0 //
    358          //  RW   DI  DB7  DB6  DB5  DB4  DB3  DB2  DB1  DB0 //
    359          //   0    0    0    0    1    1    1    1    1    D //
    360          //                                                  //
    361          // on_off - "0" - OFF                               //
    362          //        - "1" - ON                                //
    363          //////////////////////////////////////////////////////
    364          //*-----------------------------------------------------------------------------
    365          

   \                                 In section Debug.txt, align 4, keep-with-next
    366           void at91DisplayOnOff(char on_off)
    367           {
   \                     at91DisplayOnOff:
   \   00000000   01B5               PUSH     {R0,LR}
    368              m_pPio->PIO_SODR =  LCD_BUS_MASK;                         // zeruje piny
   \   00000002   1449               LDR      R1,??at91DisplayOnOff_0  ;; m_pPio
   \   00000004   0968               LDR      R1,[R1, #+0]
   \   00000006   144A               LDR      R2,??at91DisplayOnOff_0+0x4  ;; 0x7e00811c
   \   00000008   0A63               STR      R2,[R1, #+48]
    369          
    370             
    371              //m_pPio->PIO_CODR = DB5 | DB4 | DB3 | DB2 | DB1 | on_off << 3;  // "1" na wyœwietlaczu
    372             if (on_off)
   \   0000000A   0006               LSLS     R0,R0,#+24       ;; ZeroExtS R0,R0,#+24,#+24
   \   0000000C   000E               LSRS     R0,R0,#+24
   \   0000000E   0028               CMP      R0,#+0
   \   00000010   04D0               BEQ      ??at91DisplayOnOff_1
    373             {
    374                m_pPio->PIO_CODR = DB5 | DB4 | DB3 | DB2 | DB1 | DB0;  // "1" na wyœwietlaczu
   \   00000012   1048               LDR      R0,??at91DisplayOnOff_0  ;; m_pPio
   \   00000014   0068               LDR      R0,[R0, #+0]
   \   00000016   1149               LDR      R1,??at91DisplayOnOff_0+0x8  ;; 0x3c000110
   \   00000018   4163               STR      R1,[R0, #+52]
   \   0000001A   03E0               B        ??at91DisplayOnOff_2
    375             }
    376             else
    377             {
    378                m_pPio->PIO_CODR = DB5 | DB4 | DB3 | DB2 | DB1;  // "1" na wyœwietlaczu 
   \                     ??at91DisplayOnOff_1:
   \   0000001C   0D48               LDR      R0,??at91DisplayOnOff_0  ;; m_pPio
   \   0000001E   0068               LDR      R0,[R0, #+0]
   \   00000020   0F49               LDR      R1,??at91DisplayOnOff_0+0xC  ;; 0x1c000110
   \   00000022   4163               STR      R1,[R0, #+52]
    379             }
    380             
    381             m_pPio->PIO_SODR = DI;
   \                     ??at91DisplayOnOff_2:
   \   00000024   0B48               LDR      R0,??at91DisplayOnOff_0  ;; m_pPio
   \   00000026   0068               LDR      R0,[R0, #+0]
   \   00000028   0421               MOVS     R1,#+4
   \   0000002A   0163               STR      R1,[R0, #+48]
    382              m_pPio->PIO_CODR = ENABLE;
   \   0000002C   0948               LDR      R0,??at91DisplayOnOff_0  ;; m_pPio
   \   0000002E   0068               LDR      R0,[R0, #+0]
   \   00000030   8021               MOVS     R1,#+128
   \   00000032   C905               LSLS     R1,R1,#+23       ;; #+1073741824
   \   00000034   4163               STR      R1,[R0, #+52]
    383              Delay(2);
   \   00000036   0220               MOVS     R0,#+2
   \   00000038   ........           BL       Delay
    384              m_pPio->PIO_SODR = ENABLE;
   \   0000003C   0548               LDR      R0,??at91DisplayOnOff_0  ;; m_pPio
   \   0000003E   0068               LDR      R0,[R0, #+0]
   \   00000040   8021               MOVS     R1,#+128
   \   00000042   C905               LSLS     R1,R1,#+23       ;; #+1073741824
   \   00000044   0163               STR      R1,[R0, #+48]
    385             m_pPio->PIO_SODR =  LCD_BUS_MASK;                         // "0" na wyœwietlaczu
   \   00000046   0348               LDR      R0,??at91DisplayOnOff_0  ;; m_pPio
   \   00000048   0068               LDR      R0,[R0, #+0]
   \   0000004A   0349               LDR      R1,??at91DisplayOnOff_0+0x4  ;; 0x7e00811c
   \   0000004C   0163               STR      R1,[R0, #+48]
    386          
    387          }//_______________________ Koniec funkcji at91DisplayOnOff ______________________
   \   0000004E   01B0               ADD      SP,SP,#+4
   \   00000050   01BC               POP      {R0}
   \   00000052   0047               BX       R0               ;; return
   \                     ??at91DisplayOnOff_0:
   \   00000054   ........           DC32     m_pPio
   \   00000058   1C81007E           DC32     0x7e00811c
   \   0000005C   1001003C           DC32     0x3c000110
   \   00000060   1001001C           DC32     0x1c000110
    388           
    389           
    390          
    391          
    392          
    393          
    394          
    395           
    396          //*-----------------------------------------------------------------------------
    397          //* Nazwa funkcji :    at91DisplayStartLine
    398          //* Funkcja ustawienia lini startowej
    399          //*-----------------------------------------------------------------------------
    400          //////////////////////////////////////////////////////
    401          // R/W  D/I  DB7  DB6  DB5  DB4  DB3  DB2  DB1  DB0 //
    402          //  RW   DI  DB7  DB6  DB5  DB4  DB3  DB2  DB1  DB0 //
    403          //   0    0    1    1    A    A    A    A    A    A //
    404          //                                                  //
    405          // AAAAAA - przesuniêcie w górê strony testowej     //
    406          //////////////////////////////////////////////////////
    407          //*-----------------------------------------------------------------------------

   \                                 In section Debug.txt, align 4, keep-with-next
    408           void at91DisplayStartLine(void)
    409           {
   \                     at91DisplayStartLine:
   \   00000000   01B5               PUSH     {R0,LR}
    410             m_pPio->PIO_SODR =  LCD_BUS_MASK;                         // zeruje piny
   \   00000002   1048               LDR      R0,??at91DisplayStartLine_0  ;; m_pPio
   \   00000004   0068               LDR      R0,[R0, #+0]
   \   00000006   1049               LDR      R1,??at91DisplayStartLine_0+0x4  ;; 0x7e00811c
   \   00000008   0163               STR      R1,[R0, #+48]
    411          
    412             
    413              m_pPio->PIO_CODR =  DB7 | DB6 ;  // "1" na wyœwietlaczu
   \   0000000A   0E48               LDR      R0,??at91DisplayStartLine_0  ;; m_pPio
   \   0000000C   0068               LDR      R0,[R0, #+0]
   \   0000000E   0F49               LDR      R1,??at91DisplayStartLine_0+0x8  ;; 0x2008000
   \   00000010   4163               STR      R1,[R0, #+52]
    414              m_pPio->PIO_SODR = DI ;
   \   00000012   0C48               LDR      R0,??at91DisplayStartLine_0  ;; m_pPio
   \   00000014   0068               LDR      R0,[R0, #+0]
   \   00000016   0421               MOVS     R1,#+4
   \   00000018   0163               STR      R1,[R0, #+48]
    415              m_pPio->PIO_CODR = ENABLE;
   \   0000001A   0A48               LDR      R0,??at91DisplayStartLine_0  ;; m_pPio
   \   0000001C   0068               LDR      R0,[R0, #+0]
   \   0000001E   8021               MOVS     R1,#+128
   \   00000020   C905               LSLS     R1,R1,#+23       ;; #+1073741824
   \   00000022   4163               STR      R1,[R0, #+52]
    416              Delay(2);
   \   00000024   0220               MOVS     R0,#+2
   \   00000026   ........           BL       Delay
    417              m_pPio->PIO_SODR = ENABLE;
   \   0000002A   0648               LDR      R0,??at91DisplayStartLine_0  ;; m_pPio
   \   0000002C   0068               LDR      R0,[R0, #+0]
   \   0000002E   8021               MOVS     R1,#+128
   \   00000030   C905               LSLS     R1,R1,#+23       ;; #+1073741824
   \   00000032   0163               STR      R1,[R0, #+48]
    418              m_pPio->PIO_SODR =  LCD_BUS_MASK;                         // "0" na wyœwietlaczu
   \   00000034   0348               LDR      R0,??at91DisplayStartLine_0  ;; m_pPio
   \   00000036   0068               LDR      R0,[R0, #+0]
   \   00000038   0349               LDR      R1,??at91DisplayStartLine_0+0x4  ;; 0x7e00811c
   \   0000003A   0163               STR      R1,[R0, #+48]
    419          
    420          }//_____________________ Koniec funkcji at91DisplayStartLine ___________________
   \   0000003C   01B0               ADD      SP,SP,#+4
   \   0000003E   01BC               POP      {R0}
   \   00000040   0047               BX       R0               ;; return
   \   00000042   C046               Nop      
   \                     ??at91DisplayStartLine_0:
   \   00000044   ........           DC32     m_pPio
   \   00000048   1C81007E           DC32     0x7e00811c
   \   0000004C   00800002           DC32     0x2008000
    421          
    422          
    423          
    424          
    425          
    426          
    427          
    428          
    429           
    430          //*-----------------------------------------------------------------------------
    431          //* Nazwa funkcji :    at91DisplayStartPage
    432          //* Funkcja ustawienia strony
    433          //*-----------------------------------------------------------------------------
    434          //////////////////////////////////////////////////////
    435          // R/W  D/I  DB7  DB6  DB5  DB4  DB3  DB2  DB1  DB0 //
    436          //  RW   DI  DB7  DB6  DB5  DB4  DB3  DB2  DB1  DB0 //
    437          //   0    0    1    0    1    1    1    A    A    A //
    438          //                                                  //
    439          // AAA - numer zapisywanej strony                   //
    440          //////////////////////////////////////////////////////
    441          //*-----------------------------------------------------------------------------
    442          

   \                                 In section Debug.txt, align 4, keep-with-next
    443           void at91DisplayStartPage(char lcd_start_page)
    444           {
   \                     at91DisplayStartPage:
   \   00000000   10B5               PUSH     {R4,LR}
    445              char data=lcd_start_page; 
    446              
    447              m_pPio->PIO_SODR =  LCD_BUS_MASK;                         // zeruje piny
   \   00000002   1B49               LDR      R1,??at91DisplayStartPage_0  ;; m_pPio
   \   00000004   0968               LDR      R1,[R1, #+0]
   \   00000006   1B4A               LDR      R2,??at91DisplayStartPage_0+0x4  ;; 0x7e00811c
   \   00000008   0A63               STR      R2,[R1, #+48]
    448          
    449                
    450              //m_pPio->PIO_CODR = DB7 | DB5 | DB4 | DB3 | lcd_start_page << 3;  // "1" na wyœwietlaczu
    451              m_pPio->PIO_CODR = DB7 | DB5 | DB4 | DB3 | (((data>>2)&0x1)<<mDB2) | (((data>>1)&0x1)<<mDB1) | (((data>>0)&0x1)<<mDB0) ;  // "1" na wyœwietlaczu
   \   0000000A   1949               LDR      R1,??at91DisplayStartPage_0  ;; m_pPio
   \   0000000C   0968               LDR      R1,[R1, #+0]
   \   0000000E   0006               LSLS     R0,R0,#+24       ;; ZeroExtS R0,R0,#+24,#+24
   \   00000010   000E               LSRS     R0,R0,#+24
   \   00000012   0200               MOVS     R2,R0
   \   00000014   9210               ASRS     R2,R2,#+2
   \   00000016   0123               MOVS     R3,#+1
   \   00000018   1340               ANDS     R3,R3,R2
   \   0000001A   DA06               LSLS     R2,R3,#+27
   \   0000001C   0006               LSLS     R0,R0,#+24       ;; ZeroExtS R0,R0,#+24,#+24
   \   0000001E   000E               LSRS     R0,R0,#+24
   \   00000020   0300               MOVS     R3,R0
   \   00000022   5B10               ASRS     R3,R3,#+1
   \   00000024   0124               MOVS     R4,#+1
   \   00000026   1C40               ANDS     R4,R4,R3
   \   00000028   2307               LSLS     R3,R4,#+28
   \   0000002A   1343               ORRS     R3,R3,R2
   \   0000002C   0006               LSLS     R0,R0,#+24       ;; ZeroExtS R0,R0,#+24,#+24
   \   0000002E   000E               LSRS     R0,R0,#+24
   \   00000030   0122               MOVS     R2,#+1
   \   00000032   0240               ANDS     R2,R2,R0
   \   00000034   5007               LSLS     R0,R2,#+29
   \   00000036   1843               ORRS     R0,R0,R3
   \   00000038   0F4A               LDR      R2,??at91DisplayStartPage_0+0x8  ;; 0x4008110
   \   0000003A   0243               ORRS     R2,R2,R0
   \   0000003C   4A63               STR      R2,[R1, #+52]
    452              m_pPio->PIO_SODR = DI ;
   \   0000003E   0C48               LDR      R0,??at91DisplayStartPage_0  ;; m_pPio
   \   00000040   0068               LDR      R0,[R0, #+0]
   \   00000042   0421               MOVS     R1,#+4
   \   00000044   0163               STR      R1,[R0, #+48]
    453              m_pPio->PIO_CODR = ENABLE;
   \   00000046   0A48               LDR      R0,??at91DisplayStartPage_0  ;; m_pPio
   \   00000048   0068               LDR      R0,[R0, #+0]
   \   0000004A   8021               MOVS     R1,#+128
   \   0000004C   C905               LSLS     R1,R1,#+23       ;; #+1073741824
   \   0000004E   4163               STR      R1,[R0, #+52]
    454              Delay(LCD_delay);
   \   00000050   2820               MOVS     R0,#+40
   \   00000052   ........           BL       Delay
    455              m_pPio->PIO_SODR = ENABLE;
   \   00000056   0648               LDR      R0,??at91DisplayStartPage_0  ;; m_pPio
   \   00000058   0068               LDR      R0,[R0, #+0]
   \   0000005A   8021               MOVS     R1,#+128
   \   0000005C   C905               LSLS     R1,R1,#+23       ;; #+1073741824
   \   0000005E   0163               STR      R1,[R0, #+48]
    456             m_pPio->PIO_SODR =  LCD_BUS_MASK;                         // "0" na wyœwietlaczu
   \   00000060   0348               LDR      R0,??at91DisplayStartPage_0  ;; m_pPio
   \   00000062   0068               LDR      R0,[R0, #+0]
   \   00000064   0349               LDR      R1,??at91DisplayStartPage_0+0x4  ;; 0x7e00811c
   \   00000066   0163               STR      R1,[R0, #+48]
    457          
    458          }//_____________________ Koniec funkcji at91DisplayStartPage ___________________
   \   00000068   10BC               POP      {R4}
   \   0000006A   01BC               POP      {R0}
   \   0000006C   0047               BX       R0               ;; return
   \   0000006E   C046               Nop      
   \                     ??at91DisplayStartPage_0:
   \   00000070   ........           DC32     m_pPio
   \   00000074   1C81007E           DC32     0x7e00811c
   \   00000078   10810004           DC32     0x4008110
    459          
    460          
    461          
    462          
    463          
    464          
    465          
    466          
    467          
    468          //*-----------------------------------------------------------------------------
    469          //* Nazwa funkcji :    at91DisplayYAdress
    470          //* Funkcja okreœla wspó³rzêdne X od których ma zacz¹æ 
    471          //*         zapisywaæ, automatycznie inkrementowane    
    472          //*         po kazdej operacji zapisu/odczytu
    473          //*-----------------------------------------------------------------------------      
    474          //////////////////////////////////////////////////////
    475          // R/W  D/I  DB7  DB6  DB5  DB4  DB3  DB2  DB1  DB0 //
    476          //  RW   DI  DB7  DB6  DB5  DB4  DB3  DB2  DB1  DB0 //
    477          //   0    0    0    1    A    A    A    A    A    A //
    478          //                                                  //
    479          // AAAAAA-przesuniêcie zapisywanej kolumny w prawo  //
    480          //////////////////////////////////////////////////////
    481          //*-----------------------------------------------------------------------------
    482          

   \                                 In section Debug.txt, align 4, keep-with-next
    483           void at91DisplayYAdress(char display_Y)
    484           {
   \                     at91DisplayYAdress:
   \   00000000   31B5               PUSH     {R0,R4,R5,LR}
    485             char data=(0x3F-display_Y); 
   \   00000002   3F21               MOVS     R1,#+63
   \   00000004   091A               SUBS     R1,R1,R0
    486             
    487             m_pPio->PIO_SODR =  LCD_BUS_MASK;                         // zeruje piny
   \   00000006   3F4A               LDR      R2,??at91DisplayYAdress_0  ;; m_pPio
   \   00000008   1268               LDR      R2,[R2, #+0]
   \   0000000A   3F4B               LDR      R3,??at91DisplayYAdress_0+0x4  ;; 0x7e00811c
   \   0000000C   1363               STR      R3,[R2, #+48]
    488          
    489          
    490              m_pPio->PIO_CODR = DB6 | (((display_Y>>5)&0x1)<<mDB5) | (((display_Y>>4)&0x1)<<mDB4) | (((display_Y>>3)&0x1)<<mDB3) | (((display_Y>>2)&0x1)<<mDB2) | (((display_Y>>1)&0x1)<<mDB1) | (((display_Y>>0)&0x1)<<mDB0);             // "0" na wyœwietlaczu // "1" na wyœwietlaczu
   \   0000000E   3D4A               LDR      R2,??at91DisplayYAdress_0  ;; m_pPio
   \   00000010   1268               LDR      R2,[R2, #+0]
   \   00000012   0006               LSLS     R0,R0,#+24       ;; ZeroExtS R0,R0,#+24,#+24
   \   00000014   000E               LSRS     R0,R0,#+24
   \   00000016   0300               MOVS     R3,R0
   \   00000018   5B11               ASRS     R3,R3,#+5
   \   0000001A   0124               MOVS     R4,#+1
   \   0000001C   1C40               ANDS     R4,R4,R3
   \   0000001E   A306               LSLS     R3,R4,#+26
   \   00000020   0006               LSLS     R0,R0,#+24       ;; ZeroExtS R0,R0,#+24,#+24
   \   00000022   000E               LSRS     R0,R0,#+24
   \   00000024   0400               MOVS     R4,R0
   \   00000026   2411               ASRS     R4,R4,#+4
   \   00000028   0125               MOVS     R5,#+1
   \   0000002A   2540               ANDS     R5,R5,R4
   \   0000002C   2C02               LSLS     R4,R5,#+8
   \   0000002E   1C43               ORRS     R4,R4,R3
   \   00000030   0006               LSLS     R0,R0,#+24       ;; ZeroExtS R0,R0,#+24,#+24
   \   00000032   000E               LSRS     R0,R0,#+24
   \   00000034   0300               MOVS     R3,R0
   \   00000036   DB10               ASRS     R3,R3,#+3
   \   00000038   0125               MOVS     R5,#+1
   \   0000003A   1D40               ANDS     R5,R5,R3
   \   0000003C   2B01               LSLS     R3,R5,#+4
   \   0000003E   2343               ORRS     R3,R3,R4
   \   00000040   0006               LSLS     R0,R0,#+24       ;; ZeroExtS R0,R0,#+24,#+24
   \   00000042   000E               LSRS     R0,R0,#+24
   \   00000044   0400               MOVS     R4,R0
   \   00000046   A410               ASRS     R4,R4,#+2
   \   00000048   0125               MOVS     R5,#+1
   \   0000004A   2540               ANDS     R5,R5,R4
   \   0000004C   EC06               LSLS     R4,R5,#+27
   \   0000004E   1C43               ORRS     R4,R4,R3
   \   00000050   0006               LSLS     R0,R0,#+24       ;; ZeroExtS R0,R0,#+24,#+24
   \   00000052   000E               LSRS     R0,R0,#+24
   \   00000054   0300               MOVS     R3,R0
   \   00000056   5B10               ASRS     R3,R3,#+1
   \   00000058   0125               MOVS     R5,#+1
   \   0000005A   1D40               ANDS     R5,R5,R3
   \   0000005C   2B07               LSLS     R3,R5,#+28
   \   0000005E   2343               ORRS     R3,R3,R4
   \   00000060   0006               LSLS     R0,R0,#+24       ;; ZeroExtS R0,R0,#+24,#+24
   \   00000062   000E               LSRS     R0,R0,#+24
   \   00000064   0124               MOVS     R4,#+1
   \   00000066   0440               ANDS     R4,R4,R0
   \   00000068   6007               LSLS     R0,R4,#+29
   \   0000006A   1843               ORRS     R0,R0,R3
   \   0000006C   8023               MOVS     R3,#+128
   \   0000006E   9B04               LSLS     R3,R3,#+18       ;; #+33554432
   \   00000070   0343               ORRS     R3,R3,R0
   \   00000072   5363               STR      R3,[R2, #+52]
    491              m_pPio->PIO_SODR = DI | (((data>>5)&0x1)<<mDB5) | (((data>>4)&0x1)<<mDB4) | (((data>>3)&0x1)<<mDB3) | (((data>>2)&0x1)<<mDB2) | (((data>>1)&0x1)<<mDB1) | (((data>>0)&0x1)<<mDB0);             // "0" na wyœwietlaczu
   \   00000074   2348               LDR      R0,??at91DisplayYAdress_0  ;; m_pPio
   \   00000076   0068               LDR      R0,[R0, #+0]
   \   00000078   0906               LSLS     R1,R1,#+24       ;; ZeroExtS R1,R1,#+24,#+24
   \   0000007A   090E               LSRS     R1,R1,#+24
   \   0000007C   0A00               MOVS     R2,R1
   \   0000007E   5211               ASRS     R2,R2,#+5
   \   00000080   0123               MOVS     R3,#+1
   \   00000082   1340               ANDS     R3,R3,R2
   \   00000084   9A06               LSLS     R2,R3,#+26
   \   00000086   0906               LSLS     R1,R1,#+24       ;; ZeroExtS R1,R1,#+24,#+24
   \   00000088   090E               LSRS     R1,R1,#+24
   \   0000008A   0B00               MOVS     R3,R1
   \   0000008C   1B11               ASRS     R3,R3,#+4
   \   0000008E   0124               MOVS     R4,#+1
   \   00000090   1C40               ANDS     R4,R4,R3
   \   00000092   2302               LSLS     R3,R4,#+8
   \   00000094   1343               ORRS     R3,R3,R2
   \   00000096   0906               LSLS     R1,R1,#+24       ;; ZeroExtS R1,R1,#+24,#+24
   \   00000098   090E               LSRS     R1,R1,#+24
   \   0000009A   0A00               MOVS     R2,R1
   \   0000009C   D210               ASRS     R2,R2,#+3
   \   0000009E   0124               MOVS     R4,#+1
   \   000000A0   1440               ANDS     R4,R4,R2
   \   000000A2   2201               LSLS     R2,R4,#+4
   \   000000A4   1A43               ORRS     R2,R2,R3
   \   000000A6   0906               LSLS     R1,R1,#+24       ;; ZeroExtS R1,R1,#+24,#+24
   \   000000A8   090E               LSRS     R1,R1,#+24
   \   000000AA   0B00               MOVS     R3,R1
   \   000000AC   9B10               ASRS     R3,R3,#+2
   \   000000AE   0124               MOVS     R4,#+1
   \   000000B0   1C40               ANDS     R4,R4,R3
   \   000000B2   E306               LSLS     R3,R4,#+27
   \   000000B4   1343               ORRS     R3,R3,R2
   \   000000B6   0906               LSLS     R1,R1,#+24       ;; ZeroExtS R1,R1,#+24,#+24
   \   000000B8   090E               LSRS     R1,R1,#+24
   \   000000BA   0A00               MOVS     R2,R1
   \   000000BC   5210               ASRS     R2,R2,#+1
   \   000000BE   0124               MOVS     R4,#+1
   \   000000C0   1440               ANDS     R4,R4,R2
   \   000000C2   2207               LSLS     R2,R4,#+28
   \   000000C4   1A43               ORRS     R2,R2,R3
   \   000000C6   0906               LSLS     R1,R1,#+24       ;; ZeroExtS R1,R1,#+24,#+24
   \   000000C8   090E               LSRS     R1,R1,#+24
   \   000000CA   0123               MOVS     R3,#+1
   \   000000CC   0B40               ANDS     R3,R3,R1
   \   000000CE   5907               LSLS     R1,R3,#+29
   \   000000D0   1143               ORRS     R1,R1,R2
   \   000000D2   0422               MOVS     R2,#+4
   \   000000D4   0A43               ORRS     R2,R2,R1
   \   000000D6   0263               STR      R2,[R0, #+48]
    492              
    493              m_pPio->PIO_CODR = ENABLE;
   \   000000D8   0A48               LDR      R0,??at91DisplayYAdress_0  ;; m_pPio
   \   000000DA   0068               LDR      R0,[R0, #+0]
   \   000000DC   8021               MOVS     R1,#+128
   \   000000DE   C905               LSLS     R1,R1,#+23       ;; #+1073741824
   \   000000E0   4163               STR      R1,[R0, #+52]
    494              Delay(1);
   \   000000E2   0120               MOVS     R0,#+1
   \   000000E4   ........           BL       Delay
    495              m_pPio->PIO_SODR = ENABLE;
   \   000000E8   0648               LDR      R0,??at91DisplayYAdress_0  ;; m_pPio
   \   000000EA   0068               LDR      R0,[R0, #+0]
   \   000000EC   8021               MOVS     R1,#+128
   \   000000EE   C905               LSLS     R1,R1,#+23       ;; #+1073741824
   \   000000F0   0163               STR      R1,[R0, #+48]
    496              m_pPio->PIO_SODR =  LCD_BUS_MASK;                       // "0" na wyœwietlaczu
   \   000000F2   0448               LDR      R0,??at91DisplayYAdress_0  ;; m_pPio
   \   000000F4   0068               LDR      R0,[R0, #+0]
   \   000000F6   0449               LDR      R1,??at91DisplayYAdress_0+0x4  ;; 0x7e00811c
   \   000000F8   0163               STR      R1,[R0, #+48]
    497          }//_______________________ Koniec funkcji at91DisplayYAdress ___________________
   \   000000FA   01B0               ADD      SP,SP,#+4
   \   000000FC   30BC               POP      {R4,R5}
   \   000000FE   01BC               POP      {R0}
   \   00000100   0047               BX       R0               ;; return
   \   00000102   C046               Nop      
   \                     ??at91DisplayYAdress_0:
   \   00000104   ........           DC32     m_pPio
   \   00000108   1C81007E           DC32     0x7e00811c
    498          
    499           
    500           
    501          
    502           
    503          
    504          
    505          
    506          //*-----------------------------------------------------------------------------
    507          //* Nazwa funkcji :    at91DisplayData
    508          //* Funkcja wpisywania danych do Ram LCD
    509          //*-----------------------------------------------------------------------------
    510          //* R/W  D/I  DB7  DB6  DB5  DB4  DB3  DB2  DB1  DB0 
    511          //*  RW   DI  DB7  DB6  DB5  DB4  DB3  DB2  DB1  DB0 
    512          //*  0    1    A    A    A    A    A    A    A    A 
    513          //*                                                  
    514          //*  AAAAAAAA - dane                                  
    515          //*-----------------------------------------------------------------------------
    516          

   \                                 In section Debug.txt, align 4
    517          inline void at91DisplayData(char lcd_data)
    518           {
   \                     at91DisplayData:
   \   00000000   31B5               PUSH     {R0,R4,R5,LR}
    519          
    520             char data=(0xFF-lcd_data); 
   \   00000002   FF21               MOVS     R1,#+255
   \   00000004   091A               SUBS     R1,R1,R0
    521             m_pPio->PIO_SODR =  LCD_BUS_MASK;                         // zeruje piny
   \   00000006   4B4A               LDR      R2,??at91DisplayData_0  ;; m_pPio
   \   00000008   1268               LDR      R2,[R2, #+0]
   \   0000000A   4B4B               LDR      R3,??at91DisplayData_0+0x4  ;; 0x7e00811c
   \   0000000C   1363               STR      R3,[R2, #+48]
    522             
    523                m_pPio->PIO_CODR = DI | (((lcd_data>>7)&0x1)<<mDB7) | (((lcd_data>>6)&0x1)<<mDB6) | (((lcd_data>>5)&0x1)<<mDB5) | (((lcd_data>>4)&0x1)<<mDB4) | (((lcd_data>>3)&0x1)<<mDB3) | (((lcd_data>>2)&0x1)<<mDB2) | (((lcd_data>>1)&0x1)<<mDB1) | (((lcd_data>>0)&0x1)<<mDB0); 
   \   0000000E   494A               LDR      R2,??at91DisplayData_0  ;; m_pPio
   \   00000010   1268               LDR      R2,[R2, #+0]
   \   00000012   0300               MOVS     R3,R0
   \   00000014   1B06               LSLS     R3,R3,#+24       ;; ZeroExtS R3,R3,#+24,#+24
   \   00000016   1B0E               LSRS     R3,R3,#+24
   \   00000018   DB09               LSRS     R3,R3,#+7
   \   0000001A   1B06               LSLS     R3,R3,#+24       ;; ZeroExtS R3,R3,#+24,#+24
   \   0000001C   1B0E               LSRS     R3,R3,#+24
   \   0000001E   DB03               LSLS     R3,R3,#+15
   \   00000020   0006               LSLS     R0,R0,#+24       ;; ZeroExtS R0,R0,#+24,#+24
   \   00000022   000E               LSRS     R0,R0,#+24
   \   00000024   0400               MOVS     R4,R0
   \   00000026   A411               ASRS     R4,R4,#+6
   \   00000028   0125               MOVS     R5,#+1
   \   0000002A   2540               ANDS     R5,R5,R4
   \   0000002C   6C06               LSLS     R4,R5,#+25
   \   0000002E   1C43               ORRS     R4,R4,R3
   \   00000030   0006               LSLS     R0,R0,#+24       ;; ZeroExtS R0,R0,#+24,#+24
   \   00000032   000E               LSRS     R0,R0,#+24
   \   00000034   0300               MOVS     R3,R0
   \   00000036   5B11               ASRS     R3,R3,#+5
   \   00000038   0125               MOVS     R5,#+1
   \   0000003A   1D40               ANDS     R5,R5,R3
   \   0000003C   AB06               LSLS     R3,R5,#+26
   \   0000003E   2343               ORRS     R3,R3,R4
   \   00000040   0006               LSLS     R0,R0,#+24       ;; ZeroExtS R0,R0,#+24,#+24
   \   00000042   000E               LSRS     R0,R0,#+24
   \   00000044   0400               MOVS     R4,R0
   \   00000046   2411               ASRS     R4,R4,#+4
   \   00000048   0125               MOVS     R5,#+1
   \   0000004A   2540               ANDS     R5,R5,R4
   \   0000004C   2C02               LSLS     R4,R5,#+8
   \   0000004E   1C43               ORRS     R4,R4,R3
   \   00000050   0006               LSLS     R0,R0,#+24       ;; ZeroExtS R0,R0,#+24,#+24
   \   00000052   000E               LSRS     R0,R0,#+24
   \   00000054   0300               MOVS     R3,R0
   \   00000056   DB10               ASRS     R3,R3,#+3
   \   00000058   0125               MOVS     R5,#+1
   \   0000005A   1D40               ANDS     R5,R5,R3
   \   0000005C   2B01               LSLS     R3,R5,#+4
   \   0000005E   2343               ORRS     R3,R3,R4
   \   00000060   0006               LSLS     R0,R0,#+24       ;; ZeroExtS R0,R0,#+24,#+24
   \   00000062   000E               LSRS     R0,R0,#+24
   \   00000064   0400               MOVS     R4,R0
   \   00000066   A410               ASRS     R4,R4,#+2
   \   00000068   0125               MOVS     R5,#+1
   \   0000006A   2540               ANDS     R5,R5,R4
   \   0000006C   EC06               LSLS     R4,R5,#+27
   \   0000006E   1C43               ORRS     R4,R4,R3
   \   00000070   0006               LSLS     R0,R0,#+24       ;; ZeroExtS R0,R0,#+24,#+24
   \   00000072   000E               LSRS     R0,R0,#+24
   \   00000074   0300               MOVS     R3,R0
   \   00000076   5B10               ASRS     R3,R3,#+1
   \   00000078   0125               MOVS     R5,#+1
   \   0000007A   1D40               ANDS     R5,R5,R3
   \   0000007C   2B07               LSLS     R3,R5,#+28
   \   0000007E   2343               ORRS     R3,R3,R4
   \   00000080   0006               LSLS     R0,R0,#+24       ;; ZeroExtS R0,R0,#+24,#+24
   \   00000082   000E               LSRS     R0,R0,#+24
   \   00000084   0124               MOVS     R4,#+1
   \   00000086   0440               ANDS     R4,R4,R0
   \   00000088   6007               LSLS     R0,R4,#+29
   \   0000008A   1843               ORRS     R0,R0,R3
   \   0000008C   0423               MOVS     R3,#+4
   \   0000008E   0343               ORRS     R3,R3,R0
   \   00000090   5363               STR      R3,[R2, #+52]
    524                m_pPio->PIO_SODR = (((data>>7)&0x1)<<mDB7) | (((data>>6)&0x1)<<mDB6) | (((data>>5)&0x1)<<mDB5) | (((data>>4)&0x1)<<mDB4) | (((data>>3)&0x1)<<mDB3) | (((data>>2)&0x1)<<mDB2) | (((data>>1)&0x1)<<mDB1) | (((data>>0)&0x1)<<mDB0); 
   \   00000092   2848               LDR      R0,??at91DisplayData_0  ;; m_pPio
   \   00000094   0068               LDR      R0,[R0, #+0]
   \   00000096   0A00               MOVS     R2,R1
   \   00000098   1206               LSLS     R2,R2,#+24       ;; ZeroExtS R2,R2,#+24,#+24
   \   0000009A   120E               LSRS     R2,R2,#+24
   \   0000009C   D209               LSRS     R2,R2,#+7
   \   0000009E   1206               LSLS     R2,R2,#+24       ;; ZeroExtS R2,R2,#+24,#+24
   \   000000A0   120E               LSRS     R2,R2,#+24
   \   000000A2   D203               LSLS     R2,R2,#+15
   \   000000A4   0906               LSLS     R1,R1,#+24       ;; ZeroExtS R1,R1,#+24,#+24
   \   000000A6   090E               LSRS     R1,R1,#+24
   \   000000A8   0B00               MOVS     R3,R1
   \   000000AA   9B11               ASRS     R3,R3,#+6
   \   000000AC   0124               MOVS     R4,#+1
   \   000000AE   1C40               ANDS     R4,R4,R3
   \   000000B0   6306               LSLS     R3,R4,#+25
   \   000000B2   1343               ORRS     R3,R3,R2
   \   000000B4   0906               LSLS     R1,R1,#+24       ;; ZeroExtS R1,R1,#+24,#+24
   \   000000B6   090E               LSRS     R1,R1,#+24
   \   000000B8   0A00               MOVS     R2,R1
   \   000000BA   5211               ASRS     R2,R2,#+5
   \   000000BC   0124               MOVS     R4,#+1
   \   000000BE   1440               ANDS     R4,R4,R2
   \   000000C0   A206               LSLS     R2,R4,#+26
   \   000000C2   1A43               ORRS     R2,R2,R3
   \   000000C4   0906               LSLS     R1,R1,#+24       ;; ZeroExtS R1,R1,#+24,#+24
   \   000000C6   090E               LSRS     R1,R1,#+24
   \   000000C8   0B00               MOVS     R3,R1
   \   000000CA   1B11               ASRS     R3,R3,#+4
   \   000000CC   0124               MOVS     R4,#+1
   \   000000CE   1C40               ANDS     R4,R4,R3
   \   000000D0   2302               LSLS     R3,R4,#+8
   \   000000D2   1343               ORRS     R3,R3,R2
   \   000000D4   0906               LSLS     R1,R1,#+24       ;; ZeroExtS R1,R1,#+24,#+24
   \   000000D6   090E               LSRS     R1,R1,#+24
   \   000000D8   0A00               MOVS     R2,R1
   \   000000DA   D210               ASRS     R2,R2,#+3
   \   000000DC   0124               MOVS     R4,#+1
   \   000000DE   1440               ANDS     R4,R4,R2
   \   000000E0   2201               LSLS     R2,R4,#+4
   \   000000E2   1A43               ORRS     R2,R2,R3
   \   000000E4   0906               LSLS     R1,R1,#+24       ;; ZeroExtS R1,R1,#+24,#+24
   \   000000E6   090E               LSRS     R1,R1,#+24
   \   000000E8   0B00               MOVS     R3,R1
   \   000000EA   9B10               ASRS     R3,R3,#+2
   \   000000EC   0124               MOVS     R4,#+1
   \   000000EE   1C40               ANDS     R4,R4,R3
   \   000000F0   E306               LSLS     R3,R4,#+27
   \   000000F2   1343               ORRS     R3,R3,R2
   \   000000F4   0906               LSLS     R1,R1,#+24       ;; ZeroExtS R1,R1,#+24,#+24
   \   000000F6   090E               LSRS     R1,R1,#+24
   \   000000F8   0A00               MOVS     R2,R1
   \   000000FA   5210               ASRS     R2,R2,#+1
   \   000000FC   0124               MOVS     R4,#+1
   \   000000FE   1440               ANDS     R4,R4,R2
   \   00000100   2207               LSLS     R2,R4,#+28
   \   00000102   1A43               ORRS     R2,R2,R3
   \   00000104   0906               LSLS     R1,R1,#+24       ;; ZeroExtS R1,R1,#+24,#+24
   \   00000106   090E               LSRS     R1,R1,#+24
   \   00000108   0123               MOVS     R3,#+1
   \   0000010A   0B40               ANDS     R3,R3,R1
   \   0000010C   5907               LSLS     R1,R3,#+29
   \   0000010E   1143               ORRS     R1,R1,R2
   \   00000110   0163               STR      R1,[R0, #+48]
    525             
    526          
    527              
    528             m_pPio->PIO_CODR = ENABLE;
   \   00000112   0848               LDR      R0,??at91DisplayData_0  ;; m_pPio
   \   00000114   0068               LDR      R0,[R0, #+0]
   \   00000116   8021               MOVS     R1,#+128
   \   00000118   C905               LSLS     R1,R1,#+23       ;; #+1073741824
   \   0000011A   4163               STR      R1,[R0, #+52]
    529          
    530              Delay(18);
   \   0000011C   1220               MOVS     R0,#+18
   \   0000011E   ........           BL       Delay
    531              m_pPio->PIO_SODR = ENABLE;
   \   00000122   0448               LDR      R0,??at91DisplayData_0  ;; m_pPio
   \   00000124   0068               LDR      R0,[R0, #+0]
   \   00000126   8021               MOVS     R1,#+128
   \   00000128   C905               LSLS     R1,R1,#+23       ;; #+1073741824
   \   0000012A   0163               STR      R1,[R0, #+48]
    532          
    533             // m_pPio->PIO_SODR =  LCD_BUS_MASK;                         // zeruje piny
    534          
    535          }//_______________________ Koniec funkcji at91DisplayData ______________________
   \   0000012C   01B0               ADD      SP,SP,#+4
   \   0000012E   30BC               POP      {R4,R5}
   \   00000130   01BC               POP      {R0}
   \   00000132   0047               BX       R0               ;; return
   \                     ??at91DisplayData_0:
   \   00000134   ........           DC32     m_pPio
   \   00000138   1C81007E           DC32     0x7e00811c
    536          
    537          
    538           
    539           
    540           
    541          //*-----------------------------------------------------------------------------
    542          //* Nazwa funkcji :    at91ChipSelect
    543          //* Funkcja wyboru kontrolera 1z2
    544          //*-----------------------------------------------------------------------------
    545          //* chip_select - "1" - CS1                   
    546          //*             - "2" - CS2      
    547          //*-----------------------------------------------------------------------------
    548          

   \                                 In section Debug.txt, align 4, keep-with-next
    549           void at91ChipSelect(char chip_select)
    550           {
   \                     at91ChipSelect:
   \   00000000   10B5               PUSH     {R4,LR}
    551             unsigned long cs_set;
    552             unsigned long cs_clr;
    553             
    554             m_pPio->PIO_SODR =  LCD_BUS_MASK;                         // zeruje piny
   \   00000002   104B               LDR      R3,??at91ChipSelect_0  ;; m_pPio
   \   00000004   1B68               LDR      R3,[R3, #+0]
   \   00000006   104C               LDR      R4,??at91ChipSelect_0+0x4  ;; 0x7e00811c
   \   00000008   1C63               STR      R4,[R3, #+48]
    555          
    556             
    557             if (chip_select==2) 
   \   0000000A   0006               LSLS     R0,R0,#+24       ;; ZeroExtS R0,R0,#+24,#+24
   \   0000000C   000E               LSRS     R0,R0,#+24
   \   0000000E   0228               CMP      R0,#+2
   \   00000010   03D1               BNE      ??at91ChipSelect_1
    558                {
    559                  cs_set=CS2;
   \   00000012   8021               MOVS     R1,#+128
   \   00000014   0904               LSLS     R1,R1,#+16       ;; #+8388608
    560                  cs_clr=CS1;
   \   00000016   8022               MOVS     R2,#+128
   \   00000018   5202               LSLS     R2,R2,#+9        ;; #+65536
    561                }
    562           
    563             if (chip_select==1) 
   \                     ??at91ChipSelect_1:
   \   0000001A   0006               LSLS     R0,R0,#+24       ;; ZeroExtS R0,R0,#+24,#+24
   \   0000001C   000E               LSRS     R0,R0,#+24
   \   0000001E   0128               CMP      R0,#+1
   \   00000020   03D1               BNE      ??at91ChipSelect_2
    564                {
    565                  cs_set=CS1;
   \   00000022   8021               MOVS     R1,#+128
   \   00000024   4902               LSLS     R1,R1,#+9        ;; #+65536
    566                  cs_clr=CS2;
   \   00000026   8022               MOVS     R2,#+128
   \   00000028   1204               LSLS     R2,R2,#+16       ;; #+8388608
    567                }
    568             
    569          
    570          
    571             
    572              m_pPio->PIO_SODR = cs_clr;   
   \                     ??at91ChipSelect_2:
   \   0000002A   0648               LDR      R0,??at91ChipSelect_0  ;; m_pPio
   \   0000002C   0068               LDR      R0,[R0, #+0]
   \   0000002E   0263               STR      R2,[R0, #+48]
    573              m_pPio->PIO_CODR = cs_set;                           // "1" na wyœwietlaczu
   \   00000030   0448               LDR      R0,??at91ChipSelect_0  ;; m_pPio
   \   00000032   0068               LDR      R0,[R0, #+0]
   \   00000034   4163               STR      R1,[R0, #+52]
    574              
    575              
    576              
    577          at91DisplayOnOff(1); 
   \   00000036   0120               MOVS     R0,#+1
   \   00000038   ........           BL       at91DisplayOnOff
    578            
    579            
    580          
    581          }//_______________________ Koniec funkcji at91ChipSelect __________________________
   \   0000003C   10BC               POP      {R4}
   \   0000003E   01BC               POP      {R0}
   \   00000040   0047               BX       R0               ;; return
   \   00000042   C046               Nop      
   \                     ??at91ChipSelect_0:
   \   00000044   ........           DC32     m_pPio
   \   00000048   1C81007E           DC32     0x7e00811c
    582          
    583           
    584           
    585          
    586          
    587          
    588          
    589          
    590          //*-----------------------------------------------------------------------------
    591          //* Nazwa funkcji :    ReadTP
    592          //* Funkcja obs³ugi TouchPanel`a
    593          //*-----------------------------------------------------------------------------
    594          //*  !!! Czas trwania funkcji 15us
    595          //*-----------------------------------------------------------------------------
    596          

   \                                 In section Debug.txt, align 4, keep-with-next
    597          void ReadTP(_TPoint *Point)
    598          {
   \                     ReadTP:
   \   00000000   70B5               PUSH     {R4-R6,LR}
   \   00000002   0400               MOVS     R4,R0
    599            unsigned pomX, pomY;
    600            pomX=0;
   \   00000004   0025               MOVS     R5,#+0
    601            pomY=0;
   \   00000006   0026               MOVS     R6,#+0
    602          
    603              //POMIAR X -------------------------------------------------------------------
    604            AT91F_PIO_CfgOutput(TS_PIO, TS_PIO_CH1);
   \   00000008   8021               MOVS     R1,#+128
   \   0000000A   C902               LSLS     R1,R1,#+11       ;; #+262144
   \   0000000C   2848               LDR      R0,??ReadTP_0    ;; 0xfffff400
   \   0000000E   ........           BL       AT91F_PIO_CfgOutput
    605            AT91F_PIO_CfgOutput(TS_PIO, TS_PIO_CH3);
   \   00000012   8021               MOVS     R1,#+128
   \   00000014   4903               LSLS     R1,R1,#+13       ;; #+1048576
   \   00000016   2648               LDR      R0,??ReadTP_0    ;; 0xfffff400
   \   00000018   ........           BL       AT91F_PIO_CfgOutput
    606           
    607            AT91F_PIO_CfgInput(TS_PIO, TS_PIO_CH0);
   \   0000001C   8021               MOVS     R1,#+128
   \   0000001E   8902               LSLS     R1,R1,#+10       ;; #+131072
   \   00000020   2348               LDR      R0,??ReadTP_0    ;; 0xfffff400
   \   00000022   ........           BL       AT91F_PIO_CfgInput
    608            TS_PIO->PIO_PPUDR=TS_PIO_CH0;
   \   00000026   2348               LDR      R0,??ReadTP_0+0x4  ;; 0xfffff460
   \   00000028   8021               MOVS     R1,#+128
   \   0000002A   8902               LSLS     R1,R1,#+10       ;; #+131072
   \   0000002C   0160               STR      R1,[R0, #+0]
    609            
    610            TS_pPio->PIO_SODR = TS_PIO_CH1; 
   \   0000002E   2248               LDR      R0,??ReadTP_0+0x8  ;; TS_pPio
   \   00000030   0068               LDR      R0,[R0, #+0]
   \   00000032   8021               MOVS     R1,#+128
   \   00000034   C902               LSLS     R1,R1,#+11       ;; #+262144
   \   00000036   0163               STR      R1,[R0, #+48]
    611            TS_pPio->PIO_CODR = TS_PIO_CH3;         
   \   00000038   1F48               LDR      R0,??ReadTP_0+0x8  ;; TS_pPio
   \   0000003A   0068               LDR      R0,[R0, #+0]
   \   0000003C   8021               MOVS     R1,#+128
   \   0000003E   4903               LSLS     R1,R1,#+13       ;; #+1048576
   \   00000040   4163               STR      R1,[R0, #+52]
    612              
    613            pomX =  ReadADC(2);
   \   00000042   0220               MOVS     R0,#+2
   \   00000044   ........           BL       ReadADC
   \   00000048   0500               MOVS     R5,R0
    614            
    615          
    616            
    617            //POMIAR Y -------------------------------------------------------------------
    618            AT91F_PIO_CfgOutput(TS_PIO, TS_PIO_CH0);
   \   0000004A   8021               MOVS     R1,#+128
   \   0000004C   8902               LSLS     R1,R1,#+10       ;; #+131072
   \   0000004E   1848               LDR      R0,??ReadTP_0    ;; 0xfffff400
   \   00000050   ........           BL       AT91F_PIO_CfgOutput
    619            AT91F_PIO_CfgOutput(TS_PIO, TS_PIO_CH2);
   \   00000054   8021               MOVS     R1,#+128
   \   00000056   0903               LSLS     R1,R1,#+12       ;; #+524288
   \   00000058   1548               LDR      R0,??ReadTP_0    ;; 0xfffff400
   \   0000005A   ........           BL       AT91F_PIO_CfgOutput
    620            
    621            AT91F_PIO_CfgInput(TS_PIO, TS_PIO_CH3);
   \   0000005E   8021               MOVS     R1,#+128
   \   00000060   4903               LSLS     R1,R1,#+13       ;; #+1048576
   \   00000062   1348               LDR      R0,??ReadTP_0    ;; 0xfffff400
   \   00000064   ........           BL       AT91F_PIO_CfgInput
    622            TS_PIO->PIO_PPUDR=TS_PIO_CH3;
   \   00000068   1248               LDR      R0,??ReadTP_0+0x4  ;; 0xfffff460
   \   0000006A   8021               MOVS     R1,#+128
   \   0000006C   4903               LSLS     R1,R1,#+13       ;; #+1048576
   \   0000006E   0160               STR      R1,[R0, #+0]
    623            
    624            TS_pPio->PIO_SODR = TS_PIO_CH2; 
   \   00000070   1148               LDR      R0,??ReadTP_0+0x8  ;; TS_pPio
   \   00000072   0068               LDR      R0,[R0, #+0]
   \   00000074   8021               MOVS     R1,#+128
   \   00000076   0903               LSLS     R1,R1,#+12       ;; #+524288
   \   00000078   0163               STR      R1,[R0, #+48]
    625            TS_pPio->PIO_CODR = TS_PIO_CH0;        
   \   0000007A   0F48               LDR      R0,??ReadTP_0+0x8  ;; TS_pPio
   \   0000007C   0068               LDR      R0,[R0, #+0]
   \   0000007E   8021               MOVS     R1,#+128
   \   00000080   8902               LSLS     R1,R1,#+10       ;; #+131072
   \   00000082   4163               STR      R1,[R0, #+52]
    626            
    627            
    628            pomY =  ReadADC(1);
   \   00000084   0120               MOVS     R0,#+1
   \   00000086   ........           BL       ReadADC
   \   0000008A   0600               MOVS     R6,R0
    629          
    630            //walidacja / wykrycie dotkniêcia
    631            if ((pomY>900) || (pomY<=0) || (pomX>900) || (pomX<=0) )
   \   0000008C   0B48               LDR      R0,??ReadTP_0+0xC  ;; 0x385
   \   0000008E   8642               CMP      R6,R0
   \   00000090   06D2               BCS      ??ReadTP_1
   \   00000092   002E               CMP      R6,#+0
   \   00000094   04D0               BEQ      ??ReadTP_1
   \   00000096   0948               LDR      R0,??ReadTP_0+0xC  ;; 0x385
   \   00000098   8542               CMP      R5,R0
   \   0000009A   01D2               BCS      ??ReadTP_1
   \   0000009C   002D               CMP      R5,#+0
   \   0000009E   01D1               BNE      ??ReadTP_2
    632            {
    633              pomY=0;
   \                     ??ReadTP_1:
   \   000000A0   0026               MOVS     R6,#+0
    634              pomX=0;
   \   000000A2   0025               MOVS     R5,#+0
    635            }
    636          
    637            //kalibracja -----------------------------------------------------------------
    638          
    639          
    640            //przepisanie pomiarów
    641            Point->y=pomY;
   \                     ??ReadTP_2:
   \   000000A4   6680               STRH     R6,[R4, #+2]
    642            Point->x=pomX;
   \   000000A6   2580               STRH     R5,[R4, #+0]
    643          }
   \   000000A8   70BC               POP      {R4-R6}
   \   000000AA   01BC               POP      {R0}
   \   000000AC   0047               BX       R0               ;; return
   \   000000AE   C046               Nop      
   \                     ??ReadTP_0:
   \   000000B0   00F4FFFF           DC32     0xfffff400
   \   000000B4   60F4FFFF           DC32     0xfffff460
   \   000000B8   ........           DC32     TS_pPio
   \   000000BC   85030000           DC32     0x385
    644          //END Touth panel ----------------------------------------------------------  
    645          
    646          
    647          
    648          
    649          
    650          
    651          //*-----------------------------------------------------------------------------
    652          //* Nazwa funkcji :    ReadADC
    653          //*-----------------------------------------------------------------------------
    654          //*-----------------------------------------------------------------------------

   \                                 In section .bss, align 2
    655              unsigned short odp=0; 
   \                     odp:
   \   00000000                      DS8 2
    656          

   \                                 In section Debug.txt, align 4, keep-with-next
    657          unsigned short ReadADC (char Channel) 
    658          { 
   \                     ReadADC:
   \   00000000   01B5               PUSH     {R0,LR}
    659          
    660           
    661          
    662              //enable channel and set PIN to ADCx function (no need to write PIO!!) 
    663            AT91C_BASE_ADC->ADC_CR = AT91C_ADC_SWRST; 
   \   00000002   2849               LDR      R1,??ReadADC_0   ;; 0xfffd8000
   \   00000004   0122               MOVS     R2,#+1
   \   00000006   0A60               STR      R2,[R1, #+0]
    664          AT91C_BASE_ADC->ADC_MR = (15<24)|(11<<16)|(4<<8); 
   \   00000008   2749               LDR      R1,??ReadADC_0+0x4  ;; 0xfffd8004
   \   0000000A   284A               LDR      R2,??ReadADC_0+0x8  ;; 0xb0401
   \   0000000C   0A60               STR      R2,[R1, #+0]
    665          AT91C_BASE_ADC->ADC_CHDR =0xFF;   
   \   0000000E   2849               LDR      R1,??ReadADC_0+0xC  ;; 0xfffd8014
   \   00000010   FF22               MOVS     R2,#+255
   \   00000012   0A60               STR      R2,[R1, #+0]
    666            
    667            //AT91C_BASE_ADC->ADC_CHDR =0xFF; 
    668              AT91C_BASE_ADC->ADC_CHER = (1<< Channel);    
   \   00000014   2749               LDR      R1,??ReadADC_0+0x10  ;; 0xfffd8010
   \   00000016   0122               MOVS     R2,#+1
   \   00000018   8240               LSLS     R2,R2,R0
   \   0000001A   0A60               STR      R2,[R1, #+0]
    669              
    670          
    671              //start first conversion 
    672              AT91C_BASE_ADC->ADC_CR = AT91C_ADC_START; 
   \   0000001C   2149               LDR      R1,??ReadADC_0   ;; 0xfffd8000
   \   0000001E   0222               MOVS     R2,#+2
   \   00000020   0A60               STR      R2,[R1, #+0]
    673           
    674              while ((AT91C_BASE_ADC->ADC_SR &(1 << Channel))==0){};
   \                     ??ReadADC_1:
   \   00000022   2549               LDR      R1,??ReadADC_0+0x14  ;; 0xfffd801c
   \   00000024   0968               LDR      R1,[R1, #+0]
   \   00000026   0122               MOVS     R2,#+1
   \   00000028   8240               LSLS     R2,R2,R0
   \   0000002A   0A40               ANDS     R2,R2,R1
   \   0000002C   002A               CMP      R2,#+0
   \   0000002E   F8D0               BEQ      ??ReadADC_1
    675              //while ((AT91C_BASE_ADC->ADC_SR & AT91C_ADC_DRDY)==0){};
    676          
    677                switch (Channel){
   \   00000030   0006               LSLS     R0,R0,#+24       ;; ZeroExtS R0,R0,#+24,#+24
   \   00000032   000E               LSRS     R0,R0,#+24
   \   00000034   0100               MOVS     R1,R0
   \   00000036   0029               CMP      R1,#+0
   \   00000038   0AD0               BEQ      ??ReadADC_2
   \   0000003A   0129               CMP      R1,#+1
   \   0000003C   0DD0               BEQ      ??ReadADC_3
   \   0000003E   0229               CMP      R1,#+2
   \   00000040   10D0               BEQ      ??ReadADC_4
   \   00000042   0329               CMP      R1,#+3
   \   00000044   13D0               BEQ      ??ReadADC_5
   \   00000046   0429               CMP      R1,#+4
   \   00000048   16D0               BEQ      ??ReadADC_6
   \   0000004A   0529               CMP      R1,#+5
   \   0000004C   19D0               BEQ      ??ReadADC_7
   \   0000004E   1CE0               B        ??ReadADC_8
    678                  case 0: odp=AT91C_BASE_ADC->ADC_CDR0; break; 
   \                     ??ReadADC_2:
   \   00000050   1A49               LDR      R1,??ReadADC_0+0x18  ;; odp
   \   00000052   1B4A               LDR      R2,??ReadADC_0+0x1C  ;; 0xfffd8030
   \   00000054   1268               LDR      R2,[R2, #+0]
   \   00000056   0A80               STRH     R2,[R1, #+0]
   \   00000058   17E0               B        ??ReadADC_8
    679                  case 1: odp=AT91C_BASE_ADC->ADC_CDR1; break;  
   \                     ??ReadADC_3:
   \   0000005A   1849               LDR      R1,??ReadADC_0+0x18  ;; odp
   \   0000005C   194A               LDR      R2,??ReadADC_0+0x20  ;; 0xfffd8034
   \   0000005E   1268               LDR      R2,[R2, #+0]
   \   00000060   0A80               STRH     R2,[R1, #+0]
   \   00000062   12E0               B        ??ReadADC_8
    680                  case 2: odp=AT91C_BASE_ADC->ADC_CDR2; break;  
   \                     ??ReadADC_4:
   \   00000064   1549               LDR      R1,??ReadADC_0+0x18  ;; odp
   \   00000066   184A               LDR      R2,??ReadADC_0+0x24  ;; 0xfffd8038
   \   00000068   1268               LDR      R2,[R2, #+0]
   \   0000006A   0A80               STRH     R2,[R1, #+0]
   \   0000006C   0DE0               B        ??ReadADC_8
    681                  case 3: odp=AT91C_BASE_ADC->ADC_CDR3; break;  
   \                     ??ReadADC_5:
   \   0000006E   1349               LDR      R1,??ReadADC_0+0x18  ;; odp
   \   00000070   164A               LDR      R2,??ReadADC_0+0x28  ;; 0xfffd803c
   \   00000072   1268               LDR      R2,[R2, #+0]
   \   00000074   0A80               STRH     R2,[R1, #+0]
   \   00000076   08E0               B        ??ReadADC_8
    682                  case 4: odp=AT91C_BASE_ADC->ADC_CDR4; break;  
   \                     ??ReadADC_6:
   \   00000078   1049               LDR      R1,??ReadADC_0+0x18  ;; odp
   \   0000007A   154A               LDR      R2,??ReadADC_0+0x2C  ;; 0xfffd8040
   \   0000007C   1268               LDR      R2,[R2, #+0]
   \   0000007E   0A80               STRH     R2,[R1, #+0]
   \   00000080   03E0               B        ??ReadADC_8
    683                  case 5: odp=AT91C_BASE_ADC->ADC_CDR5; break;  
   \                     ??ReadADC_7:
   \   00000082   0E49               LDR      R1,??ReadADC_0+0x18  ;; odp
   \   00000084   134A               LDR      R2,??ReadADC_0+0x30  ;; 0xfffd8044
   \   00000086   1268               LDR      R2,[R2, #+0]
   \   00000088   0A80               STRH     R2,[R1, #+0]
    684                } 
    685                
    686                
    687           while ((AT91C_BASE_ADC->ADC_SR &(1 << Channel))==1){};
   \                     ??ReadADC_8:
   \   0000008A   0B49               LDR      R1,??ReadADC_0+0x14  ;; 0xfffd801c
   \   0000008C   0968               LDR      R1,[R1, #+0]
   \   0000008E   0122               MOVS     R2,#+1
   \   00000090   8240               LSLS     R2,R2,R0
   \   00000092   0A40               ANDS     R2,R2,R1
   \   00000094   012A               CMP      R2,#+1
   \   00000096   F8D0               BEQ      ??ReadADC_8
    688               
    689               // odp=AT91C_BASE_ADC->ADC_LCDR;
    690          
    691          
    692                
    693               // AT91C_BASE_ADC->ADC_CR = AT91C_ADC_SWRST; 
    694                
    695               // AT91C_BASE_ADC->ADC_CHDR = (1<< Channel);
    696              return odp;
   \   00000098   0848               LDR      R0,??ReadADC_0+0x18  ;; odp
   \   0000009A   0088               LDRH     R0,[R0, #+0]
   \   0000009C   01B0               ADD      SP,SP,#+4
   \   0000009E   02BC               POP      {R1}
   \   000000A0   0847               BX       R1               ;; return
   \   000000A2   C046               Nop      
   \                     ??ReadADC_0:
   \   000000A4   0080FDFF           DC32     0xfffd8000
   \   000000A8   0480FDFF           DC32     0xfffd8004
   \   000000AC   01040B00           DC32     0xb0401
   \   000000B0   1480FDFF           DC32     0xfffd8014
   \   000000B4   1080FDFF           DC32     0xfffd8010
   \   000000B8   1C80FDFF           DC32     0xfffd801c
   \   000000BC   ........           DC32     odp
   \   000000C0   3080FDFF           DC32     0xfffd8030
   \   000000C4   3480FDFF           DC32     0xfffd8034
   \   000000C8   3880FDFF           DC32     0xfffd8038
   \   000000CC   3C80FDFF           DC32     0xfffd803c
   \   000000D0   4080FDFF           DC32     0xfffd8040
   \   000000D4   4480FDFF           DC32     0xfffd8044
    697          }
    698          //*-----------------------------------------------------------------------------   
    699             
    700          
    701          
    702          //*-----------------------------------------------------------------------------
    703          //* Nazwa funkcji :    InitTS
    704          //* Funkcja inicjalizacji obs³ugi touchopanel`a
    705          //*-----------------------------------------------------------------------------
    706          //*-----------------------------------------------------------------------------

   \                                 In section Debug.txt, align 4, keep-with-next
    707          void Init_LCD_TS(void) 
    708          { 
   \                     Init_LCD_TS:
   \   00000000   01B5               PUSH     {R0,LR}
    709          //LCD panel ----------------------------------------------------------  
    710           AT91F_PIO_ClearOutput(LCD_PIO,(unsigned int)LightLCD);
   \   00000002   0121               MOVS     R1,#+1
   \   00000004   1848               LDR      R0,??Init_LCD_TS_0  ;; 0xfffff400
   \   00000006   ........           BL       AT91F_PIO_ClearOutput
    711            AT91F_PIO_CfgOutput(LCD_PIO,(unsigned int)LightLCD);      //AT91PS_PIO pPio, unsigned int pioEnable
   \   0000000A   0121               MOVS     R1,#+1
   \   0000000C   1648               LDR      R0,??Init_LCD_TS_0  ;; 0xfffff400
   \   0000000E   ........           BL       AT91F_PIO_CfgOutput
    712          
    713            at91DisplayOnOff(1);     // 0-OFF, 1-ON   
   \   00000012   0120               MOVS     R0,#+1
   \   00000014   ........           BL       at91DisplayOnOff
    714            at91DisplayStartPage(0);
   \   00000018   0020               MOVS     R0,#+0
   \   0000001A   ........           BL       at91DisplayStartPage
    715            at91DisplayStartLine();  // set start line 
   \   0000001E   ........           BL       at91DisplayStartLine
    716             //  at91DisplayStartPage(0);
    717             //at91DisplayYAdress(0);
    718            
    719          //Touth panel ----------------------------------------------------------   
    720             
    721          AT91C_BASE_PIOA->PIO_PPUDR|= TS_PIO_CH0;    //Pull-up enable enable reg.
   \   00000022   1248               LDR      R0,??Init_LCD_TS_0+0x4  ;; 0xfffff460
   \   00000024   1149               LDR      R1,??Init_LCD_TS_0+0x4  ;; 0xfffff460
   \   00000026   0968               LDR      R1,[R1, #+0]
   \   00000028   8022               MOVS     R2,#+128
   \   0000002A   9202               LSLS     R2,R2,#+10       ;; #+131072
   \   0000002C   0A43               ORRS     R2,R2,R1
   \   0000002E   0260               STR      R2,[R0, #+0]
    722          AT91C_BASE_PIOA->PIO_PPUDR|= TS_PIO_CH1;    //Pull-up enable enable reg.
   \   00000030   0E48               LDR      R0,??Init_LCD_TS_0+0x4  ;; 0xfffff460
   \   00000032   0E49               LDR      R1,??Init_LCD_TS_0+0x4  ;; 0xfffff460
   \   00000034   0968               LDR      R1,[R1, #+0]
   \   00000036   8022               MOVS     R2,#+128
   \   00000038   D202               LSLS     R2,R2,#+11       ;; #+262144
   \   0000003A   0A43               ORRS     R2,R2,R1
   \   0000003C   0260               STR      R2,[R0, #+0]
    723          AT91C_BASE_PIOA->PIO_PPUDR|= TS_PIO_CH2;    //Pull-up enable enable reg.
   \   0000003E   0B48               LDR      R0,??Init_LCD_TS_0+0x4  ;; 0xfffff460
   \   00000040   0A49               LDR      R1,??Init_LCD_TS_0+0x4  ;; 0xfffff460
   \   00000042   0968               LDR      R1,[R1, #+0]
   \   00000044   8022               MOVS     R2,#+128
   \   00000046   1203               LSLS     R2,R2,#+12       ;; #+524288
   \   00000048   0A43               ORRS     R2,R2,R1
   \   0000004A   0260               STR      R2,[R0, #+0]
    724          AT91C_BASE_PIOA->PIO_PPUDR|= TS_PIO_CH3;    //Pull-up enable enable reg.
   \   0000004C   0748               LDR      R0,??Init_LCD_TS_0+0x4  ;; 0xfffff460
   \   0000004E   0749               LDR      R1,??Init_LCD_TS_0+0x4  ;; 0xfffff460
   \   00000050   0968               LDR      R1,[R1, #+0]
   \   00000052   8022               MOVS     R2,#+128
   \   00000054   5203               LSLS     R2,R2,#+13       ;; #+1048576
   \   00000056   0A43               ORRS     R2,R2,R1
   \   00000058   0260               STR      R2,[R0, #+0]
    725            
    726          AT91C_BASE_ADC->ADC_MR = (3<24)|(11<<16)|(4<<8); 
   \   0000005A   0548               LDR      R0,??Init_LCD_TS_0+0x8  ;; 0xfffd8004
   \   0000005C   0549               LDR      R1,??Init_LCD_TS_0+0xC  ;; 0xb0401
   \   0000005E   0160               STR      R1,[R0, #+0]
    727          
    728          }//_______________________ Koniec funkcji InitTS __________________________
   \   00000060   01B0               ADD      SP,SP,#+4
   \   00000062   01BC               POP      {R0}
   \   00000064   0047               BX       R0               ;; return
   \   00000066   C046               Nop      
   \                     ??Init_LCD_TS_0:
   \   00000068   00F4FFFF           DC32     0xfffff400
   \   0000006C   60F4FFFF           DC32     0xfffff460
   \   00000070   0480FDFF           DC32     0xfffd8004
   \   00000074   01040B00           DC32     0xb0401
    729          
    730          
    731          
    732          
    733          
    734          
    735          
    736          
    737          
    738          
    739          

   \                                 In section .rodata, align 4
    740          const char Arial_7[101][10] = {
   \                     Arial_7:
   \   00000000   077F7F3E3E3E       DC8 7, 127, 127, 62, 62, 62, 28, 28, 8, 8, 7, 8, 8, 28, 28, 62, 62, 62
   \              1C1C08080708
   \              081C1C3E3E3E
   \   00000012   7F7F00000000       DC8 127, 127, 0, 0, 0, 0, 0, 0, 0, 0, 0, 0, 1, 0, 1, 0, 1, 1, 1, 1, 1
   \              000000000000
   \              010001000101
   \              010101      
   \   00000027   000300000000       DC8 0, 3, 0, 0, 0, 0, 0, 0, 5, 5, 0, 6, 3, 7, 15, 31, 63, 31, 15, 7, 3
   \              000005050006
   \              03070F1F3F1F
   \              0F0703      
   \   0000003C   0630383C3E3F       DC8 6, 48, 56, 60, 62, 63, 62, 60, 56, 48, 8, 228, 164, 232, 8, 16, 16
   \              3E3C383008E4
   \              A4E8081010  
   \   0000004D   172527050004       DC8 23, 37, 39, 5, 0, 4, 14, 21, 12, 6, 21, 14, 4, 5, 0, 0, 0, 0, 0, 0
   \              0E150C06150E
   \              040500000000
   \              0000        
   \   00000061   110A04030402       DC8 17, 10, 4, 3, 4, 2, 1, 1, 1, 1, 1, 2, 4, 3, 1, 2, 4, 4, 4, 4, 4, 2
   \              010101010102
   \              040301020404
   \              04040402    
   \   00000077   010300000005       DC8 1, 3, 0, 0, 0, 5, 2, 5, 0, 0, 0, 5, 0, 4, 4, 31, 4, 4, 0, 0, 0, 1
   \              020500000005
   \              0004041F0404
   \              00000001    
   \   0000008D   010100000000       DC8 1, 1, 0, 0, 0, 0, 0, 0, 0, 2, 0, 0, 0, 3, 0, 0, 0, 0, 0, 1, 0, 1, 0
   \              000000020000
   \              000300000000
   \              0001000100  
   \   000000A4   000000000000       DC8 0, 0, 0, 0, 0, 0, 3, 0, 1, 1, 2, 2, 2, 4, 4, 0, 4, 0, 6, 9, 9, 9, 9
   \              030001010202
   \              020404000400
   \              0609090909  
   \   000000BB   090600020002       DC8 9, 6, 0, 2, 0, 2, 2, 2, 2, 2, 3, 2, 0, 4, 0, 15, 2, 4, 4, 8, 9, 6
   \              020202020302
   \              0004000F0204
   \              04080906    
   \   000000D1   000400060908       DC8 0, 4, 0, 6, 9, 8, 4, 8, 9, 6, 0, 4, 0, 8, 8, 31, 9, 10, 12, 8, 0, 4
   \              040809060004
   \              0008081F090A
   \              0C080004    
   \   000000E7   000609080807       DC8 0, 6, 9, 8, 8, 7, 1, 15, 0, 4, 0, 6, 9, 9, 9, 7, 9, 6, 0, 4, 0, 2
   \              010F00040006
   \              090909070906
   \              00040002    
   \   000000FD   02020404080F       DC8 2, 2, 4, 4, 8, 15, 0, 4, 0, 6, 9, 9, 6, 9, 9, 6, 0, 4, 0, 6, 9, 14
   \              000400060909
   \              060909060004
   \              0006090E    
   \   00000113   090909060001       DC8 9, 9, 9, 6, 0, 1, 0, 1, 0, 0, 0, 1, 0, 0, 0, 1, 1, 1, 0, 0, 0, 1, 0
   \              000100000001
   \              000000010101
   \              0000000100  
   \   0000012A   000003000004       DC8 0, 0, 3, 0, 0, 4, 2, 1, 2, 4, 0, 0, 4, 0, 0, 0, 15, 0, 15, 0, 0, 0
   \              020102040000
   \              040000000F00
   \              0F000000    
   \   00000140   030000010204       DC8 3, 0, 0, 1, 2, 4, 2, 1, 0, 0, 5, 0, 4, 0, 4, 12, 16, 17, 14, 0, 8
   \              020100000500
   \              0400040C1011
   \              0E0008      
   \   00000155   C23D5595B5A9       DC8 194, 61, 85, 149, 181, 169, 66, 60, 0, 7, 0, 65, 34, 62, 34, 20, 20
   \              423C00070041
   \              223E221414  
   \   00000166   080004000709       DC8 8, 0, 4, 0, 7, 9, 9, 15, 9, 9, 7, 0, 5, 0, 14, 17, 1, 1, 1, 17, 14
   \              090F09090700
   \              05000E110101
   \              01110E      
   \   0000017B   0005000F1111       DC8 0, 5, 0, 15, 17, 17, 17, 17, 17, 15, 0, 5, 0, 31, 1, 1, 31, 1, 1
   \              1111110F0005
   \              001F01011F01
   \              01          
   \   0000018E   1F0004000101       DC8 31, 0, 4, 0, 1, 1, 1, 7, 1, 1, 15, 0, 5, 0, 14, 17, 17, 25, 1, 17
   \              010701010F00
   \              05000E111119
   \              0111        
   \   000001A2   0E0005001111       DC8 14, 0, 5, 0, 17, 17, 17, 31, 17, 17, 17, 0, 3, 0, 7, 2, 2, 2, 2, 2
   \              111F11111100
   \              030007020202
   \              0202        
   \   000001B6   070004000709       DC8 7, 0, 4, 0, 7, 9, 8, 8, 8, 8, 8, 0, 5, 0, 17, 9, 5, 3, 5, 9, 17, 0
   \              080808080800
   \              050011090503
   \              05091100    
   \   000001CC   04000F010101       DC8 4, 0, 15, 1, 1, 1, 1, 1, 1, 0, 7, 0, 73, 85, 85, 85, 99, 99, 65, 0
   \              010101000700
   \              495555556363
   \              4100        
   \   000001E0   050011191915       DC8 5, 0, 17, 25, 25, 21, 19, 19, 17, 0, 5, 0, 14, 17, 17, 17, 17, 17
   \              131311000500
   \              0E1111111111
   \   000001F2   0E0004000101       DC8 14, 0, 4, 0, 1, 1, 1, 15, 9, 9, 15, 0, 5, 0, 30, 9, 17, 17, 17, 17
   \              010F09090F00
   \              05001E091111
   \              1111        
   \   00000206   0E0005001111       DC8 14, 0, 5, 0, 17, 17, 9, 15, 17, 17, 15, 0, 4, 0, 6, 9, 8, 6, 1, 9
   \              090F11110F00
   \              040006090806
   \              0109        
   \   0000021A   060005000404       DC8 6, 0, 5, 0, 4, 4, 4, 4, 4, 4, 31, 0, 5, 0, 14, 17, 17, 17, 17, 17
   \              040404041F00
   \              05000E111111
   \              1111        
   \   0000022E   11000500040A       DC8 17, 0, 5, 0, 4, 10, 10, 10, 17, 17, 17, 0, 7, 0, 34, 34, 85, 73, 73
   \              0A0A11111100
   \              070022225549
   \              49          
   \   00000241   41410005110A       DC8 65, 65, 0, 5, 17, 10, 10, 4, 10, 10, 17, 0, 0, 5, 0, 4, 4, 4, 4, 10
   \              0A040A0A1100
   \              000500040404
   \              040A        
   \   00000255   0A110006003F       DC8 10, 17, 0, 6, 0, 63, 1, 2, 4, 8, 16, 63, 0, 2, 1, 1, 1, 1, 1, 1, 1
   \              01020408103F
   \              000201010101
   \              010101      
   \   0000026A   030003000404       DC8 3, 0, 3, 0, 4, 4, 2, 2, 2, 1, 1, 0, 2, 2, 2, 2, 2, 2, 2, 2, 3, 0, 3
   \              020202010100
   \              020202020202
   \              0202030003  
   \   00000281   000000000005       DC8 0, 0, 0, 0, 0, 5, 5, 2, 0, 5, 0, 31, 0, 0, 0, 0, 0, 0, 0, 2, 0, 0
   \              05020005001F
   \              000000000000
   \              00020000    
   \   00000297   000000000201       DC8 0, 0, 0, 0, 2, 1, 0, 4, 0, 15, 9, 14, 8, 15, 0, 0, 0, 4, 0, 7, 9, 9
   \              0004000F090E
   \              080F00000004
   \              00070909    
   \   000002AD   090701010004       DC8 9, 7, 1, 1, 0, 4, 0, 6, 9, 1, 9, 6, 0, 0, 0, 4, 0, 14, 9, 9, 9, 14
   \              000609010906
   \              00000004000E
   \              0909090E    
   \   000002C3   08080004000E       DC8 8, 8, 0, 4, 0, 14, 1, 15, 9, 6, 0, 0, 0, 3, 0, 2, 2, 2, 2, 7, 2, 4
   \              010F09060000
   \              000300020202
   \              02070204    
   \   000002D9   000406090E09       DC8 0, 4, 6, 9, 14, 9, 9, 14, 0, 0, 0, 4, 0, 9, 9, 9, 9, 7, 1, 1, 0, 1
   \              090E00000004
   \              000909090907
   \              01010001    
   \   000002EF   000909090905       DC8 0, 9, 9, 9, 9, 5, 0, 1, 0, 1, 1, 9, 9, 9, 9, 5, 0, 1, 0, 4, 0, 9, 5
   \              000100010109
   \              090909050001
   \              0004000905  
   \   00000306   070509010100       DC8 7, 5, 9, 1, 1, 0, 1, 0, 1, 1, 1, 1, 1, 1, 1, 0, 7, 0, 73, 73, 73
   \              010001010101
   \              010101000700
   \              494949      
   \   0000031B   493F00000004       DC8 73, 63, 0, 0, 0, 4, 0, 9, 9, 9, 9, 7, 0, 0, 0, 4, 0, 70, 73, 73, 73
   \              000909090907
   \              000000040046
   \              494949      
   \   00000330   260000000401       DC8 38, 0, 0, 0, 4, 1, 71, 73, 73, 73, 39, 0, 0, 0, 4, 8, 78, 73, 73
   \              474949492700
   \              000004084E49
   \              49          
   \   00000343   492E00000003       DC8 73, 46, 0, 0, 0, 3, 0, 1, 1, 1, 1, 7, 0, 0, 0, 4, 0, 71, 72, 70, 65
   \              000101010107
   \              000000040047
   \              484641      
   \   00000358   2E0000000200       DC8 46, 0, 0, 0, 2, 0, 67, 73, 65, 65, 43, 1, 0, 0, 4, 0, 14, 9, 9, 9
   \              434941412B01
   \              000004000E09
   \              0909        
   \   0000036C   090000000500       DC8 9, 0, 0, 0, 5, 0, 68, 74, 74, 74, 17, 0, 0, 0, 5, 0, 10, 21, 21, 21
   \              444A4A4A1100
   \              000005000A15
   \              1515        
   \   00000380   150000000400       DC8 21, 0, 0, 0, 4, 0, 73, 70, 70, 70, 9, 0, 0, 0, 5, 4, 4, 10, 10, 10
   \              494646460900
   \              00000504040A
   \              0A0A        
   \   00000394   110000000300       DC8 17, 0, 0, 0, 3, 0, 71, 65, 66, 68, 23, 0, 0, 0, 3, 2, 66, 66, 65
   \              474142441700
   \              000003024242
   \              41          
   \   000003A7   421202060001       DC8 66, 18, 2, 6, 0, 1, 1, 1, 1, 1, 1, 1, 1, 1, 0, 3, 2, 2, 2, 4, 2, 2
   \              010101010101
   \              010100030202
   \              02040202    
   \   000003BD   020300040000       DC8 2, 3, 0, 4, 0, 0, 0, 13, 11, 0, 0, 0, 0, 8, 0, 96, 144, 16, 16, 18
   \              000D0B000000
   \              000800609010
   \              1012        
   \   000003D1   95620005001E       DC8 149, 98, 0, 5, 0, 30, 1, 31, 1, 31, 1, 30, 0, 5, 0, 17, 10, 10, 4
   \              011F011F011E
   \              000500110A0A
   \              04          
   \   000003E4   0A0A11000700       DC8 10, 10, 17, 0, 7, 0, 28, 34, 65, 73, 73, 42, 8, 0, 0, 0
   \              1C224149492A
   \              08000000    
    741                            {7,127,127,62,62,62,28,28,8,8},        //30   ""
    742                            {7,8,8,28,28,62,62,62,127,127},        //31   ""
    743                            {0,0,0,0,0,0,0,0,0,0},        //32   " "
    744                            {1,0,1,0,1,1,1,1,1,0},        //33   "!"
    745                            {3,0,0,0,0,0,0,5,5,0},        //34   """
    746                            {6,3,7,15,31,63,31,15,7,3},        //35   "Strza³ka w prawo"
    747                            {6,48,56,60,62,63,62,60,56,48},        //36   "Strza³ka w lewo"
    748                            {8,228,164,232,8,16,16,23,37,39},        //37   "%"
    749                            {5,0,4,14,21,12,6,21,14,4},        //38   "$"
    750                            {5,0,0,0,0,0,0,17,10,4},        //39   "^"
    751                            {3,4,2,1,1,1,1,1,2,4},        //40   "("
    752                            {3,1,2,4,4,4,4,4,2,1},        //41   ")"
    753                            {3,0,0,0,5,2,5,0,0,0},        //42   "*"
    754                            {5,0,4,4,31,4,4,0,0,0},        //43   "+"//{5,0,36,4,63,4,4,0,0,0}, 
    755                            {1,1,1,0,0,0,0,0,0,0},        //44   ","
    756                            {2,0,0,0,3,0,0,0,0,0},        //45   "-"
    757                            {1,0,1,0,0,0,0,0,0,0},        //46   "."
    758                            {3,0,1,1,2,2,2,4,4,0},        //47   "/"
    759                            {4,0,6,9,9,9,9,9,6,0},    //0
    760                            {2,0,2,2,2,2,2,3,2,0},    //1
    761                            {4,0,15,2,4,4,8,9,6,0},   //2
    762                            {4,0,6,9,8,4,8,9,6,0},    //3
    763                            {4,0,8,8,31,9,10,12,8,0}, //4
    764                            {4,0,6,9,8,8,7,1,15,0},   //5
    765                            {4,0,6,9,9,9,7,9,6,0},    //6
    766                            {4,0,2,2,2,4,4,8,15,0},   //7
    767                            {4,0,6,9,9,6,9,9,6,0},    //8
    768                            {4,0,6,9,14,9,9,9,6,0},    //9  
    769                            {1,0,1,0,0,0,1,0,0,0},        //58   ":"
    770                            {1,1,1,0,0,0,1,0,0,0},        //59   ";"
    771                            {3,0,0,4,2,1,2,4,0,0},        //60   "<"
    772                            {4,0,0,0,15,0,15,0,0,0},        //61   "="
    773                            {3,0,0,1,2,4,2,1,0,0},        //62   ">"
    774                            {5,0,4,0,4,12,16,17,14,0},        //63   "?"
    775                            {8,194,61,85,149,181,169,66,60,0},        //64   "@"
    776                            {7,0,65,34,62,34,20,20,8,0},        //65   "A"
    777                            {4,0,7,9,9,15,9,9,7,0},        //66   "B"
    778                            {5,0,14,17,1,1,1,17,14,0},        //67   "C"
    779                            {5,0,15,17,17,17,17,17,15,0},        //68   "D"
    780                            {5,0,31,1,1,31,1,1,31,0},        //69   "E"
    781                            {4,0,1,1,1,7,1,1,15,0},        //70   "F"
    782                            {5,0,14,17,17,25,1,17,14,0},        //71   "G"
    783                            {5,0,17,17,17,31,17,17,17,0},        //72   "H"
    784                            {3,0,7,2,2,2,2,2,7,0},        //73   "I"
    785                            {4,0,7,9,8,8,8,8,8,0},        //74   "J"
    786                            {5,0,17,9,5,3,5,9,17,0},        //75   "K"
    787                            {4,0,15,1,1,1,1,1,1,0},        //76   "L"
    788                            {7,0,73,85,85,85,99,99,65,0},        //77   "M"
    789                            {5,0,17,25,25,21,19,19,17,0},        //78   "N"
    790                            {5,0,14,17,17,17,17,17,14,0},        //79   "O"
    791                            {4,0,1,1,1,15,9,9,15,0},        //80   "P"
    792                            {5,0,30,9,17,17,17,17,14,0},        //81   "Q"
    793                            {5,0,17,17,9,15,17,17,15,0},        //82   "R"
    794                            {4,0,6,9,8,6,1,9,6,0},        //83   "S"
    795                            {5,0,4,4,4,4,4,4,31,0},        //84   "T"
    796                            {5,0,14,17,17,17,17,17,17,0},        //85   "U"
    797                            {5,0,4,10,10,10,17,17,17,0},        //86   "V"
    798                            {7,0,34,34,85,73,73,65,65,0},        //87   "W"
    799                            {5,17,10,10,4,10,10,17,0},        //88   "X"
    800                            {5,0,4,4,4,4,10,10,17,0},        //89   "Y"
    801                            {6,0,63,1,2,4,8,16,63,0},        //90   "Z"
    802                            {2,1,1,1,1,1,1,1,3,0},        //91   "["
    803                            {3,0,4,4,2,2,2,1,1,0},        //92   "\"
    804                            {2,2,2,2,2,2,2,2,3,0},        //93   "]"
    805                            {3,0,0,0,0,0,5,5,2,0},        //94   "^"
    806                            {5,0,31,0,0,0,0,0,0,0},        //95   "_"
    807                            {2,0,0,0,0,0,0,2,1,0},        //96   "`"
    808                            {4,0,15,9,14,8,15,0,0,0},        //97   "a"
    809                            {4,0,7,9,9,9,7,1,1,0},        //98   "b"
    810                            {4,0,6,9,1,9,6,0,0,0},        //99   "c"
    811                            {4,0,14,9,9,9,14,8,8,0},        //100   "d"
    812                            {4,0,14,1,15,9,6,0,0,0},        //101   "e"
    813                            {3,0,2,2,2,2,7,2,4,0},        //102   "f"
    814                            {4,6,9,14,9,9,14,0,0,0},        //103   "g"
    815                            {4,0,9,9,9,9,7,1,1,0},        //104   "h"
    816                            {1,0,9,9,9,9,5,0,1,0},        //105   "i"
    817                            {1,1,9,9,9,9,5,0,1,0},        //106   "j"
    818                            {4,0,9,5,7,5,9,1,1,0},        //107   "k"
    819                            {1,0,1,1,1,1,1,1,1,0},        //108   "l"
    820                            {7,0,73,73,73,73,63,0,0,0},        //109   "m"
    821                            {4,0,9,9,9,9,7,0,0,0},        //110   "n"
    822                            {4,0,70,73,73,73,38,0,0,0},        //111   "o"
    823                            {4,1,71,73,73,73,39,0,0,0},        //112   "p"
    824                            {4,8,78,73,73,73,46,0,0,0},        //113   "q"
    825                            {3,0,1,1,1,1,7,0,0,0},             //114   "r"
    826                            {4,0,71,72,70,65,46,0,0,0},        //115   "s"
    827                            {2,0,67,73,65,65,43,1,0,0},        //116   "t"
    828                            {4,0,14,9,9,9,9,0,0,0},            //117   "u"
    829                            {5,0,68,74,74,74,17,0,0,0},        //118   "v"
    830                            {5,0,10,21,21,21,21,0,0,0},         //119   "w"
    831                            {4,0,73,70,70,70,9,0,0,0},         //120   "x"
    832                            {5,4,4,10,10,10,17,0,0,0},         //121   "y"
    833                            {3,0,71,65,66,68,23,0,0,0},        //122   "z"
    834                            {3,2,66,66,65,66,18,2,6,0},        //123   "{"
    835                            {1,1,1,1,1,1,1,1,1,0},        //124   "|"
    836                            {3,2,2,2,4,2,2,2,3,0},        //125   "}"
    837                            {4,0,0,0,13,11,0,0,0,0},        //126   "~"
    838                            {8,0,96,144,16,16,18,149,98,0},        //127   "*C"
    839                            {5,0,30,1,31,1,31,1,30,0},        //128   "€"
    840                            {5,0,17,10,10,4,10,10,17,0},        //129   X
    841                            {7,0,28,34,65,73,73,42,8,0}  //130 OnOff
    842                            };
    843          
    844          
    845          

   \                                 In section .rodata, align 4
    846          const unsigned short Arial_18[100][26] = {
   \                     Arial_18:
   \   00000000   100000000000       DC16 16, 0, 0, 0, 32771, 32771, 32771, 32771, 32771, 32771, 32771
   \              000003800380
   \              038003800380
   \              03800380    
   \   00000016   038003800380       DC16 32771, 32771, 32771, 32771, 32771, 32771, 32771, 32771, 32771
   \              038003800380
   \              038003800380
   \   00000028   038003800380       DC16 32771, 32771, 32771, 0, 0, 0, 16, 0, 0, 0, 32771, 32771, 32771
   \              000000000000
   \              100000000000
   \              000003800380
   \              0380        
   \   00000042   038003800380       DC16 32771, 32771, 32771, 32771, 32771, 32771, 32771, 32771, 32771
   \              038003800380
   \              038003800380
   \   00000054   038003800380       DC16 32771, 32771, 32771, 32771, 32771, 32771, 32771, 0, 0, 0, 0, 0, 0
   \              038003800380
   \              038000000000
   \              000000000000
   \              0000        
   \   0000006E   000000000000       DC16 0, 0, 0, 0, 0, 0, 0, 0, 0, 0, 0, 0, 0, 0, 0, 0, 0, 0, 0, 0, 0, 0
   \              000000000000
   \              000000000000
   \              000000000000
   \              000000000000
   \              000000000000
   \              000000000000
   \              0000        
   \   0000009A   00001000FFFF       DC16 0, 16, 65535, 65535, 65535, 65535, 65535, 65535, 65535, 65535
   \              FFFFFFFFFFFF
   \              FFFFFFFFFFFF
   \              FFFF        
   \   000000AE   FFFFFFFFFFFF       DC16 65535, 65535, 65535, 65535, 65535, 65535, 65535, 65535, 65535
   \              FFFFFFFFFFFF
   \              FFFFFFFFFFFF
   \   000000C0   FFFFFFFFFFFF       DC16 65535, 65535, 65535, 65534, 65534, 65534, 65534, 65534, 16, 65535
   \              FEFFFEFFFEFF
   \              FEFFFEFF1000
   \              FFFF        
   \   000000D4   FFFFFFFFFFFF       DC16 65535, 65535, 65535, 65535, 65535, 65535, 65535, 65535, 65535
   \              FFFFFFFFFFFF
   \              FFFFFFFFFFFF
   \   000000E6   FFFFFFFFFFFF       DC16 65535, 65535, 65535, 65535, 65535, 65535, 65535, 65535, 65535
   \              FFFFFFFFFFFF
   \              FFFFFFFFFFFF
   \   000000F8   FFFFFFFFDEFF       DC16 65535, 65535, 65502, 65502, 65502, 65502, 16, 0, 0, 0, 903, 1927
   \              DEFFDEFFDEFF
   \              100000000000
   \              000087038707
   \   00000110   8F070F070E07       DC16 1935, 1807, 1806, 65535, 65535, 65535, 3614, 3612, 7708, 7740
   \              FFFFFFFFFFFF
   \              1E0E1C0E1C1E
   \              3C1E        
   \   00000124   3C1EFFFFFFFF       DC16 7740, 65535, 65535, 65535, 15480, 14456, 14448, 30832, 30960
   \              FFFF783C7838
   \              70387078F078
   \   00000136   F0780F00C001       DC16 30960, 15, 448, 448, 448, 2032, 8188, 16382, 32767, 32223, 31183
   \              C001C001F007
   \              FC1FFE3FFF7F
   \              DF7DCF79    
   \   0000014C   CF79C079C079       DC16 31183, 31168, 31168, 32704, 16320, 8176, 2044, 510, 479, 463, 463
   \              C07FC03FF01F
   \              FC07FE01DF01
   \              CF01CF01    
   \   00000162   CF7DFF3FFE3F       DC16 32207, 16383, 16382, 8188, 2040, 16, 0, 0, 0, 480, 448, 33728
   \              FC1FF8071000
   \              000000000000
   \              E001C001C083
   \   0000017A   80838087008F       DC16 33664, 34688, 36608, 36608, 40448, 39936, 48128, 14584, 31742
   \              008F009E009C
   \              00BCF838FE7B
   \   0000018C   DEF38FF78FE7       DC16 62430, 63375, 59279, 51087, 51087, 34703, 34703, 990, 1022, 248
   \              8FC78FC78F87
   \              8F87DE03FE03
   \              F800        
   \   000001A0   100000000000       DC16 16, 0, 0, 0, 2032, 57340, 65534, 65087, 63519, 63503, 64527, 65039
   \              0000F007FCDF
   \              FEFF3FFE1FF8
   \              0FF80FFC0FFE
   \   000001B8   1FFF1EDFFE0F       DC16 65311, 57118, 4094, 2040, 2032, 4080, 16376, 15608, 30840, 30844
   \              F807F007F00F
   \              F83FF83C7878
   \              7C78        
   \   000001CC   F87CF83FF03F       DC16 31992, 16376, 16368, 4064, 16, 65535, 65535, 65535, 65535, 65535
   \              E00F1000FFFF
   \              FFFFFFFFFFFF
   \              FFFF        
   \   000001E0   FFFFFFFFFFFF       DC16 65535, 65535, 65535, 65535, 65535, 65535, 65535, 65279, 65535
   \              FFFFFFFFFFFF
   \              FFFFFFFEFFFF
   \   000001F2   FFFFFFFFFFFF       DC16 65535, 65535, 65535, 65535, 65535, 63487, 63487, 65534, 65534
   \              FFFFFFFFFFF7
   \              FFF7FEFFFEFF
   \   00000204   FEFFFEFF1000       DC16 65534, 65534, 16, 120, 60, 60, 1084, 56350, 64542, 64542, 63519
   \              78003C003C00
   \              3C041EDC1EFC
   \              1EFC1FF8    
   \   0000021A   0FF80FFC0FFC       DC16 63503, 64527, 64527, 64527, 56335, 3087, 1055, 1054, 3102, 15390
   \              0FFC0FDC0F0C
   \              1F041E041E0C
   \              1E3C        
   \   0000022E   3C3C3C783C78       DC16 15420, 30780, 30780, 31864, 15472, 15600, 3296, 16, 65535, 65535
   \              787C703CF03C
   \              E00C1000FFFF
   \              FFFF        
   \   00000242   FFFFFFFFFFFF       DC16 65535, 65535, 65535, 65535, 65535, 65535, 65519, 65535, 65535
   \              FFFFFFFFFFFF
   \              EFFFFFFFFFFF
   \   00000254   FFFFFFFFEFFF       DC16 65535, 65535, 65519, 65519, 65535, 65535, 65535, 65527, 65535
   \              EFFFFFFFFFFF
   \              FFFFF7FFFFFF
   \   00000266   FFFFFFFFFFFF       DC16 65535, 65535, 65535, 65535, 65534, 16, 0, 0, 0, 0, 53248, 61440
   \              FFFFFEFF1000
   \              000000000000
   \              000000D000F0
   \   0000027E   00F000F000F0       DC16 61440, 61440, 61440, 61440, 61440, 61440, 53248, 0, 0, 0, 460
   \              00F000F000F0
   \              00D000000000
   \              0000CC01    
   \   00000294   FE33FC31FC70       DC16 13310, 12796, 28924, 29182, 30719, 14335, 12408, 120, 16, 0, 0, 0
   \              FE71FF77FF37
   \              783078001000
   \              000000000000
   \   000002AC   000000000000       DC16 0, 0, 0, 960, 960, 960, 960, 960, 960, 65535, 65535, 65535, 960
   \              C003C003C003
   \              C003C003C003
   \              FFFFFFFFFFFF
   \              C003        
   \   000002C6   C003C003C003       DC16 960, 960, 960, 960, 960, 0, 0, 0, 0, 5, 14, 28, 28, 31, 31, 31, 0
   \              C003C0030000
   \              000000000000
   \              05000E001C00
   \              1C001F001F00
   \              1F000000    
   \   000002E8   000000000000       DC16 0, 0, 0, 0, 0, 0, 0, 0, 0, 0, 0, 0, 0, 0, 0, 0, 0, 0, 9, 0, 0, 0
   \              000000000000
   \              000000000000
   \              000000000000
   \              000000000000
   \              000000000000
   \              090000000000
   \              0000        
   \   00000314   000000000000       DC16 0, 0, 0, 0, 0, 0, 0, 511, 511, 511, 0, 0, 0, 0, 0, 0, 0, 0, 0, 0
   \              000000000000
   \              0000FF01FF01
   \              FF0100000000
   \              000000000000
   \              000000000000
   \              00000000    
   \   0000033C   000000000300       DC16 0, 0, 3, 0, 0, 0, 7, 7, 7, 0, 0, 0, 0, 0, 0, 0, 0, 0, 0, 0, 0, 0
   \              000000000000
   \              070007000700
   \              000000000000
   \              000000000000
   \              000000000000
   \              000000000000
   \              0000        
   \   00000368   000000000000       DC16 0, 0, 0, 0, 0, 0, 8, 0, 0, 0, 3, 3, 7, 7, 7, 7, 15, 14, 14, 30, 30
   \              000000000000
   \              080000000000
   \              000003000300
   \              070007000700
   \              07000F000E00
   \              0E001E001E00
   \   00000392   1C003C003C00       DC16 28, 60, 60, 56, 120, 120, 112, 112, 240, 224, 224, 15, 0, 0, 0
   \              380078007800
   \              70007000F000
   \              E000E0000F00
   \              000000000000
   \   000003B0   F007FC1FFC1F       DC16 2032, 8188, 8188, 15934, 31775, 31775, 30735, 30735, 30735, 30735
   \              3E3E1F7C1F7C
   \              0F780F780F78
   \              0F78        
   \   000003C4   0F780F780F78       DC16 30735, 30735, 30735, 30735, 30735, 30735, 31775, 31775, 15934
   \              0F780F780F78
   \              1F7C1F7C3E3E
   \   000003D6   FC1FFC1FF007       DC16 8188, 8188, 2032, 9, 0, 0, 0, 480, 480, 480, 480, 480, 480, 480
   \              090000000000
   \              0000E001E001
   \              E001E001E001
   \              E001E001    
   \   000003F2   E001E001E001       DC16 480, 480, 480, 480, 480, 480, 480, 483, 495, 511, 510, 504, 496
   \              E001E001E001
   \              E001E301EF01
   \              FF01FE01F801
   \              F001        
   \   0000040C   E001C0010F00       DC16 480, 448, 15, 0, 0, 0, 32767, 32767, 32767, 31, 62, 124, 248, 496
   \              000000000000
   \              FF7FFF7FFF7F
   \              1F003E007C00
   \              F800F001    
   \   00000428   C0038007000F       DC16 960, 1920, 3840, 7680, 15360, 31744, 30720, 30735, 30735, 31775
   \              001E003C007C
   \              00780F780F78
   \              1F7C        
   \   0000043C   3E7EFE3FFC1F       DC16 32318, 16382, 8188, 2032, 15, 0, 0, 0, 2032, 8188, 16382, 15935
   \              F0070F000000
   \              00000000F007
   \              FC1FFE3F3F3E
   \   00000454   1F7C0F780078       DC16 31775, 30735, 30720, 30720, 30720, 31744, 31744, 16352, 4064, 4064
   \              00780078007C
   \              007CE03FE00F
   \              E00F        
   \   00000468   001F003C0F3C       DC16 7936, 15360, 15375, 15391, 15934, 8190, 4092, 2032, 15, 0, 0, 0
   \              1F3C3E3EFE1F
   \              FC0FF0070F00
   \              000000000000
   \   00000480   000F000F000F       DC16 3840, 3840, 3840, 3840, 3840, 32767, 32767, 32767, 3847, 3855
   \              000F000FFF7F
   \              FF7FFF7F070F
   \              0F0F        
   \   00000494   1E0F1E0F3C0F       DC16 3870, 3870, 3900, 3960, 3960, 4080, 4064, 4032, 4032, 3968, 3840
   \              780F780FF00F
   \              E00FC00FC00F
   \              800F000F    
   \   000004AA   000F0F000000       DC16 3840, 15, 0, 0, 0, 2032, 8188, 16382, 15903, 31759, 30735, 30720
   \              00000000F007
   \              FC1FFE3F1F3E
   \              0F7C0F780078
   \   000004C2   007800780078       DC16 30720, 30720, 30720, 31744, 32287, 16383, 8190, 2046, 30, 30, 62
   \              007C1F7EFF3F
   \              FE1FFE071E00
   \              1E003E00    
   \   000004D8   3C00FC3FFC3F       DC16 60, 16380, 16380, 16380, 15, 0, 0, 0, 2032, 8188, 16382, 15934
   \              FC3F0F000000
   \              00000000F007
   \              FC1FFE3F3E3E
   \   000004F0   1F7C0F780F78       DC16 31775, 30735, 30735, 30735, 30735, 30751, 32319, 16383, 8191, 2031
   \              0F780F781F78
   \              3F7EFF3FFF1F
   \              EF07        
   \   00000504   0F000F001F78       DC16 15, 15, 30751, 31774, 15934, 16380, 8184, 2032, 14, 0, 0, 0, 120
   \              1E7C3E3EFC3F
   \              F81FF0070E00
   \              000000000000
   \              7800        
   \   0000051E   780078007800       DC16 120, 120, 120, 120, 240, 240, 240, 224, 224, 480, 448, 960, 896
   \              7800F000F000
   \              F000E000E000
   \              E001C001C003
   \              8003        
   \   00000538   80070007000F       DC16 1920, 1792, 3840, 7680, 16383, 16383, 16383, 16383, 16, 0, 0, 0
   \              001EFF3FFF3F
   \              FF3FFF3F1000
   \              000000000000
   \   00000550   F007FC1FFE3F       DC16 2032, 8188, 16382, 32319, 31775, 63503, 63503, 63503, 30735, 31775
   \              3F7E1F7C0FF8
   \              0FF80FF80F78
   \              1F7C        
   \   00000564   3E7EFC3FF80F       DC16 32318, 16380, 4088, 8188, 15934, 31774, 31775, 31775, 15934, 16382
   \              FC1F3E3E1E7C
   \              1F7C1F7C3E3E
   \              FE3F        
   \   00000578   FC1FF0070F00       DC16 8188, 2032, 15, 0, 0, 0, 1016, 4092, 8190, 16190, 15903, 31759
   \              000000000000
   \              F803FC0FFE1F
   \              3E3F1F3E0F7C
   \   00000590   007C0078F87B       DC16 31744, 30720, 31736, 32764, 32766, 32319, 31775, 30735, 30735
   \              FC7FFE7F3F7E
   \              1F7C0F780F78
   \   000005A2   0F780F781F7C       DC16 30735, 30735, 31775, 15935, 8190, 4092, 2032, 5, 0, 0, 0, 31, 31
   \              3F3EFE1FFC0F
   \              F00705000000
   \              000000001F00
   \              1F00        
   \   000005BC   1F0000000000       DC16 31, 0, 0, 0, 0, 0, 0, 0, 0, 0, 0, 31, 31, 31, 0, 0, 0, 0, 0, 0, 5
   \              000000000000
   \              000000000000
   \              000000001F00
   \              1F001F000000
   \              000000000000
   \              000000000500
   \   000005E6   0E001E001C00       DC16 14, 30, 28, 31, 31, 31, 0, 0, 0, 0, 0, 0, 0, 0, 0, 0, 31, 31, 31
   \              1F001F001F00
   \              000000000000
   \              000000000000
   \              000000000000
   \              00001F001F00
   \              1F00        
   \   0000060C   000000000000       DC16 0, 0, 0, 0, 0, 0, 16, 0, 0, 0, 0, 0, 0, 57344, 63488, 65280, 32704
   \              000000000000
   \              100000000000
   \              000000000000
   \              000000E000F8
   \              00FFC07F    
   \   0000062E   F00FFE037F00       DC16 4080, 1022, 127, 31, 127, 1022, 4080, 32704, 65280, 63488, 57344
   \              1F007F00FE03
   \              F00FC07F00FF
   \              00F800E0    
   \   00000644   000000000000       DC16 0, 0, 0, 0, 16, 0, 0, 0, 0, 0, 0, 0, 0, 0, 65535, 65535, 65535, 0
   \              000010000000
   \              000000000000
   \              000000000000
   \              00000000FFFF
   \              FFFFFFFF0000
   \   00000668   00000000FFFF       DC16 0, 0, 65535, 65535, 65535, 0, 0, 0, 0, 0, 0, 0, 16, 0, 0, 0, 0, 0
   \              FFFFFFFF0000
   \              000000000000
   \              000000000000
   \              100000000000
   \              000000000000
   \   0000068C   000007001F00       DC16 0, 7, 31, 255, 1022, 4080, 32704, 65024, 63488, 65024, 32704, 4080
   \              FF00FE03F00F
   \              C07F00FE00F8
   \              00FEC07FF00F
   \   000006A4   FE03FF001F00       DC16 1022, 255, 31, 7, 0, 0, 0, 0, 15, 0, 0, 0, 480, 480, 480, 0, 0
   \              070000000000
   \              000000000F00
   \              000000000000
   \              E001E001E001
   \              00000000    
   \   000006C6   E001E003E003       DC16 480, 992, 992, 960, 1984, 3968, 7936, 15872, 31744, 30720, 30720
   \              C003C007800F
   \              001F003E007C
   \              00780078    
   \   000006DC   0F781F783F7E       DC16 30735, 30751, 32319, 16382, 8188, 2032, 16, 504, 124, 60, 32286
   \              FE3FFC1FF007
   \              1000F8017C00
   \              3C001E7E    
   \   000006F2   9EFF8FFFCFE7       DC16 65438, 65423, 59343, 33743, 975, 975, 975, 975, 975, 1999, 3998
   \              CF83CF03CF03
   \              CF03CF03CF03
   \              CF079E0F    
   \   00000708   9E9F1EFF3CFE       DC16 40862, 65310, 65084, 63612, 248, 1008, 4064, 65472, 65280, 64512
   \              7CF8F800F003
   \              E00FC0FF00FF
   \              00FC        
   \   0000071C   100000000000       DC16 16, 0, 0, 0, 7, 32775, 32783, 49167, 49183, 49183, 57374, 65534
   \              000007000780
   \              0F800FC01FC0
   \              1FC01EE0FEFF
   \   00000734   FCFFFCFF7CF0       DC16 65532, 65532, 61564, 63608, 30968, 31984, 15600, 15856, 16352
   \              78F8F878F07C
   \              F03CF03DE03F
   \   00000746   E01FC01FC00F       DC16 8160, 8128, 4032, 3968, 1920, 16, 65535, 65535, 65535, 65534
   \              800F80071000
   \              FFFFFFFFFFFF
   \              FEFF        
   \   0000075A   FEFFFEFFFEEF       DC16 65534, 65534, 61438, 65534, 65534, 65534, 65534, 65534, 61438
   \              FEFFFEFFFEFF
   \              FEFFFEFFFEEF
   \   0000076C   FEFFFEFFFEFF       DC16 65534, 65534, 65534, 65534, 65534, 65534, 65534, 65534, 65534
   \              FEFFFEFFFEFF
   \              FEFFFEFFFEFF
   \   0000077E   FEFFFEFFFEFF       DC16 65534, 65534, 65534, 16, 0, 0, 0, 32704, 65520, 65528, 57852
   \              100000000000
   \              0000C07FF0FF
   \              F8FFFCE1    
   \   00000794   7EC03E801F00       DC16 49278, 32830, 31, 31, 15, 15, 15, 15, 15, 15, 31, 31, 32830, 49278
   \              1F000F000F00
   \              0F000F000F00
   \              0F001F001F00
   \              3E807EC0    
   \   000007B0   FCE0F8FFF0FF       DC16 57596, 65528, 65520, 32640, 16, 65535, 65535, 65535, 65534, 65534
   \              807F1000FFFF
   \              FFFFFFFFFEFF
   \              FEFF        
   \   000007C4   FEFFFEFFFEFF       DC16 65534, 65534, 65534, 65534, 65534, 65534, 65534, 65534, 32766
   \              FEFFFEFFFEFF
   \              FEFFFEFFFE7F
   \   000007D6   FE7FFEFFFEFF       DC16 32766, 65534, 65534, 65534, 65534, 65534, 65534, 65534, 65534
   \              FEFFFEFFFEFF
   \              FEFFFEFFFEFF
   \   000007E8   FEFFFEFF1000       DC16 65534, 65534, 16, 65535, 65535, 65535, 65534, 65534, 65534, 65534
   \              FFFFFFFFFFFF
   \              FEFFFEFFFEFF
   \              FEFF        
   \   000007FC   FEFFFEFFFEFF       DC16 65534, 65534, 65534, 65534, 65534, 65534, 65534, 65534, 65534
   \              FEFFFEFFFEFF
   \              FEFFFEFFFEFF
   \   0000080E   FEFFFEFFFEFF       DC16 65534, 65534, 65534, 65534, 65534, 65534, 65534, 65534, 65534, 16
   \              FEFFFEFFFEFF
   \              FEFFFEFFFEFF
   \              1000        
   \   00000822   FFFFFFFFFFFF       DC16 65535, 65535, 65535, 65534, 65534, 65534, 65534, 65534, 65534
   \              FEFFFEFFFEFF
   \              FEFFFEFFFEFF
   \   00000834   FEFFFEFFFEFF       DC16 65534, 65534, 65534, 65534, 65534, 65534, 65534, 65534, 65534
   \              FEFFFEFFFEFF
   \              FEFFFEFFFEFF
   \   00000846   FEFFFEFFFEFF       DC16 65534, 65534, 65534, 65534, 65534, 65534, 65534, 16, 0, 0, 0
   \              FEFFFEFFFEFF
   \              FEFF10000000
   \              00000000    
   \   0000085C   80FFE0FFF8FF       DC16 65408, 65504, 65528, 33276, 126, 62, 31, 31, 63503, 63503, 63503
   \              FC817E003E00
   \              1F001F000FF8
   \              0FF80FF8    
   \   00000872   0F000F000F00       DC16 15, 15, 15, 31, 30, 62, 126, 49660, 65528, 65504, 65408, 16, 65535
   \              1F001E003E00
   \              7E00FCC1F8FF
   \              E0FF80FF1000
   \              FFFF        
   \   0000088C   FFFFFFFFFEFF       DC16 65535, 65535, 65534, 65534, 65534, 65534, 65534, 65534, 65534
   \              FEFFFEFFFEFF
   \              FEFFFEFFFEFF
   \   0000089E   FEFFFEFFFEFF       DC16 65534, 65534, 65534, 65534, 65534, 65534, 65534, 65534, 65534
   \              FEFFFEFFFEFF
   \              FEFFFEFFFEFF
   \   000008B0   FEFFFEFFFEFF       DC16 65534, 65534, 65534, 65534, 65534, 65534, 16, 65535, 65535, 65535
   \              FEFFFEFFFEFF
   \              1000FFFFFFFF
   \              FFFF        
   \   000008C4   FEFFFEFFFEFF       DC16 65534, 65534, 65534, 65534, 65534, 65534, 65534, 65534, 65534
   \              FEFFFEFFFEFF
   \              FEFFFEFFFEFF
   \   000008D6   FEFFFEFFFEFF       DC16 65534, 65534, 65534, 65534, 65534, 65534, 65534, 65534, 65534
   \              FEFFFEFFFEFF
   \              FEFFFEFFFEFF
   \   000008E8   FEFFFEFFFEFF       DC16 65534, 65534, 65534, 65534, 13, 0, 0, 0, 1016, 2046, 4095, 8095
   \              FEFF0D000000
   \              00000000F803
   \              FE07FF0F9F1F
   \   00000900   0F1F0F1E0F1E       DC16 7951, 7695, 7695, 7680, 7680, 7680, 7680, 7680, 7680, 7680, 7680
   \              001E001E001E
   \              001E001E001E
   \              001E001E    
   \   00000916   001E001E001E       DC16 7680, 7680, 7680, 7680, 7680, 7680, 7680, 16, 65535, 65535, 65535
   \              001E001E001E
   \              001E1000FFFF
   \              FFFFFFFF    
   \   0000092C   FEFFFEFFFEDF       DC16 65534, 65534, 57342, 65534, 65534, 65534, 64510, 65534, 65534
   \              FEFFFEFFFEFF
   \              FEFBFEFFFEFF
   \   0000093E   FEFFFEFFFEFF       DC16 65534, 65534, 65534, 65518, 65502, 65534, 65534, 65534, 65534
   \              EEFFDEFFFEFF
   \              FEFFFEFFFEFF
   \   00000950   FEFFFEFFFEFF       DC16 65534, 65534, 65534, 65534, 16, 65535, 65535, 65535, 65534, 65534
   \              FEFF1000FFFF
   \              FFFFFFFFFEFF
   \              FEFF        
   \   00000964   FEFFFEFFFEFF       DC16 65534, 65534, 65534, 65534, 65534, 65534, 65534, 65534, 65534
   \              FEFFFEFFFEFF
   \              FEFFFEFFFEFF
   \   00000976   FEFFFEFFFEFF       DC16 65534, 65534, 65534, 65534, 65534, 65534, 65534, 65534, 65534
   \              FEFFFEFFFEFF
   \              FEFFFEFFFEFF
   \   00000988   FEFFFEFF1000       DC16 65534, 65534, 16, 65535, 65535, 65535, 65534, 65534, 65534, 65534
   \              FFFFFFFFFFFF
   \              FEFFFEFFFEFF
   \              FEFF        
   \   0000099C   FEFFFEFFFEFF       DC16 65534, 65534, 65534, 65534, 65534, 65534, 65534, 65534, 65534
   \              FEFFFEFFFEFF
   \              FEFFFEFFFEFF
   \   000009AE   FEFFFEFFFEFF       DC16 65534, 65534, 65534, 65534, 65534, 65534, 65534, 65534, 65534, 16
   \              FEFFFEFFFEFF
   \              FEFFFEFFFEFF
   \              1000        
   \   000009C2   FFFFFFFFFFFF       DC16 65535, 65535, 65535, 65534, 65534, 65534, 65534, 65534, 65534
   \              FEFFFEFFFEFF
   \              FEFFFEFFFEFF
   \   000009D4   FEFFFEFFFEFF       DC16 65534, 65534, 65534, 65534, 65534, 65534, 65534, 65534, 65534
   \              FEFFFEFFFEFF
   \              FEFFFEFFFEFF
   \   000009E6   FEFFFEFFFEFF       DC16 65534, 65534, 65534, 65534, 65534, 65534, 65534, 16, 0, 0, 0
   \              FEFFFEFFFEFF
   \              FEFF10000000
   \              00000000    
   \   000009FC   807FE0FFF8FF       DC16 32640, 65504, 65528, 57852, 32894, 62, 31, 31, 15, 15, 15, 15, 15
   \              FCE17E803E00
   \              1F001F000F00
   \              0F000F000F00
   \              0F00        
   \   00000A16   1F001F001F00       DC16 31, 31, 31, 62, 32894, 57852, 65528, 65504, 32640, 16, 65535
   \              3E007E80FCE1
   \              F8FFE0FF807F
   \              1000FFFF    
   \   00000A2C   FFFFFFFFFEFF       DC16 65535, 65535, 65534, 65534, 65534, 65534, 65534, 65534, 65534
   \              FEFFFEFFFEFF
   \              FEFFFEFFFEFF
   \   00000A3E   FEFFFEFFFEFF       DC16 65534, 65534, 65534, 65534, 65534, 61438, 65534, 65534, 65534
   \              FEFFFEFFFEEF
   \              FEFFFEFFFEFF
   \   00000A50   FEFFFEFFFEFF       DC16 65534, 65534, 65534, 65534, 65534, 65534, 16, 0, 0, 0, 32640
   \              FEFFFEFFFEFF
   \              100000000000
   \              0000807F    
   \   00000A66   E0FFF8FFFCE1       DC16 65504, 65528, 57852, 63614, 30782, 6175, 31, 15, 15, 15, 15, 15
   \              7EF83E781F18
   \              1F000F000F00
   \              0F000F000F00
   \   00000A7E   0F001F001F00       DC16 15, 31, 31, 62, 32894, 57852, 65528, 65520, 32640, 16, 65535
   \              3E007E80FCE1
   \              F8FFF0FF807F
   \              1000FFFF    
   \   00000A94   FFFFFFFFFEFF       DC16 65535, 65535, 65534, 65534, 65534, 65534, 65534, 61438, 65534
   \              FEFFFEFFFEFF
   \              FEFFFEEFFEFF
   \   00000AA6   FEFFFEFFFEFF       DC16 65534, 65534, 65534, 65534, 65534, 65534, 65534, 65534, 65534
   \              FEFFFEFFFEFF
   \              FEFFFEFFFEFF
   \   00000AB8   FEFFFEFFFEFF       DC16 65534, 65534, 65534, 65534, 65534, 65534, 16, 0, 0, 0, 16352
   \              FEFFFEFFFEFF
   \              100000000000
   \              0000E03F    
   \   00000ACE   F8FFFCFF7EF0       DC16 65528, 65532, 61566, 49183, 32783, 32783, 49152, 57344, 64512
   \              1FC00F800F80
   \              00C000E000FC
   \   00000AE0   C0FFF8FFFC1F       DC16 65472, 65528, 8188, 254, 62, 30, 49182, 57374, 61566, 65532, 65528
   \              FE003E001E00
   \              1EC01EE07EF0
   \              FCFFF8FF    
   \   00000AF6   E03F1000FFFF       DC16 16352, 16, 65535, 65535, 65535, 65535, 65535, 65535, 65535, 65535
   \              FFFFFFFFFFFF
   \              FFFFFFFFFFFF
   \              FFFF        
   \   00000B0A   FFFFFFFFFFFF       DC16 65535, 65535, 65535, 65535, 65535, 65535, 65535, 65535, 65535
   \              FFFFFFFFFFFF
   \              FFFFFFFFFFFF
   \   00000B1C   FFFFFFFFFFFF       DC16 65535, 65535, 65535, 65535, 65535, 65534, 65534, 65534, 16, 65535
   \              FFFFFFFFFEFF
   \              FEFFFEFF1000
   \              FFFF        
   \   00000B30   FFFFFFFFFFFF       DC16 65535, 65535, 65535, 65535, 65535, 65533, 57343, 65535, 49151
   \              FFFFFFFFFDFF
   \              FFDFFFFFFFBF
   \   00000B42   FEFFFEFFFEFF       DC16 65534, 65534, 65534, 65534, 65534, 65534, 65534, 65534, 65534
   \              FEFFFEFFFEFF
   \              FEFFFEFFFEFF
   \   00000B54   FEFFFEFFFEFF       DC16 65534, 65534, 65534, 65534, 65534, 65534, 16, 65535, 65535, 65535
   \              FEFFFEFFFEFF
   \              1000FFFFFFFF
   \              FFFF        
   \   00000B68   FFFCFFF8FFFA       DC16 64767, 63743, 64255, 62335, 63359, 63295, 61375, 61375, 53151
   \              7FF37FF73FF7
   \              BFEFBFEF9FCF
   \   00000B7A   DFDFCFDFEF9F       DC16 57311, 57295, 40943, 49135, 16359, 32759, 32755, 32755, 65531
   \              EFBFE73FF77F
   \              F37FF37FFBFF
   \   00000B8C   F9FFF9FFFCFF       DC16 65529, 65529, 65532, 65532, 16, 65535, 65535, 65535, 65087, 65087
   \              FCFF1000FFFF
   \              FFFFFFFF3FFE
   \              3FFE        
   \   00000BA0   3FFEBFFEDFFD       DC16 65087, 65215, 64991, 64991, 64991, 63951, 64495, 64495, 62447
   \              DFFDDFFDCFF9
   \              EFFBEFFBEFF3
   \   00000BB2   E7F7F7F7F7E7       DC16 63463, 63479, 59383, 61427, 61427, 61435, 53241, 57337, 8185, 8189
   \              F3EFF3EFFBEF
   \              F9CFF9DFF91F
   \              FD1F        
   \   00000BC6   FC3F1000FFFF       DC16 16380, 16, 65535, 65535, 65535, 65535, 65535, 65535, 57343, 65531
   \              FFFFFFFFFFFF
   \              FFFFFFFFFFDF
   \              FBFF        
   \   00000BDA   FFFFFFFFFFFF       DC16 65535, 65535, 65535, 65535, 65535, 65535, 65535, 65535, 65535
   \              FFFFFFFFFFFF
   \              FFFFFFFFFFFF
   \   00000BEC   FFFFFFFFFFFF       DC16 65535, 65535, 65535, 61431, 65535, 65535, 65535, 32766, 16, 65535
   \              F7EFFFFFFFFF
   \              FFFFFE7F1000
   \              FFFF        
   \   00000C00   FFFFFFFFFFFD       DC16 65535, 65535, 65023, 65023, 65023, 65023, 65023, 65023, 65023
   \              FFFDFFFDFFFD
   \              FFFDFFFDFFFD
   \   00000C12   FFFDFFFDFFFC       DC16 65023, 65023, 64767, 63743, 63615, 62271, 59199, 61343, 53199
   \              FFF87FF83FF3
   \              3FE79FEFCFCF
   \   00000C24   CF9FE73FF33F       DC16 40911, 16359, 16371, 32755, 65529, 65532, 16, 65535, 65535, 65535
   \              F37FF9FFFCFF
   \              1000FFFFFFFF
   \              FFFF        
   \   00000C38   FFFFFFFFFFFF       DC16 65535, 65535, 65535, 65535, 65535, 65535, 65535, 65535, 65535
   \              FFFFFFFFFFFF
   \              FFFFFFFFFFFF
   \   00000C4A   FFFFDFFFFFFF       DC16 65535, 65503, 65535, 65535, 65535, 65535, 65535, 64511, 65535
   \              FFFFFFFFFFFF
   \              FFFFFFFBFFFF
   \   00000C5C   FFFFFEFFFEFF       DC16 65535, 65534, 65534, 65534, 16, 65535, 65535, 65535, 65535, 65535
   \              FEFF1000FFFF
   \              FFFFFFFFFFFF
   \              FFFF        
   \   00000C70   FFFFFFFFFFFF       DC16 65535, 65535, 65535, 65535, 65535, 65535, 65535, 65535, 65535
   \              FFFFFFFFFFFF
   \              FFFFFFFFFFFF
   \   00000C82   FFFFFFFFFFFF       DC16 65535, 65535, 65535, 65535, 65535, 65535, 65535, 65535, 65528
   \              FFFFFFFFFFFF
   \              FFFFFFFFF8FF
   \   00000C94   F8FFF8FF1000       DC16 65528, 65528, 16, 65535, 65535, 65535, 65471, 65471, 65535, 65535
   \              FFFFFFFFFFFF
   \              BFFFBFFFFFFF
   \              FFFF        
   \   00000CA8   DFFFFFFFFFFF       DC16 65503, 65535, 65535, 65519, 65519, 65535, 65527, 65527, 65535
   \              EFFFEFFFFFFF
   \              F7FFF7FFFFFF
   \   00000CBA   FBFFFBFFFFFF       DC16 65531, 65531, 65535, 65535, 65533, 65535, 65535, 65534, 65534, 16
   \              FFFFFDFFFFFF
   \              FFFFFEFFFEFF
   \              1000        
   \   00000CCE   FFFFFFFFFFFF       DC16 65535, 65535, 65535, 65535, 65535, 65535, 65535, 65535, 65535
   \              FFFFFFFFFFFF
   \              FFFFFFFFFFFF
   \   00000CE0   FFFFFFFFFFFF       DC16 65535, 65535, 65535, 65535, 65535, 65535, 65535, 65535, 65535
   \              FFFFFFFFFFFF
   \              FFFFFFFFFFFF
   \   00000CF2   FFFFFFFFFFFF       DC16 65535, 65535, 65535, 65535, 65534, 65534, 65534, 13, 0, 0, 0, 0, 0
   \              FFFFFEFFFEFF
   \              FEFF0D000000
   \              000000000000
   \              0000        
   \   00000D0C   000000000000       DC16 0, 0, 0, 0, 0, 0, 0, 0, 0, 7687, 3855, 3855, 3999, 1950, 1950
   \              000000000000
   \              000000000000
   \              071E0F0F0F0F
   \              9F0F9E079E07
   \   00000D2A   FC03FC03F801       DC16 1020, 1020, 504, 504, 504, 0, 0, 0, 0, 0, 0, 0, 0, 0, 0, 0, 0, 0
   \              F801F8010000
   \              000000000000
   \              000000000000
   \              000000000000
   \              000000000000
   \   00000D4E   000000000000       DC16 0, 0, 0, 0, 0, 0, 0, 0, 0, 0, 0, 0, 0, 16, 65535, 65535, 65535
   \              000000000000
   \              000000000000
   \              000000000000
   \              00001000FFFF
   \              FFFFFFFF    
   \   00000D70   FFFFFFFFFFFF       DC16 65535, 65535, 65535, 65535, 65535, 65535, 65535, 65535, 65535
   \              FFFFFFFFFFFF
   \              FFFFFFFFFFFF
   \   00000D82   FFFFFFFFFFFF       DC16 65535, 65535, 65535, 65535, 65535, 65535, 65535, 65535, 65535
   \              FFFFFFFFFFFF
   \              FFFFFFFFFFFF
   \   00000D94   FFFFFFFFFFFF       DC16 65535, 65535, 65535, 65534, 15, 0, 0, 0, 32252, 16383, 16383
   \              FEFF0F000000
   \              00000000FC7D
   \              FF3FFF3F    
   \   00000DAA   8F3F0F3E0F3E       DC16 16271, 15887, 15887, 15375, 15870, 16380, 16128, 15360, 15887
   \              0F3CFE3DFC3F
   \              003F003C0F3E
   \   00000DBC   1F3EFE1FFE1F       DC16 15903, 8190, 8190, 2040, 0, 0, 0, 0, 0, 0, 16, 65535, 65535, 65535
   \              F80700000000
   \              000000000000
   \              00001000FFFF
   \              FFFFFFFF    
   \   00000DD8   DEFFFEFFFEFF       DC16 65502, 65534, 65534, 65534, 64510, 65534, 63486, 63486, 63486
   \              FEFFFEFBFEFF
   \              FEF7FEF7FEF7
   \   00000DEA   FEF7FEFFFEFF       DC16 63486, 65534, 65534, 65022, 65534, 65534, 65502, 65534, 65534
   \              FEFDFEFFFEFF
   \              DEFFFEFFFEFF
   \   00000DFC   FEFFFEFFFEFF       DC16 65534, 65534, 65534, 65534, 14, 0, 0, 0, 2032, 4092, 8190, 15935
   \              FEFF0E000000
   \              00000000F007
   \              FC0FFE1F3F3E
   \   00000E14   1F3C0F3C0F00       DC16 15391, 15375, 15, 15, 15, 15, 15, 15391, 15935, 8190, 4092, 2032
   \              0F000F000F00
   \              0F001F3C3F3E
   \              FE1FFC0FF007
   \   00000E2C   000000000000       DC16 0, 0, 0, 0, 0, 0, 15, 0, 0, 0, 32248, 32764, 32766, 32575, 32287
   \              000000000000
   \              0F0000000000
   \              0000F87DFC7F
   \              FE7F3F7F1F7E
   \   00000E4A   0F7C0F7C077C       DC16 31759, 31759, 31751, 31751, 31759, 31759, 32271, 32575, 32766
   \              077C0F7C0F7C
   \              0F7E3F7FFE7F
   \   00000E5C   FC7FF87D007C       DC16 32764, 32248, 31744, 31744, 31744, 31744, 31744, 31744, 15, 0, 0
   \              007C007C007C
   \              007C007C0F00
   \              00000000    
   \   00000E72   0000F807FC1F       DC16 0, 2040, 8188, 16382, 15935, 31759, 15, 7, 32767, 32767, 31751
   \              FE3F3F3E0F7C
   \              0F000700FF7F
   \              FF7F077C    
   \   00000E88   0F7C0F3C3F3F       DC16 31759, 15375, 16191, 8190, 4092, 1016, 0, 0, 0, 0, 0, 0, 15, 0, 0
   \              FE1FFC0FF803
   \              000000000000
   \              000000000000
   \              0F0000000000
   \   00000EA6   00001E041E1C       DC16 0, 1054, 7198, 15390, 15390, 31774, 30, 30, 31774, 31774, 31774
   \              1E3C1E3C1E7C
   \              1E001E001E7C
   \              1E7C1E7C    
   \   00000EBC   1E7C1E3C1E3C       DC16 31774, 15390, 15390, 7423, 3327, 255, 30, 30, 30, 510, 508, 504
   \              FF1CFF0CFF00
   \              1E001E001E00
   \              FE01FC01F801
   \   00000ED4   0F001F3E0F3C       DC16 15, 15903, 15375, 15360, 16376, 32764, 32766, 32575, 32271, 31759
   \              003CF83FFC7F
   \              FE7F3F7F0F7E
   \              0F7C        
   \   00000EE8   0F7C077C077C       DC16 31759, 31751, 31751, 31759, 31759, 32271, 32575, 32766, 32764
   \              0F7C0F7C0F7E
   \              3F7FFE7FFC7F
   \   00000EFA   F87F00000000       DC16 32760, 0, 0, 0, 0, 0, 0, 16, 65535, 65535, 65535, 65534, 65534
   \              000000000000
   \              00001000FFFF
   \              FFFFFFFFFEFF
   \              FEFF        
   \   00000F14   FEFFFEFFFEFF       DC16 65534, 65534, 65534, 65534, 65534, 65534, 65534, 65534, 65534
   \              FEFFFEFFFEFF
   \              FEFFFEFFFEFF
   \   00000F26   FEFFFEFFFEFF       DC16 65534, 65534, 65534, 65534, 65534, 65534, 65534, 65534, 65534
   \              FEFFFEFFFEFF
   \              FEFFFEFFFEFF
   \   00000F38   FEFFFEFF1000       DC16 65534, 65534, 16, 65535, 65535, 65535, 64510, 64510, 64510, 64510
   \              FFFFFFFFFFFF
   \              FEFBFEFBFEFB
   \              FEFB        
   \   00000F4C   FEFBFEFBFEFB       DC16 64510, 64510, 64510, 64510, 64510, 64510, 64510, 65534, 65534
   \              FEFBFEFBFEFB
   \              FEFBFEFFFEFF
   \   00000F5E   FEFFFEFFFEFF       DC16 65534, 65534, 65534, 65535, 65535, 65535, 65534, 65534, 65534, 16
   \              FFFFFFFFFFFF
   \              FEFFFEFFFEFF
   \              1000        
   \   00000F72   FFFFFFFFFFFF       DC16 65535, 65535, 65535, 65534, 65534, 65534, 65534, 65534, 65534
   \              FEFFFEFFFEFF
   \              FEFFFEFFFEFF
   \   00000F84   FEFFFEFFFEFF       DC16 65534, 65534, 65534, 65534, 65534, 65534, 65534, 65534, 65534
   \              FEFFFEFFFEFF
   \              FEFFFEFFFEFF
   \   00000F96   FEFFFFFFFFFF       DC16 65534, 65535, 65535, 65535, 65534, 65534, 65534, 16, 65535, 65535
   \              FFFFFEFFFEFF
   \              FEFF1000FFFF
   \              FFFF        
   \   00000FAA   FFFFFEFFFEFF       DC16 65535, 65534, 65534, 65278, 65534, 65534, 65534, 65534, 65534
   \              FEFEFEFFFEFF
   \              FEFFFEFFFEFF
   \   00000FBC   FEFFFEFFFEFF       DC16 65534, 65534, 65534, 65534, 65534, 65534, 65534, 65534, 65534
   \              FEFFFEFFFEFF
   \              FEFFFEFFFEFF
   \   00000FCE   FEFFFEFFFEFF       DC16 65534, 65534, 65534, 65534, 65534, 16, 65535, 65535, 65535, 65022
   \              FEFFFEFF1000
   \              FFFFFFFFFFFF
   \              FEFD        
   \   00000FE2   FEFFFEFF7EFF       DC16 65534, 65534, 65406, 65534, 65534, 65534, 65534, 65534, 65534
   \              FEFFFEFFFEFF
   \              FEFFFEFFFEFF
   \   00000FF4   FEFFFEFFFEFF       DC16 65534, 65534, 65534, 65534, 65534, 65278, 65534, 65534, 65534
   \              FEFFFEFFFEFE
   \              FEFFFEFFFEFF
   \   00001006   FEFFFEFFFEFF       DC16 65534, 65534, 65534, 16, 0, 0, 0, 31775, 31775, 31775, 31775
   \              100000000000
   \              00001F7C1F7C
   \              1F7C1F7C    
   \   0000101C   1F7C1F7C1F7C       DC16 31775, 31775, 31775, 31775, 31775, 31775, 31775, 31775, 65151
   \              1F7C1F7C1F7C
   \              1F7C1F7C7FFE
   \   0000102E   FFFFFFDFCF0F       DC16 65535, 57343, 4047, 0, 0, 0, 0, 0, 0, 15, 0, 0, 0, 31775, 31775
   \              000000000000
   \              000000000000
   \              0F0000000000
   \              00001F7C1F7C
   \   0000104C   1F7C1F7C1F7C       DC16 31775, 31775, 31775, 31775, 31775, 31775, 31775, 31775, 31775
   \              1F7C1F7C1F7C
   \              1F7C1F7C1F7C
   \   0000105E   1F7C7F3EFF3F       DC16 31775, 15999, 16383, 8191, 4095, 0, 0, 0, 0, 0, 0, 15, 0, 0, 0
   \              FF1FFF0F0000
   \              000000000000
   \              000000000F00
   \              000000000000
   \   0000107C   F803FC0FFE1F       DC16 1016, 4092, 8190, 16191, 15903, 15375, 31759, 31759, 31759, 31759
   \              3F3F1F3E0F3C
   \              0F7C0F7C0F7C
   \              0F7C        
   \   00001090   0F3C1F3E3F3F       DC16 15375, 15903, 16191, 8190, 4092, 2032, 0, 0, 0, 0, 0, 0, 15, 15
   \              FE1FFC0FF007
   \              000000000000
   \              000000000000
   \              0F000F00    
   \   000010AC   0F000F00EF07       DC16 15, 15, 2031, 8191, 16383, 15935, 31775, 30751, 30735, 30735
   \              FF1FFF3F3F3E
   \              1F7C1F780F78
   \              0F78        
   \   000010C0   0F780F781F78       DC16 30735, 30735, 30751, 31775, 15999, 16383, 8191, 2031, 0, 0, 0, 0
   \              1F7C7F3EFF3F
   \              FF1FEF070000
   \              000000000000
   \   000010D8   000000000F00       DC16 0, 0, 15, 31744, 31744, 31744, 32752, 32764, 32766, 32575, 32271
   \              007C007C007C
   \              F07FFC7FFE7F
   \              3F7F0F7E    
   \   000010EE   0F7C0F7C077C       DC16 31759, 31759, 31751, 31751, 31759, 31759, 32271, 32575, 32766
   \              077C0F7C0F7C
   \              0F7E3F7FFE7F
   \   00001100   FC7FF87D0000       DC16 32764, 32248, 0, 0, 0, 0, 0, 0, 15, 30720, 30720, 30720, 30751
   \              000000000000
   \              000000000F00
   \              007800780078
   \              1F78        
   \   0000111A   1F781F781F78       DC16 30751, 30751, 30751, 30751, 30751, 30751, 30751, 30751, 30751
   \              1F781F781F78
   \              1F781F781F78
   \   0000112C   1F781F783F78       DC16 30751, 30751, 30783, 31231, 31743, 31743, 0, 0, 0, 0, 0, 0, 14, 0
   \              FF79FF7BFF7B
   \              000000000000
   \              000000000000
   \              0E000000    
   \   00001148   00000000F803       DC16 0, 0, 1016, 4094, 8191, 7967, 15887, 15872, 8064, 8184, 4094, 511
   \              FE0FFF1F1F1F
   \              0F3E003E801F
   \              F81FFE0FFF01
   \   00001160   1F000F000F1F       DC16 31, 15, 7951, 3999, 4094, 1020, 0, 0, 0, 0, 0, 0, 14, 0, 0, 0, 764
   \              9F0FFE0FFC03
   \              000000000000
   \              000000000000
   \              0E0000000000
   \              0000FC02    
   \   00001182   FE0EFE1E1E1E       DC16 3838, 7934, 7710, 15902, 15902, 7710, 7710, 3614, 30, 30, 30, 7710
   \              1E3E1E3E1E1E
   \              1E1E1E0E1E00
   \              1E001E001E1E
   \   0000119A   FF0EFF0EFF02       DC16 3839, 3839, 767, 30, 30, 30, 30, 28, 16, 15, 0, 0, 0, 32248, 32764
   \              1E001E001E00
   \              1E001C001000
   \              0F0000000000
   \              0000F87DFC7F
   \   000011B8   FE7F3E7F1F7C       DC16 32766, 32574, 31775, 31775, 31775, 31775, 31775, 31775, 31775
   \              1F7C1F7C1F7C
   \              1F7C1F7C1F7C
   \   000011CA   1F7C1F7C1F7C       DC16 31775, 31775, 31775, 31775, 31775, 0, 0, 0, 0, 0, 0, 14, 0, 0, 0
   \              1F7C1F7C0000
   \              000000000000
   \              000000000E00
   \              000000000000
   \   000011E8   F001F001F003       DC16 496, 496, 1008, 1016, 1016, 2044, 1980, 1980, 3870, 3870, 7967
   \              F803F803FC07
   \              BC07BC071E0F
   \              1E0F1F1F    
   \   000011FE   0F1E0F1E0F3E       DC16 7695, 7695, 15887, 15367, 15367, 0, 0, 0, 0, 0, 0, 16, 0, 0, 0
   \              073C073C0000
   \              000000000000
   \              000000001000
   \              000000000000
   \   0000121C   F8E0F8E0F8F0       DC16 57592, 57592, 61688, 61948, 61948, 63996, 63966, 31710, 31710
   \              FCF1FCF1FCF9
   \              DEF9DE7BDE7B
   \   0000122E   CF3F8F3F8F3F       DC16 16335, 16271, 16271, 16271, 7943, 7943, 7943, 0, 0, 0, 0, 0, 0, 16
   \              8F3F071F071F
   \              071F00000000
   \              000000000000
   \              00001000    
   \   0000124A   000000000000       DC16 0, 0, 0, 56839, 57103, 53007, 51102, 51198, 50172, 49656, 16888
   \              07DE0FDF0FCF
   \              9EC7FEC7FCC3
   \              F8C1F841    
   \   00001260   F040F801FC03       DC16 16624, 504, 1020, 1020, 2046, 3999, 3855, 7951, 0, 0, 0, 0, 0, 0
   \              FC03FE079F0F
   \              0F0F0F1F0000
   \              000000000000
   \              00000000    
   \   0000127C   1000F800F000       DC16 16, 248, 240, 240, 33248, 33264, 33264, 33776, 33784, 34808, 34748
   \              F000E081F081
   \              F081F083F883
   \              F887BC87    
   \   00001292   BC073C0F1E0F       DC16 1980, 3900, 3870, 3870, 7711, 7695, 15887, 15375, 15367, 0, 0, 0
   \              1E0F1F1E0F1E
   \              0F3E0F3C073C
   \              000000000000
   \   000012AA   000000000000       DC16 0, 0, 0, 16, 0, 0, 0, 49151, 49151, 49151, 32783, 32799, 32830
   \              100000000000
   \              0000FFBFFFBF
   \              FFBF0F801F80
   \              3E80        
   \   000012C4   7C80F800F001       DC16 32892, 248, 496, 992, 1984, 3968, 7936, 8191, 8191, 8191, 0, 0, 0
   \              E003C007800F
   \              001FFF1FFF1F
   \              FF1F00000000
   \              0000        
   \   000012DE   000000000000       DC16 0, 0, 0, 16, 124, 60, 60, 48188, 48188, 48188, 32828, 32828, 32830
   \              10007C003C00
   \              3C003CBC3CBC
   \              3CBC3C803C80
   \              3E80        
   \   000012F8   1E800F000700       DC16 32798, 15, 7, 15, 1054, 3134, 7228, 7228, 7228, 7228, 60, 60, 60
   \              0F001E043E0C
   \              3C1C3C1C3C1C
   \              3C1C3C003C00
   \              3C00        
   \   00001312   FC01F801F001       DC16 508, 504, 496, 0, 0, 0, 0, 0, 0, 0, 0, 0, 0, 0, 0, 0, 0, 0, 0, 0
   \              000000000000
   \              000000000000
   \              000000000000
   \              000000000000
   \              000000000000
   \              00000000    
   \   0000133A   000000000000       DC16 0, 0, 0, 0, 0, 0, 0, 0, 0, 16, 65511, 65519, 65519, 65519, 65519
   \              000000000000
   \              000000000000
   \              1000E7FFEFFF
   \              EFFFEFFFEFFF
   \   00001358   EFFFEFFFEFFF       DC16 65519, 65519, 65519, 65519, 65487, 65311, 65407, 65311, 65487
   \              EFFFCFFF1FFF
   \              7FFF1FFFCFFF
   \   0000136A   EFFFE7FFE7FF       DC16 65519, 65511, 65511, 65511, 65511, 65511, 65511, 65527, 65520
   \              E7FFE7FFE7FF
   \              E7FFF7FFF0FF
   \   0000137C   F0FFF8FF1000       DC16 65520, 65528, 16, 0, 0, 0, 0, 0, 0, 0, 0, 0, 0, 15873, 32643
   \              000000000000
   \              000000000000
   \              000000000000
   \              0000013E837F
   \   0000139A   E7FFFFE7FEC1       DC16 65511, 59391, 49662, 32892, 0, 0, 0, 0, 0, 0, 0, 0, 0, 8, 0, 0, 0
   \              7C8000000000
   \              000000000000
   \              000000000000
   \              000008000000
   \              00000000    
   \   000013BC   000000000000       DC16 0, 0, 0, 0, 0, 0, 0, 0, 0, 0, 56, 124, 110, 6, 6, 110, 124, 56, 2
   \              000000000000
   \              000000000000
   \              000038007C00
   \              6E0006000600
   \              6E007C003800
   \              0200        
   \   000013E2   05000200           DC16 5, 2
   \   000013E6   0000               DC8 0, 0
   \   000013E8   100000000000       DC16 16, 0, 0, 0, 32704, 65520, 65528, 57596, 126, 62, 30, 31, 16383
   \              0000C07FF0FF
   \              F8FFFCE07E00
   \              3E001E001F00
   \              FF3F        
   \   00001402   FF3F0F000F00       DC16 16383, 15, 15, 16383, 32767, 31, 31, 62, 126, 57596, 65528, 65520
   \              FF3FFF7F1F00
   \              1F003E007E00
   \              FCE0F8FFF0FF
   \   0000141A   807F10000000       DC16 32640, 16, 0, 0, 0, 32771, 32771, 32771, 32771, 32771, 32771
   \              000000000380
   \              038003800380
   \              03800380    
   \   00001430   038003800380       DC16 32771, 32771, 32771, 32771, 32771, 32771, 32771, 32771, 32771
   \              038003800380
   \              038003800380
   \   00001442   038003800380       DC16 32771, 32771, 32771, 32771, 0, 0, 0
   \              038000000000
   \              0000        
    847           {16,0,0,0,32771,32771,32771,32771,32771,32771,32771,32771,32771,32771,32771,32771,32771,32771,32771,32771,32771,32771,32771,0,0,0},        //30   ""
    848                            {16,0,0,0,32771,32771,32771,32771,32771,32771,32771,32771,32771,32771,32771,32771,32771,32771,32771,32771,32771,32771,32771,0,0,0},        //31   ""
    849                            {0,0,0,0,0,0,0,0,0,0,0,0,0,0,0,0,0,0,0,0,0,0,0,0,0,0},        //32   " "
    850                            {16,65535,65535,65535,65535,65535,65535,65535,65535,65535,65535,65535,65535,65535,65535,65535,65535,65535,65535,65535,65535,65534,65534,65534,65534,65534},        //33   "!"
    851                            {16,65535,65535,65535,65535,65535,65535,65535,65535,65535,65535,65535,65535,65535,65535,65535,65535,65535,65535,65535,65535,65535,65502,65502,65502,65502},        //34   """
    852                            {16,0,0,0,903,1927,1935,1807,1806,65535,65535,65535,3614,3612,7708,7740,7740,65535,65535,65535,15480,14456,14448,30832,30960,30960},        //35   "#"
    853                            {15,448,448,448,2032,8188,16382,32767,32223,31183,31183,31168,31168,32704,16320,8176,2044,510,479,463,463,32207,16383,16382,8188,2040},        //36   "$"
    854                            {16,0,0,0,480,448,33728,33664,34688,36608,36608,40448,39936,48128,14584,31742,62430,63375,59279,51087,51087,34703,34703,990,1022,248},        //37   "%"
    855                            {16,0,0,0,2032,57340,65534,65087,63519,63503,64527,65039,65311,57118,4094,2040,2032,4080,16376,15608,30840,30844,31992,16376,16368,4064},        //38   "&"
    856                            {16,65535,65535,65535,65535,65535,65535,65535,65535,65535,65535,65535,65535,65279,65535,65535,65535,65535,65535,65535,63487,63487,65534,65534,65534,65534},        //39   "'"
    857                            {16,120,60,60,1084,56350,64542,64542,63519,63503,64527,64527,64527,56335,3087,1055,1054,3102,15390,15420,30780,30780,31864,15472,15600,3296},        //40   "("
    858                            {16,65535,65535,65535,65535,65535,65535,65535,65535,65519,65535,65535,65535,65535,65519,65519,65535,65535,65535,65527,65535,65535,65535,65535,65535,65534},        //41   ")"
    859                            {16,0,0,0,0,53248,61440,61440,61440,61440,61440,61440,61440,53248,0,0,0,460,13310,12796,28924,29182,30719,14335,12408,120},        //42   "*"
    860                            {16,0,0,0,0,0,0,960,960,960,960,960,960,65535,65535,65535,960,960,960,960,960,960,0,0,0,0},        //43   "+"
    861                            {5,14,28,28,31,31,31,0,0,0,0,0,0,0,0,0,0,0,0,0,0,0,0,0,0,0},        //44   ","
    862                            {9,0,0,0,0,0,0,0,0,0,0,511,511,511,0,0,0,0,0,0,0,0,0,0,0,0},        //45   "-"
    863                            {3,0,0,0,7,7,7,0,0,0,0,0,0,0,0,0,0,0,0,0,0,0,0,0,0,0},        //46   "."
    864                            {8,0,0,0,3,3,7,7,7,7,15,14,14,30,30,28,60,60,56,120,120,112,112,240,224,224},        //47   "/"
    865                            {15,0,0,0,2032,8188,8188,15934,31775,31775,30735,30735,30735,30735,30735,30735,30735,30735,30735,30735,31775,31775,15934,8188,8188,2032},        //48   "0"
    866                            {9,0,0,0,480,480,480,480,480,480,480,480,480,480,480,480,480,480,483,495,511,510,504,496,480,448},        //49   "1"
    867                            {15,0,0,0,32767,32767,32767,31,62,124,248,496,960,1920,3840,7680,15360,31744,30720,30735,30735,31775,32318,16382,8188,2032},        //50   "2"
    868                            {15,0,0,0,2032,8188,16382,15935,31775,30735,30720,30720,30720,31744,31744,16352,4064,4064,7936,15360,15375,15391,15934,8190,4092,2032},        //51   "3"
    869                            {15,0,0,0,3840,3840,3840,3840,3840,32767,32767,32767,3847,3855,3870,3870,3900,3960,3960,4080,4064,4032,4032,3968,3840,3840},        //52   "4"
    870                            {15,0,0,0,2032,8188,16382,15903,31759,30735,30720,30720,30720,30720,31744,32287,16383,8190,2046,30,30,62,60,16380,16380,16380},        //53   "5"
    871                            {15,0,0,0,2032,8188,16382,15934,31775,30735,30735,30735,30735,30751,32319,16383,8191,2031,15,15,30751,31774,15934,16380,8184,2032},        //54   "6"
    872                            //{16,65535,65535,65535,65527,65535,65535,65535,65535,65535,65535,65535,65535,65535,65535,65471,65535,65407,65535,65279,65535,65535,65535,65534,65534,65534},        //55   "7"
    873                           // 0,0,0,0,120,120,120,120,120,240,240,240,224,224,224,192,192,128,128,   0,0,0,255,255,255,255},
    874                            {14,0,0,0,120,120,120,120,120,240,240,240,224,224,480,448,960,896,1920,1792,3840, 7680,16383,16383,16383,16383},
    875                           //{0,0,0,0,0,    0,  0,  0,  0,  0,  0,  0,  0,  1,  1,  1,  3,  3,  7,  7, 15,30,63 ,63 , 63, 63},
    876                            {16,0,0,0,2032,8188,16382,32319,31775,63503,63503,63503,30735,31775,32318,16380,4088,8188,15934,31774,31775,31775,15934,16382,8188,2032},        //56   "8"
    877                            {15,0,0,0,1016,4092,8190,16190,15903,31759,31744,30720,31736,32764,32766,32319,31775,30735,30735,30735,30735,31775,15935,8190,4092,2032},        //57   "9"
    878                            {5,0,0,0,31,31,31,0,0,0,0,0,0,0,0,0,0,31,31,31,0,0,0,0,0,0},        //58   ":"
    879                            {5,14,30,28,31,31,31,0,0,0,0,0,0,0,0,0,0,31,31,31,0,0,0,0,0,0},        //59   ";"
    880                            {16,0,0,0,0,0,0,57344,63488,65280,32704,4080,1022,127,31,127,1022,4080,32704,65280,63488,57344,0,0,0,0},        //60   "<"
    881                            {16,0,0,0,0,0,0,0,0,0,65535,65535,65535,0,0,0,65535,65535,65535,0,0,0,0,0,0,0},        //61   "="
    882                            {16,0,0,0,0,0,0,7,31,255,1022,4080,32704,65024,63488,65024,32704,4080,1022,255,31,7,0,0,0,0},        //62   ">"
    883                            {15,0,0,0,480,480,480,0,0,480,992,992,960,1984,3968,7936,15872,31744,30720,30720,30735,30751,32319,16382,8188,2032},        //63   "?"
    884                            {16,504,124,60,32286,65438,65423,59343,33743,975,975,975,975,975,1999,3998,40862,65310,65084,63612,248,1008,4064,65472,65280,64512},        //64   "@"
    885                            {16,0,0,0,7,32775,32783,49167,49183,49183,57374,65534,65532,65532,61564,63608,30968,31984,15600,15856,16352,8160,8128,4032,3968,1920},        //65   "A"
    886                            {16,65535,65535,65535,65534,65534,65534,61438,65534,65534,65534,65534,65534,61438,65534,65534,65534,65534,65534,65534,65534,65534,65534,65534,65534,65534},        //66   "B"
    887                            {16,0,0,0,32704,65520,65528,57852,49278,32830,31,31,15,15,15,15,15,15,31,31,32830,49278,57596,65528,65520,32640},        //67   "C"
    888                            {16,65535,65535,65535,65534,65534,65534,65534,65534,65534,65534,65534,65534,65534,32766,32766,65534,65534,65534,65534,65534,65534,65534,65534,65534,65534},        //68   "D"
    889                            {16,65535,65535,65535,65534,65534,65534,65534,65534,65534,65534,65534,65534,65534,65534,65534,65534,65534,65534,65534,65534,65534,65534,65534,65534,65534},        //69   "E"
    890                            {16,65535,65535,65535,65534,65534,65534,65534,65534,65534,65534,65534,65534,65534,65534,65534,65534,65534,65534,65534,65534,65534,65534,65534,65534,65534},        //70   "F"
    891                            {16,0,0,0,65408,65504,65528,33276,126,62,31,31,63503,63503,63503,15,15,15,31,30,62,126,49660,65528,65504,65408},        //71   "G"
    892                            {16,65535,65535,65535,65534,65534,65534,65534,65534,65534,65534,65534,65534,65534,65534,65534,65534,65534,65534,65534,65534,65534,65534,65534,65534,65534},        //72   "H"
    893                            {16,65535,65535,65535,65534,65534,65534,65534,65534,65534,65534,65534,65534,65534,65534,65534,65534,65534,65534,65534,65534,65534,65534,65534,65534,65534},        //73   "I"
    894                            {13,0,0,0,1016,2046,4095,8095,7951,7695,7695,7680,7680,7680,7680,7680,7680,7680,7680,7680,7680,7680,7680,7680,7680,7680},        //74   "J"
    895                            {16,65535,65535,65535,65534,65534,57342,65534,65534,65534,64510,65534,65534,65534,65534,65534,65518,65502,65534,65534,65534,65534,65534,65534,65534,65534},        //75   "K"
    896                            {16,65535,65535,65535,65534,65534,65534,65534,65534,65534,65534,65534,65534,65534,65534,65534,65534,65534,65534,65534,65534,65534,65534,65534,65534,65534},        //76   "L"
    897                            {16,65535,65535,65535,65534,65534,65534,65534,65534,65534,65534,65534,65534,65534,65534,65534,65534,65534,65534,65534,65534,65534,65534,65534,65534,65534},        //77   "M"
    898                            {16,65535,65535,65535,65534,65534,65534,65534,65534,65534,65534,65534,65534,65534,65534,65534,65534,65534,65534,65534,65534,65534,65534,65534,65534,65534},        //78   "N"
    899                            {16,0,0,0,32640,65504,65528,57852,32894,62,31,31,15,15,15,15,15,31,31,31,62,32894,57852,65528,65504,32640},        //79   "O"
    900                            {16,65535,65535,65535,65534,65534,65534,65534,65534,65534,65534,65534,65534,65534,65534,65534,61438,65534,65534,65534,65534,65534,65534,65534,65534,65534},        //80   "P"
    901                            {16,0,0,0,32640,65504,65528,57852,63614,30782,6175,31,15,15,15,15,15,15,31,31,62,32894,57852,65528,65520,32640},        //81   "Q"
    902                            {16,65535,65535,65535,65534,65534,65534,65534,65534,61438,65534,65534,65534,65534,65534,65534,65534,65534,65534,65534,65534,65534,65534,65534,65534,65534},        //82   "R"
    903                            {16,0,0,0,16352,65528,65532,61566,49183,32783,32783,49152,57344,64512,65472,65528,8188,254,62,30,49182,57374,61566,65532,65528,16352},        //83   "S"
    904                            {16,65535,65535,65535,65535,65535,65535,65535,65535,65535,65535,65535,65535,65535,65535,65535,65535,65535,65535,65535,65535,65535,65535,65534,65534,65534},        //84   "T"
    905                            {16,65535,65535,65535,65535,65535,65535,65533,57343,65535,49151,65534,65534,65534,65534,65534,65534,65534,65534,65534,65534,65534,65534,65534,65534,65534},        //85   "U"
    906                            {16,65535,65535,65535,64767,63743,64255,62335,63359,63295,61375,61375,53151,57311,57295,40943,49135,16359,32759,32755,32755,65531,65529,65529,65532,65532},        //86   "V"
    907                            {16,65535,65535,65535,65087,65087,65087,65215,64991,64991,64991,63951,64495,64495,62447,63463,63479,59383,61427,61427,61435,53241,57337,8185,8189,16380},        //87   "W"
    908                            {16,65535,65535,65535,65535,65535,65535,57343,65531,65535,65535,65535,65535,65535,65535,65535,65535,65535,65535,65535,65535,61431,65535,65535,65535,32766},        //88   "X"
    909                            {16,65535,65535,65535,65023,65023,65023,65023,65023,65023,65023,65023,65023,64767,63743,63615,62271,59199,61343,53199,40911,16359,16371,32755,65529,65532},        //89   "Y"
    910                            {16,65535,65535,65535,65535,65535,65535,65535,65535,65535,65535,65535,65535,65535,65503,65535,65535,65535,65535,65535,64511,65535,65535,65534,65534,65534},        //90   "Z"
    911                            {16,65535,65535,65535,65535,65535,65535,65535,65535,65535,65535,65535,65535,65535,65535,65535,65535,65535,65535,65535,65535,65535,65535,65528,65528,65528},        //91   "["
    912                            {16,65535,65535,65535,65471,65471,65535,65535,65503,65535,65535,65519,65519,65535,65527,65527,65535,65531,65531,65535,65535,65533,65535,65535,65534,65534},        //92   "\"
    913                            {16,65535,65535,65535,65535,65535,65535,65535,65535,65535,65535,65535,65535,65535,65535,65535,65535,65535,65535,65535,65535,65535,65535,65534,65534,65534},        //93   "]"
    914                            {13,0,0,0,0,0,0,0,0,0,0,0,0,0,0,7687,3855,3855,3999,1950,1950,1020,1020,504,504,504},        //94   "^"
    915                            {0,0,0,0,0,0,0,0,0,0,0,0,0,0,0,0,0,0,0,0,0,0,0,0,0,0},        //95   "_"
    916                            {16,65535,65535,65535,65535,65535,65535,65535,65535,65535,65535,65535,65535,65535,65535,65535,65535,65535,65535,65535,65535,65535,65535,65535,65535,65534},        //96   "`"
    917                            {15,0,0,0,32252,16383,16383,16271,15887,15887,15375,15870,16380,16128,15360,15887,15903,8190,8190,2040,0,0,0,0,0,0},        //97   "a"
    918                            {16,65535,65535,65535,65502,65534,65534,65534,64510,65534,63486,63486,63486,63486,65534,65534,65022,65534,65534,65502,65534,65534,65534,65534,65534,65534},        //98   "b"
    919                            {14,0,0,0,2032,4092,8190,15935,15391,15375,15,15,15,15,15,15391,15935,8190,4092,2032,0,0,0,0,0,0},        //99   "c"
    920                            {15,0,0,0,32248,32764,32766,32575,32287,31759,31759,31751,31751,31759,31759,32271,32575,32766,32764,32248,31744,31744,31744,31744,31744,31744},        //100   "d"
    921                            {15,0,0,0,2040,8188,16382,15935,31759,15,7,32767,32767,31751,31759,15375,16191,8190,4092,1016,0,0,0,0,0,0},        //101   "e"
    922                            {15,0,0,0,1054,7198,15390,15390,31774,30,30,31774,31774,31774,31774,15390,15390,7423,3327,255,30,30,30,510,508,504},        //102   "f"
    923                            {15,15903,15375,15360,16376,32764,32766,32575,32271,31759,31759,31751,31751,31759,31759,32271,32575,32766,32764,32760,0,0,0,0,0,0},        //103   "g"
    924                            {16,65535,65535,65535,65534,65534,65534,65534,65534,65534,65534,65534,65534,65534,65534,65534,65534,65534,65534,65534,65534,65534,65534,65534,65534,65534},        //104   "h"
    925                            {16,65535,65535,65535,64510,64510,64510,64510,64510,64510,64510,64510,64510,64510,64510,65534,65534,65534,65534,65534,65535,65535,65535,65534,65534,65534},        //105   "i"
    926                            {16,65535,65535,65535,65534,65534,65534,65534,65534,65534,65534,65534,65534,65534,65534,65534,65534,65534,65534,65534,65535,65535,65535,65534,65534,65534},        //106   "j"
    927                            {16,65535,65535,65535,65534,65534,65278,65534,65534,65534,65534,65534,65534,65534,65534,65534,65534,65534,65534,65534,65534,65534,65534,65534,65534,65534},        //107   "k"
    928                            {16,65535,65535,65535,65022,65534,65534,65406,65534,65534,65534,65534,65534,65534,65534,65534,65534,65534,65534,65278,65534,65534,65534,65534,65534,65534},        //108   "l"
    929                            {16,0,0,0,31775,31775,31775,31775,31775,31775,31775,31775,31775,31775,31775,31775,65151,65535,57343,4047,0,0,0,0,0,0},        //109   "m"
    930                            {15,0,0,0,31775,31775,31775,31775,31775,31775,31775,31775,31775,31775,31775,31775,15999,16383,8191,4095,0,0,0,0,0,0},        //110   "n"
    931                            {15,0,0,0,1016,4092,8190,16191,15903,15375,31759,31759,31759,31759,15375,15903,16191,8190,4092,2032,0,0,0,0,0,0},        //111   "o"
    932                            {15,15,15,15,2031,8191,16383,15935,31775,30751,30735,30735,30735,30735,30751,31775,15999,16383,8191,2031,0,0,0,0,0,0},        //112   "p"
    933                            {15,31744,31744,31744,32752,32764,32766,32575,32271,31759,31759,31751,31751,31759,31759,32271,32575,32766,32764,32248,0,0,0,0,0,0},        //113   "q"
    934                            {15,30720,30720,30720,30751,30751,30751,30751,30751,30751,30751,30751,30751,30751,30751,30751,30783,31231,31743,31743,0,0,0,0,0,0},        //114   "r"
    935                            {14,0,0,0,1016,4094,8191,7967,15887,15872,8064,8184,4094,511,31,15,7951,3999,4094,1020,0,0,0,0,0,0},        //115   "s"
    936                            {14,0,0,0,764,3838,7934,7710,15902,15902,7710,7710,3614,30,30,30,7710,3839,3839,767,30,30,30,30,28,16},        //116   "t"
    937                            {15,0,0,0,32248,32764,32766,32574,31775,31775,31775,31775,31775,31775,31775,31775,31775,31775,31775,31775,0,0,0,0,0,0},        //117   "u"
    938                            {14,0,0,0,496,496,1008,1016,1016,2044,1980,1980,3870,3870,7967,7695,7695,15887,15367,15367,0,0,0,0,0,0},        //118   "v"
    939                            {16,0,0,0,57592,57592,61688,61948,61948,63996,63966,31710,31710,16335,16271,16271,16271,7943,7943,7943,0,0,0,0,0,0},        //119   "w"
    940                            {16,0,0,0,56839,57103,53007,51102,51198,50172,49656,16888,16624,504,1020,1020,2046,3999,3855,7951,0,0,0,0,0,0},        //120   "x"
    941                            {16,248,240,240,33248,33264,33264,33776,33784,34808,34748,1980,3900,3870,3870,7711,7695,15887,15375,15367,0,0,0,0,0,0},        //121   "y"
    942                            {16,0,0,0,49151,49151,49151,32783,32799,32830,32892,248,496,992,1984,3968,7936,8191,8191,8191,0,0,0,0,0,0},        //122   "z"
    943                            {16,124,60,60,48188,48188,48188,32828,32828,32830,32798,15,7,15,1054,3134,7228,7228,7228,7228,60,60,60,508,504,496},        //123   "{"
    944                            {0,0,0,0,0,0,0,0,0,0,0,0,0,0,0,0,0,0,0,0,0,0,0,0,0,0},        //124   "|"
    945                            {16,65511,65519,65519,65519,65519,65519,65519,65519,65519,65487,65311,65407,65311,65487,65519,65511,65511,65511,65511,65511,65511,65527,65520,65520,65528},        //125   "}"
    946                            {16,0,0,0,0,0,0,0,0,0,0,15873,32643,65511,59391,49662,32892,0,0,0,0,0,0,0,0,0},        //126   "~"
    947                            //{16,0,0,0,32771,32771,32771,32771,32771,32771,32771,32771,32771,32771,32771,32771,32771,32771,32771,32771,32771,32771,32771,0,0,0},        //127   ""
    948                            {8,0,0,0,0,0,0,0,0,0,0,0,0,0,56,124,110,6,6,110,124,56,2,5,2},  //127   "*C"
    949                            {16,0,0,0,32704,65520,65528,57596,126,62,30,31,16383,16383,15,15,16383,32767,31,31,62,126,57596,65528,65520,32640},        //128   "€"
    950                            {16,0,0,0,32771,32771,32771,32771,32771,32771,32771,32771,32771,32771,32771,32771,32771,32771,32771,32771,32771,32771,32771,0,0,0},        //129   ""
    951                            };
    952          
    953          
    954          //*-----------------------------------------------------------------------------
    955          //* Nazwa funkcji :    Label
    956          //* Funkcja wrysowania napisu
    957          //*-----------------------------------------------------------------------------
    958          //*  Vstring    - wskaŸnik do tablicy znaków
    959          //*  alig       - wyrównanie -0=do lewej, 1=do prawej, 2=wyœrodkowany
    960          //*  X          - wspó³¿êdna X zale¿na od wyrównania 
    961          //*  Y          - wspó³¿êdna Y do³u napisu
    962          //*  maxChar    - maksymalna d³ugoœæ napisu w znakach 
    963          //*  clean      - d³ugoœæ (w pikselach) obszaru czyszczenia t³a 
    964          //*  minY, maxY - obszar roboczy
    965          //*  negatyw    - 0-brak, 1-negatyw
    966          //*  funkcja zwraca d³ugoœæ napisu w pikselach
    967          //*-----------------------------------------------------------------------------
    968          

   \                                 In section Debug.txt, align 4, keep-with-next
    969          char Label (char *Vstring, char alig, char X, int Y, char maxChar, char clean, char minY, char maxY, char negatyw) 
    970          { 
   \                     Label:
   \   00000000   FFB5               PUSH     {R0-R7,LR}
   \   00000002   83B0               SUB      SP,SP,#+12
    971            //char offset=43;
    972            char offset=30;
   \   00000004   6846               MOV      R0,SP
   \   00000006   1E21               MOVS     R1,#+30
   \   00000008   4170               STRB     R1,[R0, #+1]
    973            
    974            
    975            int kol=0;
   \   0000000A   0026               MOVS     R6,#+0
    976            char linia=0;
   \   0000000C   0025               MOVS     R5,#+0
    977            char bit=0;
   \   0000000E   0027               MOVS     R7,#+0
    978            char ill_znak=0;
   \   00000010   6846               MOV      R0,SP
   \   00000012   0021               MOVS     R1,#+0
   \   00000014   0170               STRB     R1,[R0, #+0]
    979            
    980            char pocz_X=X;
   \   00000016   6846               MOV      R0,SP
   \   00000018   6946               MOV      R1,SP
   \   0000001A   097D               LDRB     R1,[R1, #+20]
   \   0000001C   C170               STRB     R1,[R0, #+3]
    981            
    982            kol=X/8;
   \   0000001E   6846               MOV      R0,SP
   \   00000020   007D               LDRB     R0,[R0, #+20]
   \   00000022   0821               MOVS     R1,#+8
   \   00000024   ........           BL       __aeabi_idivmod
   \   00000028   0600               MOVS     R6,R0
    983            bit=X%8;
   \   0000002A   6846               MOV      R0,SP
   \   0000002C   007D               LDRB     R0,[R0, #+20]
   \   0000002E   0821               MOVS     R1,#+8
   \   00000030   ........           BL       __aeabi_idivmod
   \   00000034   0F00               MOVS     R7,R1
    984            linia=Y;
   \   00000036   0698               LDR      R0,[SP, #+24]
   \   00000038   0500               MOVS     R5,R0
    985             
    986            char dlugosc=0;
   \   0000003A   0024               MOVS     R4,#+0
    987            char clean_offset=0;
   \   0000003C   6846               MOV      R0,SP
   \   0000003E   0021               MOVS     R1,#+0
   \   00000040   8170               STRB     R1,[R0, #+2]
    988            
    989            
    990          
    991            
    992            
    993            
    994            if (alig==1)
   \   00000042   6846               MOV      R0,SP
   \   00000044   007C               LDRB     R0,[R0, #+16]
   \   00000046   0128               CMP      R0,#+1
   \   00000048   35D1               BNE      ??Label_0
    995            {
    996              do {       
    997                 
    998                 if (Vstring[ill_znak]>=offset)  
   \                     ??Label_1:
   \   0000004A   6846               MOV      R0,SP
   \   0000004C   0078               LDRB     R0,[R0, #+0]
   \   0000004E   0399               LDR      R1,[SP, #+12]
   \   00000050   085C               LDRB     R0,[R1, R0]
   \   00000052   6946               MOV      R1,SP
   \   00000054   4978               LDRB     R1,[R1, #+1]
   \   00000056   8842               CMP      R0,R1
   \   00000058   0CD3               BCC      ??Label_2
    999                  {
   1000                    dlugosc += Arial_7[Vstring[ill_znak]-offset][0];
   \   0000005A   6846               MOV      R0,SP
   \   0000005C   0078               LDRB     R0,[R0, #+0]
   \   0000005E   0399               LDR      R1,[SP, #+12]
   \   00000060   085C               LDRB     R0,[R1, R0]
   \   00000062   6946               MOV      R1,SP
   \   00000064   4978               LDRB     R1,[R1, #+1]
   \   00000066   401A               SUBS     R0,R0,R1
   \   00000068   0A21               MOVS     R1,#+10
   \   0000006A   4843               MULS     R0,R1,R0
   \   0000006C   C049               LDR      R1,??Label_3     ;; Arial_7
   \   0000006E   085C               LDRB     R0,[R1, R0]
   \   00000070   2418               ADDS     R4,R4,R0
   \   00000072   02E0               B        ??Label_4
   1001                  }
   1002                 else
   1003                 {
   1004                   dlugosc++;
   \                     ??Label_2:
   \   00000074   641C               ADDS     R4,R4,#+1
   1005                   dlugosc++;
   \   00000076   641C               ADDS     R4,R4,#+1
   1006                   dlugosc++;
   \   00000078   641C               ADDS     R4,R4,#+1
   1007                 }
   1008                 dlugosc++;
   \                     ??Label_4:
   \   0000007A   641C               ADDS     R4,R4,#+1
   1009                 ill_znak++;
   \   0000007C   6846               MOV      R0,SP
   \   0000007E   6946               MOV      R1,SP
   \   00000080   0978               LDRB     R1,[R1, #+0]
   \   00000082   491C               ADDS     R1,R1,#+1
   \   00000084   0170               STRB     R1,[R0, #+0]
   1010                } while ((Vstring[ill_znak]) && (ill_znak<maxChar) && (X-dlugosc>=0) );
   \   00000086   6846               MOV      R0,SP
   \   00000088   0078               LDRB     R0,[R0, #+0]
   \   0000008A   0399               LDR      R1,[SP, #+12]
   \   0000008C   085C               LDRB     R0,[R1, R0]
   \   0000008E   0028               CMP      R0,#+0
   \   00000090   0CD0               BEQ      ??Label_5
   \   00000092   6846               MOV      R0,SP
   \   00000094   0078               LDRB     R0,[R0, #+0]
   \   00000096   0CA9               ADD      R1,SP,#+48
   \   00000098   0978               LDRB     R1,[R1, #+0]
   \   0000009A   8842               CMP      R0,R1
   \   0000009C   06D2               BCS      ??Label_5
   \   0000009E   6846               MOV      R0,SP
   \   000000A0   007D               LDRB     R0,[R0, #+20]
   \   000000A2   2406               LSLS     R4,R4,#+24       ;; ZeroExtS R4,R4,#+24,#+24
   \   000000A4   240E               LSRS     R4,R4,#+24
   \   000000A6   001B               SUBS     R0,R0,R4
   \   000000A8   0028               CMP      R0,#+0
   \   000000AA   CED5               BPL      ??Label_1
   1011           
   1012              clean_offset=clean;
   \                     ??Label_5:
   \   000000AC   6846               MOV      R0,SP
   \   000000AE   0DA9               ADD      R1,SP,#+52
   \   000000B0   0978               LDRB     R1,[R1, #+0]
   \   000000B2   8170               STRB     R1,[R0, #+2]
   \   000000B4   32E0               B        ??Label_6
   1013            }
   1014            else
   1015            {
   1016              do {   
   1017                 
   1018                 
   1019                 if (Vstring[ill_znak]>=offset)  
   \                     ??Label_0:
   \   000000B6   6846               MOV      R0,SP
   \   000000B8   0078               LDRB     R0,[R0, #+0]
   \   000000BA   0399               LDR      R1,[SP, #+12]
   \   000000BC   085C               LDRB     R0,[R1, R0]
   \   000000BE   6946               MOV      R1,SP
   \   000000C0   4978               LDRB     R1,[R1, #+1]
   \   000000C2   8842               CMP      R0,R1
   \   000000C4   0CD3               BCC      ??Label_7
   1020                  {
   1021                    dlugosc += Arial_7[Vstring[ill_znak]-offset][0];
   \   000000C6   6846               MOV      R0,SP
   \   000000C8   0078               LDRB     R0,[R0, #+0]
   \   000000CA   0399               LDR      R1,[SP, #+12]
   \   000000CC   085C               LDRB     R0,[R1, R0]
   \   000000CE   6946               MOV      R1,SP
   \   000000D0   4978               LDRB     R1,[R1, #+1]
   \   000000D2   401A               SUBS     R0,R0,R1
   \   000000D4   0A21               MOVS     R1,#+10
   \   000000D6   4843               MULS     R0,R1,R0
   \   000000D8   A549               LDR      R1,??Label_3     ;; Arial_7
   \   000000DA   085C               LDRB     R0,[R1, R0]
   \   000000DC   2418               ADDS     R4,R4,R0
   \   000000DE   02E0               B        ??Label_8
   1022                  }
   1023                 else
   1024                 {
   1025                   dlugosc++;
   \                     ??Label_7:
   \   000000E0   641C               ADDS     R4,R4,#+1
   1026                   dlugosc++;
   \   000000E2   641C               ADDS     R4,R4,#+1
   1027                   dlugosc++;
   \   000000E4   641C               ADDS     R4,R4,#+1
   1028                 }
   1029                 
   1030                 
   1031                 dlugosc++;
   \                     ??Label_8:
   \   000000E6   641C               ADDS     R4,R4,#+1
   1032                 ill_znak++;
   \   000000E8   6846               MOV      R0,SP
   \   000000EA   6946               MOV      R1,SP
   \   000000EC   0978               LDRB     R1,[R1, #+0]
   \   000000EE   491C               ADDS     R1,R1,#+1
   \   000000F0   0170               STRB     R1,[R0, #+0]
   1033               } while ((Vstring[ill_znak]) && (ill_znak<maxChar) && (X+dlugosc<=64));
   \   000000F2   6846               MOV      R0,SP
   \   000000F4   0078               LDRB     R0,[R0, #+0]
   \   000000F6   0399               LDR      R1,[SP, #+12]
   \   000000F8   085C               LDRB     R0,[R1, R0]
   \   000000FA   0028               CMP      R0,#+0
   \   000000FC   0ED0               BEQ      ??Label_6
   \   000000FE   6846               MOV      R0,SP
   \   00000100   0078               LDRB     R0,[R0, #+0]
   \   00000102   0CA9               ADD      R1,SP,#+48
   \   00000104   0978               LDRB     R1,[R1, #+0]
   \   00000106   8842               CMP      R0,R1
   \   00000108   08D2               BCS      ??Label_6
   \   0000010A   6846               MOV      R0,SP
   \   0000010C   007D               LDRB     R0,[R0, #+20]
   \   0000010E   2406               LSLS     R4,R4,#+24       ;; ZeroExtS R4,R4,#+24,#+24
   \   00000110   240E               LSRS     R4,R4,#+24
   \   00000112   0019               ADDS     R0,R0,R4
   \   00000114   0004               LSLS     R0,R0,#+16       ;; ZeroExtS R0,R0,#+16,#+16
   \   00000116   000C               LSRS     R0,R0,#+16
   \   00000118   4128               CMP      R0,#+65
   \   0000011A   CCD3               BCC      ??Label_0
   1034              
   1035            }
   1036              
   1037            dlugosc--;
   \                     ??Label_6:
   \   0000011C   641E               SUBS     R4,R4,#+1
   1038            
   1039             //Czyszczenie obszaru ----------------------
   1040            linia=Y;
   \   0000011E   069D               LDR      R5,[SP, #+24]
   1041            for (int i=1; i<=9; i++)
   \   00000120   0120               MOVS     R0,#+1
   \   00000122   0190               STR      R0,[SP, #+4]
   \   00000124   03E0               B        ??Label_9
   1042             {
   1043              if ((linia>=minY) && (linia<=maxY))
   1044              {
   1045               kol=(X-clean_offset)/8;
   1046               bit=(X-clean_offset)%8;
   1047                 
   1048                for (int j=0; j<=clean; j++)
   1049                {
   1050                  LCD_Canvas[kol][linia] &=~(1<<bit);
   1051                  
   1052                  if (bit<7) { bit++;} else {bit=0;  kol++; }
   1053                }   
   1054          
   1055          
   1056             }
   1057              linia++;
   \                     ??Label_10:
   \   00000126   6D1C               ADDS     R5,R5,#+1
   \   00000128   0198               LDR      R0,[SP, #+4]
   \   0000012A   401C               ADDS     R0,R0,#+1
   \   0000012C   0190               STR      R0,[SP, #+4]
   \                     ??Label_9:
   \   0000012E   0198               LDR      R0,[SP, #+4]
   \   00000130   0A28               CMP      R0,#+10
   \   00000132   3DDA               BGE      ??Label_11
   \   00000134   0EA8               ADD      R0,SP,#+56
   \   00000136   0078               LDRB     R0,[R0, #+0]
   \   00000138   2D06               LSLS     R5,R5,#+24       ;; ZeroExtS R5,R5,#+24,#+24
   \   0000013A   2D0E               LSRS     R5,R5,#+24
   \   0000013C   8542               CMP      R5,R0
   \   0000013E   F2D3               BCC      ??Label_10
   \   00000140   0FA8               ADD      R0,SP,#+60
   \   00000142   0078               LDRB     R0,[R0, #+0]
   \   00000144   2D06               LSLS     R5,R5,#+24       ;; ZeroExtS R5,R5,#+24,#+24
   \   00000146   2D0E               LSRS     R5,R5,#+24
   \   00000148   A842               CMP      R0,R5
   \   0000014A   ECD3               BCC      ??Label_10
   \   0000014C   6846               MOV      R0,SP
   \   0000014E   007D               LDRB     R0,[R0, #+20]
   \   00000150   6946               MOV      R1,SP
   \   00000152   8978               LDRB     R1,[R1, #+2]
   \   00000154   401A               SUBS     R0,R0,R1
   \   00000156   0821               MOVS     R1,#+8
   \   00000158   ........           BL       __aeabi_idivmod
   \   0000015C   0600               MOVS     R6,R0
   \   0000015E   6846               MOV      R0,SP
   \   00000160   007D               LDRB     R0,[R0, #+20]
   \   00000162   6946               MOV      R1,SP
   \   00000164   8978               LDRB     R1,[R1, #+2]
   \   00000166   401A               SUBS     R0,R0,R1
   \   00000168   0821               MOVS     R1,#+8
   \   0000016A   ........           BL       __aeabi_idivmod
   \   0000016E   0F00               MOVS     R7,R1
   \   00000170   0021               MOVS     R1,#+0
   \   00000172   02E0               B        ??Label_12
   \                     ??Label_13:
   \   00000174   0027               MOVS     R7,#+0
   \   00000176   761C               ADDS     R6,R6,#+1
   \                     ??Label_14:
   \   00000178   491C               ADDS     R1,R1,#+1
   \                     ??Label_12:
   \   0000017A   0DA8               ADD      R0,SP,#+52
   \   0000017C   0078               LDRB     R0,[R0, #+0]
   \   0000017E   8842               CMP      R0,R1
   \   00000180   D1DB               BLT      ??Label_10
   \   00000182   2D06               LSLS     R5,R5,#+24       ;; ZeroExtS R5,R5,#+24,#+24
   \   00000184   2D0E               LSRS     R5,R5,#+24
   \   00000186   8020               MOVS     R0,#+128
   \   00000188   7043               MULS     R0,R6,R0
   \   0000018A   9C4A               LDR      R2,??Label_15    ;; LCD_Canvas
   \   0000018C   1018               ADDS     R0,R2,R0
   \   0000018E   2D06               LSLS     R5,R5,#+24       ;; ZeroExtS R5,R5,#+24,#+24
   \   00000190   2D0E               LSRS     R5,R5,#+24
   \   00000192   8022               MOVS     R2,#+128
   \   00000194   7243               MULS     R2,R6,R2
   \   00000196   994B               LDR      R3,??Label_15    ;; LCD_Canvas
   \   00000198   9A18               ADDS     R2,R3,R2
   \   0000019A   525D               LDRB     R2,[R2, R5]
   \   0000019C   0123               MOVS     R3,#+1
   \   0000019E   BB40               LSLS     R3,R3,R7
   \   000001A0   9A43               BICS     R2,R2,R3
   \   000001A2   4255               STRB     R2,[R0, R5]
   \   000001A4   3F06               LSLS     R7,R7,#+24       ;; ZeroExtS R7,R7,#+24,#+24
   \   000001A6   3F0E               LSRS     R7,R7,#+24
   \   000001A8   072F               CMP      R7,#+7
   \   000001AA   E3D2               BCS      ??Label_13
   \   000001AC   7F1C               ADDS     R7,R7,#+1
   \   000001AE   E3E7               B        ??Label_14
   1058            }
   1059            //------------------------------------------------------
   1060              
   1061            if (alig==1)
   \                     ??Label_11:
   \   000001B0   6846               MOV      R0,SP
   \   000001B2   007C               LDRB     R0,[R0, #+16]
   \   000001B4   0128               CMP      R0,#+1
   \   000001B6   04D1               BNE      ??Label_16
   1062            {  
   1063              X-=dlugosc;
   \   000001B8   6846               MOV      R0,SP
   \   000001BA   6946               MOV      R1,SP
   \   000001BC   097D               LDRB     R1,[R1, #+20]
   \   000001BE   091B               SUBS     R1,R1,R4
   \   000001C0   0175               STRB     R1,[R0, #+20]
   1064            }  
   1065           
   1066            if (alig==2)
   \                     ??Label_16:
   \   000001C2   6846               MOV      R0,SP
   \   000001C4   007C               LDRB     R0,[R0, #+16]
   \   000001C6   0228               CMP      R0,#+2
   \   000001C8   1BD1               BNE      ??Label_17
   1067            {  
   1068              X+=(clean-dlugosc)/2;
   \   000001CA   6846               MOV      R0,SP
   \   000001CC   057D               LDRB     R5,[R0, #+20]
   \   000001CE   0DA8               ADD      R0,SP,#+52
   \   000001D0   0078               LDRB     R0,[R0, #+0]
   \   000001D2   2406               LSLS     R4,R4,#+24       ;; ZeroExtS R4,R4,#+24,#+24
   \   000001D4   240E               LSRS     R4,R4,#+24
   \   000001D6   001B               SUBS     R0,R0,R4
   \   000001D8   0221               MOVS     R1,#+2
   \   000001DA   ........           BL       __aeabi_idivmod
   \   000001DE   2818               ADDS     R0,R5,R0
   \   000001E0   6946               MOV      R1,SP
   \   000001E2   0875               STRB     R0,[R1, #+20]
   1069              
   1070              if (((clean-dlugosc)%2)>0) X++;
   \   000001E4   0DA8               ADD      R0,SP,#+52
   \   000001E6   0078               LDRB     R0,[R0, #+0]
   \   000001E8   2406               LSLS     R4,R4,#+24       ;; ZeroExtS R4,R4,#+24,#+24
   \   000001EA   240E               LSRS     R4,R4,#+24
   \   000001EC   001B               SUBS     R0,R0,R4
   \   000001EE   0221               MOVS     R1,#+2
   \   000001F0   ........           BL       __aeabi_idivmod
   \   000001F4   0129               CMP      R1,#+1
   \   000001F6   04DB               BLT      ??Label_17
   \   000001F8   6846               MOV      R0,SP
   \   000001FA   6946               MOV      R1,SP
   \   000001FC   097D               LDRB     R1,[R1, #+20]
   \   000001FE   491C               ADDS     R1,R1,#+1
   \   00000200   0175               STRB     R1,[R0, #+20]
   1071            }  
   1072          
   1073              
   1074            //wklejanie napisu do LCD_Canvas ----------------------
   1075            linia=Y;
   \                     ??Label_17:
   \   00000202   069D               LDR      R5,[SP, #+24]
   1076            for (int i=1; i<=9; i++)
   \   00000204   0120               MOVS     R0,#+1
   \   00000206   0190               STR      R0,[SP, #+4]
   \   00000208   03E0               B        ??Label_18
   1077             {
   1078              if ((linia>=minY) && (linia<=maxY))
   1079              {
   1080               kol=X/8;
   1081               bit=X%8;
   1082              for (int k=0; k<=(ill_znak-1); k++)
   1083              {     
   1084                
   1085                if ((Vstring[k]>=offset) &&  (Vstring[k]!=32))
   1086                {
   1087                  for (int j=0; j<=Arial_7[Vstring[k]-offset][0]; j++)
   1088                  {
   1089                      LCD_Canvas[kol][linia] |= (((Arial_7[Vstring[k]-offset][i])>>j)&0x1)<<bit;
   1090                      if (bit<7) { bit++;} else {bit=0;  kol++; } 
   1091                  }
   1092                }
   1093                else 
   1094                {
   1095                     if (bit<7) { bit++;} else {bit=0;  kol++; } 
   1096                     if (bit<7) { bit++;} else {bit=0;  kol++; } 
   1097                     if (bit<7) { bit++;} else {bit=0;  kol++; } 
   1098          
   1099                }
   1100                
   1101                
   1102              }
   1103             }
   1104              linia++;
   \                     ??Label_19:
   \   0000020A   6D1C               ADDS     R5,R5,#+1
   \   0000020C   0198               LDR      R0,[SP, #+4]
   \   0000020E   401C               ADDS     R0,R0,#+1
   \   00000210   0190               STR      R0,[SP, #+4]
   \                     ??Label_18:
   \   00000212   0198               LDR      R0,[SP, #+4]
   \   00000214   0A28               CMP      R0,#+10
   \   00000216   7CDA               BGE      ??Label_20
   \   00000218   0EA8               ADD      R0,SP,#+56
   \   0000021A   0078               LDRB     R0,[R0, #+0]
   \   0000021C   2D06               LSLS     R5,R5,#+24       ;; ZeroExtS R5,R5,#+24,#+24
   \   0000021E   2D0E               LSRS     R5,R5,#+24
   \   00000220   8542               CMP      R5,R0
   \   00000222   F2D3               BCC      ??Label_19
   \   00000224   0FA8               ADD      R0,SP,#+60
   \   00000226   0078               LDRB     R0,[R0, #+0]
   \   00000228   2D06               LSLS     R5,R5,#+24       ;; ZeroExtS R5,R5,#+24,#+24
   \   0000022A   2D0E               LSRS     R5,R5,#+24
   \   0000022C   A842               CMP      R0,R5
   \   0000022E   ECD3               BCC      ??Label_19
   \   00000230   6846               MOV      R0,SP
   \   00000232   007D               LDRB     R0,[R0, #+20]
   \   00000234   0821               MOVS     R1,#+8
   \   00000236   ........           BL       __aeabi_idivmod
   \   0000023A   0600               MOVS     R6,R0
   \   0000023C   6846               MOV      R0,SP
   \   0000023E   007D               LDRB     R0,[R0, #+20]
   \   00000240   0821               MOVS     R1,#+8
   \   00000242   ........           BL       __aeabi_idivmod
   \   00000246   0F00               MOVS     R7,R1
   \   00000248   0020               MOVS     R0,#+0
   \   0000024A   02E0               B        ??Label_21
   \                     ??Label_22:
   \   0000024C   0027               MOVS     R7,#+0
   \   0000024E   761C               ADDS     R6,R6,#+1
   \                     ??Label_23:
   \   00000250   401C               ADDS     R0,R0,#+1
   \                     ??Label_21:
   \   00000252   6946               MOV      R1,SP
   \   00000254   0978               LDRB     R1,[R1, #+0]
   \   00000256   491E               SUBS     R1,R1,#+1
   \   00000258   8142               CMP      R1,R0
   \   0000025A   D6DB               BLT      ??Label_19
   \   0000025C   0399               LDR      R1,[SP, #+12]
   \   0000025E   095C               LDRB     R1,[R1, R0]
   \   00000260   6A46               MOV      R2,SP
   \   00000262   5278               LDRB     R2,[R2, #+1]
   \   00000264   9142               CMP      R1,R2
   \   00000266   3ED3               BCC      ??Label_24
   \   00000268   0399               LDR      R1,[SP, #+12]
   \   0000026A   095C               LDRB     R1,[R1, R0]
   \   0000026C   2029               CMP      R1,#+32
   \   0000026E   3AD0               BEQ      ??Label_24
   \   00000270   0021               MOVS     R1,#+0
   \   00000272   02E0               B        ??Label_25
   \                     ??Label_26:
   \   00000274   0027               MOVS     R7,#+0
   \   00000276   761C               ADDS     R6,R6,#+1
   \                     ??Label_27:
   \   00000278   491C               ADDS     R1,R1,#+1
   \                     ??Label_25:
   \   0000027A   039A               LDR      R2,[SP, #+12]
   \   0000027C   125C               LDRB     R2,[R2, R0]
   \   0000027E   6B46               MOV      R3,SP
   \   00000280   5B78               LDRB     R3,[R3, #+1]
   \   00000282   D21A               SUBS     R2,R2,R3
   \   00000284   0A23               MOVS     R3,#+10
   \   00000286   5A43               MULS     R2,R3,R2
   \   00000288   394B               LDR      R3,??Label_3     ;; Arial_7
   \   0000028A   9A5C               LDRB     R2,[R3, R2]
   \   0000028C   8A42               CMP      R2,R1
   \   0000028E   DFDB               BLT      ??Label_23
   \   00000290   2D06               LSLS     R5,R5,#+24       ;; ZeroExtS R5,R5,#+24,#+24
   \   00000292   2D0E               LSRS     R5,R5,#+24
   \   00000294   8022               MOVS     R2,#+128
   \   00000296   7243               MULS     R2,R6,R2
   \   00000298   584B               LDR      R3,??Label_15    ;; LCD_Canvas
   \   0000029A   9B18               ADDS     R3,R3,R2
   \   0000029C   08B5               PUSH     {R3,LR}
   \   0000029E   2D06               LSLS     R5,R5,#+24       ;; ZeroExtS R5,R5,#+24,#+24
   \   000002A0   2D0E               LSRS     R5,R5,#+24
   \   000002A2   8023               MOVS     R3,#+128
   \   000002A4   7343               MULS     R3,R6,R3
   \   000002A6   554A               LDR      R2,??Label_15    ;; LCD_Canvas
   \   000002A8   D218               ADDS     R2,R2,R3
   \   000002AA   535D               LDRB     R3,[R2, R5]
   \   000002AC   0193               STR      R3,[SP, #+4]
   \   000002AE   039B               LDR      R3,[SP, #+12]
   \   000002B0   9C46               MOV      R12,R3
   \   000002B2   059A               LDR      R2,[SP, #+20]
   \   000002B4   135C               LDRB     R3,[R2, R0]
   \   000002B6   02AA               ADD      R2,SP,#+8
   \   000002B8   5278               LDRB     R2,[R2, #+1]
   \   000002BA   9A1A               SUBS     R2,R3,R2
   \   000002BC   0A23               MOVS     R3,#+10
   \   000002BE   5A43               MULS     R2,R3,R2
   \   000002C0   2B4B               LDR      R3,??Label_3     ;; Arial_7
   \   000002C2   9A18               ADDS     R2,R3,R2
   \   000002C4   6346               MOV      R3,R12
   \   000002C6   D35C               LDRB     R3,[R2, R3]
   \   000002C8   0B41               ASRS     R3,R3,R1
   \   000002CA   0122               MOVS     R2,#+1
   \   000002CC   1A40               ANDS     R2,R2,R3
   \   000002CE   BA40               LSLS     R2,R2,R7
   \   000002D0   019B               LDR      R3,[SP, #+4]
   \   000002D2   1A43               ORRS     R2,R2,R3
   \   000002D4   009B               LDR      R3,[SP, #0]
   \   000002D6   02B0               ADD      SP,SP,#+8
   \   000002D8   5A55               STRB     R2,[R3, R5]
   \   000002DA   3F06               LSLS     R7,R7,#+24       ;; ZeroExtS R7,R7,#+24,#+24
   \   000002DC   3F0E               LSRS     R7,R7,#+24
   \   000002DE   072F               CMP      R7,#+7
   \   000002E0   C8D2               BCS      ??Label_26
   \   000002E2   7F1C               ADDS     R7,R7,#+1
   \   000002E4   C8E7               B        ??Label_27
   \                     ??Label_24:
   \   000002E6   3F06               LSLS     R7,R7,#+24       ;; ZeroExtS R7,R7,#+24,#+24
   \   000002E8   3F0E               LSRS     R7,R7,#+24
   \   000002EA   072F               CMP      R7,#+7
   \   000002EC   01D2               BCS      ??Label_28
   \   000002EE   7F1C               ADDS     R7,R7,#+1
   \   000002F0   01E0               B        ??Label_29
   \                     ??Label_28:
   \   000002F2   0027               MOVS     R7,#+0
   \   000002F4   761C               ADDS     R6,R6,#+1
   \                     ??Label_29:
   \   000002F6   3F06               LSLS     R7,R7,#+24       ;; ZeroExtS R7,R7,#+24,#+24
   \   000002F8   3F0E               LSRS     R7,R7,#+24
   \   000002FA   072F               CMP      R7,#+7
   \   000002FC   01D2               BCS      ??Label_30
   \   000002FE   7F1C               ADDS     R7,R7,#+1
   \   00000300   01E0               B        ??Label_31
   \                     ??Label_30:
   \   00000302   0027               MOVS     R7,#+0
   \   00000304   761C               ADDS     R6,R6,#+1
   \                     ??Label_31:
   \   00000306   3F06               LSLS     R7,R7,#+24       ;; ZeroExtS R7,R7,#+24,#+24
   \   00000308   3F0E               LSRS     R7,R7,#+24
   \   0000030A   072F               CMP      R7,#+7
   \   0000030C   9ED2               BCS      ??Label_22
   \   0000030E   7F1C               ADDS     R7,R7,#+1
   \   00000310   9EE7               B        ??Label_23
   1105            }
   1106            //------------------------------------------------------
   1107              
   1108          
   1109            //negatyw obszaru ----------------------
   1110           if (negatyw)
   \                     ??Label_20:
   \   00000312   10A8               ADD      R0,SP,#+64
   \   00000314   0078               LDRB     R0,[R0, #+0]
   \   00000316   0028               CMP      R0,#+0
   \   00000318   68D0               BEQ      ??Label_32
   1111           {
   1112            linia=Y;
   \   0000031A   069D               LDR      R5,[SP, #+24]
   1113            for (int i=1; i<=9; i++)
   \   0000031C   0120               MOVS     R0,#+1
   \   0000031E   0190               STR      R0,[SP, #+4]
   \   00000320   03E0               B        ??Label_33
   1114             {
   1115              if ((linia>=minY) && (linia<=maxY))
   1116              {
   1117               
   1118               kol=(pocz_X-clean_offset)/8;
   1119               bit=(pocz_X-clean_offset)%8;
   1120                 
   1121                for (int j=0; j<=clean; j++)
   1122                {
   1123                 
   1124                  if (((LCD_Canvas[kol][linia]>>bit)&0x1)>0)
   1125                  {
   1126                     LCD_Canvas[kol][linia] &=~(1<<bit);   
   1127                    
   1128                  }
   1129                  else
   1130                  {
   1131                    LCD_Canvas[kol][linia] |=(1<<bit); 
   1132                    
   1133                  }
   1134                  
   1135                  
   1136                  
   1137                  if (bit<7) { bit++;} else {bit=0;  kol++; }
   1138                }   
   1139          
   1140          
   1141             }
   1142              linia++;
   \                     ??Label_34:
   \   00000322   6D1C               ADDS     R5,R5,#+1
   \   00000324   0198               LDR      R0,[SP, #+4]
   \   00000326   401C               ADDS     R0,R0,#+1
   \   00000328   0190               STR      R0,[SP, #+4]
   \                     ??Label_33:
   \   0000032A   0198               LDR      R0,[SP, #+4]
   \   0000032C   0A28               CMP      R0,#+10
   \   0000032E   5DDA               BGE      ??Label_32
   \   00000330   0EA8               ADD      R0,SP,#+56
   \   00000332   0078               LDRB     R0,[R0, #+0]
   \   00000334   2D06               LSLS     R5,R5,#+24       ;; ZeroExtS R5,R5,#+24,#+24
   \   00000336   2D0E               LSRS     R5,R5,#+24
   \   00000338   8542               CMP      R5,R0
   \   0000033A   F2D3               BCC      ??Label_34
   \   0000033C   0FA8               ADD      R0,SP,#+60
   \   0000033E   0078               LDRB     R0,[R0, #+0]
   \   00000340   2D06               LSLS     R5,R5,#+24       ;; ZeroExtS R5,R5,#+24,#+24
   \   00000342   2D0E               LSRS     R5,R5,#+24
   \   00000344   A842               CMP      R0,R5
   \   00000346   ECD3               BCC      ??Label_34
   \   00000348   6846               MOV      R0,SP
   \   0000034A   C078               LDRB     R0,[R0, #+3]
   \   0000034C   6946               MOV      R1,SP
   \   0000034E   8978               LDRB     R1,[R1, #+2]
   \   00000350   401A               SUBS     R0,R0,R1
   \   00000352   0821               MOVS     R1,#+8
   \   00000354   ........           BL       __aeabi_idivmod
   \   00000358   0600               MOVS     R6,R0
   \   0000035A   6846               MOV      R0,SP
   \   0000035C   C078               LDRB     R0,[R0, #+3]
   \   0000035E   6946               MOV      R1,SP
   \   00000360   8978               LDRB     R1,[R1, #+2]
   \   00000362   401A               SUBS     R0,R0,R1
   \   00000364   0821               MOVS     R1,#+8
   \   00000366   ........           BL       __aeabi_idivmod
   \   0000036A   0F00               MOVS     R7,R1
   \   0000036C   0021               MOVS     R1,#+0
   \   0000036E   04E0               B        ??Label_35
   \                     ??Label_3:
   \   00000370   ........           DC32     Arial_7
   \                     ??Label_36:
   \   00000374   0027               MOVS     R7,#+0
   \   00000376   761C               ADDS     R6,R6,#+1
   \                     ??Label_37:
   \   00000378   491C               ADDS     R1,R1,#+1
   \                     ??Label_35:
   \   0000037A   0DA8               ADD      R0,SP,#+52
   \   0000037C   0078               LDRB     R0,[R0, #+0]
   \   0000037E   8842               CMP      R0,R1
   \   00000380   CFDB               BLT      ??Label_34
   \   00000382   2D06               LSLS     R5,R5,#+24       ;; ZeroExtS R5,R5,#+24,#+24
   \   00000384   2D0E               LSRS     R5,R5,#+24
   \   00000386   8020               MOVS     R0,#+128
   \   00000388   7043               MULS     R0,R6,R0
   \   0000038A   1C4A               LDR      R2,??Label_15    ;; LCD_Canvas
   \   0000038C   1018               ADDS     R0,R2,R0
   \   0000038E   405D               LDRB     R0,[R0, R5]
   \   00000390   3841               ASRS     R0,R0,R7
   \   00000392   0122               MOVS     R2,#+1
   \   00000394   0240               ANDS     R2,R2,R0
   \   00000396   012A               CMP      R2,#+1
   \   00000398   11DB               BLT      ??Label_38
   \   0000039A   2D06               LSLS     R5,R5,#+24       ;; ZeroExtS R5,R5,#+24,#+24
   \   0000039C   2D0E               LSRS     R5,R5,#+24
   \   0000039E   8020               MOVS     R0,#+128
   \   000003A0   7043               MULS     R0,R6,R0
   \   000003A2   164A               LDR      R2,??Label_15    ;; LCD_Canvas
   \   000003A4   1018               ADDS     R0,R2,R0
   \   000003A6   2D06               LSLS     R5,R5,#+24       ;; ZeroExtS R5,R5,#+24,#+24
   \   000003A8   2D0E               LSRS     R5,R5,#+24
   \   000003AA   8022               MOVS     R2,#+128
   \   000003AC   7243               MULS     R2,R6,R2
   \   000003AE   134B               LDR      R3,??Label_15    ;; LCD_Canvas
   \   000003B0   9A18               ADDS     R2,R3,R2
   \   000003B2   525D               LDRB     R2,[R2, R5]
   \   000003B4   0123               MOVS     R3,#+1
   \   000003B6   BB40               LSLS     R3,R3,R7
   \   000003B8   9A43               BICS     R2,R2,R3
   \   000003BA   4255               STRB     R2,[R0, R5]
   \   000003BC   10E0               B        ??Label_39
   \                     ??Label_38:
   \   000003BE   2D06               LSLS     R5,R5,#+24       ;; ZeroExtS R5,R5,#+24,#+24
   \   000003C0   2D0E               LSRS     R5,R5,#+24
   \   000003C2   8020               MOVS     R0,#+128
   \   000003C4   7043               MULS     R0,R6,R0
   \   000003C6   0D4A               LDR      R2,??Label_15    ;; LCD_Canvas
   \   000003C8   1018               ADDS     R0,R2,R0
   \   000003CA   2D06               LSLS     R5,R5,#+24       ;; ZeroExtS R5,R5,#+24,#+24
   \   000003CC   2D0E               LSRS     R5,R5,#+24
   \   000003CE   8022               MOVS     R2,#+128
   \   000003D0   7243               MULS     R2,R6,R2
   \   000003D2   0A4B               LDR      R3,??Label_15    ;; LCD_Canvas
   \   000003D4   9A18               ADDS     R2,R3,R2
   \   000003D6   525D               LDRB     R2,[R2, R5]
   \   000003D8   0123               MOVS     R3,#+1
   \   000003DA   BB40               LSLS     R3,R3,R7
   \   000003DC   1343               ORRS     R3,R3,R2
   \   000003DE   4355               STRB     R3,[R0, R5]
   \                     ??Label_39:
   \   000003E0   3F06               LSLS     R7,R7,#+24       ;; ZeroExtS R7,R7,#+24,#+24
   \   000003E2   3F0E               LSRS     R7,R7,#+24
   \   000003E4   072F               CMP      R7,#+7
   \   000003E6   C5D2               BCS      ??Label_36
   \   000003E8   7F1C               ADDS     R7,R7,#+1
   \   000003EA   C5E7               B        ??Label_37
   1143            }
   1144            }
   1145            //------------------------------------------------------
   1146             
   1147           return dlugosc;
   \                     ??Label_32:
   \   000003EC   2000               MOVS     R0,R4
   \   000003EE   0006               LSLS     R0,R0,#+24       ;; ZeroExtS R0,R0,#+24,#+24
   \   000003F0   000E               LSRS     R0,R0,#+24
   \   000003F2   07B0               ADD      SP,SP,#+28
   \   000003F4   F0BC               POP      {R4-R7}
   \   000003F6   02BC               POP      {R1}
   \   000003F8   0847               BX       R1               ;; return
   \   000003FA   C046               Nop      
   \                     ??Label_15:
   \   000003FC   ........           DC32     LCD_Canvas
   1148            
   1149          }//_______________________ Koniec funkcji Label __________________________
   1150          
   1151          
   1152          
   1153          
   1154          
   1155          
   1156          
   1157          
   1158          //*-----------------------------------------------------------------------------
   1159          //* Nazwa funkcji :    LabelLength
   1160          //* Funkcja wrysowania napisu
   1161          //*-----------------------------------------------------------------------------
   1162          //*  Vstring    - wskaŸnik do tablicy znaków
   1163          //*  maxChar    - maksymalna d³ugoœæ napisu w znakach 
   1164          //*  funkcja zwraca d³ugoœæ napisu w pikselach
   1165          //*-----------------------------------------------------------------------------
   1166          

   \                                 In section Debug.txt, align 4, keep-with-next
   1167          char LabelLength (char *Vstring, char maxChar)
   1168          { 
   \                     LabelLength:
   \   00000000   F1B5               PUSH     {R0,R4-R7,LR}
   \   00000002   0200               MOVS     R2,R0
   1169            //char offset=43;
   1170            char offset=30;
   \   00000004   1E23               MOVS     R3,#+30
   1171            
   1172            
   1173            int kol=0;
                       ^
Warning[Pe177]: variable "kol" was declared but never referenced
   \   00000006   0020               MOVS     R0,#+0
   \   00000008   0090               STR      R0,[SP, #+0]
   1174            char linia=0;
                        ^
Warning[Pe177]: variable "linia" was declared but never referenced
   \   0000000A   0025               MOVS     R5,#+0
   1175            char bit=0;
                        ^
Warning[Pe177]: variable "bit" was declared but never referenced
   \   0000000C   0026               MOVS     R6,#+0
   1176            char ill_znak=0;
   \   0000000E   0024               MOVS     R4,#+0
   1177          
   1178             
   1179            char dlugosc=0;
   \   00000010   0020               MOVS     R0,#+0
   1180            char clean_offset=0;
                        ^
Warning[Pe177]: variable "clean_offset" was declared but never referenced
   \   00000012   0027               MOVS     R7,#+0
   1181            
   1182           
   1183              do {   
   1184                 
   1185                 
   1186                 if (Vstring[ill_znak]>=offset)  
   \                     ??LabelLength_0:
   \   00000014   2406               LSLS     R4,R4,#+24       ;; ZeroExtS R4,R4,#+24,#+24
   \   00000016   240E               LSRS     R4,R4,#+24
   \   00000018   155D               LDRB     R5,[R2, R4]
   \   0000001A   1B06               LSLS     R3,R3,#+24       ;; ZeroExtS R3,R3,#+24,#+24
   \   0000001C   1B0E               LSRS     R3,R3,#+24
   \   0000001E   9D42               CMP      R5,R3
   \   00000020   0BD3               BCC      ??LabelLength_1
   1187                  {
   1188                    dlugosc += Arial_7[Vstring[ill_znak]-offset][0];
   \   00000022   2406               LSLS     R4,R4,#+24       ;; ZeroExtS R4,R4,#+24,#+24
   \   00000024   240E               LSRS     R4,R4,#+24
   \   00000026   155D               LDRB     R5,[R2, R4]
   \   00000028   1B06               LSLS     R3,R3,#+24       ;; ZeroExtS R3,R3,#+24,#+24
   \   0000002A   1B0E               LSRS     R3,R3,#+24
   \   0000002C   ED1A               SUBS     R5,R5,R3
   \   0000002E   0A26               MOVS     R6,#+10
   \   00000030   7543               MULS     R5,R6,R5
   \   00000032   0F4E               LDR      R6,??LabelLength_2  ;; Arial_7
   \   00000034   755D               LDRB     R5,[R6, R5]
   \   00000036   4019               ADDS     R0,R0,R5
   \   00000038   02E0               B        ??LabelLength_3
   1189                  }
   1190                 else
   1191                 {
   1192                   dlugosc++;
   \                     ??LabelLength_1:
   \   0000003A   401C               ADDS     R0,R0,#+1
   1193                   dlugosc++;
   \   0000003C   401C               ADDS     R0,R0,#+1
   1194                   dlugosc++;
   \   0000003E   401C               ADDS     R0,R0,#+1
   1195                 }
   1196                 
   1197                 
   1198                 dlugosc++;
   \                     ??LabelLength_3:
   \   00000040   401C               ADDS     R0,R0,#+1
   1199                 ill_znak++;
   \   00000042   641C               ADDS     R4,R4,#+1
   1200               } while ((Vstring[ill_znak]) && (ill_znak<maxChar) && (dlugosc<=64));
   \   00000044   2406               LSLS     R4,R4,#+24       ;; ZeroExtS R4,R4,#+24,#+24
   \   00000046   240E               LSRS     R4,R4,#+24
   \   00000048   155D               LDRB     R5,[R2, R4]
   \   0000004A   002D               CMP      R5,#+0
   \   0000004C   09D0               BEQ      ??LabelLength_4
   \   0000004E   2406               LSLS     R4,R4,#+24       ;; ZeroExtS R4,R4,#+24,#+24
   \   00000050   240E               LSRS     R4,R4,#+24
   \   00000052   0906               LSLS     R1,R1,#+24       ;; ZeroExtS R1,R1,#+24,#+24
   \   00000054   090E               LSRS     R1,R1,#+24
   \   00000056   8C42               CMP      R4,R1
   \   00000058   03D2               BCS      ??LabelLength_4
   \   0000005A   0006               LSLS     R0,R0,#+24       ;; ZeroExtS R0,R0,#+24,#+24
   \   0000005C   000E               LSRS     R0,R0,#+24
   \   0000005E   4128               CMP      R0,#+65
   \   00000060   D8D3               BCC      ??LabelLength_0
   1201              
   1202            
   1203              
   1204            dlugosc--;
   \                     ??LabelLength_4:
   \   00000062   401E               SUBS     R0,R0,#+1
   1205            
   1206             
   1207           return dlugosc;
   \   00000064   0006               LSLS     R0,R0,#+24       ;; ZeroExtS R0,R0,#+24,#+24
   \   00000066   000E               LSRS     R0,R0,#+24
   \   00000068   01B0               ADD      SP,SP,#+4
   \   0000006A   F0BC               POP      {R4-R7}
   \   0000006C   02BC               POP      {R1}
   \   0000006E   0847               BX       R1               ;; return
   \                     ??LabelLength_2:
   \   00000070   ........           DC32     Arial_7
   1208            
   1209          }//_______________________ Koniec funkcji LabelLength __________________________
   1210          
   1211          
   1212          
   1213          
   1214          
   1215          
   1216          
   1217          
   1218          //*-----------------------------------------------------------------------------
   1219          //* Nazwa funkcji :    Label
   1220          //* Funkcja wrysowania napisu
   1221          //*-----------------------------------------------------------------------------
   1222          //*  Vstring    - wskaŸnik do tablicy znaków
   1223          //*  alig       - wyrównanie -0=do lewej, 1=do prawej, 2=wyœrodkowany
   1224          //*  X          - wspó³¿êdna X zale¿na od wyrównania 
   1225          //*  Y          - wspó³¿êdna Y do³u napisu
   1226          //*  maxChar    - maksymalna d³ugoœæ napisu w znakach 
   1227          //*  clean      - d³ugoœæ (w pikselach) obszaru czyszczenia t³a 
   1228          //*  minY, maxY - obszar roboczy
   1229          //*  negatyw    - 0-brak, 1-negatyw
   1230          //*-----------------------------------------------------------------------------
   1231          

   \                                 In section Debug.txt, align 4, keep-with-next
   1232          void Label20 (char *Vstring, char alig, char X, int Y, char maxChar, char clean, char minY, char maxY, char negatyw) 
   1233          { 
   \                     Label20:
   \   00000000   FFB5               PUSH     {R0-R7,LR}
   \   00000002   83B0               SUB      SP,SP,#+12
   1234            //char offset=43;
   1235            char offset=30;
   \   00000004   6846               MOV      R0,SP
   \   00000006   1E21               MOVS     R1,#+30
   \   00000008   4170               STRB     R1,[R0, #+1]
   1236            
   1237            
   1238            int kol=0;
   \   0000000A   0026               MOVS     R6,#+0
   1239            char linia=0;
   \   0000000C   0024               MOVS     R4,#+0
   1240            char bit=0;
   \   0000000E   0025               MOVS     R5,#+0
   1241            char ill_znak=0;
   \   00000010   6846               MOV      R0,SP
   \   00000012   0021               MOVS     R1,#+0
   \   00000014   0170               STRB     R1,[R0, #+0]
   1242            
   1243            char pocz_X=X;
   \   00000016   6846               MOV      R0,SP
   \   00000018   6946               MOV      R1,SP
   \   0000001A   097D               LDRB     R1,[R1, #+20]
   \   0000001C   C170               STRB     R1,[R0, #+3]
   1244            
   1245            kol=X/8;
   \   0000001E   6846               MOV      R0,SP
   \   00000020   007D               LDRB     R0,[R0, #+20]
   \   00000022   0821               MOVS     R1,#+8
   \   00000024   ........           BL       __aeabi_idivmod
   \   00000028   0600               MOVS     R6,R0
   1246            bit=X%8;
   \   0000002A   6846               MOV      R0,SP
   \   0000002C   007D               LDRB     R0,[R0, #+20]
   \   0000002E   0821               MOVS     R1,#+8
   \   00000030   ........           BL       __aeabi_idivmod
   \   00000034   0D00               MOVS     R5,R1
   1247            linia=Y;
   \   00000036   0698               LDR      R0,[SP, #+24]
   \   00000038   0400               MOVS     R4,R0
   1248             
   1249            char dlugosc=0;
   \   0000003A   0027               MOVS     R7,#+0
   1250            char clean_offset=0;
   \   0000003C   6846               MOV      R0,SP
   \   0000003E   0021               MOVS     R1,#+0
   \   00000040   8170               STRB     R1,[R0, #+2]
   1251            
   1252            
   1253          
   1254            
   1255            
   1256            
   1257            if (alig==1)
   \   00000042   6846               MOV      R0,SP
   \   00000044   007C               LDRB     R0,[R0, #+16]
   \   00000046   0128               CMP      R0,#+1
   \   00000048   35D1               BNE      ??Label20_0
   1258            {
   1259              do {       
   1260                 
   1261                 if (Vstring[ill_znak]>=offset)  
   \                     ??Label20_1:
   \   0000004A   6846               MOV      R0,SP
   \   0000004C   0078               LDRB     R0,[R0, #+0]
   \   0000004E   0399               LDR      R1,[SP, #+12]
   \   00000050   085C               LDRB     R0,[R1, R0]
   \   00000052   6946               MOV      R1,SP
   \   00000054   4978               LDRB     R1,[R1, #+1]
   \   00000056   8842               CMP      R0,R1
   \   00000058   0CD3               BCC      ??Label20_2
   1262                  {
   1263                    dlugosc += Arial_18[Vstring[ill_znak]-offset][0];
   \   0000005A   6846               MOV      R0,SP
   \   0000005C   0078               LDRB     R0,[R0, #+0]
   \   0000005E   0399               LDR      R1,[SP, #+12]
   \   00000060   085C               LDRB     R0,[R1, R0]
   \   00000062   6946               MOV      R1,SP
   \   00000064   4978               LDRB     R1,[R1, #+1]
   \   00000066   401A               SUBS     R0,R0,R1
   \   00000068   3421               MOVS     R1,#+52
   \   0000006A   4843               MULS     R0,R1,R0
   \   0000006C   BE49               LDR      R1,??Label20_3   ;; Arial_18
   \   0000006E   085A               LDRH     R0,[R1, R0]
   \   00000070   3F18               ADDS     R7,R7,R0
   \   00000072   02E0               B        ??Label20_4
   1264                  }
   1265                 else
   1266                 {
   1267                   dlugosc++;
   \                     ??Label20_2:
   \   00000074   7F1C               ADDS     R7,R7,#+1
   1268                   dlugosc++;
   \   00000076   7F1C               ADDS     R7,R7,#+1
   1269                   dlugosc++;
   \   00000078   7F1C               ADDS     R7,R7,#+1
   1270                 }
   1271                 dlugosc++;
   \                     ??Label20_4:
   \   0000007A   7F1C               ADDS     R7,R7,#+1
   1272                 ill_znak++;
   \   0000007C   6846               MOV      R0,SP
   \   0000007E   6946               MOV      R1,SP
   \   00000080   0978               LDRB     R1,[R1, #+0]
   \   00000082   491C               ADDS     R1,R1,#+1
   \   00000084   0170               STRB     R1,[R0, #+0]
   1273                } while ((Vstring[ill_znak]) && (ill_znak<maxChar) && (X-dlugosc>=0) );
   \   00000086   6846               MOV      R0,SP
   \   00000088   0078               LDRB     R0,[R0, #+0]
   \   0000008A   0399               LDR      R1,[SP, #+12]
   \   0000008C   085C               LDRB     R0,[R1, R0]
   \   0000008E   0028               CMP      R0,#+0
   \   00000090   0CD0               BEQ      ??Label20_5
   \   00000092   6846               MOV      R0,SP
   \   00000094   0078               LDRB     R0,[R0, #+0]
   \   00000096   0CA9               ADD      R1,SP,#+48
   \   00000098   0978               LDRB     R1,[R1, #+0]
   \   0000009A   8842               CMP      R0,R1
   \   0000009C   06D2               BCS      ??Label20_5
   \   0000009E   6846               MOV      R0,SP
   \   000000A0   007D               LDRB     R0,[R0, #+20]
   \   000000A2   3F06               LSLS     R7,R7,#+24       ;; ZeroExtS R7,R7,#+24,#+24
   \   000000A4   3F0E               LSRS     R7,R7,#+24
   \   000000A6   C01B               SUBS     R0,R0,R7
   \   000000A8   0028               CMP      R0,#+0
   \   000000AA   CED5               BPL      ??Label20_1
   1274           
   1275              clean_offset=clean;
   \                     ??Label20_5:
   \   000000AC   6846               MOV      R0,SP
   \   000000AE   0DA9               ADD      R1,SP,#+52
   \   000000B0   0978               LDRB     R1,[R1, #+0]
   \   000000B2   8170               STRB     R1,[R0, #+2]
   \   000000B4   32E0               B        ??Label20_6
   1276            }
   1277            else
   1278            {
   1279              do {   
   1280                 
   1281                 
   1282                 if (Vstring[ill_znak]>=offset)  
   \                     ??Label20_0:
   \   000000B6   6846               MOV      R0,SP
   \   000000B8   0078               LDRB     R0,[R0, #+0]
   \   000000BA   0399               LDR      R1,[SP, #+12]
   \   000000BC   085C               LDRB     R0,[R1, R0]
   \   000000BE   6946               MOV      R1,SP
   \   000000C0   4978               LDRB     R1,[R1, #+1]
   \   000000C2   8842               CMP      R0,R1
   \   000000C4   0CD3               BCC      ??Label20_7
   1283                  {
   1284                    dlugosc += Arial_18[Vstring[ill_znak]-offset][0];
   \   000000C6   6846               MOV      R0,SP
   \   000000C8   0078               LDRB     R0,[R0, #+0]
   \   000000CA   0399               LDR      R1,[SP, #+12]
   \   000000CC   085C               LDRB     R0,[R1, R0]
   \   000000CE   6946               MOV      R1,SP
   \   000000D0   4978               LDRB     R1,[R1, #+1]
   \   000000D2   401A               SUBS     R0,R0,R1
   \   000000D4   3421               MOVS     R1,#+52
   \   000000D6   4843               MULS     R0,R1,R0
   \   000000D8   A349               LDR      R1,??Label20_3   ;; Arial_18
   \   000000DA   085A               LDRH     R0,[R1, R0]
   \   000000DC   3F18               ADDS     R7,R7,R0
   \   000000DE   02E0               B        ??Label20_8
   1285                  }
   1286                 else
   1287                 {
   1288                   dlugosc++;
   \                     ??Label20_7:
   \   000000E0   7F1C               ADDS     R7,R7,#+1
   1289                   dlugosc++;
   \   000000E2   7F1C               ADDS     R7,R7,#+1
   1290                   dlugosc++;
   \   000000E4   7F1C               ADDS     R7,R7,#+1
   1291                 }
   1292                 
   1293                 
   1294                 dlugosc++;
   \                     ??Label20_8:
   \   000000E6   7F1C               ADDS     R7,R7,#+1
   1295                 ill_znak++;
   \   000000E8   6846               MOV      R0,SP
   \   000000EA   6946               MOV      R1,SP
   \   000000EC   0978               LDRB     R1,[R1, #+0]
   \   000000EE   491C               ADDS     R1,R1,#+1
   \   000000F0   0170               STRB     R1,[R0, #+0]
   1296               } while ((Vstring[ill_znak]) && (ill_znak<maxChar) && (X+dlugosc<=64));
   \   000000F2   6846               MOV      R0,SP
   \   000000F4   0078               LDRB     R0,[R0, #+0]
   \   000000F6   0399               LDR      R1,[SP, #+12]
   \   000000F8   085C               LDRB     R0,[R1, R0]
   \   000000FA   0028               CMP      R0,#+0
   \   000000FC   0ED0               BEQ      ??Label20_6
   \   000000FE   6846               MOV      R0,SP
   \   00000100   0078               LDRB     R0,[R0, #+0]
   \   00000102   0CA9               ADD      R1,SP,#+48
   \   00000104   0978               LDRB     R1,[R1, #+0]
   \   00000106   8842               CMP      R0,R1
   \   00000108   08D2               BCS      ??Label20_6
   \   0000010A   6846               MOV      R0,SP
   \   0000010C   007D               LDRB     R0,[R0, #+20]
   \   0000010E   3F06               LSLS     R7,R7,#+24       ;; ZeroExtS R7,R7,#+24,#+24
   \   00000110   3F0E               LSRS     R7,R7,#+24
   \   00000112   C019               ADDS     R0,R0,R7
   \   00000114   0004               LSLS     R0,R0,#+16       ;; ZeroExtS R0,R0,#+16,#+16
   \   00000116   000C               LSRS     R0,R0,#+16
   \   00000118   4128               CMP      R0,#+65
   \   0000011A   CCD3               BCC      ??Label20_0
   1297              
   1298            }
   1299              
   1300            dlugosc--;
   \                     ??Label20_6:
   \   0000011C   7F1E               SUBS     R7,R7,#+1
   1301            
   1302             //Czyszczenie obszaru ----------------------
   1303            linia=Y;
   \   0000011E   069C               LDR      R4,[SP, #+24]
   1304            for (int i=1; i<=25; i++)
   \   00000120   0120               MOVS     R0,#+1
   \   00000122   0190               STR      R0,[SP, #+4]
   \   00000124   03E0               B        ??Label20_9
   1305             {
   1306              if ((linia>=minY) && (linia<=maxY))
   1307              {
   1308               kol=(X-clean_offset)/8;
   1309               bit=(X-clean_offset)%8;
   1310                 
   1311                for (int j=0; j<=clean; j++)
   1312                {
   1313                  LCD_Canvas[kol][linia] &=~(1<<bit);
   1314                  
   1315                  if (bit<7) { bit++;} else {bit=0;  kol++; }
   1316                }   
   1317          
   1318          
   1319             }
   1320              linia++;
   \                     ??Label20_10:
   \   00000126   641C               ADDS     R4,R4,#+1
   \   00000128   0198               LDR      R0,[SP, #+4]
   \   0000012A   401C               ADDS     R0,R0,#+1
   \   0000012C   0190               STR      R0,[SP, #+4]
   \                     ??Label20_9:
   \   0000012E   0198               LDR      R0,[SP, #+4]
   \   00000130   1A28               CMP      R0,#+26
   \   00000132   3DDA               BGE      ??Label20_11
   \   00000134   0EA8               ADD      R0,SP,#+56
   \   00000136   0078               LDRB     R0,[R0, #+0]
   \   00000138   2406               LSLS     R4,R4,#+24       ;; ZeroExtS R4,R4,#+24,#+24
   \   0000013A   240E               LSRS     R4,R4,#+24
   \   0000013C   8442               CMP      R4,R0
   \   0000013E   F2D3               BCC      ??Label20_10
   \   00000140   0FA8               ADD      R0,SP,#+60
   \   00000142   0078               LDRB     R0,[R0, #+0]
   \   00000144   2406               LSLS     R4,R4,#+24       ;; ZeroExtS R4,R4,#+24,#+24
   \   00000146   240E               LSRS     R4,R4,#+24
   \   00000148   A042               CMP      R0,R4
   \   0000014A   ECD3               BCC      ??Label20_10
   \   0000014C   6846               MOV      R0,SP
   \   0000014E   007D               LDRB     R0,[R0, #+20]
   \   00000150   6946               MOV      R1,SP
   \   00000152   8978               LDRB     R1,[R1, #+2]
   \   00000154   401A               SUBS     R0,R0,R1
   \   00000156   0821               MOVS     R1,#+8
   \   00000158   ........           BL       __aeabi_idivmod
   \   0000015C   0600               MOVS     R6,R0
   \   0000015E   6846               MOV      R0,SP
   \   00000160   007D               LDRB     R0,[R0, #+20]
   \   00000162   6946               MOV      R1,SP
   \   00000164   8978               LDRB     R1,[R1, #+2]
   \   00000166   401A               SUBS     R0,R0,R1
   \   00000168   0821               MOVS     R1,#+8
   \   0000016A   ........           BL       __aeabi_idivmod
   \   0000016E   0D00               MOVS     R5,R1
   \   00000170   0021               MOVS     R1,#+0
   \   00000172   02E0               B        ??Label20_12
   \                     ??Label20_13:
   \   00000174   0025               MOVS     R5,#+0
   \   00000176   761C               ADDS     R6,R6,#+1
   \                     ??Label20_14:
   \   00000178   491C               ADDS     R1,R1,#+1
   \                     ??Label20_12:
   \   0000017A   0DA8               ADD      R0,SP,#+52
   \   0000017C   0078               LDRB     R0,[R0, #+0]
   \   0000017E   8842               CMP      R0,R1
   \   00000180   D1DB               BLT      ??Label20_10
   \   00000182   2406               LSLS     R4,R4,#+24       ;; ZeroExtS R4,R4,#+24,#+24
   \   00000184   240E               LSRS     R4,R4,#+24
   \   00000186   8020               MOVS     R0,#+128
   \   00000188   7043               MULS     R0,R6,R0
   \   0000018A   984A               LDR      R2,??Label20_15  ;; LCD_Canvas
   \   0000018C   1018               ADDS     R0,R2,R0
   \   0000018E   2406               LSLS     R4,R4,#+24       ;; ZeroExtS R4,R4,#+24,#+24
   \   00000190   240E               LSRS     R4,R4,#+24
   \   00000192   8022               MOVS     R2,#+128
   \   00000194   7243               MULS     R2,R6,R2
   \   00000196   954B               LDR      R3,??Label20_15  ;; LCD_Canvas
   \   00000198   9A18               ADDS     R2,R3,R2
   \   0000019A   125D               LDRB     R2,[R2, R4]
   \   0000019C   0123               MOVS     R3,#+1
   \   0000019E   AB40               LSLS     R3,R3,R5
   \   000001A0   9A43               BICS     R2,R2,R3
   \   000001A2   0255               STRB     R2,[R0, R4]
   \   000001A4   2D06               LSLS     R5,R5,#+24       ;; ZeroExtS R5,R5,#+24,#+24
   \   000001A6   2D0E               LSRS     R5,R5,#+24
   \   000001A8   072D               CMP      R5,#+7
   \   000001AA   E3D2               BCS      ??Label20_13
   \   000001AC   6D1C               ADDS     R5,R5,#+1
   \   000001AE   E3E7               B        ??Label20_14
   1321            }
   1322            //------------------------------------------------------
   1323              
   1324            if (alig==1)
   \                     ??Label20_11:
   \   000001B0   6846               MOV      R0,SP
   \   000001B2   007C               LDRB     R0,[R0, #+16]
   \   000001B4   0128               CMP      R0,#+1
   \   000001B6   04D1               BNE      ??Label20_16
   1325            {  
   1326              X-=dlugosc;
   \   000001B8   6846               MOV      R0,SP
   \   000001BA   6946               MOV      R1,SP
   \   000001BC   097D               LDRB     R1,[R1, #+20]
   \   000001BE   C91B               SUBS     R1,R1,R7
   \   000001C0   0175               STRB     R1,[R0, #+20]
   1327            }  
   1328           
   1329            if (alig==2)
   \                     ??Label20_16:
   \   000001C2   6846               MOV      R0,SP
   \   000001C4   007C               LDRB     R0,[R0, #+16]
   \   000001C6   0228               CMP      R0,#+2
   \   000001C8   1BD1               BNE      ??Label20_17
   1330            {  
   1331              X+=(clean-dlugosc)/2;
   \   000001CA   6846               MOV      R0,SP
   \   000001CC   047D               LDRB     R4,[R0, #+20]
   \   000001CE   0DA8               ADD      R0,SP,#+52
   \   000001D0   0078               LDRB     R0,[R0, #+0]
   \   000001D2   3F06               LSLS     R7,R7,#+24       ;; ZeroExtS R7,R7,#+24,#+24
   \   000001D4   3F0E               LSRS     R7,R7,#+24
   \   000001D6   C01B               SUBS     R0,R0,R7
   \   000001D8   0221               MOVS     R1,#+2
   \   000001DA   ........           BL       __aeabi_idivmod
   \   000001DE   2018               ADDS     R0,R4,R0
   \   000001E0   6946               MOV      R1,SP
   \   000001E2   0875               STRB     R0,[R1, #+20]
   1332              
   1333              if (((clean-dlugosc)%2)>0) X++;
   \   000001E4   0DA8               ADD      R0,SP,#+52
   \   000001E6   0078               LDRB     R0,[R0, #+0]
   \   000001E8   3F06               LSLS     R7,R7,#+24       ;; ZeroExtS R7,R7,#+24,#+24
   \   000001EA   3F0E               LSRS     R7,R7,#+24
   \   000001EC   C01B               SUBS     R0,R0,R7
   \   000001EE   0221               MOVS     R1,#+2
   \   000001F0   ........           BL       __aeabi_idivmod
   \   000001F4   0129               CMP      R1,#+1
   \   000001F6   04DB               BLT      ??Label20_17
   \   000001F8   6846               MOV      R0,SP
   \   000001FA   6946               MOV      R1,SP
   \   000001FC   097D               LDRB     R1,[R1, #+20]
   \   000001FE   491C               ADDS     R1,R1,#+1
   \   00000200   0175               STRB     R1,[R0, #+20]
   1334            }  
   1335          
   1336              
   1337            //wklejanie napisu do LCD_Canvas ----------------------
   1338            linia=Y;
   \                     ??Label20_17:
   \   00000202   069C               LDR      R4,[SP, #+24]
   1339            for (int i=1; i<=25; i++)
   \   00000204   0120               MOVS     R0,#+1
   \   00000206   0190               STR      R0,[SP, #+4]
   \   00000208   03E0               B        ??Label20_18
   1340             {
   1341              if ((linia>=minY) && (linia<=maxY))
   1342              {
   1343               kol=X/8;
   1344               bit=X%8;
   1345              for (int k=0; k<=(ill_znak-1); k++)
   1346              {     
   1347                
   1348                if ((Vstring[k]>=offset) &&  (Vstring[k]!=32))
   1349                {
   1350                  for (int j=0; j<=Arial_18[Vstring[k]-offset][0]; j++)
   1351                  {
   1352                      LCD_Canvas[kol][linia] |= (((Arial_18[Vstring[k]-offset][i])>>j)&0x1)<<bit;
   1353                      if (bit<7) { bit++;} else {bit=0;  kol++; } 
   1354                  }
   1355                }
   1356                else 
   1357                {
   1358                     if (bit<7) { bit++;} else {bit=0;  kol++; } 
   1359                     if (bit<7) { bit++;} else {bit=0;  kol++; } 
   1360                     if (bit<7) { bit++;} else {bit=0;  kol++; } 
   1361          
   1362                }
   1363                
   1364                
   1365              }
   1366             }
   1367              linia++;
   \                     ??Label20_19:
   \   0000020A   641C               ADDS     R4,R4,#+1
   \   0000020C   0198               LDR      R0,[SP, #+4]
   \   0000020E   401C               ADDS     R0,R0,#+1
   \   00000210   0190               STR      R0,[SP, #+4]
   \                     ??Label20_18:
   \   00000212   0198               LDR      R0,[SP, #+4]
   \   00000214   1A28               CMP      R0,#+26
   \   00000216   7CDA               BGE      ??Label20_20
   \   00000218   0EA8               ADD      R0,SP,#+56
   \   0000021A   0078               LDRB     R0,[R0, #+0]
   \   0000021C   2406               LSLS     R4,R4,#+24       ;; ZeroExtS R4,R4,#+24,#+24
   \   0000021E   240E               LSRS     R4,R4,#+24
   \   00000220   8442               CMP      R4,R0
   \   00000222   F2D3               BCC      ??Label20_19
   \   00000224   0FA8               ADD      R0,SP,#+60
   \   00000226   0078               LDRB     R0,[R0, #+0]
   \   00000228   2406               LSLS     R4,R4,#+24       ;; ZeroExtS R4,R4,#+24,#+24
   \   0000022A   240E               LSRS     R4,R4,#+24
   \   0000022C   A042               CMP      R0,R4
   \   0000022E   ECD3               BCC      ??Label20_19
   \   00000230   6846               MOV      R0,SP
   \   00000232   007D               LDRB     R0,[R0, #+20]
   \   00000234   0821               MOVS     R1,#+8
   \   00000236   ........           BL       __aeabi_idivmod
   \   0000023A   0600               MOVS     R6,R0
   \   0000023C   6846               MOV      R0,SP
   \   0000023E   007D               LDRB     R0,[R0, #+20]
   \   00000240   0821               MOVS     R1,#+8
   \   00000242   ........           BL       __aeabi_idivmod
   \   00000246   0D00               MOVS     R5,R1
   \   00000248   0021               MOVS     R1,#+0
   \   0000024A   02E0               B        ??Label20_21
   \                     ??Label20_22:
   \   0000024C   0025               MOVS     R5,#+0
   \   0000024E   761C               ADDS     R6,R6,#+1
   \                     ??Label20_23:
   \   00000250   491C               ADDS     R1,R1,#+1
   \                     ??Label20_21:
   \   00000252   6846               MOV      R0,SP
   \   00000254   0078               LDRB     R0,[R0, #+0]
   \   00000256   401E               SUBS     R0,R0,#+1
   \   00000258   8842               CMP      R0,R1
   \   0000025A   D6DB               BLT      ??Label20_19
   \   0000025C   0398               LDR      R0,[SP, #+12]
   \   0000025E   405C               LDRB     R0,[R0, R1]
   \   00000260   6A46               MOV      R2,SP
   \   00000262   5278               LDRB     R2,[R2, #+1]
   \   00000264   9042               CMP      R0,R2
   \   00000266   3ED3               BCC      ??Label20_24
   \   00000268   0398               LDR      R0,[SP, #+12]
   \   0000026A   405C               LDRB     R0,[R0, R1]
   \   0000026C   2028               CMP      R0,#+32
   \   0000026E   3AD0               BEQ      ??Label20_24
   \   00000270   0022               MOVS     R2,#+0
   \   00000272   02E0               B        ??Label20_25
   \                     ??Label20_26:
   \   00000274   0025               MOVS     R5,#+0
   \   00000276   761C               ADDS     R6,R6,#+1
   \                     ??Label20_27:
   \   00000278   521C               ADDS     R2,R2,#+1
   \                     ??Label20_25:
   \   0000027A   0398               LDR      R0,[SP, #+12]
   \   0000027C   405C               LDRB     R0,[R0, R1]
   \   0000027E   6B46               MOV      R3,SP
   \   00000280   5B78               LDRB     R3,[R3, #+1]
   \   00000282   C01A               SUBS     R0,R0,R3
   \   00000284   3423               MOVS     R3,#+52
   \   00000286   5843               MULS     R0,R3,R0
   \   00000288   374B               LDR      R3,??Label20_3   ;; Arial_18
   \   0000028A   185A               LDRH     R0,[R3, R0]
   \   0000028C   9042               CMP      R0,R2
   \   0000028E   DFDB               BLT      ??Label20_23
   \   00000290   2406               LSLS     R4,R4,#+24       ;; ZeroExtS R4,R4,#+24,#+24
   \   00000292   240E               LSRS     R4,R4,#+24
   \   00000294   8020               MOVS     R0,#+128
   \   00000296   7043               MULS     R0,R6,R0
   \   00000298   544B               LDR      R3,??Label20_15  ;; LCD_Canvas
   \   0000029A   1B18               ADDS     R3,R3,R0
   \   0000029C   08B5               PUSH     {R3,LR}
   \   0000029E   2406               LSLS     R4,R4,#+24       ;; ZeroExtS R4,R4,#+24,#+24
   \   000002A0   240E               LSRS     R4,R4,#+24
   \   000002A2   8020               MOVS     R0,#+128
   \   000002A4   7043               MULS     R0,R6,R0
   \   000002A6   514B               LDR      R3,??Label20_15  ;; LCD_Canvas
   \   000002A8   1818               ADDS     R0,R3,R0
   \   000002AA   035D               LDRB     R3,[R0, R4]
   \   000002AC   9C46               MOV      R12,R3
   \   000002AE   039F               LDR      R7,[SP, #+12]
   \   000002B0   0220               MOVS     R0,#+2
   \   000002B2   4743               MULS     R7,R0,R7
   \   000002B4   0598               LDR      R0,[SP, #+20]
   \   000002B6   405C               LDRB     R0,[R0, R1]
   \   000002B8   02AB               ADD      R3,SP,#+8
   \   000002BA   5B78               LDRB     R3,[R3, #+1]
   \   000002BC   C01A               SUBS     R0,R0,R3
   \   000002BE   3423               MOVS     R3,#+52
   \   000002C0   5843               MULS     R0,R3,R0
   \   000002C2   294B               LDR      R3,??Label20_3   ;; Arial_18
   \   000002C4   1818               ADDS     R0,R3,R0
   \   000002C6   C35B               LDRH     R3,[R0, R7]
   \   000002C8   1341               ASRS     R3,R3,R2
   \   000002CA   0120               MOVS     R0,#+1
   \   000002CC   1840               ANDS     R0,R0,R3
   \   000002CE   A840               LSLS     R0,R0,R5
   \   000002D0   6346               MOV      R3,R12
   \   000002D2   1843               ORRS     R0,R0,R3
   \   000002D4   009B               LDR      R3,[SP, #0]
   \   000002D6   02B0               ADD      SP,SP,#+8
   \   000002D8   1855               STRB     R0,[R3, R4]
   \   000002DA   2D06               LSLS     R5,R5,#+24       ;; ZeroExtS R5,R5,#+24,#+24
   \   000002DC   2D0E               LSRS     R5,R5,#+24
   \   000002DE   072D               CMP      R5,#+7
   \   000002E0   C8D2               BCS      ??Label20_26
   \   000002E2   6D1C               ADDS     R5,R5,#+1
   \   000002E4   C8E7               B        ??Label20_27
   \                     ??Label20_24:
   \   000002E6   2D06               LSLS     R5,R5,#+24       ;; ZeroExtS R5,R5,#+24,#+24
   \   000002E8   2D0E               LSRS     R5,R5,#+24
   \   000002EA   072D               CMP      R5,#+7
   \   000002EC   01D2               BCS      ??Label20_28
   \   000002EE   6D1C               ADDS     R5,R5,#+1
   \   000002F0   01E0               B        ??Label20_29
   \                     ??Label20_28:
   \   000002F2   0025               MOVS     R5,#+0
   \   000002F4   761C               ADDS     R6,R6,#+1
   \                     ??Label20_29:
   \   000002F6   2D06               LSLS     R5,R5,#+24       ;; ZeroExtS R5,R5,#+24,#+24
   \   000002F8   2D0E               LSRS     R5,R5,#+24
   \   000002FA   072D               CMP      R5,#+7
   \   000002FC   01D2               BCS      ??Label20_30
   \   000002FE   6D1C               ADDS     R5,R5,#+1
   \   00000300   01E0               B        ??Label20_31
   \                     ??Label20_30:
   \   00000302   0025               MOVS     R5,#+0
   \   00000304   761C               ADDS     R6,R6,#+1
   \                     ??Label20_31:
   \   00000306   2D06               LSLS     R5,R5,#+24       ;; ZeroExtS R5,R5,#+24,#+24
   \   00000308   2D0E               LSRS     R5,R5,#+24
   \   0000030A   072D               CMP      R5,#+7
   \   0000030C   9ED2               BCS      ??Label20_22
   \   0000030E   6D1C               ADDS     R5,R5,#+1
   \   00000310   9EE7               B        ??Label20_23
   1368            }
   1369            //------------------------------------------------------
   1370              
   1371          
   1372            //negatyw obszaru ----------------------
   1373           if (negatyw)
   \                     ??Label20_20:
   \   00000312   10A8               ADD      R0,SP,#+64
   \   00000314   0078               LDRB     R0,[R0, #+0]
   \   00000316   0028               CMP      R0,#+0
   \   00000318   64D0               BEQ      ??Label20_32
   1374           {
   1375            linia=Y;
   \   0000031A   069C               LDR      R4,[SP, #+24]
   1376            for (int i=1; i<=9; i++)
   \   0000031C   0127               MOVS     R7,#+1
   \   0000031E   01E0               B        ??Label20_33
   1377             {
   1378              if ((linia>=minY) && (linia<=maxY))
   1379              {
   1380               
   1381               kol=(pocz_X-clean_offset)/8;
   1382               bit=(pocz_X-clean_offset)%8;
   1383                 
   1384                for (int j=0; j<=clean; j++)
   1385                {
   1386                 
   1387                  if (((LCD_Canvas[kol][linia]>>bit)&0x1)>0)
   1388                  {
   1389                     LCD_Canvas[kol][linia] &=~(1<<bit);   
   1390                    
   1391                  }
   1392                  else
   1393                  {
   1394                    LCD_Canvas[kol][linia] |=(1<<bit); 
   1395                    
   1396                  }
   1397                  
   1398                  
   1399                  
   1400                  if (bit<7) { bit++;} else {bit=0;  kol++; }
   1401                }   
   1402          
   1403          
   1404             }
   1405              linia++;
   \                     ??Label20_34:
   \   00000320   641C               ADDS     R4,R4,#+1
   \   00000322   7F1C               ADDS     R7,R7,#+1
   \                     ??Label20_33:
   \   00000324   0A2F               CMP      R7,#+10
   \   00000326   5DDA               BGE      ??Label20_32
   \   00000328   0EA8               ADD      R0,SP,#+56
   \   0000032A   0078               LDRB     R0,[R0, #+0]
   \   0000032C   2406               LSLS     R4,R4,#+24       ;; ZeroExtS R4,R4,#+24,#+24
   \   0000032E   240E               LSRS     R4,R4,#+24
   \   00000330   8442               CMP      R4,R0
   \   00000332   F5D3               BCC      ??Label20_34
   \   00000334   0FA8               ADD      R0,SP,#+60
   \   00000336   0078               LDRB     R0,[R0, #+0]
   \   00000338   2406               LSLS     R4,R4,#+24       ;; ZeroExtS R4,R4,#+24,#+24
   \   0000033A   240E               LSRS     R4,R4,#+24
   \   0000033C   A042               CMP      R0,R4
   \   0000033E   EFD3               BCC      ??Label20_34
   \   00000340   6846               MOV      R0,SP
   \   00000342   C078               LDRB     R0,[R0, #+3]
   \   00000344   6946               MOV      R1,SP
   \   00000346   8978               LDRB     R1,[R1, #+2]
   \   00000348   401A               SUBS     R0,R0,R1
   \   0000034A   0821               MOVS     R1,#+8
   \   0000034C   ........           BL       __aeabi_idivmod
   \   00000350   0600               MOVS     R6,R0
   \   00000352   6846               MOV      R0,SP
   \   00000354   C078               LDRB     R0,[R0, #+3]
   \   00000356   6946               MOV      R1,SP
   \   00000358   8978               LDRB     R1,[R1, #+2]
   \   0000035A   401A               SUBS     R0,R0,R1
   \   0000035C   0821               MOVS     R1,#+8
   \   0000035E   ........           BL       __aeabi_idivmod
   \   00000362   0D00               MOVS     R5,R1
   \   00000364   0021               MOVS     R1,#+0
   \   00000366   04E0               B        ??Label20_35
   \                     ??Label20_3:
   \   00000368   ........           DC32     Arial_18
   \                     ??Label20_36:
   \   0000036C   0025               MOVS     R5,#+0
   \   0000036E   761C               ADDS     R6,R6,#+1
   \                     ??Label20_37:
   \   00000370   491C               ADDS     R1,R1,#+1
   \                     ??Label20_35:
   \   00000372   0DA8               ADD      R0,SP,#+52
   \   00000374   0078               LDRB     R0,[R0, #+0]
   \   00000376   8842               CMP      R0,R1
   \   00000378   D2DB               BLT      ??Label20_34
   \   0000037A   2406               LSLS     R4,R4,#+24       ;; ZeroExtS R4,R4,#+24,#+24
   \   0000037C   240E               LSRS     R4,R4,#+24
   \   0000037E   8020               MOVS     R0,#+128
   \   00000380   7043               MULS     R0,R6,R0
   \   00000382   1A4A               LDR      R2,??Label20_15  ;; LCD_Canvas
   \   00000384   1018               ADDS     R0,R2,R0
   \   00000386   005D               LDRB     R0,[R0, R4]
   \   00000388   2841               ASRS     R0,R0,R5
   \   0000038A   0122               MOVS     R2,#+1
   \   0000038C   0240               ANDS     R2,R2,R0
   \   0000038E   012A               CMP      R2,#+1
   \   00000390   11DB               BLT      ??Label20_38
   \   00000392   2406               LSLS     R4,R4,#+24       ;; ZeroExtS R4,R4,#+24,#+24
   \   00000394   240E               LSRS     R4,R4,#+24
   \   00000396   8020               MOVS     R0,#+128
   \   00000398   7043               MULS     R0,R6,R0
   \   0000039A   144A               LDR      R2,??Label20_15  ;; LCD_Canvas
   \   0000039C   1018               ADDS     R0,R2,R0
   \   0000039E   2406               LSLS     R4,R4,#+24       ;; ZeroExtS R4,R4,#+24,#+24
   \   000003A0   240E               LSRS     R4,R4,#+24
   \   000003A2   8022               MOVS     R2,#+128
   \   000003A4   7243               MULS     R2,R6,R2
   \   000003A6   114B               LDR      R3,??Label20_15  ;; LCD_Canvas
   \   000003A8   9A18               ADDS     R2,R3,R2
   \   000003AA   125D               LDRB     R2,[R2, R4]
   \   000003AC   0123               MOVS     R3,#+1
   \   000003AE   AB40               LSLS     R3,R3,R5
   \   000003B0   9A43               BICS     R2,R2,R3
   \   000003B2   0255               STRB     R2,[R0, R4]
   \   000003B4   10E0               B        ??Label20_39
   \                     ??Label20_38:
   \   000003B6   2406               LSLS     R4,R4,#+24       ;; ZeroExtS R4,R4,#+24,#+24
   \   000003B8   240E               LSRS     R4,R4,#+24
   \   000003BA   8020               MOVS     R0,#+128
   \   000003BC   7043               MULS     R0,R6,R0
   \   000003BE   0B4A               LDR      R2,??Label20_15  ;; LCD_Canvas
   \   000003C0   1018               ADDS     R0,R2,R0
   \   000003C2   2406               LSLS     R4,R4,#+24       ;; ZeroExtS R4,R4,#+24,#+24
   \   000003C4   240E               LSRS     R4,R4,#+24
   \   000003C6   8022               MOVS     R2,#+128
   \   000003C8   7243               MULS     R2,R6,R2
   \   000003CA   084B               LDR      R3,??Label20_15  ;; LCD_Canvas
   \   000003CC   9A18               ADDS     R2,R3,R2
   \   000003CE   125D               LDRB     R2,[R2, R4]
   \   000003D0   0123               MOVS     R3,#+1
   \   000003D2   AB40               LSLS     R3,R3,R5
   \   000003D4   1343               ORRS     R3,R3,R2
   \   000003D6   0355               STRB     R3,[R0, R4]
   \                     ??Label20_39:
   \   000003D8   2D06               LSLS     R5,R5,#+24       ;; ZeroExtS R5,R5,#+24,#+24
   \   000003DA   2D0E               LSRS     R5,R5,#+24
   \   000003DC   072D               CMP      R5,#+7
   \   000003DE   C5D2               BCS      ??Label20_36
   \   000003E0   6D1C               ADDS     R5,R5,#+1
   \   000003E2   C5E7               B        ??Label20_37
   1406            }
   1407            }
   1408            //------------------------------------------------------
   1409             
   1410          
   1411            
   1412          }//_______________________ Koniec funkcji Label __________________________
   \                     ??Label20_32:
   \   000003E4   07B0               ADD      SP,SP,#+28
   \   000003E6   F0BC               POP      {R4-R7}
   \   000003E8   01BC               POP      {R0}
   \   000003EA   0047               BX       R0               ;; return
   \                     ??Label20_15:
   \   000003EC   ........           DC32     LCD_Canvas
   1413          
   1414          
   1415          
   1416          
   1417          
   1418          
   1419          
   1420          
   1421          
   1422          //*-----------------------------------------------------------------------------
   1423          //* Nazwa funkcji :    TimeToStr
   1424          //* Funkcja Czasu na string
   1425          //*-----------------------------------------------------------------------------
   1426          //*-----------------------------------------------------------------------------

   \                                 In section Debug.txt, align 4, keep-with-next
   1427          void TimeToStr (char godz, char min, char sek, char Vstring[8]) 
   1428          { 
   \                     TimeToStr:
   \   00000000   F1B5               PUSH     {R0,R4-R7,LR}
   \   00000002   0400               MOVS     R4,R0
   \   00000004   0D00               MOVS     R5,R1
   \   00000006   1600               MOVS     R6,R2
   \   00000008   1F00               MOVS     R7,R3
   1429                 if (godz<10) 
   \   0000000A   2406               LSLS     R4,R4,#+24       ;; ZeroExtS R4,R4,#+24,#+24
   \   0000000C   240E               LSRS     R4,R4,#+24
   \   0000000E   0A2C               CMP      R4,#+10
   \   00000010   04D2               BCS      ??TimeToStr_0
   1430                 {
   1431                   Vstring[0]=48;
   \   00000012   3020               MOVS     R0,#+48
   \   00000014   3870               STRB     R0,[R7, #+0]
   1432                   Vstring[1]=godz+48;
   \   00000016   3034               ADDS     R4,R4,#+48
   \   00000018   7C70               STRB     R4,[R7, #+1]
   \   0000001A   0FE0               B        ??TimeToStr_1
   1433                 }
   1434                 else
   1435                 {
   1436                   Vstring[0]=godz/10+48;
   \                     ??TimeToStr_0:
   \   0000001C   2406               LSLS     R4,R4,#+24       ;; ZeroExtS R4,R4,#+24,#+24
   \   0000001E   240E               LSRS     R4,R4,#+24
   \   00000020   2000               MOVS     R0,R4
   \   00000022   0A21               MOVS     R1,#+10
   \   00000024   ........           BL       __aeabi_idivmod
   \   00000028   3030               ADDS     R0,R0,#+48
   \   0000002A   3870               STRB     R0,[R7, #+0]
   1437                   Vstring[1]=godz%10+48;
   \   0000002C   2406               LSLS     R4,R4,#+24       ;; ZeroExtS R4,R4,#+24,#+24
   \   0000002E   240E               LSRS     R4,R4,#+24
   \   00000030   2000               MOVS     R0,R4
   \   00000032   0A21               MOVS     R1,#+10
   \   00000034   ........           BL       __aeabi_idivmod
   \   00000038   3031               ADDS     R1,R1,#+48
   \   0000003A   7970               STRB     R1,[R7, #+1]
   1438                 }
   1439                 Vstring[2]=58;
   \                     ??TimeToStr_1:
   \   0000003C   3A20               MOVS     R0,#+58
   \   0000003E   B870               STRB     R0,[R7, #+2]
   1440                 
   1441                 if (min<10) 
   \   00000040   2D06               LSLS     R5,R5,#+24       ;; ZeroExtS R5,R5,#+24,#+24
   \   00000042   2D0E               LSRS     R5,R5,#+24
   \   00000044   0A2D               CMP      R5,#+10
   \   00000046   04D2               BCS      ??TimeToStr_2
   1442                 {
   1443                   Vstring[3]=48;
   \   00000048   3020               MOVS     R0,#+48
   \   0000004A   F870               STRB     R0,[R7, #+3]
   1444                   Vstring[4]=min+48;
   \   0000004C   3035               ADDS     R5,R5,#+48
   \   0000004E   3D71               STRB     R5,[R7, #+4]
   \   00000050   0FE0               B        ??TimeToStr_3
   1445                 }
   1446                 else
   1447                 {
   1448                   Vstring[3]=min/10+48;
   \                     ??TimeToStr_2:
   \   00000052   2D06               LSLS     R5,R5,#+24       ;; ZeroExtS R5,R5,#+24,#+24
   \   00000054   2D0E               LSRS     R5,R5,#+24
   \   00000056   2800               MOVS     R0,R5
   \   00000058   0A21               MOVS     R1,#+10
   \   0000005A   ........           BL       __aeabi_idivmod
   \   0000005E   3030               ADDS     R0,R0,#+48
   \   00000060   F870               STRB     R0,[R7, #+3]
   1449                   Vstring[4]=min%10+48;
   \   00000062   2D06               LSLS     R5,R5,#+24       ;; ZeroExtS R5,R5,#+24,#+24
   \   00000064   2D0E               LSRS     R5,R5,#+24
   \   00000066   2800               MOVS     R0,R5
   \   00000068   0A21               MOVS     R1,#+10
   \   0000006A   ........           BL       __aeabi_idivmod
   \   0000006E   3031               ADDS     R1,R1,#+48
   \   00000070   3971               STRB     R1,[R7, #+4]
   1450                 }
   1451                 Vstring[5]=58;
   \                     ??TimeToStr_3:
   \   00000072   3A20               MOVS     R0,#+58
   \   00000074   7871               STRB     R0,[R7, #+5]
   1452                 
   1453                 
   1454                 if (sek<10) 
   \   00000076   3606               LSLS     R6,R6,#+24       ;; ZeroExtS R6,R6,#+24,#+24
   \   00000078   360E               LSRS     R6,R6,#+24
   \   0000007A   0A2E               CMP      R6,#+10
   \   0000007C   04D2               BCS      ??TimeToStr_4
   1455                 {
   1456                   Vstring[6]=48;
   \   0000007E   3020               MOVS     R0,#+48
   \   00000080   B871               STRB     R0,[R7, #+6]
   1457                   Vstring[7]=sek+48;
   \   00000082   3036               ADDS     R6,R6,#+48
   \   00000084   FE71               STRB     R6,[R7, #+7]
   \   00000086   0FE0               B        ??TimeToStr_5
   1458                 }
   1459                 else
   1460                 {
   1461                   Vstring[6]=sek/10+48;
   \                     ??TimeToStr_4:
   \   00000088   3606               LSLS     R6,R6,#+24       ;; ZeroExtS R6,R6,#+24,#+24
   \   0000008A   360E               LSRS     R6,R6,#+24
   \   0000008C   3000               MOVS     R0,R6
   \   0000008E   0A21               MOVS     R1,#+10
   \   00000090   ........           BL       __aeabi_idivmod
   \   00000094   3030               ADDS     R0,R0,#+48
   \   00000096   B871               STRB     R0,[R7, #+6]
   1462                   Vstring[7]=sek%10+48;
   \   00000098   3606               LSLS     R6,R6,#+24       ;; ZeroExtS R6,R6,#+24,#+24
   \   0000009A   360E               LSRS     R6,R6,#+24
   \   0000009C   3000               MOVS     R0,R6
   \   0000009E   0A21               MOVS     R1,#+10
   \   000000A0   ........           BL       __aeabi_idivmod
   \   000000A4   3031               ADDS     R1,R1,#+48
   \   000000A6   F971               STRB     R1,[R7, #+7]
   1463                 }
   1464          
   1465                 
   1466          }//_______________________ Koniec funkcji TimeToStr____________________________
   \                     ??TimeToStr_5:
   \   000000A8   01B0               ADD      SP,SP,#+4
   \   000000AA   F0BC               POP      {R4-R7}
   \   000000AC   01BC               POP      {R0}
   \   000000AE   0047               BX       R0               ;; return
   1467          
   1468          
   1469          
   1470          //*-----------------------------------------------------------------------------
   1471          //* Nazwa funkcji :    DateToStr
   1472          //* Funkcja Daty na string
   1473          //*-----------------------------------------------------------------------------
   1474          //*-----------------------------------------------------------------------------

   \                                 In section Debug.txt, align 4, keep-with-next
   1475          void DateToStr (char dzin, char mies, char rok, char Vstring[8]) 
   1476          { 
   \                     DateToStr:
   \   00000000   F1B5               PUSH     {R0,R4-R7,LR}
   \   00000002   0400               MOVS     R4,R0
   \   00000004   0D00               MOVS     R5,R1
   \   00000006   1600               MOVS     R6,R2
   \   00000008   1F00               MOVS     R7,R3
   1477                 if (dzin<10) 
   \   0000000A   2406               LSLS     R4,R4,#+24       ;; ZeroExtS R4,R4,#+24,#+24
   \   0000000C   240E               LSRS     R4,R4,#+24
   \   0000000E   0A2C               CMP      R4,#+10
   \   00000010   04D2               BCS      ??DateToStr_0
   1478                 {
   1479                   Vstring[0]=48;
   \   00000012   3020               MOVS     R0,#+48
   \   00000014   3870               STRB     R0,[R7, #+0]
   1480                   Vstring[1]=dzin+48;
   \   00000016   3034               ADDS     R4,R4,#+48
   \   00000018   7C70               STRB     R4,[R7, #+1]
   \   0000001A   0FE0               B        ??DateToStr_1
   1481                 }
   1482                 else
   1483                 {
   1484                   Vstring[0]=dzin/10+48;
   \                     ??DateToStr_0:
   \   0000001C   2406               LSLS     R4,R4,#+24       ;; ZeroExtS R4,R4,#+24,#+24
   \   0000001E   240E               LSRS     R4,R4,#+24
   \   00000020   2000               MOVS     R0,R4
   \   00000022   0A21               MOVS     R1,#+10
   \   00000024   ........           BL       __aeabi_idivmod
   \   00000028   3030               ADDS     R0,R0,#+48
   \   0000002A   3870               STRB     R0,[R7, #+0]
   1485                   Vstring[1]=dzin%10+48;
   \   0000002C   2406               LSLS     R4,R4,#+24       ;; ZeroExtS R4,R4,#+24,#+24
   \   0000002E   240E               LSRS     R4,R4,#+24
   \   00000030   2000               MOVS     R0,R4
   \   00000032   0A21               MOVS     R1,#+10
   \   00000034   ........           BL       __aeabi_idivmod
   \   00000038   3031               ADDS     R1,R1,#+48
   \   0000003A   7970               STRB     R1,[R7, #+1]
   1486                 }
   1487                 Vstring[2]=45; //"-"
   \                     ??DateToStr_1:
   \   0000003C   2D20               MOVS     R0,#+45
   \   0000003E   B870               STRB     R0,[R7, #+2]
   1488                 
   1489                 if (mies<10) 
   \   00000040   2D06               LSLS     R5,R5,#+24       ;; ZeroExtS R5,R5,#+24,#+24
   \   00000042   2D0E               LSRS     R5,R5,#+24
   \   00000044   0A2D               CMP      R5,#+10
   \   00000046   04D2               BCS      ??DateToStr_2
   1490                 {
   1491                   Vstring[3]=48;
   \   00000048   3020               MOVS     R0,#+48
   \   0000004A   F870               STRB     R0,[R7, #+3]
   1492                   Vstring[4]=mies+48;
   \   0000004C   3035               ADDS     R5,R5,#+48
   \   0000004E   3D71               STRB     R5,[R7, #+4]
   \   00000050   0FE0               B        ??DateToStr_3
   1493                 }
   1494                 else
   1495                 {
   1496                   Vstring[3]=mies/10+48;
   \                     ??DateToStr_2:
   \   00000052   2D06               LSLS     R5,R5,#+24       ;; ZeroExtS R5,R5,#+24,#+24
   \   00000054   2D0E               LSRS     R5,R5,#+24
   \   00000056   2800               MOVS     R0,R5
   \   00000058   0A21               MOVS     R1,#+10
   \   0000005A   ........           BL       __aeabi_idivmod
   \   0000005E   3030               ADDS     R0,R0,#+48
   \   00000060   F870               STRB     R0,[R7, #+3]
   1497                   Vstring[4]=mies%10+48;
   \   00000062   2D06               LSLS     R5,R5,#+24       ;; ZeroExtS R5,R5,#+24,#+24
   \   00000064   2D0E               LSRS     R5,R5,#+24
   \   00000066   2800               MOVS     R0,R5
   \   00000068   0A21               MOVS     R1,#+10
   \   0000006A   ........           BL       __aeabi_idivmod
   \   0000006E   3031               ADDS     R1,R1,#+48
   \   00000070   3971               STRB     R1,[R7, #+4]
   1498                 }
   1499                 Vstring[5]=45; //"-"
   \                     ??DateToStr_3:
   \   00000072   2D20               MOVS     R0,#+45
   \   00000074   7871               STRB     R0,[R7, #+5]
   1500                 
   1501                 
   1502                 if (rok<10) 
   \   00000076   3606               LSLS     R6,R6,#+24       ;; ZeroExtS R6,R6,#+24,#+24
   \   00000078   360E               LSRS     R6,R6,#+24
   \   0000007A   0A2E               CMP      R6,#+10
   \   0000007C   04D2               BCS      ??DateToStr_4
   1503                 {
   1504                   Vstring[6]=48;
   \   0000007E   3020               MOVS     R0,#+48
   \   00000080   B871               STRB     R0,[R7, #+6]
   1505                   Vstring[7]=rok+48;
   \   00000082   3036               ADDS     R6,R6,#+48
   \   00000084   FE71               STRB     R6,[R7, #+7]
   \   00000086   0FE0               B        ??DateToStr_5
   1506                 }
   1507                 else
   1508                 {
   1509                   Vstring[6]=rok/10+48;
   \                     ??DateToStr_4:
   \   00000088   3606               LSLS     R6,R6,#+24       ;; ZeroExtS R6,R6,#+24,#+24
   \   0000008A   360E               LSRS     R6,R6,#+24
   \   0000008C   3000               MOVS     R0,R6
   \   0000008E   0A21               MOVS     R1,#+10
   \   00000090   ........           BL       __aeabi_idivmod
   \   00000094   3030               ADDS     R0,R0,#+48
   \   00000096   B871               STRB     R0,[R7, #+6]
   1510                   Vstring[7]=rok%10+48;
   \   00000098   3606               LSLS     R6,R6,#+24       ;; ZeroExtS R6,R6,#+24,#+24
   \   0000009A   360E               LSRS     R6,R6,#+24
   \   0000009C   3000               MOVS     R0,R6
   \   0000009E   0A21               MOVS     R1,#+10
   \   000000A0   ........           BL       __aeabi_idivmod
   \   000000A4   3031               ADDS     R1,R1,#+48
   \   000000A6   F971               STRB     R1,[R7, #+7]
   1511                 }
   1512          
   1513                 
   1514          }//_______________________ Koniec funkcji DateToStr ____________________________
   \                     ??DateToStr_5:
   \   000000A8   01B0               ADD      SP,SP,#+4
   \   000000AA   F0BC               POP      {R4-R7}
   \   000000AC   01BC               POP      {R0}
   \   000000AE   0047               BX       R0               ;; return
   1515          
   1516          
   1517          
   1518          
   1519          //*-----------------------------------------------------------------------------
   1520          //* Nazwa funkcji :    CharToStr
   1521          //* Funkcja konwersji zmiennej float na ³añcuch string   
   1522          //*-----------------------------------------------------------------------------
   1523          //*  Value   - zmienna typu float
   1524          //*  Vstring - tablica znaków
   1525          //*  ill     - liloœæ znaków (max=9) , ostatnia wartoœæ zapisanego ³añcucha to zawsze 0
   1526          //* return   - iloœæ cyfr w stringu
   1527          //*-----------------------------------------------------------------------------

   \                                 In section Debug.txt, align 4, keep-with-next
   1528          char CharToStr (char Value, char *Vstring, char ill) 
   1529          { 
   \                     CharToStr:
   \   00000000   F1B5               PUSH     {R0,R4-R7,LR}
   \   00000002   0700               MOVS     R7,R0
   \   00000004   0C00               MOVS     R4,R1
   \   00000006   1600               MOVS     R6,R2
   1530                char set=0;
   \   00000008   0025               MOVS     R5,#+0
   1531                char dzies=0;
   \   0000000A   0022               MOVS     R2,#+0
   1532                char jedn=0;
   \   0000000C   0023               MOVS     R3,#+0
   1533                char ind;
   1534                
   1535                for (int i=0; i<ill; i++) Vstring[i]=0;
   \   0000000E   0020               MOVS     R0,#+0
   \   00000010   02E0               B        ??CharToStr_0
   \                     ??CharToStr_1:
   \   00000012   0021               MOVS     R1,#+0
   \   00000014   2154               STRB     R1,[R4, R0]
   \   00000016   401C               ADDS     R0,R0,#+1
   \                     ??CharToStr_0:
   \   00000018   3606               LSLS     R6,R6,#+24       ;; ZeroExtS R6,R6,#+24,#+24
   \   0000001A   360E               LSRS     R6,R6,#+24
   \   0000001C   B042               CMP      R0,R6
   \   0000001E   F8DB               BLT      ??CharToStr_1
   1536                  
   1537                
   1538                set= Value/100;
   \   00000020   3F06               LSLS     R7,R7,#+24       ;; ZeroExtS R7,R7,#+24,#+24
   \   00000022   3F0E               LSRS     R7,R7,#+24
   \   00000024   3800               MOVS     R0,R7
   \   00000026   6421               MOVS     R1,#+100
   \   00000028   ........           BL       __aeabi_idivmod
   \   0000002C   0500               MOVS     R5,R0
   1539                dzies= (Value%100)/10;
   \   0000002E   3F06               LSLS     R7,R7,#+24       ;; ZeroExtS R7,R7,#+24,#+24
   \   00000030   3F0E               LSRS     R7,R7,#+24
   \   00000032   3800               MOVS     R0,R7
   \   00000034   6421               MOVS     R1,#+100
   \   00000036   ........           BL       __aeabi_idivmod
   \   0000003A   0800               MOVS     R0,R1
   \   0000003C   0A21               MOVS     R1,#+10
   \   0000003E   ........           BL       __aeabi_idivmod
   \   00000042   0200               MOVS     R2,R0
   1540                jedn = Value- (set*100) - (dzies*10);
   \   00000044   3F06               LSLS     R7,R7,#+24       ;; ZeroExtS R7,R7,#+24,#+24
   \   00000046   3F0E               LSRS     R7,R7,#+24
   \   00000048   2D06               LSLS     R5,R5,#+24       ;; ZeroExtS R5,R5,#+24,#+24
   \   0000004A   2D0E               LSRS     R5,R5,#+24
   \   0000004C   6420               MOVS     R0,#+100
   \   0000004E   6843               MULS     R0,R5,R0
   \   00000050   381A               SUBS     R0,R7,R0
   \   00000052   1206               LSLS     R2,R2,#+24       ;; ZeroExtS R2,R2,#+24,#+24
   \   00000054   120E               LSRS     R2,R2,#+24
   \   00000056   0A21               MOVS     R1,#+10
   \   00000058   5143               MULS     R1,R2,R1
   \   0000005A   431A               SUBS     R3,R0,R1
   1541                
   1542                if (ill==0) ill=1; 
   \   0000005C   3606               LSLS     R6,R6,#+24       ;; ZeroExtS R6,R6,#+24,#+24
   \   0000005E   360E               LSRS     R6,R6,#+24
   \   00000060   002E               CMP      R6,#+0
   \   00000062   00D1               BNE      ??CharToStr_2
   \   00000064   0126               MOVS     R6,#+1
   1543                ill--;
   \                     ??CharToStr_2:
   \   00000066   761E               SUBS     R6,R6,#+1
   1544                 
   1545                ind=0;
   \   00000068   0021               MOVS     R1,#+0
   1546                if (set>0) 
   \   0000006A   2D06               LSLS     R5,R5,#+24       ;; ZeroExtS R5,R5,#+24,#+24
   \   0000006C   2D0E               LSRS     R5,R5,#+24
   \   0000006E   012D               CMP      R5,#+1
   \   00000070   05D3               BCC      ??CharToStr_3
   1547                {
   1548                  Vstring[ind]=set+48;
   \   00000072   0906               LSLS     R1,R1,#+24       ;; ZeroExtS R1,R1,#+24,#+24
   \   00000074   090E               LSRS     R1,R1,#+24
   \   00000076   2800               MOVS     R0,R5
   \   00000078   3030               ADDS     R0,R0,#+48
   \   0000007A   6054               STRB     R0,[R4, R1]
   1549                  ind++;
   \   0000007C   491C               ADDS     R1,R1,#+1
   1550                }
   1551                if (set+dzies>0) 
   \                     ??CharToStr_3:
   \   0000007E   2D06               LSLS     R5,R5,#+24       ;; ZeroExtS R5,R5,#+24,#+24
   \   00000080   2D0E               LSRS     R5,R5,#+24
   \   00000082   1206               LSLS     R2,R2,#+24       ;; ZeroExtS R2,R2,#+24,#+24
   \   00000084   120E               LSRS     R2,R2,#+24
   \   00000086   A818               ADDS     R0,R5,R2
   \   00000088   0004               LSLS     R0,R0,#+16       ;; ZeroExtS R0,R0,#+16,#+16
   \   0000008A   000C               LSRS     R0,R0,#+16
   \   0000008C   0128               CMP      R0,#+1
   \   0000008E   04D3               BCC      ??CharToStr_4
   1552                {
   1553                  Vstring[ind]=dzies+48;
   \   00000090   0906               LSLS     R1,R1,#+24       ;; ZeroExtS R1,R1,#+24,#+24
   \   00000092   090E               LSRS     R1,R1,#+24
   \   00000094   3032               ADDS     R2,R2,#+48
   \   00000096   6254               STRB     R2,[R4, R1]
   1554                  ind++;
   \   00000098   491C               ADDS     R1,R1,#+1
   1555                }
   1556                Vstring[ind]=jedn+48;
   \                     ??CharToStr_4:
   \   0000009A   0906               LSLS     R1,R1,#+24       ;; ZeroExtS R1,R1,#+24,#+24
   \   0000009C   090E               LSRS     R1,R1,#+24
   \   0000009E   3033               ADDS     R3,R3,#+48
   \   000000A0   6354               STRB     R3,[R4, R1]
   1557          
   1558                ind++;
   \   000000A2   491C               ADDS     R1,R1,#+1
   1559                return ind;
   \   000000A4   0800               MOVS     R0,R1
   \   000000A6   0006               LSLS     R0,R0,#+24       ;; ZeroExtS R0,R0,#+24,#+24
   \   000000A8   000E               LSRS     R0,R0,#+24
   \   000000AA   01B0               ADD      SP,SP,#+4
   \   000000AC   F0BC               POP      {R4-R7}
   \   000000AE   02BC               POP      {R1}
   \   000000B0   0847               BX       R1               ;; return
   1560                
   1561                 
   1562          }//_______________________ Koniec funkcji konwersji float na string ____________________________
   1563          
   1564          
   1565          
   1566          
   1567          
   1568          
   1569          //*-----------------------------------------------------------------------------
   1570          //* Nazwa funkcji :    CharToStr2
   1571          //* Funkcja konwersji zmiennej float na ³añcuch string  w formacie 00 
   1572          //*-----------------------------------------------------------------------------
   1573          //*  Value   - zmienna typu float
   1574          //*  Vstring - tablica znaków
   1575          //*-----------------------------------------------------------------------------

   \                                 In section Debug.txt, align 4, keep-with-next
   1576          void CharToStr2 (char Value, char *Vstring) 
   1577          { 
   \                     CharToStr2:
   \   00000000   F2B5               PUSH     {R1,R4-R7,LR}
   \   00000002   0700               MOVS     R7,R0
   1578                char set=0;
   \   00000004   0026               MOVS     R6,#+0
   1579                char dzies=0;
   \   00000006   0024               MOVS     R4,#+0
   1580                char jedn=0;
   \   00000008   0025               MOVS     R5,#+0
   1581          
   1582                set= Value/100;
   \   0000000A   3F06               LSLS     R7,R7,#+24       ;; ZeroExtS R7,R7,#+24,#+24
   \   0000000C   3F0E               LSRS     R7,R7,#+24
   \   0000000E   3800               MOVS     R0,R7
   \   00000010   6421               MOVS     R1,#+100
   \   00000012   ........           BL       __aeabi_idivmod
   \   00000016   0600               MOVS     R6,R0
   1583                dzies= (Value%100)/10;
   \   00000018   3F06               LSLS     R7,R7,#+24       ;; ZeroExtS R7,R7,#+24,#+24
   \   0000001A   3F0E               LSRS     R7,R7,#+24
   \   0000001C   3800               MOVS     R0,R7
   \   0000001E   6421               MOVS     R1,#+100
   \   00000020   ........           BL       __aeabi_idivmod
   \   00000024   0800               MOVS     R0,R1
   \   00000026   0A21               MOVS     R1,#+10
   \   00000028   ........           BL       __aeabi_idivmod
   \   0000002C   0400               MOVS     R4,R0
   1584                jedn = Value- (set*100) - (dzies*10);      
   \   0000002E   3F06               LSLS     R7,R7,#+24       ;; ZeroExtS R7,R7,#+24,#+24
   \   00000030   3F0E               LSRS     R7,R7,#+24
   \   00000032   3606               LSLS     R6,R6,#+24       ;; ZeroExtS R6,R6,#+24,#+24
   \   00000034   360E               LSRS     R6,R6,#+24
   \   00000036   6420               MOVS     R0,#+100
   \   00000038   4643               MULS     R6,R0,R6
   \   0000003A   B81B               SUBS     R0,R7,R6
   \   0000003C   2406               LSLS     R4,R4,#+24       ;; ZeroExtS R4,R4,#+24,#+24
   \   0000003E   240E               LSRS     R4,R4,#+24
   \   00000040   0A21               MOVS     R1,#+10
   \   00000042   6143               MULS     R1,R4,R1
   \   00000044   401A               SUBS     R0,R0,R1
   \   00000046   0500               MOVS     R5,R0
   1585                
   1586                Vstring[1]=jedn+48;
   \   00000048   0098               LDR      R0,[SP, #+0]
   \   0000004A   3035               ADDS     R5,R5,#+48
   \   0000004C   4570               STRB     R5,[R0, #+1]
   1587                Vstring[0]=dzies+48;        
   \   0000004E   0098               LDR      R0,[SP, #+0]
   \   00000050   3034               ADDS     R4,R4,#+48
   \   00000052   0470               STRB     R4,[R0, #+0]
   1588          }//_______________________ Koniec funkcji konwersji float na string ____________________________
   \   00000054   01B0               ADD      SP,SP,#+4
   \   00000056   F0BC               POP      {R4-R7}
   \   00000058   01BC               POP      {R0}
   \   0000005A   0047               BX       R0               ;; return
   1589          
   1590          
   1591          
   1592          
   1593          
   1594          
   1595          
   1596          
   1597          //*-----------------------------------------------------------------------------
   1598          //* Nazwa funkcji :    CharToStr
   1599          //* Funkcja konwersji zmiennej char na ³añcuch znakowy string -2 elementowy   
   1600          //*-----------------------------------------------------------------------------
   1601          //*  Value   - zmienna typu float
   1602          //*  Vstring - tablica znaków
   1603          //*-----------------------------------------------------------------------------

   \                                 In section Debug.txt, align 4, keep-with-next
   1604          void CharToStrData (char Value, char *Vstring) 
   1605          { 
   \                     CharToStrData:
   \   00000000   31B5               PUSH     {R0,R4,R5,LR}
   \   00000002   0400               MOVS     R4,R0
   \   00000004   0D00               MOVS     R5,R1
   1606          
   1607                
   1608                for (int i=0; i<2; i++) Vstring[i]=0;
   \   00000006   0020               MOVS     R0,#+0
   \   00000008   02E0               B        ??CharToStrData_0
   \                     ??CharToStrData_1:
   \   0000000A   0021               MOVS     R1,#+0
   \   0000000C   2954               STRB     R1,[R5, R0]
   \   0000000E   401C               ADDS     R0,R0,#+1
   \                     ??CharToStrData_0:
   \   00000010   0228               CMP      R0,#+2
   \   00000012   FADB               BLT      ??CharToStrData_1
   1609                
   1610                Vstring[0]=(Value/10)+48;
   \   00000014   2406               LSLS     R4,R4,#+24       ;; ZeroExtS R4,R4,#+24,#+24
   \   00000016   240E               LSRS     R4,R4,#+24
   \   00000018   2000               MOVS     R0,R4
   \   0000001A   0A21               MOVS     R1,#+10
   \   0000001C   ........           BL       __aeabi_idivmod
   \   00000020   3030               ADDS     R0,R0,#+48
   \   00000022   2870               STRB     R0,[R5, #+0]
   1611                Vstring[1]=(Value%10)+48;
   \   00000024   2406               LSLS     R4,R4,#+24       ;; ZeroExtS R4,R4,#+24,#+24
   \   00000026   240E               LSRS     R4,R4,#+24
   \   00000028   2000               MOVS     R0,R4
   \   0000002A   0A21               MOVS     R1,#+10
   \   0000002C   ........           BL       __aeabi_idivmod
   \   00000030   3031               ADDS     R1,R1,#+48
   \   00000032   6970               STRB     R1,[R5, #+1]
   1612          
   1613          }//_______________________ Koniec funkcji konwersji char na string ____________________________
   \   00000034   01B0               ADD      SP,SP,#+4
   \   00000036   30BC               POP      {R4,R5}
   \   00000038   01BC               POP      {R0}
   \   0000003A   0047               BX       R0               ;; return
   1614          
   1615          
   1616          
   1617          
   1618          
   1619          //*-----------------------------------------------------------------------------
   1620          //* Nazwa funkcji :    sIntToStr
   1621          //* Funkcja konwersji zmiennej short int na ³añcuch string  wed³óg schematu dla zmiennej analogowej systemu (-3276.8 + 3276.7)
   1622          //*-----------------------------------------------------------------------------
   1623          //*  Value   - zmienna typu float
   1624          //*  Vstring - tablica znaków
   1625          //* return   - iloœæ cyfr w stringu
   1626          //*-----------------------------------------------------------------------------

   \                                 In section Debug.txt, align 4, keep-with-next
   1627          char sIntToStr (signed short int Value, char *Vstring) 
   1628          { 
   \                     sIntToStr:
   \   00000000   F7B5               PUSH     {R0-R2,R4-R7,LR}
   \   00000002   0C00               MOVS     R4,R1
   1629                char znak=0;
   \   00000004   0026               MOVS     R6,#+0
   1630                char ind=0;
   \   00000006   0025               MOVS     R5,#+0
   1631                if (Value<0) znak='-';
   \   00000008   0004               LSLS     R0,R0,#+16       ;; SignExtS R0,R0,#+16,#+16
   \   0000000A   0014               ASRS     R0,R0,#+16
   \   0000000C   0028               CMP      R0,#+0
   \   0000000E   00D5               BPL      ??sIntToStr_0
   \   00000010   2D26               MOVS     R6,#+45
   1632                
   1633                short int ValueTmp=abs(Value);
                                          ^
Warning[Pe223]: function "abs" declared implicitly
   \                     ??sIntToStr_0:
   \   00000012   0004               LSLS     R0,R0,#+16       ;; SignExtS R0,R0,#+16,#+16
   \   00000014   0014               ASRS     R0,R0,#+16
   \   00000016   ........           BL       abs
   \   0000001A   0700               MOVS     R7,R0
   1634                
   1635                char wartosc[6];
   1636                
   1637                for (int i=0; i<5; i++) 
   \   0000001C   0020               MOVS     R0,#+0
   \   0000001E   05E0               B        ??sIntToStr_1
   1638                {
   1639                  Vstring[i]=0;
   \                     ??sIntToStr_2:
   \   00000020   0021               MOVS     R1,#+0
   \   00000022   2154               STRB     R1,[R4, R0]
   1640                  wartosc[i]=0;
   \   00000024   6946               MOV      R1,SP
   \   00000026   0022               MOVS     R2,#+0
   \   00000028   0A54               STRB     R2,[R1, R0]
   1641                }
   \   0000002A   401C               ADDS     R0,R0,#+1
   \                     ??sIntToStr_1:
   \   0000002C   0528               CMP      R0,#+5
   \   0000002E   F7DB               BLT      ??sIntToStr_2
   1642                  
   1643                
   1644                wartosc[0]   = ValueTmp/10000;
   \   00000030   3F04               LSLS     R7,R7,#+16       ;; SignExtS R7,R7,#+16,#+16
   \   00000032   3F14               ASRS     R7,R7,#+16
   \   00000034   3800               MOVS     R0,R7
   \   00000036   5849               LDR      R1,??sIntToStr_3  ;; 0x2710
   \   00000038   ........           BL       __aeabi_idivmod
   \   0000003C   6946               MOV      R1,SP
   \   0000003E   0870               STRB     R0,[R1, #+0]
   1645                wartosc[1]   = (ValueTmp-(wartosc[0]*10000))/1000;
   \   00000040   3F04               LSLS     R7,R7,#+16       ;; SignExtS R7,R7,#+16,#+16
   \   00000042   3F14               ASRS     R7,R7,#+16
   \   00000044   6846               MOV      R0,SP
   \   00000046   0078               LDRB     R0,[R0, #+0]
   \   00000048   5349               LDR      R1,??sIntToStr_3  ;; 0x2710
   \   0000004A   4843               MULS     R0,R1,R0
   \   0000004C   381A               SUBS     R0,R7,R0
   \   0000004E   FA21               MOVS     R1,#+250
   \   00000050   8900               LSLS     R1,R1,#+2        ;; #+1000
   \   00000052   ........           BL       __aeabi_idivmod
   \   00000056   6946               MOV      R1,SP
   \   00000058   4870               STRB     R0,[R1, #+1]
   1646                wartosc[2]   = (ValueTmp-(wartosc[0]*10000)-(wartosc[1]*1000))/100;
   \   0000005A   3F04               LSLS     R7,R7,#+16       ;; SignExtS R7,R7,#+16,#+16
   \   0000005C   3F14               ASRS     R7,R7,#+16
   \   0000005E   6846               MOV      R0,SP
   \   00000060   0078               LDRB     R0,[R0, #+0]
   \   00000062   4D49               LDR      R1,??sIntToStr_3  ;; 0x2710
   \   00000064   4843               MULS     R0,R1,R0
   \   00000066   381A               SUBS     R0,R7,R0
   \   00000068   6946               MOV      R1,SP
   \   0000006A   4978               LDRB     R1,[R1, #+1]
   \   0000006C   FA22               MOVS     R2,#+250
   \   0000006E   9200               LSLS     R2,R2,#+2        ;; #+1000
   \   00000070   5143               MULS     R1,R2,R1
   \   00000072   401A               SUBS     R0,R0,R1
   \   00000074   6421               MOVS     R1,#+100
   \   00000076   ........           BL       __aeabi_idivmod
   \   0000007A   6946               MOV      R1,SP
   \   0000007C   8870               STRB     R0,[R1, #+2]
   1647                wartosc[3]   = (ValueTmp-(wartosc[0]*10000)-(wartosc[1]*1000)-(wartosc[2]*100))/10;
   \   0000007E   3F04               LSLS     R7,R7,#+16       ;; SignExtS R7,R7,#+16,#+16
   \   00000080   3F14               ASRS     R7,R7,#+16
   \   00000082   6846               MOV      R0,SP
   \   00000084   0078               LDRB     R0,[R0, #+0]
   \   00000086   4449               LDR      R1,??sIntToStr_3  ;; 0x2710
   \   00000088   4843               MULS     R0,R1,R0
   \   0000008A   381A               SUBS     R0,R7,R0
   \   0000008C   6946               MOV      R1,SP
   \   0000008E   4978               LDRB     R1,[R1, #+1]
   \   00000090   FA22               MOVS     R2,#+250
   \   00000092   9200               LSLS     R2,R2,#+2        ;; #+1000
   \   00000094   5143               MULS     R1,R2,R1
   \   00000096   401A               SUBS     R0,R0,R1
   \   00000098   6946               MOV      R1,SP
   \   0000009A   8978               LDRB     R1,[R1, #+2]
   \   0000009C   6422               MOVS     R2,#+100
   \   0000009E   5143               MULS     R1,R2,R1
   \   000000A0   401A               SUBS     R0,R0,R1
   \   000000A2   0A21               MOVS     R1,#+10
   \   000000A4   ........           BL       __aeabi_idivmod
   \   000000A8   6946               MOV      R1,SP
   \   000000AA   C870               STRB     R0,[R1, #+3]
   1648                wartosc[4]   = '.';
   \   000000AC   6846               MOV      R0,SP
   \   000000AE   2E21               MOVS     R1,#+46
   \   000000B0   0171               STRB     R1,[R0, #+4]
   1649                wartosc[5]   = (ValueTmp-(wartosc[0]*10000)-(wartosc[1]*1000)-(wartosc[2]*100)-(wartosc[3]*10));
   \   000000B2   6846               MOV      R0,SP
   \   000000B4   3F04               LSLS     R7,R7,#+16       ;; SignExtS R7,R7,#+16,#+16
   \   000000B6   3F14               ASRS     R7,R7,#+16
   \   000000B8   6946               MOV      R1,SP
   \   000000BA   0978               LDRB     R1,[R1, #+0]
   \   000000BC   364A               LDR      R2,??sIntToStr_3  ;; 0x2710
   \   000000BE   5143               MULS     R1,R2,R1
   \   000000C0   791A               SUBS     R1,R7,R1
   \   000000C2   6A46               MOV      R2,SP
   \   000000C4   5278               LDRB     R2,[R2, #+1]
   \   000000C6   FA23               MOVS     R3,#+250
   \   000000C8   9B00               LSLS     R3,R3,#+2        ;; #+1000
   \   000000CA   5A43               MULS     R2,R3,R2
   \   000000CC   891A               SUBS     R1,R1,R2
   \   000000CE   6A46               MOV      R2,SP
   \   000000D0   9278               LDRB     R2,[R2, #+2]
   \   000000D2   6423               MOVS     R3,#+100
   \   000000D4   5A43               MULS     R2,R3,R2
   \   000000D6   891A               SUBS     R1,R1,R2
   \   000000D8   6A46               MOV      R2,SP
   \   000000DA   D278               LDRB     R2,[R2, #+3]
   \   000000DC   0A23               MOVS     R3,#+10
   \   000000DE   5A43               MULS     R2,R3,R2
   \   000000E0   891A               SUBS     R1,R1,R2
   \   000000E2   4171               STRB     R1,[R0, #+5]
   1650                
   1651                char PP=0;
   \   000000E4   0021               MOVS     R1,#+0
   1652                for (char i=0; i<5; i++) 
   \   000000E6   0020               MOVS     R0,#+0
   \   000000E8   02E0               B        ??sIntToStr_4
   1653                  if ((wartosc[i]>0) && (PP==0)) 
   1654                  {
   1655                    if (wartosc[i]=='.') PP=i; else PP=i+1;
   \                     ??sIntToStr_5:
   \   000000EA   0100               MOVS     R1,R0
   \   000000EC   491C               ADDS     R1,R1,#+1
   \                     ??sIntToStr_6:
   \   000000EE   401C               ADDS     R0,R0,#+1
   \                     ??sIntToStr_4:
   \   000000F0   0006               LSLS     R0,R0,#+24       ;; ZeroExtS R0,R0,#+24,#+24
   \   000000F2   000E               LSRS     R0,R0,#+24
   \   000000F4   0528               CMP      R0,#+5
   \   000000F6   11D2               BCS      ??sIntToStr_7
   \   000000F8   0006               LSLS     R0,R0,#+24       ;; ZeroExtS R0,R0,#+24,#+24
   \   000000FA   000E               LSRS     R0,R0,#+24
   \   000000FC   6A46               MOV      R2,SP
   \   000000FE   125C               LDRB     R2,[R2, R0]
   \   00000100   012A               CMP      R2,#+1
   \   00000102   F4D3               BCC      ??sIntToStr_6
   \   00000104   0906               LSLS     R1,R1,#+24       ;; ZeroExtS R1,R1,#+24,#+24
   \   00000106   090E               LSRS     R1,R1,#+24
   \   00000108   0029               CMP      R1,#+0
   \   0000010A   F0D1               BNE      ??sIntToStr_6
   \   0000010C   0006               LSLS     R0,R0,#+24       ;; ZeroExtS R0,R0,#+24,#+24
   \   0000010E   000E               LSRS     R0,R0,#+24
   \   00000110   6946               MOV      R1,SP
   \   00000112   095C               LDRB     R1,[R1, R0]
   \   00000114   2E29               CMP      R1,#+46
   \   00000116   E8D1               BNE      ??sIntToStr_5
   \   00000118   0100               MOVS     R1,R0
   \   0000011A   E8E7               B        ??sIntToStr_6
   1656                  
   1657                  }
   1658                
   1659                if ((PP==0) && (wartosc[5]==0))
   \                     ??sIntToStr_7:
   \   0000011C   0906               LSLS     R1,R1,#+24       ;; ZeroExtS R1,R1,#+24,#+24
   \   0000011E   090E               LSRS     R1,R1,#+24
   \   00000120   0029               CMP      R1,#+0
   \   00000122   07D1               BNE      ??sIntToStr_8
   \   00000124   6846               MOV      R0,SP
   \   00000126   4079               LDRB     R0,[R0, #+5]
   \   00000128   0028               CMP      R0,#+0
   \   0000012A   03D1               BNE      ??sIntToStr_8
   1660                {
   1661                  ind=1;
   \   0000012C   0125               MOVS     R5,#+1
   1662                  Vstring[0]='0';
   \   0000012E   3020               MOVS     R0,#+48
   \   00000130   2070               STRB     R0,[R4, #+0]
   \   00000132   2AE0               B        ??sIntToStr_9
   1663                }
   1664                else
   1665                {
   1666                  if (znak) 
   \                     ??sIntToStr_8:
   \   00000134   3606               LSLS     R6,R6,#+24       ;; ZeroExtS R6,R6,#+24,#+24
   \   00000136   360E               LSRS     R6,R6,#+24
   \   00000138   002E               CMP      R6,#+0
   \   0000013A   04D0               BEQ      ??sIntToStr_10
   1667                  {
   1668                    Vstring[ind++]='-';
   \   0000013C   2D06               LSLS     R5,R5,#+24       ;; ZeroExtS R5,R5,#+24,#+24
   \   0000013E   2D0E               LSRS     R5,R5,#+24
   \   00000140   2D20               MOVS     R0,#+45
   \   00000142   6055               STRB     R0,[R4, R5]
   \   00000144   6D1C               ADDS     R5,R5,#+1
   1669                  }
   1670                  if (PP>0)
   \                     ??sIntToStr_10:
   \   00000146   0906               LSLS     R1,R1,#+24       ;; ZeroExtS R1,R1,#+24,#+24
   \   00000148   090E               LSRS     R1,R1,#+24
   \   0000014A   0129               CMP      R1,#+1
   \   0000014C   0FD3               BCC      ??sIntToStr_11
   1671                  for (char i=PP-1; i<4; i++)
   \   0000014E   481E               SUBS     R0,R1,#+1
   \   00000150   09E0               B        ??sIntToStr_12
   1672                  {
   1673                    Vstring[ind]=48+wartosc[i];
   \                     ??sIntToStr_13:
   \   00000152   2D06               LSLS     R5,R5,#+24       ;; ZeroExtS R5,R5,#+24,#+24
   \   00000154   2D0E               LSRS     R5,R5,#+24
   \   00000156   0006               LSLS     R0,R0,#+24       ;; ZeroExtS R0,R0,#+24,#+24
   \   00000158   000E               LSRS     R0,R0,#+24
   \   0000015A   6946               MOV      R1,SP
   \   0000015C   095C               LDRB     R1,[R1, R0]
   \   0000015E   3031               ADDS     R1,R1,#+48
   \   00000160   6155               STRB     R1,[R4, R5]
   1674                    ind++;
   \   00000162   6D1C               ADDS     R5,R5,#+1
   1675                  }
   \   00000164   401C               ADDS     R0,R0,#+1
   \                     ??sIntToStr_12:
   \   00000166   0006               LSLS     R0,R0,#+24       ;; ZeroExtS R0,R0,#+24,#+24
   \   00000168   000E               LSRS     R0,R0,#+24
   \   0000016A   0428               CMP      R0,#+4
   \   0000016C   F1D3               BCC      ??sIntToStr_13
   1676                  
   1677                    Vstring[ind]='.';
   \                     ??sIntToStr_11:
   \   0000016E   2D06               LSLS     R5,R5,#+24       ;; ZeroExtS R5,R5,#+24,#+24
   \   00000170   2D0E               LSRS     R5,R5,#+24
   \   00000172   2E20               MOVS     R0,#+46
   \   00000174   6055               STRB     R0,[R4, R5]
   1678                    Vstring[++ind]=48+wartosc[5];
   \   00000176   6D1C               ADDS     R5,R5,#+1
   \   00000178   2800               MOVS     R0,R5
   \   0000017A   0500               MOVS     R5,R0
   \   0000017C   0006               LSLS     R0,R0,#+24       ;; ZeroExtS R0,R0,#+24,#+24
   \   0000017E   000E               LSRS     R0,R0,#+24
   \   00000180   6946               MOV      R1,SP
   \   00000182   4979               LDRB     R1,[R1, #+5]
   \   00000184   3031               ADDS     R1,R1,#+48
   \   00000186   2154               STRB     R1,[R4, R0]
   1679                    ind++;
   \   00000188   6D1C               ADDS     R5,R5,#+1
   1680                }
   1681                
   1682                return ind;
   \                     ??sIntToStr_9:
   \   0000018A   2800               MOVS     R0,R5
   \   0000018C   0006               LSLS     R0,R0,#+24       ;; ZeroExtS R0,R0,#+24,#+24
   \   0000018E   000E               LSRS     R0,R0,#+24
   \   00000190   03B0               ADD      SP,SP,#+12
   \   00000192   F0BC               POP      {R4-R7}
   \   00000194   02BC               POP      {R1}
   \   00000196   0847               BX       R1               ;; return
   \                     ??sIntToStr_3:
   \   00000198   10270000           DC32     0x2710
   1683                
   1684                 
   1685          }//_______________________ Koniec funkcji konwersji float na string ____________________________
   1686          
   1687          
   1688          
   1689          
   1690          
   1691          
   1692          
   1693          //*-----------------------------------------------------------------------------
   1694          //* Nazwa funkcji :    FloToStr
   1695          //* Funkcja konwersji zmiennej float na ³añcuch string   
   1696          //*-----------------------------------------------------------------------------
   1697          //*  Value   - zmienna typu float
   1698          //*  Vstring - tablica znaków
   1699          //*  ill     - liloœæ znaków (max=9) , ostatnia wartoœæ zapisanego ³añcucha to zawsze 0
   1700          //*  Funkcja zwraca d³ugoœæ ³añcucha
   1701          //*-----------------------------------------------------------------------------

   \                                 In section Debug.txt, align 4, keep-with-next
   1702          void HexToStr (int Value, char Vstring[8],char length) 
   1703          { 
   \                     HexToStr:
   \   00000000   70B5               PUSH     {R4-R6,LR}
   1704                length=length-1; 
   \   00000002   521E               SUBS     R2,R2,#+1
   1705                for (int i=0; i<=length; i++) Vstring[i]=0;
   \   00000004   0023               MOVS     R3,#+0
   \   00000006   02E0               B        ??HexToStr_0
   \                     ??HexToStr_1:
   \   00000008   0024               MOVS     R4,#+0
   \   0000000A   CC54               STRB     R4,[R1, R3]
   \   0000000C   5B1C               ADDS     R3,R3,#+1
   \                     ??HexToStr_0:
   \   0000000E   1206               LSLS     R2,R2,#+24       ;; ZeroExtS R2,R2,#+24,#+24
   \   00000010   120E               LSRS     R2,R2,#+24
   \   00000012   9A42               CMP      R2,R3
   \   00000014   F8DA               BGE      ??HexToStr_1
   1706                 
   1707                 for (int i=0; i<=length; i++)
   \   00000016   0023               MOVS     R3,#+0
   \   00000018   1BE0               B        ??HexToStr_2
   1708                 {
   1709                    Vstring[length-i]=((Value>>(4*i))&0xf)+48;  
   \                     ??HexToStr_3:
   \   0000001A   1206               LSLS     R2,R2,#+24       ;; ZeroExtS R2,R2,#+24,#+24
   \   0000001C   120E               LSRS     R2,R2,#+24
   \   0000001E   D41A               SUBS     R4,R2,R3
   \   00000020   1D00               MOVS     R5,R3
   \   00000022   0426               MOVS     R6,#+4
   \   00000024   7543               MULS     R5,R6,R5
   \   00000026   0600               MOVS     R6,R0
   \   00000028   2E41               ASRS     R6,R6,R5
   \   0000002A   3507               LSLS     R5,R6,#+28       ;; ZeroExtS R5,R6,#+28,#+28
   \   0000002C   2D0F               LSRS     R5,R5,#+28
   \   0000002E   3035               ADDS     R5,R5,#+48
   \   00000030   0D55               STRB     R5,[R1, R4]
   1710                    
   1711                    if (Vstring[length-i]>57) {Vstring[length-i]+=7;}
   \   00000032   1206               LSLS     R2,R2,#+24       ;; ZeroExtS R2,R2,#+24,#+24
   \   00000034   120E               LSRS     R2,R2,#+24
   \   00000036   D41A               SUBS     R4,R2,R3
   \   00000038   0C5D               LDRB     R4,[R1, R4]
   \   0000003A   3A2C               CMP      R4,#+58
   \   0000003C   08D3               BCC      ??HexToStr_4
   \   0000003E   1206               LSLS     R2,R2,#+24       ;; ZeroExtS R2,R2,#+24,#+24
   \   00000040   120E               LSRS     R2,R2,#+24
   \   00000042   D41A               SUBS     R4,R2,R3
   \   00000044   1206               LSLS     R2,R2,#+24       ;; ZeroExtS R2,R2,#+24,#+24
   \   00000046   120E               LSRS     R2,R2,#+24
   \   00000048   D51A               SUBS     R5,R2,R3
   \   0000004A   4D5D               LDRB     R5,[R1, R5]
   \   0000004C   ED1D               ADDS     R5,R5,#+7
   \   0000004E   0D55               STRB     R5,[R1, R4]
   1712          
   1713                    
   1714                 }   
   \                     ??HexToStr_4:
   \   00000050   5B1C               ADDS     R3,R3,#+1
   \                     ??HexToStr_2:
   \   00000052   1206               LSLS     R2,R2,#+24       ;; ZeroExtS R2,R2,#+24,#+24
   \   00000054   120E               LSRS     R2,R2,#+24
   \   00000056   9A42               CMP      R2,R3
   \   00000058   DFDA               BGE      ??HexToStr_3
   1715             
   1716             
   1717             
   1718          }//_______________________ Koniec funkcji konwersji float na string ____________________________
   \   0000005A   70BC               POP      {R4-R6}
   \   0000005C   01BC               POP      {R0}
   \   0000005E   0047               BX       R0               ;; return
   1719          
   1720          
   1721          
   1722          
   1723          
   1724          
   1725          
   1726          
   1727          
   1728          
   1729          //*-----------------------------------------------------------------------------
   1730          //* Nazwa funkcji :    List_Paint
   1731          //* Funkcja rysowania listy
   1732          //*-----------------------------------------------------------------------------
   1733          //* name[7]   -  Nazwa listy
   1734          //* Rows      -  ilosc wierszy
   1735          //* RowWith   -  szerokosc wiersza
   1736          //* Y         -  odsuniecie od górnej krawêdzi
   1737          //* FormStyle -  rodzaj formy 0-zwyk³a 1..-coraz mniejsze
   1738          //* Algin     - wyrównanie 0-pion œrodek, poziom lowo, 1-pion góra, poziom lowo, 2 pion dó³, poziom lowo, 3-pion œrodek, poziom wyœrodkowanie
   1739          //* p1...p8   - nazwy kolejnych pól
   1740          //*-----------------------------------------------------------------------------
   1741          

   \                                 In section .bss, align 1
   1742          char RealRows;
   \                     RealRows:
   \   00000000                      DS8 1

   \                                 In section .bss, align 1
   1743          char RowsPoz;
   \                     RowsPoz:
   \   00000000                      DS8 1

   \                                 In section Debug.txt, align 4, keep-with-next
   1744          void List_Paint(char name[10], char Rows, char RowWith, char Y, char FormStyle, char Algin, __String p,...)
   1745          {
   \                     List_Paint:
   \   00000000   F9B5               PUSH     {R0,R3-R7,LR}
   \   00000002   BBB0               SUB      SP,SP,#+236
   \   00000004   0E00               MOVS     R6,R1
   \   00000006   1400               MOVS     R4,R2
   \   00000008   42A8               ADD      R0,SP,#+264
   \   0000000A   0578               LDRB     R5,[R0, #+0]
   \   0000000C   4499               LDR      R1,[SP, #+272]
   1746            
   1747            
   1748           va_list parg; 
   1749           va_start( parg, p);// pocz¹tek pracy ze zmienn¹ list¹ parametrów 
   \   0000000E   45AA               ADD      R2,SP,#+276
   1750          char *par[20];
   1751          char idf=0;
   \   00000010   0020               MOVS     R0,#+0
   1752          par[0] =p;
   \   00000012   0391               STR      R1,[SP, #+12]
   \   00000014   0CE0               B        ??List_Paint_0
   1753          while(idf<Rows) {par[++idf] = va_arg( parg, char*);} 
   \                     ??List_Paint_1:
   \   00000016   401C               ADDS     R0,R0,#+1
   \   00000018   0700               MOVS     R7,R0
   \   0000001A   3800               MOVS     R0,R7
   \   0000001C   1100               MOVS     R1,R2
   \   0000001E   0A00               MOVS     R2,R1
   \   00000020   121D               ADDS     R2,R2,#+4
   \   00000022   3F06               LSLS     R7,R7,#+24       ;; ZeroExtS R7,R7,#+24,#+24
   \   00000024   3F0E               LSRS     R7,R7,#+24
   \   00000026   0423               MOVS     R3,#+4
   \   00000028   5F43               MULS     R7,R3,R7
   \   0000002A   03AB               ADD      R3,SP,#+12
   \   0000002C   0968               LDR      R1,[R1, #+0]
   \   0000002E   D951               STR      R1,[R3, R7]
   \                     ??List_Paint_0:
   \   00000030   0006               LSLS     R0,R0,#+24       ;; ZeroExtS R0,R0,#+24,#+24
   \   00000032   000E               LSRS     R0,R0,#+24
   \   00000034   3606               LSLS     R6,R6,#+24       ;; ZeroExtS R6,R6,#+24,#+24
   \   00000036   360E               LSRS     R6,R6,#+24
   \   00000038   B042               CMP      R0,R6
   \   0000003A   ECD3               BCC      ??List_Paint_1
   1754          va_end(parg); 
   1755            
   1756          
   1757            RealRows=Rows;
   \   0000003C   D948               LDR      R0,??List_Paint_2  ;; RealRows
   \   0000003E   0670               STRB     R6,[R0, #+0]
   1758            if ((Rows>7) && (RowWith>13)) Rows=6;
   \   00000040   3606               LSLS     R6,R6,#+24       ;; ZeroExtS R6,R6,#+24,#+24
   \   00000042   360E               LSRS     R6,R6,#+24
   \   00000044   082E               CMP      R6,#+8
   \   00000046   04D3               BCC      ??List_Paint_3
   \   00000048   2406               LSLS     R4,R4,#+24       ;; ZeroExtS R4,R4,#+24,#+24
   \   0000004A   240E               LSRS     R4,R4,#+24
   \   0000004C   0E2C               CMP      R4,#+14
   \   0000004E   00D3               BCC      ??List_Paint_3
   \   00000050   0626               MOVS     R6,#+6
   1759            if ((Rows>8) && (RowWith<=13)) Rows=7;
   \                     ??List_Paint_3:
   \   00000052   3606               LSLS     R6,R6,#+24       ;; ZeroExtS R6,R6,#+24,#+24
   \   00000054   360E               LSRS     R6,R6,#+24
   \   00000056   092E               CMP      R6,#+9
   \   00000058   04D3               BCC      ??List_Paint_4
   \   0000005A   2406               LSLS     R4,R4,#+24       ;; ZeroExtS R4,R4,#+24,#+24
   \   0000005C   240E               LSRS     R4,R4,#+24
   \   0000005E   0E2C               CMP      R4,#+14
   \   00000060   00D2               BCS      ??List_Paint_4
   \   00000062   0726               MOVS     R6,#+7
   1760            
   1761            if (FormStyle<4) 
   \                     ??List_Paint_4:
   \   00000064   2D06               LSLS     R5,R5,#+24       ;; ZeroExtS R5,R5,#+24,#+24
   \   00000066   2D0E               LSRS     R5,R5,#+24
   \   00000068   042D               CMP      R5,#+4
   \   0000006A   02D2               BCS      ??List_Paint_5
   1762            {
   1763              CleanCanvas();
   \   0000006C   ........           BL       CleanCanvas
   \   00000070   3FE0               B        ??List_Paint_6
   1764            }
   1765            else
   1766            {
   1767              //  HalfCleanCanvas();
   1768              if (FormStyle)
   \                     ??List_Paint_5:
   \   00000072   2D06               LSLS     R5,R5,#+24       ;; ZeroExtS R5,R5,#+24,#+24
   \   00000074   2D0E               LSRS     R5,R5,#+24
   \   00000076   002D               CMP      R5,#+0
   \   00000078   25D0               BEQ      ??List_Paint_7
   1769              {     
   1770                CleanCanvasArea(FormStyle-1, 127-(Y+18+(RowWith*Rows))-2, 62-2*FormStyle+4,(RowWith*Rows)+5,0);
   \   0000007A   82B0               SUB      SP,SP,#+8
   \   0000007C   0020               MOVS     R0,#+0
   \   0000007E   0090               STR      R0,[SP, #+0]
   \   00000080   2406               LSLS     R4,R4,#+24       ;; ZeroExtS R4,R4,#+24,#+24
   \   00000082   240E               LSRS     R4,R4,#+24
   \   00000084   2300               MOVS     R3,R4
   \   00000086   3606               LSLS     R6,R6,#+24       ;; ZeroExtS R6,R6,#+24,#+24
   \   00000088   360E               LSRS     R6,R6,#+24
   \   0000008A   7343               MULS     R3,R6,R3
   \   0000008C   5B1D               ADDS     R3,R3,#+5
   \   0000008E   1B06               LSLS     R3,R3,#+24       ;; ZeroExtS R3,R3,#+24,#+24
   \   00000090   1B0E               LSRS     R3,R3,#+24
   \   00000092   4220               MOVS     R0,#+66
   \   00000094   2D06               LSLS     R5,R5,#+24       ;; ZeroExtS R5,R5,#+24,#+24
   \   00000096   2D0E               LSRS     R5,R5,#+24
   \   00000098   0221               MOVS     R1,#+2
   \   0000009A   6943               MULS     R1,R5,R1
   \   0000009C   421A               SUBS     R2,R0,R1
   \   0000009E   1206               LSLS     R2,R2,#+24       ;; ZeroExtS R2,R2,#+24,#+24
   \   000000A0   120E               LSRS     R2,R2,#+24
   \   000000A2   7F20               MOVS     R0,#+127
   \   000000A4   3EA9               ADD      R1,SP,#+248
   \   000000A6   0978               LDRB     R1,[R1, #+0]
   \   000000A8   411A               SUBS     R1,R0,R1
   \   000000AA   2000               MOVS     R0,R4
   \   000000AC   7043               MULS     R0,R6,R0
   \   000000AE   081A               SUBS     R0,R1,R0
   \   000000B0   1238               SUBS     R0,R0,#+18
   \   000000B2   811E               SUBS     R1,R0,#+2
   \   000000B4   0906               LSLS     R1,R1,#+24       ;; ZeroExtS R1,R1,#+24,#+24
   \   000000B6   090E               LSRS     R1,R1,#+24
   \   000000B8   681E               SUBS     R0,R5,#+1
   \   000000BA   0006               LSLS     R0,R0,#+24       ;; ZeroExtS R0,R0,#+24,#+24
   \   000000BC   000E               LSRS     R0,R0,#+24
   \   000000BE   ........           BL       CleanCanvasArea
   \   000000C2   02B0               ADD      SP,SP,#+8
   \   000000C4   15E0               B        ??List_Paint_6
   1771              
   1772              }
   1773              else
   1774              {
   1775                CleanCanvasArea(0, 127-(18+(RowWith*Rows))+Y, 62,(RowWith*Rows),0);
   \                     ??List_Paint_7:
   \   000000C6   82B0               SUB      SP,SP,#+8
   \   000000C8   0020               MOVS     R0,#+0
   \   000000CA   0090               STR      R0,[SP, #+0]
   \   000000CC   2300               MOVS     R3,R4
   \   000000CE   7343               MULS     R3,R6,R3
   \   000000D0   1B06               LSLS     R3,R3,#+24       ;; ZeroExtS R3,R3,#+24,#+24
   \   000000D2   1B0E               LSRS     R3,R3,#+24
   \   000000D4   3E22               MOVS     R2,#+62
   \   000000D6   7F21               MOVS     R1,#+127
   \   000000D8   2000               MOVS     R0,R4
   \   000000DA   7043               MULS     R0,R6,R0
   \   000000DC   081A               SUBS     R0,R1,R0
   \   000000DE   1238               SUBS     R0,R0,#+18
   \   000000E0   3EA9               ADD      R1,SP,#+248
   \   000000E2   0978               LDRB     R1,[R1, #+0]
   \   000000E4   4118               ADDS     R1,R0,R1
   \   000000E6   0906               LSLS     R1,R1,#+24       ;; ZeroExtS R1,R1,#+24,#+24
   \   000000E8   090E               LSRS     R1,R1,#+24
   \   000000EA   0020               MOVS     R0,#+0
   \   000000EC   ........           BL       CleanCanvasArea
   \   000000F0   02B0               ADD      SP,SP,#+8
   1776          
   1777              }
   1778            }
   1779            
   1780             
   1781            
   1782           
   1783            if (FormStyle==0)
   \                     ??List_Paint_6:
   \   000000F2   2D06               LSLS     R5,R5,#+24       ;; ZeroExtS R5,R5,#+24,#+24
   \   000000F4   2D0E               LSRS     R5,R5,#+24
   \   000000F6   002D               CMP      R5,#+0
   \   000000F8   26D1               BNE      ??List_Paint_8
   1784            {
   1785            char ekran_tab[8][18] = {
   1786                            {255,1,255,255,255,255,255,255,255,255,255,255,255,255,255,255,254,252},
   1787                            {255,0,255,255,255,255,255,255,255,255,255,255,255,255,255,255,255,255},
   1788                            {255,0,255,255,255,255,255,255,255,255,255,255,255,255,255,255,255,255},
   1789                            {255,0,255,255,255,255,255,255,255,255,255,255,255,255,255,255,255,255},
   1790                            {255,0,255,255,255,255,255,255,255,255,255,255,255,255,255,255,255,255},
   1791                            {255,0,255,255,127,127,127,127,127,127,127,127,127,127,127,127,255,255},
   1792                            {255,0,255,0,254,255,251,247,111,159,159,111,247,251,255,254,0,255},
   1793                            {255,128,255,240,231,239,237,238,239,239,239,239,238,237,111,103,48,31}
   1794                            };
   \   000000FA   17A8               ADD      R0,SP,#+92
   \   000000FC   AA49               LDR      R1,??List_Paint_2+0x4  ;; `?<Constant {{255, 1, 255, 255, 255, 255, 255, `
   \   000000FE   9022               MOVS     R2,#+144
   \   00000100   ........           BL       __aeabi_memcpy4
   1795              
   1796              CopyToCanvasPoint((char *)ekran_tab,0,109-Y,64,18); 
   \   00000104   82B0               SUB      SP,SP,#+8
   \   00000106   1220               MOVS     R0,#+18
   \   00000108   0090               STR      R0,[SP, #+0]
   \   0000010A   4023               MOVS     R3,#+64
   \   0000010C   6D20               MOVS     R0,#+109
   \   0000010E   3EA9               ADD      R1,SP,#+248
   \   00000110   0978               LDRB     R1,[R1, #+0]
   \   00000112   421A               SUBS     R2,R0,R1
   \   00000114   1206               LSLS     R2,R2,#+24       ;; ZeroExtS R2,R2,#+24,#+24
   \   00000116   120E               LSRS     R2,R2,#+24
   \   00000118   0021               MOVS     R1,#+0
   \   0000011A   19A8               ADD      R0,SP,#+100
   \   0000011C   ........           BL       CopyToCanvasPoint
   \   00000120   02B0               ADD      SP,SP,#+8
   1797              Label(name,0,2,114-Y,10,42,0,127,1);  //(char *Vstring, char alig, char X, int Y, char maxChar, char clean, char minY, char maxY, char negatyw) 
   \   00000122   82B0               SUB      SP,SP,#+8
   \   00000124   0120               MOVS     R0,#+1
   \   00000126   0090               STR      R0,[SP, #+0]
   \   00000128   7F21               MOVS     R1,#+127
   \   0000012A   0020               MOVS     R0,#+0
   \   0000012C   03B4               PUSH     {R0,R1}
   \   0000012E   2A21               MOVS     R1,#+42
   \   00000130   0A20               MOVS     R0,#+10
   \   00000132   03B4               PUSH     {R0,R1}
   \   00000134   7220               MOVS     R0,#+114
   \   00000136   42A9               ADD      R1,SP,#+264
   \   00000138   0978               LDRB     R1,[R1, #+0]
   \   0000013A   431A               SUBS     R3,R0,R1
   \   0000013C   0222               MOVS     R2,#+2
   \   0000013E   0021               MOVS     R1,#+0
   \   00000140   4198               LDR      R0,[SP, #+260]
   \   00000142   ........           BL       Label
   \   00000146   06B0               ADD      SP,SP,#+24
   1798              
   1799             } 
   1800              
   1801           if (Rows>0)
   \                     ??List_Paint_8:
   \   00000148   3606               LSLS     R6,R6,#+24       ;; ZeroExtS R6,R6,#+24,#+24
   \   0000014A   360E               LSRS     R6,R6,#+24
   \   0000014C   012E               CMP      R6,#+1
   \   0000014E   00D2               BCS      .+4
   \   00000150   79E2               B        ??List_Paint_9
   1802           {
   1803              
   1804              char napis1_Y=110-Y-(RowWith/2)-5;
   \   00000152   6E20               MOVS     R0,#+110
   \   00000154   3CA9               ADD      R1,SP,#+240
   \   00000156   0978               LDRB     R1,[R1, #+0]
   \   00000158   471A               SUBS     R7,R0,R1
   \   0000015A   2406               LSLS     R4,R4,#+24       ;; ZeroExtS R4,R4,#+24,#+24
   \   0000015C   240E               LSRS     R4,R4,#+24
   \   0000015E   2000               MOVS     R0,R4
   \   00000160   0221               MOVS     R1,#+2
   \   00000162   ........           BL       __aeabi_idivmod
   \   00000166   381A               SUBS     R0,R7,R0
   \   00000168   401F               SUBS     R0,R0,#+5
   \   0000016A   6946               MOV      R1,SP
   \   0000016C   0870               STRB     R0,[R1, #+0]
   1805          
   1806              
   1807          
   1808              for (char i=0; i<=Rows-1; i++)
   \   0000016E   0027               MOVS     R7,#+0
   \   00000170   2CE0               B        ??List_Paint_10
   1809              {
   1810                 if (par[i+RowsPoz]>0)
   1811                 switch (Algin)
   1812                 {
   1813                    case 0: Label(par[i+RowsPoz],0,2+FormStyle,napis1_Y-RowWith*i,15,58-2*FormStyle,0,127,0);     break; //(char *Vstring, char alig, char X, int Y, char maxChar, char clean, char minY, char maxY, char negatyw) 
   1814                    case 1: Label(par[i+RowsPoz],0,2+FormStyle,110-Y-10-RowWith*i,15,58-2*FormStyle,0,127,0);     break; //(char *Vstring, char alig, char X, int Y, char maxChar, char clean, char minY, char maxY, char negatyw) 
   1815                    case 2: Label(par[i+RowsPoz],0,2+FormStyle,110-Y+1-RowWith*(i+1),15,58-2*FormStyle,0,127,0);  break; //(char *Vstring, char alig, char X, int Y, char maxChar, char clean, char minY, char maxY, char negatyw)   
   1816                    case 3: Label(par[i+RowsPoz],2,2+FormStyle,napis1_Y-RowWith*i,15,58-2*FormStyle,0,127,0);     break; //(char *Vstring, char alig, char X, int Y, char maxChar, char clean, char minY, char maxY, char negatyw) 
   \                     ??List_Paint_11:
   \   00000172   82B0               SUB      SP,SP,#+8
   \   00000174   0020               MOVS     R0,#+0
   \   00000176   0090               STR      R0,[SP, #+0]
   \   00000178   7F21               MOVS     R1,#+127
   \   0000017A   0020               MOVS     R0,#+0
   \   0000017C   03B4               PUSH     {R0,R1}
   \   0000017E   3A20               MOVS     R0,#+58
   \   00000180   2D06               LSLS     R5,R5,#+24       ;; ZeroExtS R5,R5,#+24,#+24
   \   00000182   2D0E               LSRS     R5,R5,#+24
   \   00000184   0221               MOVS     R1,#+2
   \   00000186   6943               MULS     R1,R5,R1
   \   00000188   411A               SUBS     R1,R0,R1
   \   0000018A   0F20               MOVS     R0,#+15
   \   0000018C   0906               LSLS     R1,R1,#+24       ;; ZeroExtS R1,R1,#+24,#+24
   \   0000018E   090E               LSRS     R1,R1,#+24
   \   00000190   03B4               PUSH     {R0,R1}
   \   00000192   06A8               ADD      R0,SP,#+24
   \   00000194   0178               LDRB     R1,[R0, #+0]
   \   00000196   2406               LSLS     R4,R4,#+24       ;; ZeroExtS R4,R4,#+24,#+24
   \   00000198   240E               LSRS     R4,R4,#+24
   \   0000019A   3F06               LSLS     R7,R7,#+24       ;; ZeroExtS R7,R7,#+24,#+24
   \   0000019C   3F0E               LSRS     R7,R7,#+24
   \   0000019E   2000               MOVS     R0,R4
   \   000001A0   7843               MULS     R0,R7,R0
   \   000001A2   0B1A               SUBS     R3,R1,R0
   \   000001A4   2A00               MOVS     R2,R5
   \   000001A6   921C               ADDS     R2,R2,#+2
   \   000001A8   1206               LSLS     R2,R2,#+24       ;; ZeroExtS R2,R2,#+24,#+24
   \   000001AA   120E               LSRS     R2,R2,#+24
   \   000001AC   0221               MOVS     R1,#+2
   \   000001AE   8C46               MOV      R12,R1
   \   000001B0   3F06               LSLS     R7,R7,#+24       ;; ZeroExtS R7,R7,#+24,#+24
   \   000001B2   3F0E               LSRS     R7,R7,#+24
   \   000001B4   7D48               LDR      R0,??List_Paint_2+0x8  ;; RowsPoz
   \   000001B6   0078               LDRB     R0,[R0, #+0]
   \   000001B8   3818               ADDS     R0,R7,R0
   \   000001BA   0421               MOVS     R1,#+4
   \   000001BC   4843               MULS     R0,R1,R0
   \   000001BE   09A9               ADD      R1,SP,#+36
   \   000001C0   0858               LDR      R0,[R1, R0]
   \   000001C2   6146               MOV      R1,R12
   \   000001C4   ........           BL       Label
   \   000001C8   06B0               ADD      SP,SP,#+24
   \                     ??List_Paint_12:
   \   000001CA   7F1C               ADDS     R7,R7,#+1
   \                     ??List_Paint_10:
   \   000001CC   3606               LSLS     R6,R6,#+24       ;; ZeroExtS R6,R6,#+24,#+24
   \   000001CE   360E               LSRS     R6,R6,#+24
   \   000001D0   701E               SUBS     R0,R6,#+1
   \   000001D2   3F06               LSLS     R7,R7,#+24       ;; ZeroExtS R7,R7,#+24,#+24
   \   000001D4   3F0E               LSRS     R7,R7,#+24
   \   000001D6   B842               CMP      R0,R7
   \   000001D8   00DA               BGE      .+4
   \   000001DA   A1E0               B        ??List_Paint_13
   \   000001DC   3F06               LSLS     R7,R7,#+24       ;; ZeroExtS R7,R7,#+24,#+24
   \   000001DE   3F0E               LSRS     R7,R7,#+24
   \   000001E0   7248               LDR      R0,??List_Paint_2+0x8  ;; RowsPoz
   \   000001E2   0078               LDRB     R0,[R0, #+0]
   \   000001E4   3818               ADDS     R0,R7,R0
   \   000001E6   0421               MOVS     R1,#+4
   \   000001E8   4843               MULS     R0,R1,R0
   \   000001EA   03A9               ADD      R1,SP,#+12
   \   000001EC   0858               LDR      R0,[R1, R0]
   \   000001EE   0028               CMP      R0,#+0
   \   000001F0   EBD0               BEQ      ??List_Paint_12
   \   000001F2   43A8               ADD      R0,SP,#+268
   \   000001F4   0078               LDRB     R0,[R0, #+0]
   \   000001F6   0028               CMP      R0,#+0
   \   000001F8   06D0               BEQ      ??List_Paint_14
   \   000001FA   0128               CMP      R0,#+1
   \   000001FC   31D0               BEQ      ??List_Paint_15
   \   000001FE   0228               CMP      R0,#+2
   \   00000200   5ED0               BEQ      ??List_Paint_16
   \   00000202   0328               CMP      R0,#+3
   \   00000204   B5D0               BEQ      ??List_Paint_11
   \   00000206   E0E7               B        ??List_Paint_12
   \                     ??List_Paint_14:
   \   00000208   82B0               SUB      SP,SP,#+8
   \   0000020A   0020               MOVS     R0,#+0
   \   0000020C   0090               STR      R0,[SP, #+0]
   \   0000020E   7F21               MOVS     R1,#+127
   \   00000210   0020               MOVS     R0,#+0
   \   00000212   03B4               PUSH     {R0,R1}
   \   00000214   3A20               MOVS     R0,#+58
   \   00000216   2D06               LSLS     R5,R5,#+24       ;; ZeroExtS R5,R5,#+24,#+24
   \   00000218   2D0E               LSRS     R5,R5,#+24
   \   0000021A   0221               MOVS     R1,#+2
   \   0000021C   6943               MULS     R1,R5,R1
   \   0000021E   411A               SUBS     R1,R0,R1
   \   00000220   0F20               MOVS     R0,#+15
   \   00000222   0906               LSLS     R1,R1,#+24       ;; ZeroExtS R1,R1,#+24,#+24
   \   00000224   090E               LSRS     R1,R1,#+24
   \   00000226   03B4               PUSH     {R0,R1}
   \   00000228   06A8               ADD      R0,SP,#+24
   \   0000022A   0178               LDRB     R1,[R0, #+0]
   \   0000022C   2406               LSLS     R4,R4,#+24       ;; ZeroExtS R4,R4,#+24,#+24
   \   0000022E   240E               LSRS     R4,R4,#+24
   \   00000230   3F06               LSLS     R7,R7,#+24       ;; ZeroExtS R7,R7,#+24,#+24
   \   00000232   3F0E               LSRS     R7,R7,#+24
   \   00000234   2000               MOVS     R0,R4
   \   00000236   7843               MULS     R0,R7,R0
   \   00000238   0B1A               SUBS     R3,R1,R0
   \   0000023A   2A00               MOVS     R2,R5
   \   0000023C   921C               ADDS     R2,R2,#+2
   \   0000023E   1206               LSLS     R2,R2,#+24       ;; ZeroExtS R2,R2,#+24,#+24
   \   00000240   120E               LSRS     R2,R2,#+24
   \   00000242   0021               MOVS     R1,#+0
   \   00000244   8C46               MOV      R12,R1
   \   00000246   3F06               LSLS     R7,R7,#+24       ;; ZeroExtS R7,R7,#+24,#+24
   \   00000248   3F0E               LSRS     R7,R7,#+24
   \   0000024A   5848               LDR      R0,??List_Paint_2+0x8  ;; RowsPoz
   \   0000024C   0078               LDRB     R0,[R0, #+0]
   \   0000024E   3818               ADDS     R0,R7,R0
   \   00000250   0421               MOVS     R1,#+4
   \   00000252   4843               MULS     R0,R1,R0
   \   00000254   09A9               ADD      R1,SP,#+36
   \   00000256   0858               LDR      R0,[R1, R0]
   \   00000258   6146               MOV      R1,R12
   \   0000025A   ........           BL       Label
   \   0000025E   06B0               ADD      SP,SP,#+24
   \   00000260   B3E7               B        ??List_Paint_12
   \                     ??List_Paint_15:
   \   00000262   82B0               SUB      SP,SP,#+8
   \   00000264   0020               MOVS     R0,#+0
   \   00000266   0090               STR      R0,[SP, #+0]
   \   00000268   7F21               MOVS     R1,#+127
   \   0000026A   0020               MOVS     R0,#+0
   \   0000026C   03B4               PUSH     {R0,R1}
   \   0000026E   3A20               MOVS     R0,#+58
   \   00000270   2D06               LSLS     R5,R5,#+24       ;; ZeroExtS R5,R5,#+24,#+24
   \   00000272   2D0E               LSRS     R5,R5,#+24
   \   00000274   0221               MOVS     R1,#+2
   \   00000276   6943               MULS     R1,R5,R1
   \   00000278   411A               SUBS     R1,R0,R1
   \   0000027A   0F20               MOVS     R0,#+15
   \   0000027C   0906               LSLS     R1,R1,#+24       ;; ZeroExtS R1,R1,#+24,#+24
   \   0000027E   090E               LSRS     R1,R1,#+24
   \   00000280   03B4               PUSH     {R0,R1}
   \   00000282   6420               MOVS     R0,#+100
   \   00000284   42A9               ADD      R1,SP,#+264
   \   00000286   0978               LDRB     R1,[R1, #+0]
   \   00000288   411A               SUBS     R1,R0,R1
   \   0000028A   2406               LSLS     R4,R4,#+24       ;; ZeroExtS R4,R4,#+24,#+24
   \   0000028C   240E               LSRS     R4,R4,#+24
   \   0000028E   3F06               LSLS     R7,R7,#+24       ;; ZeroExtS R7,R7,#+24,#+24
   \   00000290   3F0E               LSRS     R7,R7,#+24
   \   00000292   2000               MOVS     R0,R4
   \   00000294   7843               MULS     R0,R7,R0
   \   00000296   0B1A               SUBS     R3,R1,R0
   \   00000298   2A00               MOVS     R2,R5
   \   0000029A   921C               ADDS     R2,R2,#+2
   \   0000029C   1206               LSLS     R2,R2,#+24       ;; ZeroExtS R2,R2,#+24,#+24
   \   0000029E   120E               LSRS     R2,R2,#+24
   \   000002A0   0021               MOVS     R1,#+0
   \   000002A2   8C46               MOV      R12,R1
   \   000002A4   3F06               LSLS     R7,R7,#+24       ;; ZeroExtS R7,R7,#+24,#+24
   \   000002A6   3F0E               LSRS     R7,R7,#+24
   \   000002A8   4048               LDR      R0,??List_Paint_2+0x8  ;; RowsPoz
   \   000002AA   0078               LDRB     R0,[R0, #+0]
   \   000002AC   3818               ADDS     R0,R7,R0
   \   000002AE   0421               MOVS     R1,#+4
   \   000002B0   4843               MULS     R0,R1,R0
   \   000002B2   09A9               ADD      R1,SP,#+36
   \   000002B4   0858               LDR      R0,[R1, R0]
   \   000002B6   6146               MOV      R1,R12
   \   000002B8   ........           BL       Label
   \   000002BC   06B0               ADD      SP,SP,#+24
   \   000002BE   84E7               B        ??List_Paint_12
   \                     ??List_Paint_16:
   \   000002C0   82B0               SUB      SP,SP,#+8
   \   000002C2   0020               MOVS     R0,#+0
   \   000002C4   0090               STR      R0,[SP, #+0]
   \   000002C6   7F21               MOVS     R1,#+127
   \   000002C8   0020               MOVS     R0,#+0
   \   000002CA   03B4               PUSH     {R0,R1}
   \   000002CC   3A20               MOVS     R0,#+58
   \   000002CE   2D06               LSLS     R5,R5,#+24       ;; ZeroExtS R5,R5,#+24,#+24
   \   000002D0   2D0E               LSRS     R5,R5,#+24
   \   000002D2   0221               MOVS     R1,#+2
   \   000002D4   6943               MULS     R1,R5,R1
   \   000002D6   411A               SUBS     R1,R0,R1
   \   000002D8   0F20               MOVS     R0,#+15
   \   000002DA   0906               LSLS     R1,R1,#+24       ;; ZeroExtS R1,R1,#+24,#+24
   \   000002DC   090E               LSRS     R1,R1,#+24
   \   000002DE   03B4               PUSH     {R0,R1}
   \   000002E0   6F20               MOVS     R0,#+111
   \   000002E2   42A9               ADD      R1,SP,#+264
   \   000002E4   0978               LDRB     R1,[R1, #+0]
   \   000002E6   411A               SUBS     R1,R0,R1
   \   000002E8   2406               LSLS     R4,R4,#+24       ;; ZeroExtS R4,R4,#+24,#+24
   \   000002EA   240E               LSRS     R4,R4,#+24
   \   000002EC   3F06               LSLS     R7,R7,#+24       ;; ZeroExtS R7,R7,#+24,#+24
   \   000002EE   3F0E               LSRS     R7,R7,#+24
   \   000002F0   3800               MOVS     R0,R7
   \   000002F2   401C               ADDS     R0,R0,#+1
   \   000002F4   6043               MULS     R0,R4,R0
   \   000002F6   0B1A               SUBS     R3,R1,R0
   \   000002F8   2A00               MOVS     R2,R5
   \   000002FA   921C               ADDS     R2,R2,#+2
   \   000002FC   1206               LSLS     R2,R2,#+24       ;; ZeroExtS R2,R2,#+24,#+24
   \   000002FE   120E               LSRS     R2,R2,#+24
   \   00000300   0021               MOVS     R1,#+0
   \   00000302   8C46               MOV      R12,R1
   \   00000304   3F06               LSLS     R7,R7,#+24       ;; ZeroExtS R7,R7,#+24,#+24
   \   00000306   3F0E               LSRS     R7,R7,#+24
   \   00000308   2848               LDR      R0,??List_Paint_2+0x8  ;; RowsPoz
   \   0000030A   0078               LDRB     R0,[R0, #+0]
   \   0000030C   3818               ADDS     R0,R7,R0
   \   0000030E   0421               MOVS     R1,#+4
   \   00000310   4843               MULS     R0,R1,R0
   \   00000312   09A9               ADD      R1,SP,#+36
   \   00000314   0858               LDR      R0,[R1, R0]
   \   00000316   6146               MOV      R1,R12
   \   00000318   ........           BL       Label
   \   0000031C   06B0               ADD      SP,SP,#+24
   \   0000031E   54E7               B        ??List_Paint_12
   1817                 }   
   1818              }
   1819              
   1820              
   1821              if (~FormStyle) H_line(2,127-(17)-Y,54,0); 
   \                     ??List_Paint_13:
   \   00000320   0023               MOVS     R3,#+0
   \   00000322   3622               MOVS     R2,#+54
   \   00000324   6E20               MOVS     R0,#+110
   \   00000326   3CA9               ADD      R1,SP,#+240
   \   00000328   0978               LDRB     R1,[R1, #+0]
   \   0000032A   411A               SUBS     R1,R0,R1
   \   0000032C   0220               MOVS     R0,#+2
   \   0000032E   ........           BL       H_line
   1822              
   1823              V_line(62-FormStyle,127-(18+(Rows*RowWith))-Y,(Rows*RowWith),1);
   \   00000332   0123               MOVS     R3,#+1
   \   00000334   3200               MOVS     R2,R6
   \   00000336   6243               MULS     R2,R4,R2
   \   00000338   1206               LSLS     R2,R2,#+24       ;; ZeroExtS R2,R2,#+24,#+24
   \   0000033A   120E               LSRS     R2,R2,#+24
   \   0000033C   7F21               MOVS     R1,#+127
   \   0000033E   3606               LSLS     R6,R6,#+24       ;; ZeroExtS R6,R6,#+24,#+24
   \   00000340   360E               LSRS     R6,R6,#+24
   \   00000342   2406               LSLS     R4,R4,#+24       ;; ZeroExtS R4,R4,#+24,#+24
   \   00000344   240E               LSRS     R4,R4,#+24
   \   00000346   3000               MOVS     R0,R6
   \   00000348   6043               MULS     R0,R4,R0
   \   0000034A   081A               SUBS     R0,R1,R0
   \   0000034C   1238               SUBS     R0,R0,#+18
   \   0000034E   3CA9               ADD      R1,SP,#+240
   \   00000350   0978               LDRB     R1,[R1, #+0]
   \   00000352   411A               SUBS     R1,R0,R1
   \   00000354   3E20               MOVS     R0,#+62
   \   00000356   401B               SUBS     R0,R0,R5
   \   00000358   0006               LSLS     R0,R0,#+24       ;; ZeroExtS R0,R0,#+24,#+24
   \   0000035A   000E               LSRS     R0,R0,#+24
   \   0000035C   ........           BL       V_line
   1824              if (FormStyle)
   \   00000360   2D06               LSLS     R5,R5,#+24       ;; ZeroExtS R5,R5,#+24,#+24
   \   00000362   2D0E               LSRS     R5,R5,#+24
   \   00000364   002D               CMP      R5,#+0
   \   00000366   23D0               BEQ      ??List_Paint_17
   1825              {
   1826                  V_line(63-FormStyle,127-(18+(Rows*RowWith))-Y,(Rows*RowWith)-2,1);
   \   00000368   0123               MOVS     R3,#+1
   \   0000036A   3606               LSLS     R6,R6,#+24       ;; ZeroExtS R6,R6,#+24,#+24
   \   0000036C   360E               LSRS     R6,R6,#+24
   \   0000036E   3200               MOVS     R2,R6
   \   00000370   2406               LSLS     R4,R4,#+24       ;; ZeroExtS R4,R4,#+24,#+24
   \   00000372   240E               LSRS     R4,R4,#+24
   \   00000374   6243               MULS     R2,R4,R2
   \   00000376   921E               SUBS     R2,R2,#+2
   \   00000378   1206               LSLS     R2,R2,#+24       ;; ZeroExtS R2,R2,#+24,#+24
   \   0000037A   120E               LSRS     R2,R2,#+24
   \   0000037C   7F21               MOVS     R1,#+127
   \   0000037E   3606               LSLS     R6,R6,#+24       ;; ZeroExtS R6,R6,#+24,#+24
   \   00000380   360E               LSRS     R6,R6,#+24
   \   00000382   2406               LSLS     R4,R4,#+24       ;; ZeroExtS R4,R4,#+24,#+24
   \   00000384   240E               LSRS     R4,R4,#+24
   \   00000386   3000               MOVS     R0,R6
   \   00000388   6043               MULS     R0,R4,R0
   \   0000038A   081A               SUBS     R0,R1,R0
   \   0000038C   1238               SUBS     R0,R0,#+18
   \   0000038E   3CA9               ADD      R1,SP,#+240
   \   00000390   0978               LDRB     R1,[R1, #+0]
   \   00000392   411A               SUBS     R1,R0,R1
   \   00000394   3F20               MOVS     R0,#+63
   \   00000396   401B               SUBS     R0,R0,R5
   \   00000398   0006               LSLS     R0,R0,#+24       ;; ZeroExtS R0,R0,#+24,#+24
   \   0000039A   000E               LSRS     R0,R0,#+24
   \   0000039C   ........           BL       V_line
   \   000003A0   1DE0               B        ??List_Paint_18
   \   000003A2   C046               Nop      
   \                     ??List_Paint_2:
   \   000003A4   ........           DC32     RealRows
   \   000003A8   ........           DC32     `?<Constant {{255, 1, 255, 255, 255, 255, 255, `
   \   000003AC   ........           DC32     RowsPoz
   1827              }
   1828              else
   1829              {
   1830                  V_line(63-FormStyle,127-(18+(Rows*RowWith))-Y,(Rows*RowWith),1); 
   \                     ??List_Paint_17:
   \   000003B0   0123               MOVS     R3,#+1
   \   000003B2   3200               MOVS     R2,R6
   \   000003B4   6243               MULS     R2,R4,R2
   \   000003B6   1206               LSLS     R2,R2,#+24       ;; ZeroExtS R2,R2,#+24,#+24
   \   000003B8   120E               LSRS     R2,R2,#+24
   \   000003BA   7F21               MOVS     R1,#+127
   \   000003BC   3606               LSLS     R6,R6,#+24       ;; ZeroExtS R6,R6,#+24,#+24
   \   000003BE   360E               LSRS     R6,R6,#+24
   \   000003C0   2406               LSLS     R4,R4,#+24       ;; ZeroExtS R4,R4,#+24,#+24
   \   000003C2   240E               LSRS     R4,R4,#+24
   \   000003C4   3000               MOVS     R0,R6
   \   000003C6   6043               MULS     R0,R4,R0
   \   000003C8   081A               SUBS     R0,R1,R0
   \   000003CA   1238               SUBS     R0,R0,#+18
   \   000003CC   3CA9               ADD      R1,SP,#+240
   \   000003CE   0978               LDRB     R1,[R1, #+0]
   \   000003D0   411A               SUBS     R1,R0,R1
   \   000003D2   3F20               MOVS     R0,#+63
   \   000003D4   401B               SUBS     R0,R0,R5
   \   000003D6   0006               LSLS     R0,R0,#+24       ;; ZeroExtS R0,R0,#+24,#+24
   \   000003D8   000E               LSRS     R0,R0,#+24
   \   000003DA   ........           BL       V_line
   1831              }
   1832              
   1833              V_line(FormStyle,127-(18+(Rows*RowWith))-Y,(Rows*RowWith),1);
   \                     ??List_Paint_18:
   \   000003DE   0123               MOVS     R3,#+1
   \   000003E0   3200               MOVS     R2,R6
   \   000003E2   6243               MULS     R2,R4,R2
   \   000003E4   1206               LSLS     R2,R2,#+24       ;; ZeroExtS R2,R2,#+24,#+24
   \   000003E6   120E               LSRS     R2,R2,#+24
   \   000003E8   7F21               MOVS     R1,#+127
   \   000003EA   3606               LSLS     R6,R6,#+24       ;; ZeroExtS R6,R6,#+24,#+24
   \   000003EC   360E               LSRS     R6,R6,#+24
   \   000003EE   2406               LSLS     R4,R4,#+24       ;; ZeroExtS R4,R4,#+24,#+24
   \   000003F0   240E               LSRS     R4,R4,#+24
   \   000003F2   3000               MOVS     R0,R6
   \   000003F4   6043               MULS     R0,R4,R0
   \   000003F6   081A               SUBS     R0,R1,R0
   \   000003F8   1238               SUBS     R0,R0,#+18
   \   000003FA   3CA9               ADD      R1,SP,#+240
   \   000003FC   0978               LDRB     R1,[R1, #+0]
   \   000003FE   411A               SUBS     R1,R0,R1
   \   00000400   2800               MOVS     R0,R5
   \   00000402   0006               LSLS     R0,R0,#+24       ;; ZeroExtS R0,R0,#+24,#+24
   \   00000404   000E               LSRS     R0,R0,#+24
   \   00000406   ........           BL       V_line
   1834              
   1835              if (FormStyle) H_line(FormStyle,127-18-Y,63-2*FormStyle,1); 
   \   0000040A   2D06               LSLS     R5,R5,#+24       ;; ZeroExtS R5,R5,#+24,#+24
   \   0000040C   2D0E               LSRS     R5,R5,#+24
   \   0000040E   002D               CMP      R5,#+0
   \   00000410   11D0               BEQ      ??List_Paint_19
   \   00000412   0123               MOVS     R3,#+1
   \   00000414   3F20               MOVS     R0,#+63
   \   00000416   2D06               LSLS     R5,R5,#+24       ;; ZeroExtS R5,R5,#+24,#+24
   \   00000418   2D0E               LSRS     R5,R5,#+24
   \   0000041A   0221               MOVS     R1,#+2
   \   0000041C   6943               MULS     R1,R5,R1
   \   0000041E   421A               SUBS     R2,R0,R1
   \   00000420   1206               LSLS     R2,R2,#+24       ;; ZeroExtS R2,R2,#+24,#+24
   \   00000422   120E               LSRS     R2,R2,#+24
   \   00000424   6D20               MOVS     R0,#+109
   \   00000426   3CA9               ADD      R1,SP,#+240
   \   00000428   0978               LDRB     R1,[R1, #+0]
   \   0000042A   411A               SUBS     R1,R0,R1
   \   0000042C   2800               MOVS     R0,R5
   \   0000042E   0006               LSLS     R0,R0,#+24       ;; ZeroExtS R0,R0,#+24,#+24
   \   00000430   000E               LSRS     R0,R0,#+24
   \   00000432   ........           BL       H_line
   1836              
   1837              for (char i=18+RowWith; i<=18+(Rows*RowWith); i=i+RowWith)
   \                     ??List_Paint_19:
   \   00000436   2700               MOVS     R7,R4
   \   00000438   1237               ADDS     R7,R7,#+18
   \   0000043A   16E0               B        ??List_Paint_20
   1838              {
   1839                H_line(1+FormStyle,127-i-Y,61-2*FormStyle,1); 
   \                     ??List_Paint_21:
   \   0000043C   0123               MOVS     R3,#+1
   \   0000043E   3D20               MOVS     R0,#+61
   \   00000440   2D06               LSLS     R5,R5,#+24       ;; ZeroExtS R5,R5,#+24,#+24
   \   00000442   2D0E               LSRS     R5,R5,#+24
   \   00000444   0221               MOVS     R1,#+2
   \   00000446   6943               MULS     R1,R5,R1
   \   00000448   421A               SUBS     R2,R0,R1
   \   0000044A   1206               LSLS     R2,R2,#+24       ;; ZeroExtS R2,R2,#+24,#+24
   \   0000044C   120E               LSRS     R2,R2,#+24
   \   0000044E   7F20               MOVS     R0,#+127
   \   00000450   3F06               LSLS     R7,R7,#+24       ;; ZeroExtS R7,R7,#+24,#+24
   \   00000452   3F0E               LSRS     R7,R7,#+24
   \   00000454   C01B               SUBS     R0,R0,R7
   \   00000456   3CA9               ADD      R1,SP,#+240
   \   00000458   0978               LDRB     R1,[R1, #+0]
   \   0000045A   411A               SUBS     R1,R0,R1
   \   0000045C   2800               MOVS     R0,R5
   \   0000045E   401C               ADDS     R0,R0,#+1
   \   00000460   0006               LSLS     R0,R0,#+24       ;; ZeroExtS R0,R0,#+24,#+24
   \   00000462   000E               LSRS     R0,R0,#+24
   \   00000464   ........           BL       H_line
   1840              }
   \   00000468   3F19               ADDS     R7,R7,R4
   \                     ??List_Paint_20:
   \   0000046A   3606               LSLS     R6,R6,#+24       ;; ZeroExtS R6,R6,#+24,#+24
   \   0000046C   360E               LSRS     R6,R6,#+24
   \   0000046E   2406               LSLS     R4,R4,#+24       ;; ZeroExtS R4,R4,#+24,#+24
   \   00000470   240E               LSRS     R4,R4,#+24
   \   00000472   3000               MOVS     R0,R6
   \   00000474   6043               MULS     R0,R4,R0
   \   00000476   1230               ADDS     R0,R0,#+18
   \   00000478   3F06               LSLS     R7,R7,#+24       ;; ZeroExtS R7,R7,#+24,#+24
   \   0000047A   3F0E               LSRS     R7,R7,#+24
   \   0000047C   B842               CMP      R0,R7
   \   0000047E   DDDA               BGE      ??List_Paint_21
   1841              
   1842              H_line(4+FormStyle,127-(18+(Rows*RowWith))-1-Y,60-(2*FormStyle),1); 
   \   00000480   0123               MOVS     R3,#+1
   \   00000482   3C20               MOVS     R0,#+60
   \   00000484   2D06               LSLS     R5,R5,#+24       ;; ZeroExtS R5,R5,#+24,#+24
   \   00000486   2D0E               LSRS     R5,R5,#+24
   \   00000488   0221               MOVS     R1,#+2
   \   0000048A   6943               MULS     R1,R5,R1
   \   0000048C   421A               SUBS     R2,R0,R1
   \   0000048E   1206               LSLS     R2,R2,#+24       ;; ZeroExtS R2,R2,#+24,#+24
   \   00000490   120E               LSRS     R2,R2,#+24
   \   00000492   7F21               MOVS     R1,#+127
   \   00000494   3606               LSLS     R6,R6,#+24       ;; ZeroExtS R6,R6,#+24,#+24
   \   00000496   360E               LSRS     R6,R6,#+24
   \   00000498   2406               LSLS     R4,R4,#+24       ;; ZeroExtS R4,R4,#+24,#+24
   \   0000049A   240E               LSRS     R4,R4,#+24
   \   0000049C   3000               MOVS     R0,R6
   \   0000049E   6043               MULS     R0,R4,R0
   \   000004A0   081A               SUBS     R0,R1,R0
   \   000004A2   1238               SUBS     R0,R0,#+18
   \   000004A4   401E               SUBS     R0,R0,#+1
   \   000004A6   3CA9               ADD      R1,SP,#+240
   \   000004A8   0978               LDRB     R1,[R1, #+0]
   \   000004AA   411A               SUBS     R1,R0,R1
   \   000004AC   2D1D               ADDS     R5,R5,#+4
   \   000004AE   2800               MOVS     R0,R5
   \   000004B0   0006               LSLS     R0,R0,#+24       ;; ZeroExtS R0,R0,#+24,#+24
   \   000004B2   000E               LSRS     R0,R0,#+24
   \   000004B4   ........           BL       H_line
   1843            
   1844           
   1845              if (RealRows!=Rows) //je¿eli wiêcej pozycji ni¿ na ekranie
   \   000004B8   7448               LDR      R0,??List_Paint_22  ;; RealRows
   \   000004BA   0078               LDRB     R0,[R0, #+0]
   \   000004BC   3606               LSLS     R6,R6,#+24       ;; ZeroExtS R6,R6,#+24,#+24
   \   000004BE   360E               LSRS     R6,R6,#+24
   \   000004C0   B042               CMP      R0,R6
   \   000004C2   7DD0               BEQ      ??List_Paint_23
   1846              {
   1847                 char LabelButt1[2], LabelButt2[2];
   1848                 LabelButt1[1]=0; LabelButt2[1]=0;  //LabelButt1 -góra, LabelButt2-dó³
   \   000004C4   02A8               ADD      R0,SP,#+8
   \   000004C6   0021               MOVS     R1,#+0
   \   000004C8   4170               STRB     R1,[R0, #+1]
   \   000004CA   01A8               ADD      R0,SP,#+4
   \   000004CC   0021               MOVS     R1,#+0
   \   000004CE   4170               STRB     R1,[R0, #+1]
   1849                 LabelButt1[0]=30; LabelButt2[0]=31;
   \   000004D0   6846               MOV      R0,SP
   \   000004D2   1E21               MOVS     R1,#+30
   \   000004D4   0172               STRB     R1,[R0, #+8]
   \   000004D6   6846               MOV      R0,SP
   \   000004D8   1F21               MOVS     R1,#+31
   \   000004DA   0171               STRB     R1,[R0, #+4]
   1850                 
   1851                 if (RowsPoz==0)
   \   000004DC   6C48               LDR      R0,??List_Paint_22+0x4  ;; RowsPoz
   \   000004DE   0078               LDRB     R0,[R0, #+0]
   \   000004E0   0028               CMP      R0,#+0
   \   000004E2   14D1               BNE      ??List_Paint_24
   1852                 {
   1853                    Button(LabelButt2,0,127-(18+(Rows*RowWith))-1-Y-15,64,16); //(etykieta char poz_X , char poz_Y ,char width, char height) 
   \   000004E4   82B0               SUB      SP,SP,#+8
   \   000004E6   1020               MOVS     R0,#+16
   \   000004E8   0090               STR      R0,[SP, #+0]
   \   000004EA   4023               MOVS     R3,#+64
   \   000004EC   7F21               MOVS     R1,#+127
   \   000004EE   3000               MOVS     R0,R6
   \   000004F0   6043               MULS     R0,R4,R0
   \   000004F2   081A               SUBS     R0,R1,R0
   \   000004F4   1238               SUBS     R0,R0,#+18
   \   000004F6   401E               SUBS     R0,R0,#+1
   \   000004F8   3EA9               ADD      R1,SP,#+248
   \   000004FA   0978               LDRB     R1,[R1, #+0]
   \   000004FC   421A               SUBS     R2,R0,R1
   \   000004FE   0F3A               SUBS     R2,R2,#+15
   \   00000500   1206               LSLS     R2,R2,#+24       ;; ZeroExtS R2,R2,#+24,#+24
   \   00000502   120E               LSRS     R2,R2,#+24
   \   00000504   0021               MOVS     R1,#+0
   \   00000506   03A8               ADD      R0,SP,#+12
   \   00000508   ........           BL       Button
   \   0000050C   02B0               ADD      SP,SP,#+8
   1854                 } 
   1855                 if ((RowsPoz>0) && (RowsPoz<RealRows-Rows))
   \                     ??List_Paint_24:
   \   0000050E   6048               LDR      R0,??List_Paint_22+0x4  ;; RowsPoz
   \   00000510   0078               LDRB     R0,[R0, #+0]
   \   00000512   0128               CMP      R0,#+1
   \   00000514   32D3               BCC      ??List_Paint_25
   \   00000516   5E48               LDR      R0,??List_Paint_22+0x4  ;; RowsPoz
   \   00000518   0078               LDRB     R0,[R0, #+0]
   \   0000051A   5C49               LDR      R1,??List_Paint_22  ;; RealRows
   \   0000051C   0978               LDRB     R1,[R1, #+0]
   \   0000051E   3606               LSLS     R6,R6,#+24       ;; ZeroExtS R6,R6,#+24,#+24
   \   00000520   360E               LSRS     R6,R6,#+24
   \   00000522   891B               SUBS     R1,R1,R6
   \   00000524   8842               CMP      R0,R1
   \   00000526   29DA               BGE      ??List_Paint_25
   1856                 {
   1857                   Button(LabelButt1,0,127-(18+(Rows*RowWith))-1-Y-15,32,16); //(etykieta ,char poz_X , char poz_Y ,char width, char height)
   \   00000528   82B0               SUB      SP,SP,#+8
   \   0000052A   1020               MOVS     R0,#+16
   \   0000052C   0090               STR      R0,[SP, #+0]
   \   0000052E   2023               MOVS     R3,#+32
   \   00000530   7F21               MOVS     R1,#+127
   \   00000532   3000               MOVS     R0,R6
   \   00000534   6043               MULS     R0,R4,R0
   \   00000536   081A               SUBS     R0,R1,R0
   \   00000538   1238               SUBS     R0,R0,#+18
   \   0000053A   401E               SUBS     R0,R0,#+1
   \   0000053C   3EA9               ADD      R1,SP,#+248
   \   0000053E   0978               LDRB     R1,[R1, #+0]
   \   00000540   421A               SUBS     R2,R0,R1
   \   00000542   0F3A               SUBS     R2,R2,#+15
   \   00000544   1206               LSLS     R2,R2,#+24       ;; ZeroExtS R2,R2,#+24,#+24
   \   00000546   120E               LSRS     R2,R2,#+24
   \   00000548   0021               MOVS     R1,#+0
   \   0000054A   04A8               ADD      R0,SP,#+16
   \   0000054C   ........           BL       Button
   \   00000550   02B0               ADD      SP,SP,#+8
   1858                   Button(LabelButt2,32,127-(18+(Rows*RowWith))-1-Y-15,32,16); //(etykieta char poz_X , char poz_Y ,char width, char height) 
   \   00000552   82B0               SUB      SP,SP,#+8
   \   00000554   1020               MOVS     R0,#+16
   \   00000556   0090               STR      R0,[SP, #+0]
   \   00000558   2023               MOVS     R3,#+32
   \   0000055A   7F21               MOVS     R1,#+127
   \   0000055C   3000               MOVS     R0,R6
   \   0000055E   6043               MULS     R0,R4,R0
   \   00000560   081A               SUBS     R0,R1,R0
   \   00000562   1238               SUBS     R0,R0,#+18
   \   00000564   401E               SUBS     R0,R0,#+1
   \   00000566   3EA9               ADD      R1,SP,#+248
   \   00000568   0978               LDRB     R1,[R1, #+0]
   \   0000056A   421A               SUBS     R2,R0,R1
   \   0000056C   0F3A               SUBS     R2,R2,#+15
   \   0000056E   1206               LSLS     R2,R2,#+24       ;; ZeroExtS R2,R2,#+24,#+24
   \   00000570   120E               LSRS     R2,R2,#+24
   \   00000572   2021               MOVS     R1,#+32
   \   00000574   03A8               ADD      R0,SP,#+12
   \   00000576   ........           BL       Button
   \   0000057A   02B0               ADD      SP,SP,#+8
   1859                 }
   1860                 if ((RowsPoz>0) && (RowsPoz>=RealRows-Rows))
   \                     ??List_Paint_25:
   \   0000057C   4448               LDR      R0,??List_Paint_22+0x4  ;; RowsPoz
   \   0000057E   0078               LDRB     R0,[R0, #+0]
   \   00000580   0128               CMP      R0,#+1
   \   00000582   1DD3               BCC      ??List_Paint_23
   \   00000584   4248               LDR      R0,??List_Paint_22+0x4  ;; RowsPoz
   \   00000586   0078               LDRB     R0,[R0, #+0]
   \   00000588   4049               LDR      R1,??List_Paint_22  ;; RealRows
   \   0000058A   0978               LDRB     R1,[R1, #+0]
   \   0000058C   3606               LSLS     R6,R6,#+24       ;; ZeroExtS R6,R6,#+24,#+24
   \   0000058E   360E               LSRS     R6,R6,#+24
   \   00000590   891B               SUBS     R1,R1,R6
   \   00000592   8842               CMP      R0,R1
   \   00000594   14DB               BLT      ??List_Paint_23
   1861                 {
   1862                   Button(LabelButt1,0,127-(18+(Rows*RowWith))-1-Y-15,64,16); //(etykieta ,char poz_X , char poz_Y ,char width, char height)
   \   00000596   82B0               SUB      SP,SP,#+8
   \   00000598   1020               MOVS     R0,#+16
   \   0000059A   0090               STR      R0,[SP, #+0]
   \   0000059C   4023               MOVS     R3,#+64
   \   0000059E   7F21               MOVS     R1,#+127
   \   000005A0   3000               MOVS     R0,R6
   \   000005A2   6043               MULS     R0,R4,R0
   \   000005A4   081A               SUBS     R0,R1,R0
   \   000005A6   1238               SUBS     R0,R0,#+18
   \   000005A8   401E               SUBS     R0,R0,#+1
   \   000005AA   3EA9               ADD      R1,SP,#+248
   \   000005AC   0978               LDRB     R1,[R1, #+0]
   \   000005AE   421A               SUBS     R2,R0,R1
   \   000005B0   0F3A               SUBS     R2,R2,#+15
   \   000005B2   1206               LSLS     R2,R2,#+24       ;; ZeroExtS R2,R2,#+24,#+24
   \   000005B4   120E               LSRS     R2,R2,#+24
   \   000005B6   0021               MOVS     R1,#+0
   \   000005B8   04A8               ADD      R0,SP,#+16
   \   000005BA   ........           BL       Button
   \   000005BE   02B0               ADD      SP,SP,#+8
   1863                 }
   1864                 
   1865                
   1866              }
   1867              
   1868              
   1869              
   1870              //bar poziomy
   1871              if (RealRows!=Rows)
   \                     ??List_Paint_23:
   \   000005C0   3248               LDR      R0,??List_Paint_22  ;; RealRows
   \   000005C2   0078               LDRB     R0,[R0, #+0]
   \   000005C4   3606               LSLS     R6,R6,#+24       ;; ZeroExtS R6,R6,#+24,#+24
   \   000005C6   360E               LSRS     R6,R6,#+24
   \   000005C8   B042               CMP      R0,R6
   \   000005CA   5AD0               BEQ      ??List_Paint_26
   1872              {
   1873                 char MaxPoz = 127-19;
   \   000005CC   6846               MOV      R0,SP
   \   000005CE   6C21               MOVS     R1,#+108
   \   000005D0   0170               STRB     R1,[R0, #+0]
   1874                 char MinPoz = 127-(18+(Rows*RowWith))-1-Y+2;
   \   000005D2   7F20               MOVS     R0,#+127
   \   000005D4   7443               MULS     R4,R6,R4
   \   000005D6   001B               SUBS     R0,R0,R4
   \   000005D8   1238               SUBS     R0,R0,#+18
   \   000005DA   401E               SUBS     R0,R0,#+1
   \   000005DC   3CA9               ADD      R1,SP,#+240
   \   000005DE   0978               LDRB     R1,[R1, #+0]
   \   000005E0   441A               SUBS     R4,R0,R1
   \   000005E2   A41C               ADDS     R4,R4,#+2
   1875                 char Zakres =MaxPoz-MinPoz;
   \   000005E4   6846               MOV      R0,SP
   \   000005E6   0078               LDRB     R0,[R0, #+0]
   \   000005E8   051B               SUBS     R5,R0,R4
   1876                 char DlOdc=RealRows-Rows;
   \   000005EA   2848               LDR      R0,??List_Paint_22  ;; RealRows
   \   000005EC   0078               LDRB     R0,[R0, #+0]
   \   000005EE   871B               SUBS     R7,R0,R6
   1877                 DlOdc=RealRows-Rows+1;
   \   000005F0   2648               LDR      R0,??List_Paint_22  ;; RealRows
   \   000005F2   0078               LDRB     R0,[R0, #+0]
   \   000005F4   801B               SUBS     R0,R0,R6
   \   000005F6   401C               ADDS     R0,R0,#+1
   \   000005F8   0700               MOVS     R7,R0
   1878                 DlOdc=Zakres/DlOdc;
   \   000005FA   2D06               LSLS     R5,R5,#+24       ;; ZeroExtS R5,R5,#+24,#+24
   \   000005FC   2D0E               LSRS     R5,R5,#+24
   \   000005FE   2800               MOVS     R0,R5
   \   00000600   3F06               LSLS     R7,R7,#+24       ;; ZeroExtS R7,R7,#+24,#+24
   \   00000602   3F0E               LSRS     R7,R7,#+24
   \   00000604   3900               MOVS     R1,R7
   \   00000606   ........           BL       __aeabi_idivmod
   \   0000060A   0700               MOVS     R7,R0
   1879                 char poz=RowsPoz*DlOdc;
   \   0000060C   2048               LDR      R0,??List_Paint_22+0x4  ;; RowsPoz
   \   0000060E   0678               LDRB     R6,[R0, #+0]
   \   00000610   7E43               MULS     R6,R7,R6
   1880                 poz=MaxPoz-poz-DlOdc;
   \   00000612   6846               MOV      R0,SP
   \   00000614   0078               LDRB     R0,[R0, #+0]
   \   00000616   801B               SUBS     R0,R0,R6
   \   00000618   C61B               SUBS     R6,R0,R7
   1881                 V_line (61, MinPoz,Zakres+1, 1);  //V_line (char X, int Y, char lenght, char typ) 
   \   0000061A   0123               MOVS     R3,#+1
   \   0000061C   6D1C               ADDS     R5,R5,#+1
   \   0000061E   2A00               MOVS     R2,R5
   \   00000620   1206               LSLS     R2,R2,#+24       ;; ZeroExtS R2,R2,#+24,#+24
   \   00000622   120E               LSRS     R2,R2,#+24
   \   00000624   2406               LSLS     R4,R4,#+24       ;; ZeroExtS R4,R4,#+24,#+24
   \   00000626   240E               LSRS     R4,R4,#+24
   \   00000628   2100               MOVS     R1,R4
   \   0000062A   3D20               MOVS     R0,#+61
   \   0000062C   ........           BL       V_line
   1882                 V_line (62, poz,DlOdc, 0);  //V_line (char X, int Y, char lenght, char typ) 
   \   00000630   0023               MOVS     R3,#+0
   \   00000632   3A00               MOVS     R2,R7
   \   00000634   1206               LSLS     R2,R2,#+24       ;; ZeroExtS R2,R2,#+24,#+24
   \   00000636   120E               LSRS     R2,R2,#+24
   \   00000638   3606               LSLS     R6,R6,#+24       ;; ZeroExtS R6,R6,#+24,#+24
   \   0000063A   360E               LSRS     R6,R6,#+24
   \   0000063C   3100               MOVS     R1,R6
   \   0000063E   3E20               MOVS     R0,#+62
   \   00000640   ........           BL       V_line
   \   00000644   1DE0               B        ??List_Paint_26
   1883              }
   1884              
   1885           }else{
   1886             V_line(0,1,115,1); 
   \                     ??List_Paint_9:
   \   00000646   0123               MOVS     R3,#+1
   \   00000648   7322               MOVS     R2,#+115
   \   0000064A   0121               MOVS     R1,#+1
   \   0000064C   0020               MOVS     R0,#+0
   \   0000064E   ........           BL       V_line
   1887             V_line(63,0,115,1);
   \   00000652   0123               MOVS     R3,#+1
   \   00000654   7322               MOVS     R2,#+115
   \   00000656   0021               MOVS     R1,#+0
   \   00000658   3F20               MOVS     R0,#+63
   \   0000065A   ........           BL       V_line
   1888             V_line(62,0,115,1);
   \   0000065E   0123               MOVS     R3,#+1
   \   00000660   7322               MOVS     R2,#+115
   \   00000662   0021               MOVS     R1,#+0
   \   00000664   3E20               MOVS     R0,#+62
   \   00000666   ........           BL       V_line
   1889             H_line(0,1,63,1);
   \   0000066A   0123               MOVS     R3,#+1
   \   0000066C   3F22               MOVS     R2,#+63
   \   0000066E   0121               MOVS     R1,#+1
   \   00000670   0020               MOVS     R0,#+0
   \   00000672   ........           BL       H_line
   1890             H_line(4,0,59,1);
   \   00000676   0123               MOVS     R3,#+1
   \   00000678   3B22               MOVS     R2,#+59
   \   0000067A   0021               MOVS     R1,#+0
   \   0000067C   0420               MOVS     R0,#+4
   \   0000067E   ........           BL       H_line
   1891           }
   1892              
   1893          }//_______________________ Koniec funkcji List_Paint __________________________
   \                     ??List_Paint_26:
   \   00000682   3DB0               ADD      SP,SP,#+244
   \   00000684   F0BC               POP      {R4-R7}
   \   00000686   01BC               POP      {R0}
   \   00000688   0047               BX       R0               ;; return
   \   0000068A   C046               Nop      
   \                     ??List_Paint_22:
   \   0000068C   ........           DC32     RealRows
   \   00000690   ........           DC32     RowsPoz
   1894          
   1895          
   1896          
   1897              
   1898          
   1899          
   1900          
   1901          
   1902          
   1903          //*-----------------------------------------------------------------------------
   1904          //* Nazwa funkcji :    List_Event
   1905          //* Funkcja rysowania listy
   1906          //*-----------------------------------------------------------------------------
   1907          //* name[7]   -  Nazwa listy
   1908          //* Rows      -  ilosc wierszy
   1909          //* RowWith   -  szerokosc wiersza
   1910          //* Y         -  odsuniecie od górnej krawêdzi
   1911          //* p1...p8   - nazwy kolejnych pól
   1912          //*-----------------------------------------------------------------------------
   1913          

   \                                 In section Debug.txt, align 4, keep-with-next
   1914          int List_Event(int X_up, int Y_up, int X_down, int Y_down, char Rows, char RowWith, char FormStyle, char Y)
   1915          {
   \                     List_Event:
   \   00000000   FFB5               PUSH     {R0-R7,LR}
   \   00000002   85B0               SUB      SP,SP,#+20
   \   00000004   0EA8               ADD      R0,SP,#+56
   \   00000006   0478               LDRB     R4,[R0, #+0]
   \   00000008   0FA8               ADD      R0,SP,#+60
   \   0000000A   0578               LDRB     R5,[R0, #+0]
   \   0000000C   11A8               ADD      R0,SP,#+68
   \   0000000E   0678               LDRB     R6,[R0, #+0]
   1916            static char SelectRow; 
   1917            char podswietl=0;
   \   00000010   6846               MOV      R0,SP
   \   00000012   0021               MOVS     R1,#+0
   \   00000014   0170               STRB     R1,[R0, #+0]
   1918            int ans = 0;
   \   00000016   0020               MOVS     R0,#+0
   \   00000018   0190               STR      R0,[SP, #+4]
   1919            char AnsDown;
   1920             static char DownAction=0;
   1921          char Y_up_tmp=127-Y_up;
   \   0000001A   6846               MOV      R0,SP
   \   0000001C   7F21               MOVS     R1,#+127
   \   0000001E   069A               LDR      R2,[SP, #+24]
   \   00000020   891A               SUBS     R1,R1,R2
   \   00000022   4170               STRB     R1,[R0, #+1]
   1922          
   1923              static char Xdown=0;
   1924          
   1925            //zdarzenie typu down "X"
   1926              if ((FormStyle==0) && (X_down>46) && (X_down<63) && (Y_down>112-Y) && (Y_down<127-Y))    //"X"
   \   00000024   10A8               ADD      R0,SP,#+64
   \   00000026   0078               LDRB     R0,[R0, #+0]
   \   00000028   0028               CMP      R0,#+0
   \   0000002A   58D1               BNE      ??List_Event_0
   \   0000002C   0798               LDR      R0,[SP, #+28]
   \   0000002E   2F28               CMP      R0,#+47
   \   00000030   55DB               BLT      ??List_Event_0
   \   00000032   0798               LDR      R0,[SP, #+28]
   \   00000034   3F28               CMP      R0,#+63
   \   00000036   52DA               BGE      ??List_Event_0
   \   00000038   7020               MOVS     R0,#+112
   \   0000003A   3606               LSLS     R6,R6,#+24       ;; ZeroExtS R6,R6,#+24,#+24
   \   0000003C   360E               LSRS     R6,R6,#+24
   \   0000003E   801B               SUBS     R0,R0,R6
   \   00000040   0899               LDR      R1,[SP, #+32]
   \   00000042   8842               CMP      R0,R1
   \   00000044   4BDA               BGE      ??List_Event_0
   \   00000046   0898               LDR      R0,[SP, #+32]
   \   00000048   7F21               MOVS     R1,#+127
   \   0000004A   3606               LSLS     R6,R6,#+24       ;; ZeroExtS R6,R6,#+24,#+24
   \   0000004C   360E               LSRS     R6,R6,#+24
   \   0000004E   891B               SUBS     R1,R1,R6
   \   00000050   8842               CMP      R0,R1
   \   00000052   44DA               BGE      ??List_Event_0
   1927              {
   1928                MenuPaint();
                       ^
Warning[Pe223]: function "MenuPaint" declared implicitly
   \   00000054   ........           BL       MenuPaint
   1929                H_line(49,114-Y,10,0);
   \   00000058   0023               MOVS     R3,#+0
   \   0000005A   0A22               MOVS     R2,#+10
   \   0000005C   7220               MOVS     R0,#+114
   \   0000005E   3606               LSLS     R6,R6,#+24       ;; ZeroExtS R6,R6,#+24,#+24
   \   00000060   360E               LSRS     R6,R6,#+24
   \   00000062   811B               SUBS     R1,R0,R6
   \   00000064   3120               MOVS     R0,#+49
   \   00000066   ........           BL       H_line
   1930                H_line(49,123-Y,10,0); 
   \   0000006A   0023               MOVS     R3,#+0
   \   0000006C   0A22               MOVS     R2,#+10
   \   0000006E   7B20               MOVS     R0,#+123
   \   00000070   3606               LSLS     R6,R6,#+24       ;; ZeroExtS R6,R6,#+24,#+24
   \   00000072   360E               LSRS     R6,R6,#+24
   \   00000074   811B               SUBS     R1,R0,R6
   \   00000076   3120               MOVS     R0,#+49
   \   00000078   ........           BL       H_line
   1931                V_line(49,114-Y,10,0); 
   \   0000007C   0023               MOVS     R3,#+0
   \   0000007E   0A22               MOVS     R2,#+10
   \   00000080   7220               MOVS     R0,#+114
   \   00000082   3606               LSLS     R6,R6,#+24       ;; ZeroExtS R6,R6,#+24,#+24
   \   00000084   360E               LSRS     R6,R6,#+24
   \   00000086   811B               SUBS     R1,R0,R6
   \   00000088   3120               MOVS     R0,#+49
   \   0000008A   ........           BL       V_line
   1932                V_line(58,114-Y,10,0); 
   \   0000008E   0023               MOVS     R3,#+0
   \   00000090   0A22               MOVS     R2,#+10
   \   00000092   7220               MOVS     R0,#+114
   \   00000094   3606               LSLS     R6,R6,#+24       ;; ZeroExtS R6,R6,#+24,#+24
   \   00000096   360E               LSRS     R6,R6,#+24
   \   00000098   811B               SUBS     R1,R0,R6
   \   0000009A   3A20               MOVS     R0,#+58
   \   0000009C   ........           BL       V_line
   1933                podswietl=1;
   \   000000A0   6846               MOV      R0,SP
   \   000000A2   0121               MOVS     R1,#+1
   \   000000A4   0170               STRB     R1,[R0, #+0]
   1934          
   1935                DownAction=1;
   \   000000A6   C848               LDR      R0,??List_Event_1  ;; ??DownAction
   \   000000A8   0121               MOVS     R1,#+1
   \   000000AA   0170               STRB     R1,[R0, #+0]
   1936                AnsDown=0xFF;
   \   000000AC   FF27               MOVS     R7,#+255
   1937                
   1938                if ((!(AT91C_IFLASH_MEM->Config.SoundOff)) && (Xdown==0)) {
   \   000000AE   C748               LDR      R0,??List_Event_1+0x4  ;; 0x13d7e9
   \   000000B0   0078               LDRB     R0,[R0, #+0]
   \   000000B2   C749               LDR      R1,??List_Event_1+0x8  ;; ??Xdown
   \   000000B4   0978               LDRB     R1,[R1, #+0]
   \   000000B6   0143               ORRS     R1,R1,R0
   \   000000B8   0906               LSLS     R1,R1,#+24       ;; ZeroExtS R1,R1,#+24,#+24
   \   000000BA   090E               LSRS     R1,R1,#+24
   \   000000BC   0029               CMP      R1,#+0
   \   000000BE   0BD1               BNE      ??List_Event_2
   1939                  ButtonBipCounter=g_counter+8;
   \   000000C0   C44A               LDR      R2,??List_Event_1+0xC  ;; ButtonBipCounter
   \   000000C2   C548               LDR      R0,??List_Event_1+0x10  ;; g_counter
   \   000000C4   03C8               LDM      R0!,{R0,R1}
   \   000000C6   0023               MOVS     R3,#+0
   \   000000C8   0830               ADDS     R0,R0,#+8
   \   000000CA   5941               ADCS     R1,R1,R3
   \   000000CC   03C2               STM      R2!,{R0,R1}
   \   000000CE   083A               SUBS     R2,R2,#+8
   1940                    AT91C_BASE_PIOA->PIO_SODR =SpeakerPin;
                                                      ^
Warning[Pe068]: integer conversion resulted in a change of sign
   \   000000D0   C248               LDR      R0,??List_Event_1+0x14  ;; 0xfffff430
   \   000000D2   8021               MOVS     R1,#+128
   \   000000D4   0906               LSLS     R1,R1,#+24       ;; #-2147483648
   \   000000D6   0160               STR      R1,[R0, #+0]
   1941                  } 
   1942                Xdown=1;
   \                     ??List_Event_2:
   \   000000D8   BD48               LDR      R0,??List_Event_1+0x8  ;; ??Xdown
   \   000000DA   0121               MOVS     R1,#+1
   \   000000DC   0170               STRB     R1,[R0, #+0]
   1943                
   1944              }
   1945            
   1946              
   1947              if ((FormStyle==0) && (X_up>46) && (X_up<63) && (Y_up>112-Y) && (Y_up<127-Y))                    //"X"
   \                     ??List_Event_0:
   \   000000DE   10A8               ADD      R0,SP,#+64
   \   000000E0   0078               LDRB     R0,[R0, #+0]
   \   000000E2   0028               CMP      R0,#+0
   \   000000E4   32D1               BNE      ??List_Event_3
   \   000000E6   0598               LDR      R0,[SP, #+20]
   \   000000E8   2F28               CMP      R0,#+47
   \   000000EA   2FDB               BLT      ??List_Event_3
   \   000000EC   0598               LDR      R0,[SP, #+20]
   \   000000EE   3F28               CMP      R0,#+63
   \   000000F0   2CDA               BGE      ??List_Event_3
   \   000000F2   7020               MOVS     R0,#+112
   \   000000F4   3606               LSLS     R6,R6,#+24       ;; ZeroExtS R6,R6,#+24,#+24
   \   000000F6   360E               LSRS     R6,R6,#+24
   \   000000F8   801B               SUBS     R0,R0,R6
   \   000000FA   0699               LDR      R1,[SP, #+24]
   \   000000FC   8842               CMP      R0,R1
   \   000000FE   25DA               BGE      ??List_Event_3
   \   00000100   0698               LDR      R0,[SP, #+24]
   \   00000102   7F21               MOVS     R1,#+127
   \   00000104   3606               LSLS     R6,R6,#+24       ;; ZeroExtS R6,R6,#+24,#+24
   \   00000106   360E               LSRS     R6,R6,#+24
   \   00000108   891B               SUBS     R1,R1,R6
   \   0000010A   8842               CMP      R0,R1
   \   0000010C   1EDA               BGE      ??List_Event_3
   1948              {
   1949                RowsPoz=0;
   \   0000010E   B448               LDR      R0,??List_Event_1+0x18  ;; RowsPoz
   \   00000110   0021               MOVS     R1,#+0
   \   00000112   0170               STRB     R1,[R0, #+0]
   1950                ans = -1;
   \   00000114   0020               MOVS     R0,#+0
   \   00000116   C043               MVNS     R0,R0            ;; #-1
   \   00000118   0190               STR      R0,[SP, #+4]
   1951                      if ((!(AT91C_IFLASH_MEM->Config.SoundOff)) && (Xdown==1)) 
   \   0000011A   AC48               LDR      R0,??List_Event_1+0x4  ;; 0x13d7e9
   \   0000011C   0078               LDRB     R0,[R0, #+0]
   \   0000011E   0006               LSLS     R0,R0,#+24       ;; ZeroExtS R0,R0,#+24,#+24
   \   00000120   000E               LSRS     R0,R0,#+24
   \   00000122   0028               CMP      R0,#+0
   \   00000124   0FD1               BNE      ??List_Event_4
   \   00000126   AA48               LDR      R0,??List_Event_1+0x8  ;; ??Xdown
   \   00000128   0078               LDRB     R0,[R0, #+0]
   \   0000012A   0128               CMP      R0,#+1
   \   0000012C   0BD1               BNE      ??List_Event_4
   1952                      {
   1953                        ButtonBipCounter=g_counter+8;
   \   0000012E   A94A               LDR      R2,??List_Event_1+0xC  ;; ButtonBipCounter
   \   00000130   A948               LDR      R0,??List_Event_1+0x10  ;; g_counter
   \   00000132   03C8               LDM      R0!,{R0,R1}
   \   00000134   0023               MOVS     R3,#+0
   \   00000136   0830               ADDS     R0,R0,#+8
   \   00000138   5941               ADCS     R1,R1,R3
   \   0000013A   03C2               STM      R2!,{R0,R1}
   \   0000013C   083A               SUBS     R2,R2,#+8
   1954                        AT91C_BASE_PIOA->PIO_SODR =SpeakerPin;
                                                          ^
Warning[Pe068]: integer conversion resulted in a change of sign
   \   0000013E   A748               LDR      R0,??List_Event_1+0x14  ;; 0xfffff430
   \   00000140   8021               MOVS     R1,#+128
   \   00000142   0906               LSLS     R1,R1,#+24       ;; #-2147483648
   \   00000144   0160               STR      R1,[R0, #+0]
   1955                      } 
   1956                      Xdown=0;
   \                     ??List_Event_4:
   \   00000146   A248               LDR      R0,??List_Event_1+0x8  ;; ??Xdown
   \   00000148   0021               MOVS     R1,#+0
   \   0000014A   0170               STRB     R1,[R0, #+0]
   1957              }  
   1958          
   1959              
   1960              if (Rows>0)
   \                     ??List_Event_3:
   \   0000014C   2406               LSLS     R4,R4,#+24       ;; ZeroExtS R4,R4,#+24,#+24
   \   0000014E   240E               LSRS     R4,R4,#+24
   \   00000150   012C               CMP      R4,#+1
   \   00000152   00D2               BCS      .+4
   \   00000154   74E2               B        ??List_Event_5
   1961              {
   1962          
   1963          
   1964              if ((Rows>7) && (RowWith>13)) Rows=6;
   \   00000156   2406               LSLS     R4,R4,#+24       ;; ZeroExtS R4,R4,#+24,#+24
   \   00000158   240E               LSRS     R4,R4,#+24
   \   0000015A   082C               CMP      R4,#+8
   \   0000015C   04D3               BCC      ??List_Event_6
   \   0000015E   2D06               LSLS     R5,R5,#+24       ;; ZeroExtS R5,R5,#+24,#+24
   \   00000160   2D0E               LSRS     R5,R5,#+24
   \   00000162   0E2D               CMP      R5,#+14
   \   00000164   00D3               BCC      ??List_Event_6
   \   00000166   0624               MOVS     R4,#+6
   1965              if ((Rows>8) && (RowWith<=13)) Rows=7;
   \                     ??List_Event_6:
   \   00000168   2406               LSLS     R4,R4,#+24       ;; ZeroExtS R4,R4,#+24,#+24
   \   0000016A   240E               LSRS     R4,R4,#+24
   \   0000016C   092C               CMP      R4,#+9
   \   0000016E   04D3               BCC      ??List_Event_7
   \   00000170   2D06               LSLS     R5,R5,#+24       ;; ZeroExtS R5,R5,#+24,#+24
   \   00000172   2D0E               LSRS     R5,R5,#+24
   \   00000174   0E2D               CMP      R5,#+14
   \   00000176   00D2               BCS      ??List_Event_7
   \   00000178   0724               MOVS     R4,#+7
   1966          
   1967            //zdarzenie typu down
   1968              if ((X_down>FormStyle) && (X_down<63-FormStyle) && (Y_down>127-(17+(Rows*RowWith))-Y) && (Y_down<127-(17)-Y) && (RowWith))   
   \                     ??List_Event_7:
   \   0000017A   10A8               ADD      R0,SP,#+64
   \   0000017C   0078               LDRB     R0,[R0, #+0]
   \   0000017E   0799               LDR      R1,[SP, #+28]
   \   00000180   8842               CMP      R0,R1
   \   00000182   00DB               BLT      .+4
   \   00000184   1AE1               B        ??List_Event_8
   \   00000186   0798               LDR      R0,[SP, #+28]
   \   00000188   3F21               MOVS     R1,#+63
   \   0000018A   10AA               ADD      R2,SP,#+64
   \   0000018C   1278               LDRB     R2,[R2, #+0]
   \   0000018E   891A               SUBS     R1,R1,R2
   \   00000190   8842               CMP      R0,R1
   \   00000192   00DB               BLT      .+4
   \   00000194   12E1               B        ??List_Event_8
   \   00000196   7F21               MOVS     R1,#+127
   \   00000198   2406               LSLS     R4,R4,#+24       ;; ZeroExtS R4,R4,#+24,#+24
   \   0000019A   240E               LSRS     R4,R4,#+24
   \   0000019C   2D06               LSLS     R5,R5,#+24       ;; ZeroExtS R5,R5,#+24,#+24
   \   0000019E   2D0E               LSRS     R5,R5,#+24
   \   000001A0   2000               MOVS     R0,R4
   \   000001A2   6843               MULS     R0,R5,R0
   \   000001A4   081A               SUBS     R0,R1,R0
   \   000001A6   1138               SUBS     R0,R0,#+17
   \   000001A8   3606               LSLS     R6,R6,#+24       ;; ZeroExtS R6,R6,#+24,#+24
   \   000001AA   360E               LSRS     R6,R6,#+24
   \   000001AC   801B               SUBS     R0,R0,R6
   \   000001AE   0899               LDR      R1,[SP, #+32]
   \   000001B0   8842               CMP      R0,R1
   \   000001B2   00DB               BLT      .+4
   \   000001B4   02E1               B        ??List_Event_8
   \   000001B6   0898               LDR      R0,[SP, #+32]
   \   000001B8   6E21               MOVS     R1,#+110
   \   000001BA   3606               LSLS     R6,R6,#+24       ;; ZeroExtS R6,R6,#+24,#+24
   \   000001BC   360E               LSRS     R6,R6,#+24
   \   000001BE   891B               SUBS     R1,R1,R6
   \   000001C0   8842               CMP      R0,R1
   \   000001C2   00DB               BLT      .+4
   \   000001C4   FAE0               B        ??List_Event_8
   \   000001C6   2D06               LSLS     R5,R5,#+24       ;; ZeroExtS R5,R5,#+24,#+24
   \   000001C8   2D0E               LSRS     R5,R5,#+24
   \   000001CA   002D               CMP      R5,#+0
   \   000001CC   00D1               BNE      .+4
   \   000001CE   F5E0               B        ??List_Event_8
   1969              {
   1970                char Y_down_tmp=127-Y_down;
   \   000001D0   7F20               MOVS     R0,#+127
   \   000001D2   0899               LDR      R1,[SP, #+32]
   \   000001D4   471A               SUBS     R7,R0,R1
   1971                MenuPaint();
                       ^
Warning[Pe223]: function "MenuPaint" declared implicitly
   \   000001D6   ........           BL       MenuPaint
   1972                H_line(2+FormStyle,127-(  (((Y_down_tmp-18-Y) / RowWith)*RowWith)    +18+Y)-1,61-2*FormStyle,1);
   \   000001DA   0123               MOVS     R3,#+1
   \   000001DC   3D20               MOVS     R0,#+61
   \   000001DE   10A9               ADD      R1,SP,#+64
   \   000001E0   0978               LDRB     R1,[R1, #+0]
   \   000001E2   0222               MOVS     R2,#+2
   \   000001E4   5143               MULS     R1,R2,R1
   \   000001E6   421A               SUBS     R2,R0,R1
   \   000001E8   1206               LSLS     R2,R2,#+24       ;; ZeroExtS R2,R2,#+24,#+24
   \   000001EA   120E               LSRS     R2,R2,#+24
   \   000001EC   04B5               PUSH     {R2,LR}
   \   000001EE   0193               STR      R3,[SP, #+4]
   \   000001F0   7F21               MOVS     R1,#+127
   \   000001F2   02B5               PUSH     {R1,LR}
   \   000001F4   3F06               LSLS     R7,R7,#+24       ;; ZeroExtS R7,R7,#+24,#+24
   \   000001F6   3F0E               LSRS     R7,R7,#+24
   \   000001F8   3800               MOVS     R0,R7
   \   000001FA   1238               SUBS     R0,R0,#+18
   \   000001FC   3606               LSLS     R6,R6,#+24       ;; ZeroExtS R6,R6,#+24,#+24
   \   000001FE   360E               LSRS     R6,R6,#+24
   \   00000200   801B               SUBS     R0,R0,R6
   \   00000202   2D06               LSLS     R5,R5,#+24       ;; ZeroExtS R5,R5,#+24,#+24
   \   00000204   2D0E               LSRS     R5,R5,#+24
   \   00000206   2900               MOVS     R1,R5
   \   00000208   ........           BL       __aeabi_idivmod
   \   0000020C   2D06               LSLS     R5,R5,#+24       ;; ZeroExtS R5,R5,#+24,#+24
   \   0000020E   2D0E               LSRS     R5,R5,#+24
   \   00000210   6843               MULS     R0,R5,R0
   \   00000212   0099               LDR      R1,[SP, #0]
   \   00000214   02B0               ADD      SP,SP,#+8
   \   00000216   081A               SUBS     R0,R1,R0
   \   00000218   3606               LSLS     R6,R6,#+24       ;; ZeroExtS R6,R6,#+24,#+24
   \   0000021A   360E               LSRS     R6,R6,#+24
   \   0000021C   811B               SUBS     R1,R0,R6
   \   0000021E   1239               SUBS     R1,R1,#+18
   \   00000220   491E               SUBS     R1,R1,#+1
   \   00000222   019B               LDR      R3,[SP, #+4]
   \   00000224   009A               LDR      R2,[SP, #0]
   \   00000226   02B0               ADD      SP,SP,#+8
   \   00000228   10A8               ADD      R0,SP,#+64
   \   0000022A   0078               LDRB     R0,[R0, #+0]
   \   0000022C   801C               ADDS     R0,R0,#+2
   \   0000022E   0006               LSLS     R0,R0,#+24       ;; ZeroExtS R0,R0,#+24,#+24
   \   00000230   000E               LSRS     R0,R0,#+24
   \   00000232   ........           BL       H_line
   1973                H_line(2+FormStyle,127-(  (((Y_down_tmp-18-Y) / RowWith)*RowWith)    +18+Y)-(RowWith-1),61-2*FormStyle,1);
   \   00000236   0123               MOVS     R3,#+1
   \   00000238   3D20               MOVS     R0,#+61
   \   0000023A   10A9               ADD      R1,SP,#+64
   \   0000023C   0978               LDRB     R1,[R1, #+0]
   \   0000023E   0222               MOVS     R2,#+2
   \   00000240   5143               MULS     R1,R2,R1
   \   00000242   421A               SUBS     R2,R0,R1
   \   00000244   1206               LSLS     R2,R2,#+24       ;; ZeroExtS R2,R2,#+24,#+24
   \   00000246   120E               LSRS     R2,R2,#+24
   \   00000248   04B5               PUSH     {R2,LR}
   \   0000024A   0193               STR      R3,[SP, #+4]
   \   0000024C   7F21               MOVS     R1,#+127
   \   0000024E   02B5               PUSH     {R1,LR}
   \   00000250   3F06               LSLS     R7,R7,#+24       ;; ZeroExtS R7,R7,#+24,#+24
   \   00000252   3F0E               LSRS     R7,R7,#+24
   \   00000254   3800               MOVS     R0,R7
   \   00000256   1238               SUBS     R0,R0,#+18
   \   00000258   3606               LSLS     R6,R6,#+24       ;; ZeroExtS R6,R6,#+24,#+24
   \   0000025A   360E               LSRS     R6,R6,#+24
   \   0000025C   801B               SUBS     R0,R0,R6
   \   0000025E   2D06               LSLS     R5,R5,#+24       ;; ZeroExtS R5,R5,#+24,#+24
   \   00000260   2D0E               LSRS     R5,R5,#+24
   \   00000262   2900               MOVS     R1,R5
   \   00000264   ........           BL       __aeabi_idivmod
   \   00000268   2D06               LSLS     R5,R5,#+24       ;; ZeroExtS R5,R5,#+24,#+24
   \   0000026A   2D0E               LSRS     R5,R5,#+24
   \   0000026C   6843               MULS     R0,R5,R0
   \   0000026E   0099               LDR      R1,[SP, #0]
   \   00000270   02B0               ADD      SP,SP,#+8
   \   00000272   081A               SUBS     R0,R1,R0
   \   00000274   3606               LSLS     R6,R6,#+24       ;; ZeroExtS R6,R6,#+24,#+24
   \   00000276   360E               LSRS     R6,R6,#+24
   \   00000278   801B               SUBS     R0,R0,R6
   \   0000027A   1238               SUBS     R0,R0,#+18
   \   0000027C   2D06               LSLS     R5,R5,#+24       ;; ZeroExtS R5,R5,#+24,#+24
   \   0000027E   2D0E               LSRS     R5,R5,#+24
   \   00000280   411B               SUBS     R1,R0,R5
   \   00000282   491C               ADDS     R1,R1,#+1
   \   00000284   019B               LDR      R3,[SP, #+4]
   \   00000286   009A               LDR      R2,[SP, #0]
   \   00000288   02B0               ADD      SP,SP,#+8
   \   0000028A   10A8               ADD      R0,SP,#+64
   \   0000028C   0078               LDRB     R0,[R0, #+0]
   \   0000028E   801C               ADDS     R0,R0,#+2
   \   00000290   0006               LSLS     R0,R0,#+24       ;; ZeroExtS R0,R0,#+24,#+24
   \   00000292   000E               LSRS     R0,R0,#+24
   \   00000294   ........           BL       H_line
   1974                V_line(1+FormStyle,127-(  (((Y_down_tmp-18-Y) / RowWith)*RowWith)    +18+Y)-(RowWith-1),RowWith-1,1);
   \   00000298   0123               MOVS     R3,#+1
   \   0000029A   6A1E               SUBS     R2,R5,#+1
   \   0000029C   1206               LSLS     R2,R2,#+24       ;; ZeroExtS R2,R2,#+24,#+24
   \   0000029E   120E               LSRS     R2,R2,#+24
   \   000002A0   04B5               PUSH     {R2,LR}
   \   000002A2   0193               STR      R3,[SP, #+4]
   \   000002A4   7F21               MOVS     R1,#+127
   \   000002A6   02B5               PUSH     {R1,LR}
   \   000002A8   3F06               LSLS     R7,R7,#+24       ;; ZeroExtS R7,R7,#+24,#+24
   \   000002AA   3F0E               LSRS     R7,R7,#+24
   \   000002AC   3800               MOVS     R0,R7
   \   000002AE   1238               SUBS     R0,R0,#+18
   \   000002B0   3606               LSLS     R6,R6,#+24       ;; ZeroExtS R6,R6,#+24,#+24
   \   000002B2   360E               LSRS     R6,R6,#+24
   \   000002B4   801B               SUBS     R0,R0,R6
   \   000002B6   2D06               LSLS     R5,R5,#+24       ;; ZeroExtS R5,R5,#+24,#+24
   \   000002B8   2D0E               LSRS     R5,R5,#+24
   \   000002BA   2900               MOVS     R1,R5
   \   000002BC   ........           BL       __aeabi_idivmod
   \   000002C0   2D06               LSLS     R5,R5,#+24       ;; ZeroExtS R5,R5,#+24,#+24
   \   000002C2   2D0E               LSRS     R5,R5,#+24
   \   000002C4   6843               MULS     R0,R5,R0
   \   000002C6   0099               LDR      R1,[SP, #0]
   \   000002C8   02B0               ADD      SP,SP,#+8
   \   000002CA   081A               SUBS     R0,R1,R0
   \   000002CC   3606               LSLS     R6,R6,#+24       ;; ZeroExtS R6,R6,#+24,#+24
   \   000002CE   360E               LSRS     R6,R6,#+24
   \   000002D0   801B               SUBS     R0,R0,R6
   \   000002D2   1238               SUBS     R0,R0,#+18
   \   000002D4   2D06               LSLS     R5,R5,#+24       ;; ZeroExtS R5,R5,#+24,#+24
   \   000002D6   2D0E               LSRS     R5,R5,#+24
   \   000002D8   411B               SUBS     R1,R0,R5
   \   000002DA   491C               ADDS     R1,R1,#+1
   \   000002DC   019B               LDR      R3,[SP, #+4]
   \   000002DE   009A               LDR      R2,[SP, #0]
   \   000002E0   02B0               ADD      SP,SP,#+8
   \   000002E2   10A8               ADD      R0,SP,#+64
   \   000002E4   0078               LDRB     R0,[R0, #+0]
   \   000002E6   401C               ADDS     R0,R0,#+1
   \   000002E8   0006               LSLS     R0,R0,#+24       ;; ZeroExtS R0,R0,#+24,#+24
   \   000002EA   000E               LSRS     R0,R0,#+24
   \   000002EC   ........           BL       V_line
   1975                V_line(61-FormStyle,127-(  (((Y_down_tmp-18-Y) / RowWith)*RowWith)    +18+Y)-(RowWith-2),RowWith-3,1);
   \   000002F0   0123               MOVS     R3,#+1
   \   000002F2   EA1E               SUBS     R2,R5,#+3
   \   000002F4   1206               LSLS     R2,R2,#+24       ;; ZeroExtS R2,R2,#+24,#+24
   \   000002F6   120E               LSRS     R2,R2,#+24
   \   000002F8   04B5               PUSH     {R2,LR}
   \   000002FA   0193               STR      R3,[SP, #+4]
   \   000002FC   7F21               MOVS     R1,#+127
   \   000002FE   02B5               PUSH     {R1,LR}
   \   00000300   3F06               LSLS     R7,R7,#+24       ;; ZeroExtS R7,R7,#+24,#+24
   \   00000302   3F0E               LSRS     R7,R7,#+24
   \   00000304   3800               MOVS     R0,R7
   \   00000306   1238               SUBS     R0,R0,#+18
   \   00000308   3606               LSLS     R6,R6,#+24       ;; ZeroExtS R6,R6,#+24,#+24
   \   0000030A   360E               LSRS     R6,R6,#+24
   \   0000030C   801B               SUBS     R0,R0,R6
   \   0000030E   2D06               LSLS     R5,R5,#+24       ;; ZeroExtS R5,R5,#+24,#+24
   \   00000310   2D0E               LSRS     R5,R5,#+24
   \   00000312   2900               MOVS     R1,R5
   \   00000314   ........           BL       __aeabi_idivmod
   \   00000318   2D06               LSLS     R5,R5,#+24       ;; ZeroExtS R5,R5,#+24,#+24
   \   0000031A   2D0E               LSRS     R5,R5,#+24
   \   0000031C   6843               MULS     R0,R5,R0
   \   0000031E   0099               LDR      R1,[SP, #0]
   \   00000320   02B0               ADD      SP,SP,#+8
   \   00000322   081A               SUBS     R0,R1,R0
   \   00000324   3606               LSLS     R6,R6,#+24       ;; ZeroExtS R6,R6,#+24,#+24
   \   00000326   360E               LSRS     R6,R6,#+24
   \   00000328   801B               SUBS     R0,R0,R6
   \   0000032A   1238               SUBS     R0,R0,#+18
   \   0000032C   2D06               LSLS     R5,R5,#+24       ;; ZeroExtS R5,R5,#+24,#+24
   \   0000032E   2D0E               LSRS     R5,R5,#+24
   \   00000330   411B               SUBS     R1,R0,R5
   \   00000332   891C               ADDS     R1,R1,#+2
   \   00000334   019B               LDR      R3,[SP, #+4]
   \   00000336   009A               LDR      R2,[SP, #0]
   \   00000338   02B0               ADD      SP,SP,#+8
   \   0000033A   8C46               MOV      R12,R1
   \   0000033C   3D21               MOVS     R1,#+61
   \   0000033E   10A8               ADD      R0,SP,#+64
   \   00000340   0078               LDRB     R0,[R0, #+0]
   \   00000342   081A               SUBS     R0,R1,R0
   \   00000344   6146               MOV      R1,R12
   \   00000346   0006               LSLS     R0,R0,#+24       ;; ZeroExtS R0,R0,#+24,#+24
   \   00000348   000E               LSRS     R0,R0,#+24
   \   0000034A   ........           BL       V_line
   1976                podswietl=1;
   \   0000034E   6846               MOV      R0,SP
   \   00000350   0121               MOVS     R1,#+1
   \   00000352   0170               STRB     R1,[R0, #+0]
   1977                DownAction=1;
   \   00000354   1C48               LDR      R0,??List_Event_1  ;; ??DownAction
   \   00000356   0121               MOVS     R1,#+1
   \   00000358   0170               STRB     R1,[R0, #+0]
   1978                
   1979                DownAction=1;
   \   0000035A   1B48               LDR      R0,??List_Event_1  ;; ??DownAction
   \   0000035C   0121               MOVS     R1,#+1
   \   0000035E   0170               STRB     R1,[R0, #+0]
   1980                AnsDown=((Y_down_tmp-18-Y) / RowWith)+1;
   \   00000360   3F06               LSLS     R7,R7,#+24       ;; ZeroExtS R7,R7,#+24,#+24
   \   00000362   3F0E               LSRS     R7,R7,#+24
   \   00000364   123F               SUBS     R7,R7,#+18
   \   00000366   3606               LSLS     R6,R6,#+24       ;; ZeroExtS R6,R6,#+24,#+24
   \   00000368   360E               LSRS     R6,R6,#+24
   \   0000036A   B81B               SUBS     R0,R7,R6
   \   0000036C   2D06               LSLS     R5,R5,#+24       ;; ZeroExtS R5,R5,#+24,#+24
   \   0000036E   2D0E               LSRS     R5,R5,#+24
   \   00000370   2900               MOVS     R1,R5
   \   00000372   ........           BL       __aeabi_idivmod
   \   00000376   0700               MOVS     R7,R0
   \   00000378   7F1C               ADDS     R7,R7,#+1
   1981                
   1982                //dzwiêk przyciœniêcia
   1983                    static char LastAnsD=-1;
                                                ^
Warning[Pe068]: integer conversion resulted in a change of sign
   1984                    if ((AnsDown>=0) && (AnsDown!=LastAnsD))
                                       ^
Warning[Pe186]: pointless comparison of unsigned integer with zero
   \   0000037A   3F06               LSLS     R7,R7,#+24       ;; ZeroExtS R7,R7,#+24,#+24
   \   0000037C   3F0E               LSRS     R7,R7,#+24
   \   0000037E   002F               CMP      R7,#+0
   \   00000380   17D4               BMI      ??List_Event_9
   \   00000382   C648               LDR      R0,??List_Event_10  ;; ??LastAnsD
   \   00000384   0078               LDRB     R0,[R0, #+0]
   \   00000386   3F06               LSLS     R7,R7,#+24       ;; ZeroExtS R7,R7,#+24,#+24
   \   00000388   3F0E               LSRS     R7,R7,#+24
   \   0000038A   8742               CMP      R7,R0
   \   0000038C   11D0               BEQ      ??List_Event_9
   1985                    {
   1986                      if ((!(AT91C_IFLASH_MEM->Config.SoundOff))) {
   \   0000038E   0F48               LDR      R0,??List_Event_1+0x4  ;; 0x13d7e9
   \   00000390   0078               LDRB     R0,[R0, #+0]
   \   00000392   0006               LSLS     R0,R0,#+24       ;; ZeroExtS R0,R0,#+24,#+24
   \   00000394   000E               LSRS     R0,R0,#+24
   \   00000396   0028               CMP      R0,#+0
   \   00000398   0BD1               BNE      ??List_Event_9
   1987                          ButtonBipCounter=g_counter+8;
   \   0000039A   0E4A               LDR      R2,??List_Event_1+0xC  ;; ButtonBipCounter
   \   0000039C   0E48               LDR      R0,??List_Event_1+0x10  ;; g_counter
   \   0000039E   03C8               LDM      R0!,{R0,R1}
   \   000003A0   0023               MOVS     R3,#+0
   \   000003A2   0830               ADDS     R0,R0,#+8
   \   000003A4   5941               ADCS     R1,R1,R3
   \   000003A6   03C2               STM      R2!,{R0,R1}
   \   000003A8   083A               SUBS     R2,R2,#+8
   1988                          AT91C_BASE_PIOA->PIO_SODR =SpeakerPin;
                                                            ^
Warning[Pe068]: integer conversion resulted in a change of sign
   \   000003AA   0C48               LDR      R0,??List_Event_1+0x14  ;; 0xfffff430
   \   000003AC   8021               MOVS     R1,#+128
   \   000003AE   0906               LSLS     R1,R1,#+24       ;; #-2147483648
   \   000003B0   0160               STR      R1,[R0, #+0]
   1989                          
   1990                        } 
   1991                    }
   1992                    LastAnsD=AnsDown;
   \                     ??List_Event_9:
   \   000003B2   BA48               LDR      R0,??List_Event_10  ;; ??LastAnsD
   \   000003B4   0770               STRB     R7,[R0, #+0]
   1993                    Xdown=0;
   \   000003B6   0648               LDR      R0,??List_Event_1+0x8  ;; ??Xdown
   \   000003B8   0021               MOVS     R1,#+0
   \   000003BA   0170               STRB     R1,[R0, #+0]
   1994                
   1995           }
   1996              
   1997          
   1998          
   1999              
   2000              
   2001              
   2002              if ((RowWith) &(X_up>3) && (X_up<59) && (Y_up<127-(  (((Y_up_tmp-18-Y) / RowWith)*RowWith)    +18+Y)-1) && (Y_up>127-(  (((Y_up_tmp-18-Y) / RowWith)*RowWith)    +18+Y)-(RowWith-1)))                        //ustawienia
   \                     ??List_Event_8:
   \   000003BC   0598               LDR      R0,[SP, #+20]
   \   000003BE   0428               CMP      R0,#+4
   \   000003C0   10DB               BLT      ??List_Event_11
   \   000003C2   0120               MOVS     R0,#+1
   \   000003C4   0FE0               B        ??List_Event_12
   \   000003C6   C046               Nop      
   \                     ??List_Event_1:
   \   000003C8   ........           DC32     ??DownAction
   \   000003CC   E9D71300           DC32     0x13d7e9
   \   000003D0   ........           DC32     ??Xdown
   \   000003D4   ........           DC32     ButtonBipCounter
   \   000003D8   ........           DC32     g_counter
   \   000003DC   30F4FFFF           DC32     0xfffff430
   \   000003E0   ........           DC32     RowsPoz
   \                     ??List_Event_11:
   \   000003E4   0020               MOVS     R0,#+0
   \                     ??List_Event_12:
   \   000003E6   0121               MOVS     R1,#+1
   \   000003E8   2940               ANDS     R1,R1,R5
   \   000003EA   0142               TST      R1,R0
   \   000003EC   4ED0               BEQ      ??List_Event_13
   \   000003EE   0598               LDR      R0,[SP, #+20]
   \   000003F0   3B28               CMP      R0,#+59
   \   000003F2   4BDA               BGE      ??List_Event_13
   \   000003F4   7F21               MOVS     R1,#+127
   \   000003F6   02B5               PUSH     {R1,LR}
   \   000003F8   02A8               ADD      R0,SP,#+8
   \   000003FA   4078               LDRB     R0,[R0, #+1]
   \   000003FC   1238               SUBS     R0,R0,#+18
   \   000003FE   3606               LSLS     R6,R6,#+24       ;; ZeroExtS R6,R6,#+24,#+24
   \   00000400   360E               LSRS     R6,R6,#+24
   \   00000402   801B               SUBS     R0,R0,R6
   \   00000404   2D06               LSLS     R5,R5,#+24       ;; ZeroExtS R5,R5,#+24,#+24
   \   00000406   2D0E               LSRS     R5,R5,#+24
   \   00000408   2900               MOVS     R1,R5
   \   0000040A   ........           BL       __aeabi_idivmod
   \   0000040E   2D06               LSLS     R5,R5,#+24       ;; ZeroExtS R5,R5,#+24,#+24
   \   00000410   2D0E               LSRS     R5,R5,#+24
   \   00000412   6843               MULS     R0,R5,R0
   \   00000414   0099               LDR      R1,[SP, #0]
   \   00000416   02B0               ADD      SP,SP,#+8
   \   00000418   081A               SUBS     R0,R1,R0
   \   0000041A   3606               LSLS     R6,R6,#+24       ;; ZeroExtS R6,R6,#+24,#+24
   \   0000041C   360E               LSRS     R6,R6,#+24
   \   0000041E   801B               SUBS     R0,R0,R6
   \   00000420   1238               SUBS     R0,R0,#+18
   \   00000422   401E               SUBS     R0,R0,#+1
   \   00000424   0699               LDR      R1,[SP, #+24]
   \   00000426   8142               CMP      R1,R0
   \   00000428   30DA               BGE      ??List_Event_13
   \   0000042A   7F21               MOVS     R1,#+127
   \   0000042C   02B5               PUSH     {R1,LR}
   \   0000042E   02A8               ADD      R0,SP,#+8
   \   00000430   4078               LDRB     R0,[R0, #+1]
   \   00000432   1238               SUBS     R0,R0,#+18
   \   00000434   3606               LSLS     R6,R6,#+24       ;; ZeroExtS R6,R6,#+24,#+24
   \   00000436   360E               LSRS     R6,R6,#+24
   \   00000438   801B               SUBS     R0,R0,R6
   \   0000043A   2D06               LSLS     R5,R5,#+24       ;; ZeroExtS R5,R5,#+24,#+24
   \   0000043C   2D0E               LSRS     R5,R5,#+24
   \   0000043E   2900               MOVS     R1,R5
   \   00000440   ........           BL       __aeabi_idivmod
   \   00000444   2D06               LSLS     R5,R5,#+24       ;; ZeroExtS R5,R5,#+24,#+24
   \   00000446   2D0E               LSRS     R5,R5,#+24
   \   00000448   6843               MULS     R0,R5,R0
   \   0000044A   0099               LDR      R1,[SP, #0]
   \   0000044C   02B0               ADD      SP,SP,#+8
   \   0000044E   081A               SUBS     R0,R1,R0
   \   00000450   3606               LSLS     R6,R6,#+24       ;; ZeroExtS R6,R6,#+24,#+24
   \   00000452   360E               LSRS     R6,R6,#+24
   \   00000454   801B               SUBS     R0,R0,R6
   \   00000456   1238               SUBS     R0,R0,#+18
   \   00000458   2D06               LSLS     R5,R5,#+24       ;; ZeroExtS R5,R5,#+24,#+24
   \   0000045A   2D0E               LSRS     R5,R5,#+24
   \   0000045C   401B               SUBS     R0,R0,R5
   \   0000045E   401C               ADDS     R0,R0,#+1
   \   00000460   0699               LDR      R1,[SP, #+24]
   \   00000462   8842               CMP      R0,R1
   \   00000464   12DA               BGE      ??List_Event_13
   2003              {
   2004                ans=RowsPoz+((Y_up_tmp-18-Y) / RowWith)+1;
   \   00000466   8E48               LDR      R0,??List_Event_10+0x4  ;; RowsPoz
   \   00000468   0178               LDRB     R1,[R0, #+0]
   \   0000046A   02B5               PUSH     {R1,LR}
   \   0000046C   02A8               ADD      R0,SP,#+8
   \   0000046E   4078               LDRB     R0,[R0, #+1]
   \   00000470   1238               SUBS     R0,R0,#+18
   \   00000472   3606               LSLS     R6,R6,#+24       ;; ZeroExtS R6,R6,#+24,#+24
   \   00000474   360E               LSRS     R6,R6,#+24
   \   00000476   801B               SUBS     R0,R0,R6
   \   00000478   2D06               LSLS     R5,R5,#+24       ;; ZeroExtS R5,R5,#+24,#+24
   \   0000047A   2D0E               LSRS     R5,R5,#+24
   \   0000047C   2900               MOVS     R1,R5
   \   0000047E   ........           BL       __aeabi_idivmod
   \   00000482   0099               LDR      R1,[SP, #0]
   \   00000484   02B0               ADD      SP,SP,#+8
   \   00000486   0818               ADDS     R0,R1,R0
   \   00000488   401C               ADDS     R0,R0,#+1
   \   0000048A   0190               STR      R0,[SP, #+4]
   2005               // MenuPaint();
   2006              }
   2007              
   2008              if ((FormStyle==0) && (X_up>46) && (X_up<63) && (Y_up>112-Y) && (Y_up<127-Y))                    //"X"
   \                     ??List_Event_13:
   \   0000048C   10A8               ADD      R0,SP,#+64
   \   0000048E   0078               LDRB     R0,[R0, #+0]
   \   00000490   0028               CMP      R0,#+0
   \   00000492   16D1               BNE      ??List_Event_14
   \   00000494   0598               LDR      R0,[SP, #+20]
   \   00000496   2F28               CMP      R0,#+47
   \   00000498   13DB               BLT      ??List_Event_14
   \   0000049A   0598               LDR      R0,[SP, #+20]
   \   0000049C   3F28               CMP      R0,#+63
   \   0000049E   10DA               BGE      ??List_Event_14
   \   000004A0   7020               MOVS     R0,#+112
   \   000004A2   3606               LSLS     R6,R6,#+24       ;; ZeroExtS R6,R6,#+24,#+24
   \   000004A4   360E               LSRS     R6,R6,#+24
   \   000004A6   801B               SUBS     R0,R0,R6
   \   000004A8   0699               LDR      R1,[SP, #+24]
   \   000004AA   8842               CMP      R0,R1
   \   000004AC   09DA               BGE      ??List_Event_14
   \   000004AE   0698               LDR      R0,[SP, #+24]
   \   000004B0   7F21               MOVS     R1,#+127
   \   000004B2   3606               LSLS     R6,R6,#+24       ;; ZeroExtS R6,R6,#+24,#+24
   \   000004B4   360E               LSRS     R6,R6,#+24
   \   000004B6   891B               SUBS     R1,R1,R6
   \   000004B8   8842               CMP      R0,R1
   \   000004BA   02DA               BGE      ??List_Event_14
   2009              {
   2010                ans = -1;
   \   000004BC   0020               MOVS     R0,#+0
   \   000004BE   C043               MVNS     R0,R0            ;; #-1
   \   000004C0   0190               STR      R0,[SP, #+4]
   2011             
   2012              }   
   2013              if ((podswietl==0)) MenuPaint();
                                         ^
Warning[Pe223]: function "MenuPaint" declared implicitly
   \                     ??List_Event_14:
   \   000004C2   6846               MOV      R0,SP
   \   000004C4   0078               LDRB     R0,[R0, #+0]
   \   000004C6   0028               CMP      R0,#+0
   \   000004C8   01D1               BNE      ??List_Event_15
   \   000004CA   ........           BL       MenuPaint
   2014              
   2015              if (ans>RowsPoz+Rows) ans=0;  
   \                     ??List_Event_15:
   \   000004CE   7448               LDR      R0,??List_Event_10+0x4  ;; RowsPoz
   \   000004D0   0078               LDRB     R0,[R0, #+0]
   \   000004D2   2406               LSLS     R4,R4,#+24       ;; ZeroExtS R4,R4,#+24,#+24
   \   000004D4   240E               LSRS     R4,R4,#+24
   \   000004D6   0019               ADDS     R0,R0,R4
   \   000004D8   0199               LDR      R1,[SP, #+4]
   \   000004DA   8842               CMP      R0,R1
   \   000004DC   01DA               BGE      ??List_Event_16
   \   000004DE   0020               MOVS     R0,#+0
   \   000004E0   0190               STR      R0,[SP, #+4]
   2016           
   2017          
   2018              if ((AnsDown>0) && (SelectRow!=AnsDown))
   \                     ??List_Event_16:
   \   000004E2   3F06               LSLS     R7,R7,#+24       ;; ZeroExtS R7,R7,#+24,#+24
   \   000004E4   3F0E               LSRS     R7,R7,#+24
   \   000004E6   012F               CMP      R7,#+1
   \   000004E8   08D3               BCC      ??List_Event_17
   \   000004EA   6E48               LDR      R0,??List_Event_10+0x8  ;; ??SelectRow
   \   000004EC   0078               LDRB     R0,[R0, #+0]
   \   000004EE   3F06               LSLS     R7,R7,#+24       ;; ZeroExtS R7,R7,#+24,#+24
   \   000004F0   3F0E               LSRS     R7,R7,#+24
   \   000004F2   B842               CMP      R0,R7
   \   000004F4   02D0               BEQ      ??List_Event_17
   2019              {
   2020                 SelectRow=AnsDown;
   \   000004F6   6B48               LDR      R0,??List_Event_10+0x8  ;; ??SelectRow
   \   000004F8   0770               STRB     R7,[R0, #+0]
   \   000004FA   05E0               B        ??List_Event_18
   2021                  
   2022              }else if (ans<0)
   \                     ??List_Event_17:
   \   000004FC   0198               LDR      R0,[SP, #+4]
   \   000004FE   0028               CMP      R0,#+0
   \   00000500   02D5               BPL      ??List_Event_18
   2023              {
   2024                SelectRow=0;
   \   00000502   6848               LDR      R0,??List_Event_10+0x8  ;; ??SelectRow
   \   00000504   0021               MOVS     R1,#+0
   \   00000506   0170               STRB     R1,[R0, #+0]
   2025              }
   2026              
   2027              char Button1Action=0;
   \                     ??List_Event_18:
   \   00000508   6846               MOV      R0,SP
   \   0000050A   0021               MOVS     R1,#+0
   \   0000050C   0170               STRB     R1,[R0, #+0]
   2028              char Button2Action=0;
   \   0000050E   0027               MOVS     R7,#+0
   2029              if (RealRows!=Rows) //je¿eli wiêcej pozycji ni¿ na ekranie
   \   00000510   6548               LDR      R0,??List_Event_10+0xC  ;; RealRows
   \   00000512   0078               LDRB     R0,[R0, #+0]
   \   00000514   2406               LSLS     R4,R4,#+24       ;; ZeroExtS R4,R4,#+24,#+24
   \   00000516   240E               LSRS     R4,R4,#+24
   \   00000518   A042               CMP      R0,R4
   \   0000051A   00D1               BNE      .+4
   \   0000051C   90E0               B        ??List_Event_5
   2030              {
   2031                 char LabelButt1[2], LabelButt2[2];
   2032                 LabelButt1[1]=0; LabelButt2[1]=0;
   \   0000051E   03A8               ADD      R0,SP,#+12
   \   00000520   0021               MOVS     R1,#+0
   \   00000522   4170               STRB     R1,[R0, #+1]
   \   00000524   02A8               ADD      R0,SP,#+8
   \   00000526   0021               MOVS     R1,#+0
   \   00000528   4170               STRB     R1,[R0, #+1]
   2033                 LabelButt1[0]=30; LabelButt2[0]=31;
   \   0000052A   6846               MOV      R0,SP
   \   0000052C   1E21               MOVS     R1,#+30
   \   0000052E   0173               STRB     R1,[R0, #+12]
   \   00000530   6846               MOV      R0,SP
   \   00000532   1F21               MOVS     R1,#+31
   \   00000534   0172               STRB     R1,[R0, #+8]
   2034                 //LabelButt1 -góra, LabelButt2-dó³
   2035                 if (RowsPoz==0)
   \   00000536   5A48               LDR      R0,??List_Event_10+0x4  ;; RowsPoz
   \   00000538   0078               LDRB     R0,[R0, #+0]
   \   0000053A   0028               CMP      R0,#+0
   \   0000053C   13D1               BNE      ??List_Event_19
   2036                 {
   2037                    Button2Action=Button(LabelButt2,0,127-(18+(Rows*RowWith))-1-Y-15,64,16); //(etykieta char poz_X , char poz_Y ,char width, char height) 
   \   0000053E   82B0               SUB      SP,SP,#+8
   \   00000540   1020               MOVS     R0,#+16
   \   00000542   0090               STR      R0,[SP, #+0]
   \   00000544   4023               MOVS     R3,#+64
   \   00000546   7F21               MOVS     R1,#+127
   \   00000548   2000               MOVS     R0,R4
   \   0000054A   6843               MULS     R0,R5,R0
   \   0000054C   081A               SUBS     R0,R1,R0
   \   0000054E   1238               SUBS     R0,R0,#+18
   \   00000550   401E               SUBS     R0,R0,#+1
   \   00000552   821B               SUBS     R2,R0,R6
   \   00000554   0F3A               SUBS     R2,R2,#+15
   \   00000556   1206               LSLS     R2,R2,#+24       ;; ZeroExtS R2,R2,#+24,#+24
   \   00000558   120E               LSRS     R2,R2,#+24
   \   0000055A   0021               MOVS     R1,#+0
   \   0000055C   04A8               ADD      R0,SP,#+16
   \   0000055E   ........           BL       Button
   \   00000562   02B0               ADD      SP,SP,#+8
   \   00000564   0700               MOVS     R7,R0
   2038                 } 
   2039                 if ((RowsPoz>0) && (RowsPoz<RealRows-Rows))
   \                     ??List_Event_19:
   \   00000566   4E48               LDR      R0,??List_Event_10+0x4  ;; RowsPoz
   \   00000568   0078               LDRB     R0,[R0, #+0]
   \   0000056A   0128               CMP      R0,#+1
   \   0000056C   31D3               BCC      ??List_Event_20
   \   0000056E   4C48               LDR      R0,??List_Event_10+0x4  ;; RowsPoz
   \   00000570   0078               LDRB     R0,[R0, #+0]
   \   00000572   4D49               LDR      R1,??List_Event_10+0xC  ;; RealRows
   \   00000574   0978               LDRB     R1,[R1, #+0]
   \   00000576   2406               LSLS     R4,R4,#+24       ;; ZeroExtS R4,R4,#+24,#+24
   \   00000578   240E               LSRS     R4,R4,#+24
   \   0000057A   091B               SUBS     R1,R1,R4
   \   0000057C   8842               CMP      R0,R1
   \   0000057E   28DA               BGE      ??List_Event_20
   2040                 {
   2041                   Button1Action=Button(LabelButt1,0,127-(18+(Rows*RowWith))-1-Y-15,32,16); //(etykieta ,char poz_X , char poz_Y ,char width, char height)
   \   00000580   82B0               SUB      SP,SP,#+8
   \   00000582   1020               MOVS     R0,#+16
   \   00000584   0090               STR      R0,[SP, #+0]
   \   00000586   2023               MOVS     R3,#+32
   \   00000588   7F21               MOVS     R1,#+127
   \   0000058A   2000               MOVS     R0,R4
   \   0000058C   6843               MULS     R0,R5,R0
   \   0000058E   081A               SUBS     R0,R1,R0
   \   00000590   1238               SUBS     R0,R0,#+18
   \   00000592   401E               SUBS     R0,R0,#+1
   \   00000594   821B               SUBS     R2,R0,R6
   \   00000596   0F3A               SUBS     R2,R2,#+15
   \   00000598   1206               LSLS     R2,R2,#+24       ;; ZeroExtS R2,R2,#+24,#+24
   \   0000059A   120E               LSRS     R2,R2,#+24
   \   0000059C   0021               MOVS     R1,#+0
   \   0000059E   05A8               ADD      R0,SP,#+20
   \   000005A0   ........           BL       Button
   \   000005A4   02B0               ADD      SP,SP,#+8
   \   000005A6   6946               MOV      R1,SP
   \   000005A8   0870               STRB     R0,[R1, #+0]
   2042                   Button2Action=Button(LabelButt2,32,127-(18+(Rows*RowWith))-1-Y-15,32,16); //(etykieta char poz_X , char poz_Y ,char width, char height) 
   \   000005AA   82B0               SUB      SP,SP,#+8
   \   000005AC   1020               MOVS     R0,#+16
   \   000005AE   0090               STR      R0,[SP, #+0]
   \   000005B0   2023               MOVS     R3,#+32
   \   000005B2   7F21               MOVS     R1,#+127
   \   000005B4   2000               MOVS     R0,R4
   \   000005B6   6843               MULS     R0,R5,R0
   \   000005B8   081A               SUBS     R0,R1,R0
   \   000005BA   1238               SUBS     R0,R0,#+18
   \   000005BC   401E               SUBS     R0,R0,#+1
   \   000005BE   821B               SUBS     R2,R0,R6
   \   000005C0   0F3A               SUBS     R2,R2,#+15
   \   000005C2   1206               LSLS     R2,R2,#+24       ;; ZeroExtS R2,R2,#+24,#+24
   \   000005C4   120E               LSRS     R2,R2,#+24
   \   000005C6   2021               MOVS     R1,#+32
   \   000005C8   04A8               ADD      R0,SP,#+16
   \   000005CA   ........           BL       Button
   \   000005CE   02B0               ADD      SP,SP,#+8
   \   000005D0   0700               MOVS     R7,R0
   2043                 }
   2044                 if ((RowsPoz>0) && (RowsPoz>=RealRows-Rows))
   \                     ??List_Event_20:
   \   000005D2   3348               LDR      R0,??List_Event_10+0x4  ;; RowsPoz
   \   000005D4   0078               LDRB     R0,[R0, #+0]
   \   000005D6   0128               CMP      R0,#+1
   \   000005D8   1CD3               BCC      ??List_Event_21
   \   000005DA   3148               LDR      R0,??List_Event_10+0x4  ;; RowsPoz
   \   000005DC   0078               LDRB     R0,[R0, #+0]
   \   000005DE   3249               LDR      R1,??List_Event_10+0xC  ;; RealRows
   \   000005E0   0978               LDRB     R1,[R1, #+0]
   \   000005E2   2406               LSLS     R4,R4,#+24       ;; ZeroExtS R4,R4,#+24,#+24
   \   000005E4   240E               LSRS     R4,R4,#+24
   \   000005E6   091B               SUBS     R1,R1,R4
   \   000005E8   8842               CMP      R0,R1
   \   000005EA   13DB               BLT      ??List_Event_21
   2045                 {
   2046                   Button1Action=Button(LabelButt1,0,127-(18+(Rows*RowWith))-1-Y-15,64,16); //(etykieta ,char poz_X , char poz_Y ,char width, char height)
   \   000005EC   82B0               SUB      SP,SP,#+8
   \   000005EE   1020               MOVS     R0,#+16
   \   000005F0   0090               STR      R0,[SP, #+0]
   \   000005F2   4023               MOVS     R3,#+64
   \   000005F4   7F20               MOVS     R0,#+127
   \   000005F6   6C43               MULS     R4,R5,R4
   \   000005F8   001B               SUBS     R0,R0,R4
   \   000005FA   1238               SUBS     R0,R0,#+18
   \   000005FC   401E               SUBS     R0,R0,#+1
   \   000005FE   821B               SUBS     R2,R0,R6
   \   00000600   0F3A               SUBS     R2,R2,#+15
   \   00000602   1206               LSLS     R2,R2,#+24       ;; ZeroExtS R2,R2,#+24,#+24
   \   00000604   120E               LSRS     R2,R2,#+24
   \   00000606   0021               MOVS     R1,#+0
   \   00000608   05A8               ADD      R0,SP,#+20
   \   0000060A   ........           BL       Button
   \   0000060E   02B0               ADD      SP,SP,#+8
   \   00000610   6946               MOV      R1,SP
   \   00000612   0870               STRB     R0,[R1, #+0]
   2047                 }
   2048              
   2049                 if (Button1Action==1) {RowsPoz--;  MenuPaint(); }
   \                     ??List_Event_21:
   \   00000614   6846               MOV      R0,SP
   \   00000616   0078               LDRB     R0,[R0, #+0]
   \   00000618   0128               CMP      R0,#+1
   \   0000061A   06D1               BNE      ??List_Event_22
   \   0000061C   2048               LDR      R0,??List_Event_10+0x4  ;; RowsPoz
   \   0000061E   2049               LDR      R1,??List_Event_10+0x4  ;; RowsPoz
   \   00000620   0978               LDRB     R1,[R1, #+0]
   \   00000622   491E               SUBS     R1,R1,#+1
   \   00000624   0170               STRB     R1,[R0, #+0]
   \   00000626   ........           BL       MenuPaint
   2050                 if (Button2Action==1) {RowsPoz++;  MenuPaint(); }
   \                     ??List_Event_22:
   \   0000062A   3F06               LSLS     R7,R7,#+24       ;; ZeroExtS R7,R7,#+24,#+24
   \   0000062C   3F0E               LSRS     R7,R7,#+24
   \   0000062E   012F               CMP      R7,#+1
   \   00000630   06D1               BNE      ??List_Event_5
   \   00000632   1B48               LDR      R0,??List_Event_10+0x4  ;; RowsPoz
   \   00000634   1A49               LDR      R1,??List_Event_10+0x4  ;; RowsPoz
   \   00000636   0978               LDRB     R1,[R1, #+0]
   \   00000638   491C               ADDS     R1,R1,#+1
   \   0000063A   0170               STRB     R1,[R0, #+0]
   \   0000063C   ........           BL       MenuPaint
   2051              }
   2052              
   2053              }
   2054              
   2055             // if (ans>0) RowsPoz=0;
   2056              static char LastAns=-1;
                                         ^
Warning[Pe068]: integer conversion resulted in a change of sign
   2057              if ((ans>=0) && (ans!=LastAns))
   \                     ??List_Event_5:
   \   00000640   0198               LDR      R0,[SP, #+4]
   \   00000642   0028               CMP      R0,#+0
   \   00000644   19D4               BMI      ??List_Event_23
   \   00000646   0198               LDR      R0,[SP, #+4]
   \   00000648   1849               LDR      R1,??List_Event_10+0x10  ;; ??LastAns
   \   0000064A   0978               LDRB     R1,[R1, #+0]
   \   0000064C   8842               CMP      R0,R1
   \   0000064E   14D0               BEQ      ??List_Event_23
   2058              {
   2059                Xdown=0;
   \   00000650   1748               LDR      R0,??List_Event_10+0x14  ;; ??Xdown
   \   00000652   0021               MOVS     R1,#+0
   \   00000654   0170               STRB     R1,[R0, #+0]
   2060                if ((!(AT91C_IFLASH_MEM->Config.SoundOff))) {
   \   00000656   1748               LDR      R0,??List_Event_10+0x18  ;; 0x13d7e9
   \   00000658   0078               LDRB     R0,[R0, #+0]
   \   0000065A   0006               LSLS     R0,R0,#+24       ;; ZeroExtS R0,R0,#+24,#+24
   \   0000065C   000E               LSRS     R0,R0,#+24
   \   0000065E   0028               CMP      R0,#+0
   \   00000660   0BD1               BNE      ??List_Event_23
   2061                  ButtonBipCounter=g_counter+8;
   \   00000662   154A               LDR      R2,??List_Event_10+0x1C  ;; ButtonBipCounter
   \   00000664   1548               LDR      R0,??List_Event_10+0x20  ;; g_counter
   \   00000666   03C8               LDM      R0!,{R0,R1}
   \   00000668   0023               MOVS     R3,#+0
   \   0000066A   0830               ADDS     R0,R0,#+8
   \   0000066C   5941               ADCS     R1,R1,R3
   \   0000066E   03C2               STM      R2!,{R0,R1}
   \   00000670   083A               SUBS     R2,R2,#+8
   2062                    AT91C_BASE_PIOA->PIO_SODR =SpeakerPin;
                                                      ^
Warning[Pe068]: integer conversion resulted in a change of sign

     static char DownAction=0;
                 ^
"D:\Zeuron\Projekty\S300\S300-program v1.4 - 12.06.2013\Framework\Lcd_Negativ_Old.c",1920  Warning[Pe550]: 
          variable "DownAction" was set but never used
   \   00000672   1348               LDR      R0,??List_Event_10+0x24  ;; 0xfffff430
   \   00000674   8021               MOVS     R1,#+128
   \   00000676   0906               LSLS     R1,R1,#+24       ;; #-2147483648
   \   00000678   0160               STR      R1,[R0, #+0]
   2063                  } 
   2064              }
   2065              
   2066              if ((X_up>0)|| (Y_up>0)) Xdown=0;
   \                     ??List_Event_23:
   \   0000067A   0598               LDR      R0,[SP, #+20]
   \   0000067C   0128               CMP      R0,#+1
   \   0000067E   02DA               BGE      ??List_Event_24
   \   00000680   0698               LDR      R0,[SP, #+24]
   \   00000682   0128               CMP      R0,#+1
   \   00000684   02DB               BLT      ??List_Event_25
   \                     ??List_Event_24:
   \   00000686   0A48               LDR      R0,??List_Event_10+0x14  ;; ??Xdown
   \   00000688   0021               MOVS     R1,#+0
   \   0000068A   0170               STRB     R1,[R0, #+0]
   2067              LastAns=ans;
   \                     ??List_Event_25:
   \   0000068C   0748               LDR      R0,??List_Event_10+0x10  ;; ??LastAns
   \   0000068E   0199               LDR      R1,[SP, #+4]
   \   00000690   0170               STRB     R1,[R0, #+0]
   2068              return ans;
   \   00000692   0198               LDR      R0,[SP, #+4]
   \   00000694   09B0               ADD      SP,SP,#+36
   \   00000696   F0BC               POP      {R4-R7}
   \   00000698   02BC               POP      {R1}
   \   0000069A   0847               BX       R1               ;; return
   \                     ??List_Event_10:
   \   0000069C   ........           DC32     ??LastAnsD
   \   000006A0   ........           DC32     RowsPoz
   \   000006A4   ........           DC32     ??SelectRow
   \   000006A8   ........           DC32     RealRows
   \   000006AC   ........           DC32     ??LastAns
   \   000006B0   ........           DC32     ??Xdown
   \   000006B4   E9D71300           DC32     0x13d7e9
   \   000006B8   ........           DC32     ButtonBipCounter
   \   000006BC   ........           DC32     g_counter
   \   000006C0   30F4FFFF           DC32     0xfffff430
   2069            
   2070              
   2071              
   2072          }//_______________________ Koniec funkcji List_Event __________________________

   \                                 In section .bss, align 1
   \                     ??SelectRow:
   \   00000000                      DS8 1

   \                                 In section .bss, align 1
   \                     ??DownAction:
   \   00000000                      DS8 1

   \                                 In section .bss, align 1
   \                     ??Xdown:
   \   00000000                      DS8 1

   \                                 In section .data, align 1
   \                     ??LastAnsD:
   \   00000000   FF                 DC8 255

   \                                 In section .data, align 1
   \                     ??LastAns:
   \   00000000   FF                 DC8 255
   2073          
   2074          
   2075          
   2076          
   2077          //*-----------------------------------------------------------------------------
   2078          //* Nazwa funkcji :    ScrollList_Paint
   2079          //* Funkcja rysowania listy
   2080          //*-----------------------------------------------------------------------------
   2081          //* name[7]   -  Nazwa listy
   2082          //* Size_scroll  -  wielkosc listy
   2083          //* poz   -1 -  poziome linie rozdzielaj¹ce
   2084          
   2085          //*-----------------------------------------------------------------------------
   2086          

   \                                 In section Debug.txt, align 4, keep-with-next
   2087          void ScrollList_Paint(char name[15], int Size_scroll, int *_Suw_poz, char poz)
   2088              {
   \                     ScrollList_Paint:
   \   00000000   F1B5               PUSH     {R0,R4-R7,LR}
   \   00000002   314C               LDR      R4,??ScrollList_Paint_0  ;; 0xfffffbf0
   \   00000004   A544               ADD      SP,SP,R4
   \   00000006   0C00               MOVS     R4,R1
   \   00000008   1500               MOVS     R5,R2
   \   0000000A   1E00               MOVS     R6,R3
   2089          
   2090                 char ekran_tab[8][128] = {
   2091                            {254,1,1,1,1,1,1,1,1,1,1,1,1,1,1,1,1,1,1,1,1,1,1,1,1,1,1,1,1,1,1,1,1,1,1,1,1,1,1,1,1,1,1,1,1,1,1,1,1,1,1,1,1,1,1,1,1,1,1,1,1,1,1,1,1,1,1,1,1,1,1,1,1,1,1,1,1,1,1,1,1,1,1,1,1,1,1,1,1,1,1,1,1,1,1,1,1,1,1,1,1,1,1,1,1,1,1,1,1,1,1,1,1,1,255,3,253,245,237,221,61,61,221,237,245,253,3,254},
   2092                            {255,0,0,0,0,0,0,0,0,0,0,0,0,0,0,0,0,0,0,0,0,0,0,0,0,0,0,0,0,0,0,0,0,0,0,0,0,0,0,0,0,0,0,0,0,0,0,0,0,0,0,0,0,0,0,0,0,0,0,0,0,0,0,0,0,0,0,0,0,0,0,0,0,0,0,0,0,0,0,0,0,0,0,0,0,0,0,0,0,0,0,0,0,0,0,0,0,0,0,0,0,0,0,0,0,0,0,0,0,0,0,0,0,0,255,240,239,235,237,238,239,239,238,237,235,239,240,255},
   2093                            {255,0,0,0,0,0,0,0,0,0,0,0,0,0,0,0,0,0,0,0,0,0,0,0,0,0,0,0,0,0,0,0,0,0,0,0,0,0,0,0,0,0,0,0,0,0,0,0,0,0,0,0,0,0,0,0,0,0,0,0,0,0,0,0,0,0,0,0,0,0,0,0,0,0,0,0,0,0,0,0,0,0,0,0,0,0,0,0,0,0,0,0,0,0,0,0,0,0,0,0,0,0,0,0,0,0,0,0,0,0,0,0,0,0,255,255,255,255,255,255,255,255,255,255,255,255,255,255},
   2094                            {255,0,0,0,0,0,0,0,0,0,0,0,0,0,0,0,0,0,0,0,0,0,0,0,0,0,0,0,0,0,0,0,0,0,0,0,0,0,0,0,0,0,0,0,0,0,0,0,0,0,0,0,0,0,0,0,0,0,0,0,0,0,0,0,0,0,0,0,0,0,0,0,0,0,0,0,0,0,0,0,0,0,0,0,0,0,0,0,0,0,0,0,0,0,0,0,0,0,0,0,0,0,0,0,0,0,0,0,0,0,0,0,0,0,255,255,255,255,255,255,255,255,255,255,255,255,255,255},
   2095                            {255,0,0,0,0,0,0,0,0,0,0,0,0,0,0,0,0,0,0,0,0,0,0,0,0,0,0,0,0,0,0,0,0,0,0,0,0,0,0,0,0,0,0,0,0,0,0,0,0,0,0,0,0,0,0,0,0,0,0,0,0,0,0,0,0,0,0,0,0,0,0,0,0,0,0,0,0,0,0,0,0,0,0,0,0,0,0,0,0,0,0,0,0,0,0,0,0,0,0,0,0,0,0,0,0,0,0,0,0,0,0,0,0,0,255,255,255,255,255,255,255,255,255,255,255,255,255,255},
   2096                            {255,0,0,0,0,0,0,0,0,0,0,0,0,0,0,0,0,0,0,0,0,0,0,0,0,0,0,0,0,0,0,0,0,0,0,0,0,0,0,0,0,0,0,0,0,0,0,0,0,0,0,0,0,0,0,0,0,0,0,0,0,0,0,0,0,0,0,0,0,0,0,0,0,0,0,0,0,0,0,0,0,0,0,0,0,0,0,0,0,0,0,0,0,0,0,0,0,0,0,0,0,0,0,0,0,0,0,0,0,0,0,0,0,0,255,255,255,255,255,255,255,255,255,255,255,255,255,255},
   2097                            {255,96,32,32,32,32,32,32,32,32,32,32,32,32,32,32,224,96,160,96,160,96,160,96,160,96,160,96,160,96,160,96,160,96,160,96,160,96,160,96,160,96,160,96,160,96,160,96,160,96,160,96,160,96,160,96,160,96,160,96,160,96,160,96,160,96,160,96,160,96,160,96,160,96,160,96,160,96,160,96,160,96,160,96,160,96,160,96,160,96,160,96,160,96,160,96,160,96,224,32,32,32,32,32,32,32,32,32,32,32,32,32,32,96,255,255,255,255,255,255,255,255,255,255,255,255,255,255},
   2098                            {127,192,128,128,128,128,132,142,159,155,128,128,128,128,128,128,255,213,170,213,170,213,170,213,170,213,170,213,170,213,170,213,170,213,170,213,170,213,170,213,170,213,170,213,170,213,170,213,170,213,170,213,170,213,170,213,170,213,170,213,170,213,170,213,170,213,170,213,170,213,170,213,170,213,170,213,170,213,170,213,170,213,170,213,170,213,170,213,170,213,170,213,170,213,170,213,170,213,255,128,128,128,128,155,159,142,132,128,128,128,128,128,128,192,255,255,255,255,255,255,255,255,255,255,255,255,127,63},
   2099                            };
   \   0000000C   04A8               ADD      R0,SP,#+16
   \   0000000E   2F49               LDR      R1,??ScrollList_Paint_0+0x4  ;; `?<Constant {{254, 1, 1, 1, 1, 1, 1, 1, 1, 1, 1`
   \   00000010   8022               MOVS     R2,#+128
   \   00000012   D200               LSLS     R2,R2,#+3        ;; #+1024
   \   00000014   ........           BL       __aeabi_memcpy4
   2100               
   2101                 
   2102                  char suwak[14] = {128,255,255,255,255,224,238,238,224,255,255,255,255,128};
   \   00000018   6846               MOV      R0,SP
   \   0000001A   2D49               LDR      R1,??ScrollList_Paint_0+0x8  ;; `?<Constant {128, 255, 255, 255, 255, 224, 238,`
   \   0000001C   1022               MOVS     R2,#+16
   \   0000001E   ........           BL       __aeabi_memcpy4
   2103                  
   2104                  int Suw_poz_tmp;
   2105                  //rysowanie wskaŸnika po³o¿enia
   2106                  if (Size_scroll>50)
   \   00000022   332C               CMP      R4,#+51
   \   00000024   16DB               BLT      ??ScrollList_Paint_1
   2107                  {
   2108                      Suw_poz_tmp=98-(((*_Suw_poz)*67)/Size_scroll)-14;
   \   00000026   5427               MOVS     R7,#+84
   \   00000028   2868               LDR      R0,[R5, #+0]
   \   0000002A   4321               MOVS     R1,#+67
   \   0000002C   4843               MULS     R0,R1,R0
   \   0000002E   2100               MOVS     R1,R4
   \   00000030   ........           BL       __aeabi_idivmod
   \   00000034   3F1A               SUBS     R7,R7,R0
   2109              
   2110                      for (int i=(Suw_poz_tmp); i<=Suw_poz_tmp+13; i++)
   \   00000036   3800               MOVS     R0,R7
   \   00000038   08E0               B        ??ScrollList_Paint_2
   2111                      {
   2112                        ekran_tab[7][i]=suwak[i-Suw_poz_tmp];
   \                     ??ScrollList_Paint_3:
   \   0000003A   E021               MOVS     R1,#+224
   \   0000003C   8900               LSLS     R1,R1,#+2        ;; #+896
   \   0000003E   04AA               ADD      R2,SP,#+16
   \   00000040   1218               ADDS     R2,R2,R0
   \   00000042   C31B               SUBS     R3,R0,R7
   \   00000044   6D46               MOV      R5,SP
   \   00000046   EB5C               LDRB     R3,[R5, R3]
   \   00000048   5354               STRB     R3,[R2, R1]
   2113                      }
   \   0000004A   401C               ADDS     R0,R0,#+1
   \                     ??ScrollList_Paint_2:
   \   0000004C   3900               MOVS     R1,R7
   \   0000004E   0D31               ADDS     R1,R1,#+13
   \   00000050   8142               CMP      R1,R0
   \   00000052   F2DA               BGE      ??ScrollList_Paint_3
   2114                  }
   2115                  
   2116                  CopyToCanvas(ekran_tab);
   \                     ??ScrollList_Paint_1:
   \   00000054   04A8               ADD      R0,SP,#+16
   \   00000056   ........           BL       CopyToCanvas
   2117                  
   2118                  Label(name,0,15,116,15,46,0,127,1);  //(char *Vstring, char alig, char X, int Y, char maxChar, char clean, char minY, char maxY, char negatyw) 
   \   0000005A   82B0               SUB      SP,SP,#+8
   \   0000005C   0120               MOVS     R0,#+1
   \   0000005E   0090               STR      R0,[SP, #+0]
   \   00000060   7F21               MOVS     R1,#+127
   \   00000062   0020               MOVS     R0,#+0
   \   00000064   03B4               PUSH     {R0,R1}
   \   00000066   2E21               MOVS     R1,#+46
   \   00000068   0F20               MOVS     R0,#+15
   \   0000006A   03B4               PUSH     {R0,R1}
   \   0000006C   7423               MOVS     R3,#+116
   \   0000006E   0F22               MOVS     R2,#+15
   \   00000070   0021               MOVS     R1,#+0
   \   00000072   FFA8               ADD      R0,SP,#+1020
   \   00000074   C06A               LDR      R0,[R0, #+44]
   \   00000076   ........           BL       Label
   \   0000007A   06B0               ADD      SP,SP,#+24
   2119                  if ((poz) && (Size_scroll>50))
   \   0000007C   3606               LSLS     R6,R6,#+24       ;; ZeroExtS R6,R6,#+24,#+24
   \   0000007E   360E               LSRS     R6,R6,#+24
   \   00000080   002E               CMP      R6,#+0
   \   00000082   1CD0               BEQ      ??ScrollList_Paint_4
   \   00000084   332C               CMP      R4,#+51
   \   00000086   1ADB               BLT      ??ScrollList_Paint_4
   2120                  {
   2121                    H_line(54,Suw_poz_tmp,9,0);
   \   00000088   0023               MOVS     R3,#+0
   \   0000008A   0922               MOVS     R2,#+9
   \   0000008C   3900               MOVS     R1,R7
   \   0000008E   3620               MOVS     R0,#+54
   \   00000090   ........           BL       H_line
   2122                    H_line(54,Suw_poz_tmp+13,9,0);
   \   00000094   0023               MOVS     R3,#+0
   \   00000096   0922               MOVS     R2,#+9
   \   00000098   3900               MOVS     R1,R7
   \   0000009A   0D31               ADDS     R1,R1,#+13
   \   0000009C   3620               MOVS     R0,#+54
   \   0000009E   ........           BL       H_line
   2123                    V_line(54,Suw_poz_tmp+1,12,1); 
   \   000000A2   0123               MOVS     R3,#+1
   \   000000A4   0C22               MOVS     R2,#+12
   \   000000A6   3900               MOVS     R1,R7
   \   000000A8   491C               ADDS     R1,R1,#+1
   \   000000AA   3620               MOVS     R0,#+54
   \   000000AC   ........           BL       V_line
   2124                    V_line(55,Suw_poz_tmp+1,12,1); 
   \   000000B0   0123               MOVS     R3,#+1
   \   000000B2   0C22               MOVS     R2,#+12
   \   000000B4   7F1C               ADDS     R7,R7,#+1
   \   000000B6   3900               MOVS     R1,R7
   \   000000B8   3720               MOVS     R0,#+55
   \   000000BA   ........           BL       V_line
   2125                  }
   2126              
   2127              }//_________________________________________________________________________
   \                     ??ScrollList_Paint_4:
   \   000000BE   0548               LDR      R0,??ScrollList_Paint_0+0xC  ;; 0x414
   \   000000C0   8544               ADD      SP,SP,R0
   \   000000C2   F0BC               POP      {R4-R7}
   \   000000C4   01BC               POP      {R0}
   \   000000C6   0047               BX       R0               ;; return
   \                     ??ScrollList_Paint_0:
   \   000000C8   F0FBFFFF           DC32     0xfffffbf0
   \   000000CC   ........           DC32     `?<Constant {{254, 1, 1, 1, 1, 1, 1, 1, 1, 1, 1`
   \   000000D0   ........           DC32     `?<Constant {128, 255, 255, 255, 255, 224, 238,`
   \   000000D4   14040000           DC32     0x414
   2128          
   2129          
   2130          
   2131          
   2132          
   2133          //*-----------------------------------------------------------------------------
   2134          //* Nazwa funkcji :    Ask_Paint
   2135          //* Funkcja rysowania listy
   2136          //*-----------------------------------------------------------------------------
   2137          //* name[7]   -  Nazwa listy
   2138          //* p1...p2   - nazwy kolejnych pól
   2139          //*-----------------------------------------------------------------------------

   \                                 In section Debug.txt, align 4, keep-with-next
   2140          void Ask_Paint(char name[10], char p1[15], char p2[15])
   2141          {
   \                     Ask_Paint:
   \   00000000   70B5               PUSH     {R4-R6,LR}
   \   00000002   9EB0               SUB      SP,SP,#+120
   \   00000004   0600               MOVS     R6,R0
   \   00000006   0C00               MOVS     R4,R1
   \   00000008   1500               MOVS     R5,R2
   2142          
   2143          
   2144              List_Paint(name,1,47,25,0,3," "); //(char name[7], char Rows, char RowWith, char Y, char FormStyle, char back, char p1[12], char p2[12] , char p3[12] , char p4[12] , char p5[12] , char p6[12] , char p7[12] , char p8[12])
   \   0000000A   82B0               SUB      SP,SP,#+8
   \   0000000C   2DA0               ADR      R0,??Ask_Paint_0  ;; 0x20, 0x00, 0x00, 0x00
   \   0000000E   0090               STR      R0,[SP, #+0]
   \   00000010   0321               MOVS     R1,#+3
   \   00000012   0020               MOVS     R0,#+0
   \   00000014   03B4               PUSH     {R0,R1}
   \   00000016   1923               MOVS     R3,#+25
   \   00000018   2F22               MOVS     R2,#+47
   \   0000001A   0121               MOVS     R1,#+1
   \   0000001C   3000               MOVS     R0,R6
   \   0000001E   ........           BL       List_Paint
   \   00000022   04B0               ADD      SP,SP,#+16
   2145                 
   2146              
   2147             if (p1!="") Label(p1,2,2,71,15,59,0,127,0);  //(char *Vstring, char alig, char X, int Y, char maxChar, char clean, char minY, char maxY, char negatyw) 
   \   00000024   28A0               ADR      R0,??Ask_Paint_0+0x4  ;; 0x00, 0x00, 0x00, 0x00
   \   00000026   8442               CMP      R4,R0
   \   00000028   0FD0               BEQ      ??Ask_Paint_1
   \   0000002A   82B0               SUB      SP,SP,#+8
   \   0000002C   0020               MOVS     R0,#+0
   \   0000002E   0090               STR      R0,[SP, #+0]
   \   00000030   7F21               MOVS     R1,#+127
   \   00000032   0020               MOVS     R0,#+0
   \   00000034   03B4               PUSH     {R0,R1}
   \   00000036   3B21               MOVS     R1,#+59
   \   00000038   0F20               MOVS     R0,#+15
   \   0000003A   03B4               PUSH     {R0,R1}
   \   0000003C   4723               MOVS     R3,#+71
   \   0000003E   0222               MOVS     R2,#+2
   \   00000040   0221               MOVS     R1,#+2
   \   00000042   2000               MOVS     R0,R4
   \   00000044   ........           BL       Label
   \   00000048   06B0               ADD      SP,SP,#+24
   2148             if (p2!="")  Label(p2,2,2,62,15,59,0,127,0);  //(char *Vstring, char alig, char X, int Y, char maxChar, char clean, char minY, char maxY, char negatyw) 
   \                     ??Ask_Paint_1:
   \   0000004A   1FA0               ADR      R0,??Ask_Paint_0+0x4  ;; 0x00, 0x00, 0x00, 0x00
   \   0000004C   8542               CMP      R5,R0
   \   0000004E   0FD0               BEQ      ??Ask_Paint_2
   \   00000050   82B0               SUB      SP,SP,#+8
   \   00000052   0020               MOVS     R0,#+0
   \   00000054   0090               STR      R0,[SP, #+0]
   \   00000056   7F21               MOVS     R1,#+127
   \   00000058   0020               MOVS     R0,#+0
   \   0000005A   03B4               PUSH     {R0,R1}
   \   0000005C   3B21               MOVS     R1,#+59
   \   0000005E   0F20               MOVS     R0,#+15
   \   00000060   03B4               PUSH     {R0,R1}
   \   00000062   3E23               MOVS     R3,#+62
   \   00000064   0222               MOVS     R2,#+2
   \   00000066   0221               MOVS     R1,#+2
   \   00000068   2800               MOVS     R0,R5
   \   0000006A   ........           BL       Label
   \   0000006E   06B0               ADD      SP,SP,#+24
   2149              Label(" ",2,2,53,15,59,0,127,0);  //(char *Vstring, char alig, char X, int Y, char maxChar, char clean, char minY, char maxY, char negatyw) 
   \                     ??Ask_Paint_2:
   \   00000070   82B0               SUB      SP,SP,#+8
   \   00000072   0020               MOVS     R0,#+0
   \   00000074   0090               STR      R0,[SP, #+0]
   \   00000076   7F21               MOVS     R1,#+127
   \   00000078   0020               MOVS     R0,#+0
   \   0000007A   03B4               PUSH     {R0,R1}
   \   0000007C   3B21               MOVS     R1,#+59
   \   0000007E   0F20               MOVS     R0,#+15
   \   00000080   03B4               PUSH     {R0,R1}
   \   00000082   3523               MOVS     R3,#+53
   \   00000084   0222               MOVS     R2,#+2
   \   00000086   0221               MOVS     R1,#+2
   \   00000088   0EA0               ADR      R0,??Ask_Paint_0  ;; 0x20, 0x00, 0x00, 0x00
   \   0000008A   ........           BL       Label
   \   0000008E   06B0               ADD      SP,SP,#+24
   2150          
   2151          
   2152              
   2153              char ekran_tab[8][15] = {
   2154                            {249,13,245,245,245,245,245,245,245,245,245,245,245,13,249},
   2155                            {255,0,255,255,119,55,55,87,103,103,119,255,255,0,255},
   2156                            {255,0,255,255,199,187,187,187,187,187,199,255,255,0,255},
   2157                            {63,96,95,95,95,95,95,95,95,95,95,95,95,96,63},
   2158                            {254,3,253,253,253,253,253,253,253,253,253,253,253,3,254},
   2159                            {255,0,255,255,227,221,221,221,221,221,227,255,255,0,255},
   2160                            {255,0,255,255,238,246,250,252,250,246,238,255,255,0,255},
   2161                            {207,216,215,215,215,215,215,215,215,215,215,215,215,216,207},
   2162                            };
   \   00000090   6846               MOV      R0,SP
   \   00000092   0E49               LDR      R1,??Ask_Paint_0+0x8  ;; `?<Constant {{249, 13, 245, 245, 245, 245, 245,`
   \   00000094   7822               MOVS     R2,#+120
   \   00000096   ........           BL       __aeabi_memcpy4
   2163              
   2164              CopyToCanvasPoint((char *)ekran_tab,0,40,64,15); 
   \   0000009A   82B0               SUB      SP,SP,#+8
   \   0000009C   0F20               MOVS     R0,#+15
   \   0000009E   0090               STR      R0,[SP, #+0]
   \   000000A0   4023               MOVS     R3,#+64
   \   000000A2   2822               MOVS     R2,#+40
   \   000000A4   0021               MOVS     R1,#+0
   \   000000A6   02A8               ADD      R0,SP,#+8
   \   000000A8   ........           BL       CopyToCanvasPoint
   \   000000AC   02B0               ADD      SP,SP,#+8
   2165              H_line(2,57,59,1); 
   \   000000AE   0123               MOVS     R3,#+1
   \   000000B0   3B22               MOVS     R2,#+59
   \   000000B2   3921               MOVS     R1,#+57
   \   000000B4   0220               MOVS     R0,#+2
   \   000000B6   ........           BL       H_line
   2166              
   2167              
   2168          }//_______________________ Koniec funkcji Ask_Paint __________________________
   \   000000BA   1EB0               ADD      SP,SP,#+120
   \   000000BC   70BC               POP      {R4-R6}
   \   000000BE   01BC               POP      {R0}
   \   000000C0   0047               BX       R0               ;; return
   \   000000C2   C046               Nop      
   \                     ??Ask_Paint_0:
   \   000000C4   20000000           DC8      0x20, 0x00, 0x00, 0x00
   \   000000C8   00000000           DC8      0x00, 0x00, 0x00, 0x00
   \   000000CC   ........           DC32     `?<Constant {{249, 13, 245, 245, 245, 245, 245,`
   2169          
   2170          
   2171          
   2172          
   2173          //*-----------------------------------------------------------------------------
   2174          //* Nazwa funkcji :    List_Event
   2175          //* Funkcja rysowania listy
   2176          //*-----------------------------------------------------------------------------
   2177          //* name[7]   -  Nazwa listy
   2178          //* Rows      -  ilosc wierszy
   2179          //* RowWith   -  szerokosc wiersza
   2180          //* Y         -  odsuniecie od górnej krawêdzi
   2181          //* p1...p8   - nazwy kolejnych pól
   2182          //*-----------------------------------------------------------------------------

   \                                 In section Debug.txt, align 4, keep-with-next
   2183          int Ask_Event(int X_up, int Y_up, int X_down, int Y_down)
   2184          {
   \                     Ask_Event:
   \   00000000   F3B5               PUSH     {R0,R1,R4-R7,LR}
   \   00000002   81B0               SUB      SP,SP,#+4
   \   00000004   1400               MOVS     R4,R2
   \   00000006   1D00               MOVS     R5,R3
   2185            char Y=25;
   \   00000008   6846               MOV      R0,SP
   \   0000000A   1921               MOVS     R1,#+25
   \   0000000C   0170               STRB     R1,[R0, #+0]
   2186            
   2187            char podswietl=0;
                        ^
Warning[Pe550]: variable "podswietl" was set but never used
   \   0000000E   0020               MOVS     R0,#+0
   2188            int ans = 0;
   \   00000010   0026               MOVS     R6,#+0
   2189            
   2190          
   2191          
   2192          
   2193            
   2194            //zdarzenie typu down 
   2195              for (char i=0; i<=30; i=i+30)
   \   00000012   0027               MOVS     R7,#+0
   \   00000014   35E0               B        ??Ask_Event_0
   2196              {
   2197            
   2198                  if ((X_down>2+i) && (X_down<51+i) &&  (Y_down>38) && (Y_down<55))   
   \                     ??Ask_Event_1:
   \   00000016   3F06               LSLS     R7,R7,#+24       ;; ZeroExtS R7,R7,#+24,#+24
   \   00000018   3F0E               LSRS     R7,R7,#+24
   \   0000001A   3800               MOVS     R0,R7
   \   0000001C   801C               ADDS     R0,R0,#+2
   \   0000001E   A042               CMP      R0,R4
   \   00000020   2EDA               BGE      ??Ask_Event_2
   \   00000022   3F06               LSLS     R7,R7,#+24       ;; ZeroExtS R7,R7,#+24,#+24
   \   00000024   3F0E               LSRS     R7,R7,#+24
   \   00000026   3800               MOVS     R0,R7
   \   00000028   3330               ADDS     R0,R0,#+51
   \   0000002A   8442               CMP      R4,R0
   \   0000002C   28DA               BGE      ??Ask_Event_2
   \   0000002E   272D               CMP      R5,#+39
   \   00000030   26DB               BLT      ??Ask_Event_2
   \   00000032   372D               CMP      R5,#+55
   \   00000034   24DA               BGE      ??Ask_Event_2
   2199                  {  
   2200                    //MenuPaint();
   2201                    H_line(4+i,41,26,1);
   \   00000036   0123               MOVS     R3,#+1
   \   00000038   1A22               MOVS     R2,#+26
   \   0000003A   2921               MOVS     R1,#+41
   \   0000003C   3800               MOVS     R0,R7
   \   0000003E   001D               ADDS     R0,R0,#+4
   \   00000040   0006               LSLS     R0,R0,#+24       ;; ZeroExtS R0,R0,#+24,#+24
   \   00000042   000E               LSRS     R0,R0,#+24
   \   00000044   ........           BL       H_line
   2202                    H_line(4+i,53,26,1);
   \   00000048   0123               MOVS     R3,#+1
   \   0000004A   1A22               MOVS     R2,#+26
   \   0000004C   3521               MOVS     R1,#+53
   \   0000004E   3800               MOVS     R0,R7
   \   00000050   001D               ADDS     R0,R0,#+4
   \   00000052   0006               LSLS     R0,R0,#+24       ;; ZeroExtS R0,R0,#+24,#+24
   \   00000054   000E               LSRS     R0,R0,#+24
   \   00000056   ........           BL       H_line
   2203                    V_line(3+i,41,12,1);
   \   0000005A   0123               MOVS     R3,#+1
   \   0000005C   0C22               MOVS     R2,#+12
   \   0000005E   2921               MOVS     R1,#+41
   \   00000060   3800               MOVS     R0,R7
   \   00000062   C01C               ADDS     R0,R0,#+3
   \   00000064   0006               LSLS     R0,R0,#+24       ;; ZeroExtS R0,R0,#+24,#+24
   \   00000066   000E               LSRS     R0,R0,#+24
   \   00000068   ........           BL       V_line
   2204                    V_line(29+i,42,13,1);
   \   0000006C   0123               MOVS     R3,#+1
   \   0000006E   0D22               MOVS     R2,#+13
   \   00000070   2A21               MOVS     R1,#+42
   \   00000072   3800               MOVS     R0,R7
   \   00000074   1D30               ADDS     R0,R0,#+29
   \   00000076   0006               LSLS     R0,R0,#+24       ;; ZeroExtS R0,R0,#+24,#+24
   \   00000078   000E               LSRS     R0,R0,#+24
   \   0000007A   ........           BL       V_line
   2205                    podswietl=1;
   \   0000007E   0120               MOVS     R0,#+1
   2206                  }
   2207              }
   \                     ??Ask_Event_2:
   \   00000080   1E37               ADDS     R7,R7,#+30
   \                     ??Ask_Event_0:
   \   00000082   3F06               LSLS     R7,R7,#+24       ;; ZeroExtS R7,R7,#+24,#+24
   \   00000084   3F0E               LSRS     R7,R7,#+24
   \   00000086   1F2F               CMP      R7,#+31
   \   00000088   C5D3               BCC      ??Ask_Event_1
   2208          
   2209           
   2210            //zdarzenie typu down "X"
   2211              if ((X_down>46) && (X_down<63) && (Y_down>112-Y) && (Y_down<127-Y))    //"X"
   \   0000008A   2F2C               CMP      R4,#+47
   \   0000008C   32DB               BLT      ??Ask_Event_3
   \   0000008E   3F2C               CMP      R4,#+63
   \   00000090   30DA               BGE      ??Ask_Event_3
   \   00000092   7020               MOVS     R0,#+112
   \   00000094   6946               MOV      R1,SP
   \   00000096   0978               LDRB     R1,[R1, #+0]
   \   00000098   401A               SUBS     R0,R0,R1
   \   0000009A   A842               CMP      R0,R5
   \   0000009C   2ADA               BGE      ??Ask_Event_3
   \   0000009E   7F20               MOVS     R0,#+127
   \   000000A0   6946               MOV      R1,SP
   \   000000A2   0978               LDRB     R1,[R1, #+0]
   \   000000A4   401A               SUBS     R0,R0,R1
   \   000000A6   8542               CMP      R5,R0
   \   000000A8   24DA               BGE      ??Ask_Event_3
   2212              {
   2213                //MenuPaint();
   2214                H_line(49,114-Y,10,0);
   \   000000AA   0023               MOVS     R3,#+0
   \   000000AC   0A22               MOVS     R2,#+10
   \   000000AE   7220               MOVS     R0,#+114
   \   000000B0   6946               MOV      R1,SP
   \   000000B2   0978               LDRB     R1,[R1, #+0]
   \   000000B4   411A               SUBS     R1,R0,R1
   \   000000B6   3120               MOVS     R0,#+49
   \   000000B8   ........           BL       H_line
   2215                H_line(49,123-Y,10,0); 
   \   000000BC   0023               MOVS     R3,#+0
   \   000000BE   0A22               MOVS     R2,#+10
   \   000000C0   7B20               MOVS     R0,#+123
   \   000000C2   6946               MOV      R1,SP
   \   000000C4   0978               LDRB     R1,[R1, #+0]
   \   000000C6   411A               SUBS     R1,R0,R1
   \   000000C8   3120               MOVS     R0,#+49
   \   000000CA   ........           BL       H_line
   2216                V_line(49,114-Y,10,0); 
   \   000000CE   0023               MOVS     R3,#+0
   \   000000D0   0A22               MOVS     R2,#+10
   \   000000D2   7220               MOVS     R0,#+114
   \   000000D4   6946               MOV      R1,SP
   \   000000D6   0978               LDRB     R1,[R1, #+0]
   \   000000D8   411A               SUBS     R1,R0,R1
   \   000000DA   3120               MOVS     R0,#+49
   \   000000DC   ........           BL       V_line
   2217                V_line(58,114-Y,10,0); 
   \   000000E0   0023               MOVS     R3,#+0
   \   000000E2   0A22               MOVS     R2,#+10
   \   000000E4   7220               MOVS     R0,#+114
   \   000000E6   6946               MOV      R1,SP
   \   000000E8   0978               LDRB     R1,[R1, #+0]
   \   000000EA   411A               SUBS     R1,R0,R1
   \   000000EC   3A20               MOVS     R0,#+58
   \   000000EE   ........           BL       V_line
   2218                podswietl=1;
   \   000000F2   0120               MOVS     R0,#+1
   2219              }
   2220            
   2221              
   2222              if ((X_up>46) && (X_up<63) && (Y_up>112-Y) && (Y_up<127-Y))                    //"X"
   \                     ??Ask_Event_3:
   \   000000F4   0198               LDR      R0,[SP, #+4]
   \   000000F6   2F28               CMP      R0,#+47
   \   000000F8   12DB               BLT      ??Ask_Event_4
   \   000000FA   0198               LDR      R0,[SP, #+4]
   \   000000FC   3F28               CMP      R0,#+63
   \   000000FE   0FDA               BGE      ??Ask_Event_4
   \   00000100   7020               MOVS     R0,#+112
   \   00000102   6946               MOV      R1,SP
   \   00000104   0978               LDRB     R1,[R1, #+0]
   \   00000106   401A               SUBS     R0,R0,R1
   \   00000108   0299               LDR      R1,[SP, #+8]
   \   0000010A   8842               CMP      R0,R1
   \   0000010C   08DA               BGE      ??Ask_Event_4
   \   0000010E   0298               LDR      R0,[SP, #+8]
   \   00000110   7F21               MOVS     R1,#+127
   \   00000112   6A46               MOV      R2,SP
   \   00000114   1278               LDRB     R2,[R2, #+0]
   \   00000116   891A               SUBS     R1,R1,R2
   \   00000118   8842               CMP      R0,R1
   \   0000011A   01DA               BGE      ??Ask_Event_4
   2223              {
   2224                ans = -1;
   \   0000011C   0026               MOVS     R6,#+0
   \   0000011E   F643               MVNS     R6,R6            ;; #-1
   2225              }  
   2226          
   2227              
   2228                //zdarzenie typu down 
   2229              for (char i=0; i<=1; i++)
   \                     ??Ask_Event_4:
   \   00000120   0020               MOVS     R0,#+0
   \   00000122   1AE0               B        ??Ask_Event_5
   2230              {
   2231                  if ((X_up>2+(i*30)) && (X_up<51+(i*30)) &&  (Y_up>38) && (Y_up<55))   
   \                     ??Ask_Event_6:
   \   00000124   0006               LSLS     R0,R0,#+24       ;; ZeroExtS R0,R0,#+24,#+24
   \   00000126   000E               LSRS     R0,R0,#+24
   \   00000128   1E21               MOVS     R1,#+30
   \   0000012A   4143               MULS     R1,R0,R1
   \   0000012C   891C               ADDS     R1,R1,#+2
   \   0000012E   019A               LDR      R2,[SP, #+4]
   \   00000130   9142               CMP      R1,R2
   \   00000132   11DA               BGE      ??Ask_Event_7
   \   00000134   0199               LDR      R1,[SP, #+4]
   \   00000136   0006               LSLS     R0,R0,#+24       ;; ZeroExtS R0,R0,#+24,#+24
   \   00000138   000E               LSRS     R0,R0,#+24
   \   0000013A   1E22               MOVS     R2,#+30
   \   0000013C   4243               MULS     R2,R0,R2
   \   0000013E   3332               ADDS     R2,R2,#+51
   \   00000140   9142               CMP      R1,R2
   \   00000142   09DA               BGE      ??Ask_Event_7
   \   00000144   0299               LDR      R1,[SP, #+8]
   \   00000146   2729               CMP      R1,#+39
   \   00000148   06DB               BLT      ??Ask_Event_7
   \   0000014A   0299               LDR      R1,[SP, #+8]
   \   0000014C   3729               CMP      R1,#+55
   \   0000014E   03DA               BGE      ??Ask_Event_7
   2232                  {  
   2233                     ans=i+1;
   \   00000150   0006               LSLS     R0,R0,#+24       ;; ZeroExtS R0,R0,#+24,#+24
   \   00000152   000E               LSRS     R0,R0,#+24
   \   00000154   0600               MOVS     R6,R0
   \   00000156   761C               ADDS     R6,R6,#+1
   2234                  }
   2235              }
   \                     ??Ask_Event_7:
   \   00000158   401C               ADDS     R0,R0,#+1
   \                     ??Ask_Event_5:
   \   0000015A   0006               LSLS     R0,R0,#+24       ;; ZeroExtS R0,R0,#+24,#+24
   \   0000015C   000E               LSRS     R0,R0,#+24
   \   0000015E   0228               CMP      R0,#+2
   \   00000160   E0D3               BCC      ??Ask_Event_6
   2236          
   2237             // if ((X_down>=0) && (X_down<64) && (podswietl==0)) {MenuPaint();}
   2238          
   2239          
   2240              return ans;
   \   00000162   3000               MOVS     R0,R6
   \   00000164   03B0               ADD      SP,SP,#+12
   \   00000166   F0BC               POP      {R4-R7}
   \   00000168   02BC               POP      {R1}
   \   0000016A   0847               BX       R1               ;; return
   2241            
   2242          }//_______________________ Koniec funkcji List_Event __________________________
   2243          
   2244          
   2245          
   2246          
   2247          //*-----------------------------------------------------------------------------
   2248          //* Nazwa funkcji :    Info_Paint
   2249          //* Funkcja info
   2250          //*-----------------------------------------------------------------------------
   2251          //* p1...p2   - nazwy kolejnych pól
   2252          //*-----------------------------------------------------------------------------

   \                                 In section Debug.txt, align 4, keep-with-next
   2253          void Message(char p1[15], char p2[15], int MenuLevelJump)
   2254          {
   \                     Message:
   \   00000000   70B5               PUSH     {R4-R6,LR}
   \   00000002   0400               MOVS     R4,R0
   \   00000004   0D00               MOVS     R5,R1
   \   00000006   1600               MOVS     R6,R2
   2255          
   2256          
   2257              List_Paint("Info ",1,47,25,0,3,0,0,0,0,0,0,0,0); //(char name[7], char Rows, char RowWith, char Y, char FormStyle, char back, char p1[12], char p2[12] , char p3[12] , char p4[12] , char p5[12] , char p6[12] , char p7[12] , char p8[12])
   \   00000008   0021               MOVS     R1,#+0
   \   0000000A   0020               MOVS     R0,#+0
   \   0000000C   03B4               PUSH     {R0,R1}
   \   0000000E   0021               MOVS     R1,#+0
   \   00000010   0020               MOVS     R0,#+0
   \   00000012   03B4               PUSH     {R0,R1}
   \   00000014   0021               MOVS     R1,#+0
   \   00000016   0020               MOVS     R0,#+0
   \   00000018   03B4               PUSH     {R0,R1}
   \   0000001A   0021               MOVS     R1,#+0
   \   0000001C   0020               MOVS     R0,#+0
   \   0000001E   03B4               PUSH     {R0,R1}
   \   00000020   0321               MOVS     R1,#+3
   \   00000022   0020               MOVS     R0,#+0
   \   00000024   03B4               PUSH     {R0,R1}
   \   00000026   1923               MOVS     R3,#+25
   \   00000028   2F22               MOVS     R2,#+47
   \   0000002A   0121               MOVS     R1,#+1
   \   0000002C   2948               LDR      R0,??Message_0   ;; `?<Constant "Info ">`
   \   0000002E   ........           BL       List_Paint
   \   00000032   0AB0               ADD      SP,SP,#+40
   2258                 
   2259              
   2260             if (p1!="")  Label(p1,2,2,71,15,59,0,127,0);  //(char *Vstring, char alig, char X, int Y, char maxChar, char clean, char minY, char maxY, char negatyw) 
   \   00000034   28A0               ADR      R0,??Message_0+0x4  ;; 0x00, 0x00, 0x00, 0x00
   \   00000036   8442               CMP      R4,R0
   \   00000038   0FD0               BEQ      ??Message_1
   \   0000003A   82B0               SUB      SP,SP,#+8
   \   0000003C   0020               MOVS     R0,#+0
   \   0000003E   0090               STR      R0,[SP, #+0]
   \   00000040   7F21               MOVS     R1,#+127
   \   00000042   0020               MOVS     R0,#+0
   \   00000044   03B4               PUSH     {R0,R1}
   \   00000046   3B21               MOVS     R1,#+59
   \   00000048   0F20               MOVS     R0,#+15
   \   0000004A   03B4               PUSH     {R0,R1}
   \   0000004C   4723               MOVS     R3,#+71
   \   0000004E   0222               MOVS     R2,#+2
   \   00000050   0221               MOVS     R1,#+2
   \   00000052   2000               MOVS     R0,R4
   \   00000054   ........           BL       Label
   \   00000058   06B0               ADD      SP,SP,#+24
   2261             if (p2!="")  Label(p2,2,2,62,15,59,0,127,0);  //(char *Vstring, char alig, char X, int Y, char maxChar, char clean, char minY, char maxY, char negatyw) 
   \                     ??Message_1:
   \   0000005A   1FA0               ADR      R0,??Message_0+0x4  ;; 0x00, 0x00, 0x00, 0x00
   \   0000005C   8542               CMP      R5,R0
   \   0000005E   0FD0               BEQ      ??Message_2
   \   00000060   82B0               SUB      SP,SP,#+8
   \   00000062   0020               MOVS     R0,#+0
   \   00000064   0090               STR      R0,[SP, #+0]
   \   00000066   7F21               MOVS     R1,#+127
   \   00000068   0020               MOVS     R0,#+0
   \   0000006A   03B4               PUSH     {R0,R1}
   \   0000006C   3B21               MOVS     R1,#+59
   \   0000006E   0F20               MOVS     R0,#+15
   \   00000070   03B4               PUSH     {R0,R1}
   \   00000072   3E23               MOVS     R3,#+62
   \   00000074   0222               MOVS     R2,#+2
   \   00000076   0221               MOVS     R1,#+2
   \   00000078   2800               MOVS     R0,R5
   \   0000007A   ........           BL       Label
   \   0000007E   06B0               ADD      SP,SP,#+24
   2262              Label(" ",2,2,53,15,59,0,127,0);  //(char *Vstring, char alig, char X, int Y, char maxChar, char clean, char minY, char maxY, char negatyw) 
   \                     ??Message_2:
   \   00000080   82B0               SUB      SP,SP,#+8
   \   00000082   0020               MOVS     R0,#+0
   \   00000084   0090               STR      R0,[SP, #+0]
   \   00000086   7F21               MOVS     R1,#+127
   \   00000088   0020               MOVS     R0,#+0
   \   0000008A   03B4               PUSH     {R0,R1}
   \   0000008C   3B21               MOVS     R1,#+59
   \   0000008E   0F20               MOVS     R0,#+15
   \   00000090   03B4               PUSH     {R0,R1}
   \   00000092   3523               MOVS     R3,#+53
   \   00000094   0222               MOVS     R2,#+2
   \   00000096   0221               MOVS     R1,#+2
   \   00000098   10A0               ADR      R0,??Message_0+0x8  ;; 0x20, 0x00, 0x00, 0x00
   \   0000009A   ........           BL       Label
   \   0000009E   06B0               ADD      SP,SP,#+24
   2263              H_line(2,57,59,1); 
   \   000000A0   0123               MOVS     R3,#+1
   \   000000A2   3B22               MOVS     R2,#+59
   \   000000A4   3921               MOVS     R1,#+57
   \   000000A6   0220               MOVS     R0,#+2
   \   000000A8   ........           BL       H_line
   2264             
   2265              if (Button("Ok ",12,40,40,15))
   \   000000AC   82B0               SUB      SP,SP,#+8
   \   000000AE   0F20               MOVS     R0,#+15
   \   000000B0   0090               STR      R0,[SP, #+0]
   \   000000B2   2823               MOVS     R3,#+40
   \   000000B4   2822               MOVS     R2,#+40
   \   000000B6   0C21               MOVS     R1,#+12
   \   000000B8   09A0               ADR      R0,??Message_0+0xC  ;; "Ok "
   \   000000BA   ........           BL       Button
   \   000000BE   02B0               ADD      SP,SP,#+8
   \   000000C0   0028               CMP      R0,#+0
   \   000000C2   03D0               BEQ      ??Message_3
   2266              {
   2267                MenuLevel=MenuLevelJump;
   \   000000C4   0748               LDR      R0,??Message_0+0x10  ;; MenuLevel
   \   000000C6   0660               STR      R6,[R0, #+0]
   2268                MenuPaint();
                       ^
Warning[Pe223]: function "MenuPaint" declared implicitly
   \   000000C8   ........           BL       MenuPaint
   2269              }
   2270              
   2271              
   2272          }//_______________________ Koniec funkcji Info_Paint __________________________
   \                     ??Message_3:
   \   000000CC   70BC               POP      {R4-R6}
   \   000000CE   01BC               POP      {R0}
   \   000000D0   0047               BX       R0               ;; return
   \   000000D2   C046               Nop      
   \                     ??Message_0:
   \   000000D4   ........           DC32     `?<Constant "Info ">`
   \   000000D8   00000000           DC8      0x00, 0x00, 0x00, 0x00
   \   000000DC   20000000           DC8      0x20, 0x00, 0x00, 0x00
   \   000000E0   4F6B2000           DC8      "Ok "
   \   000000E4   ........           DC32     MenuLevel
   2273          
   2274          
   2275          
   2276          
   2277          //*-----------------------------------------------------------------------------
   2278          //* Nazwa funkcji :    List_Paint
   2279          //* Funkcja rysowania listy
   2280          //*-----------------------------------------------------------------------------
   2281          //* name[7]   -  Nazwa listy
   2282          //* Rows      -  ilosc wierszy
   2283          //* RowWith   -  szerokosc wiersza
   2284          //* Y         -  odsuniecie od górnej krawêdzi
   2285          //* FormStyle -  rodzaj formy 0-zwyk³a 1..-coraz mniejsze
   2286          //* Algin     - wyrównanie 0-pion œrodek, poziom lowo, 1-pion góra, poziom lowo, 2 pion dó³, poziom lowo, 3-pion œrodek, poziom wyœrodkowanie
   2287          //* p1...p8   - nazwy kolejnych pól
   2288          //*-----------------------------------------------------------------------------

   \                                 In section Debug.txt, align 4, keep-with-next
   2289          void Number_Paint(char name[10], char p1[1], char p2[1])
   2290          {
   \                     Number_Paint:
   \   00000000   70B5               PUSH     {R4-R6,LR}
   \   00000002   234B               LDR      R3,??Number_Paint_0  ;; 0xfffffc00
   \   00000004   9D44               ADD      SP,SP,R3
   \   00000006   0600               MOVS     R6,R0
   \   00000008   0C00               MOVS     R4,R1
   \   0000000A   1500               MOVS     R5,R2
   2291           
   2292            CleanCanvas();
   \   0000000C   ........           BL       CleanCanvas
   2293          
   2294            char ekran_tab[8][128] = {
   2295                            {254,255,3,249,5,245,245,245,245,245,245,245,245,245,245,245,245,245,245,5,249,1,1,249,5,245,245,245,245,245,245,245,245,245,245,245,245,245,245,5,249,1,1,249,5,245,245,245,245,245,245,245,245,245,245,245,245,245,245,5,249,1,1,249,5,245,245,245,245,245,245,245,245,245,245,245,245,245,245,5,249,3,255,255,255,3,3,3,3,3,3,3,3,3,3,3,3,3,3,3,3,3,3,3,3,3,3,3,3,3,3,3,255,3,255,255,255,255,255,255,255,255,255,255,255,254,252,248},
   2296                            {255,255,0,255,0,255,255,255,255,255,255,255,255,255,255,255,255,255,255,0,255,0,0,255,0,255,255,249,249,249,243,243,243,231,231,207,192,255,255,0,255,0,0,255,0,255,255,231,231,192,230,229,229,227,227,231,231,255,255,0,255,0,0,255,0,255,255,231,231,231,231,231,231,229,225,227,231,255,255,0,255,0,255,255,255,0,0,0,0,0,0,0,0,0,0,0,0,0,0,0,0,0,0,0,0,0,0,0,0,0,0,0,255,0,255,255,255,255,255,255,255,255,255,255,255,255,255,255},
   2297                            {255,255,0,7,136,139,139,139,139,139,139,139,139,139,139,139,139,139,139,136,7,0,0,7,136,139,139,139,139,139,139,139,139,139,139,139,139,139,139,136,7,0,0,7,136,139,139,139,139,139,139,139,139,139,139,139,139,139,139,136,7,0,0,7,136,139,139,139,139,139,139,139,139,139,139,139,139,139,139,136,7,0,255,255,255,0,0,0,0,0,0,0,0,0,0,0,0,0,0,0,0,0,0,0,0,0,0,0,0,0,0,0,255,0,255,255,255,255,255,255,255,255,255,255,255,255,255,255},
   2298                            {255,255,0,255,0,254,254,62,158,158,158,158,158,158,158,158,62,254,254,0,255,0,0,255,0,254,254,62,158,158,158,158,62,158,158,158,62,254,254,0,255,0,0,255,0,254,254,62,158,254,254,254,158,30,158,62,62,254,254,0,255,0,0,255,0,254,254,30,158,62,126,126,254,254,254,158,62,254,254,0,255,0,255,255,255,0,0,0,0,0,0,0,0,0,0,0,0,0,0,0,0,0,0,0,0,0,0,0,0,0,0,0,255,0,255,255,255,255,255,255,255,255,255,255,255,255,255,255},
   2299                            {255,255,0,255,0,127,127,124,121,121,121,121,121,121,121,121,124,127,127,0,255,0,0,255,0,127,127,124,121,121,121,121,124,121,121,121,124,127,127,0,255,0,0,255,0,127,127,124,121,121,121,121,121,124,127,127,120,127,127,0,255,0,0,255,0,127,127,120,127,127,126,124,124,121,121,121,124,127,127,0,255,0,255,255,255,0,0,0,0,0,0,0,0,0,0,0,0,0,0,0,0,0,0,0,0,0,0,0,0,0,0,0,255,0,255,255,255,255,255,255,255,255,255,255,255,255,255,255},
   2300                            {255,255,0,224,17,209,209,209,209,209,209,209,209,209,209,209,209,209,209,17,224,0,0,224,17,209,209,209,209,209,209,209,209,209,209,209,209,209,209,17,224,0,0,224,17,209,209,209,209,209,209,209,209,209,209,209,209,209,209,17,224,0,0,224,17,209,209,209,209,209,209,209,209,209,209,209,209,209,209,17,224,0,255,255,255,0,0,0,0,0,0,0,0,0,0,0,0,0,0,0,0,0,0,0,0,0,0,0,0,0,0,0,255,192,127,127,127,127,127,127,127,127,127,127,127,127,255,255},
   2301                            {255,255,0,255,0,255,255,255,255,255,255,255,255,255,255,255,255,255,255,0,255,0,0,255,0,255,255,199,179,63,63,7,51,51,51,51,135,255,255,0,255,0,0,255,0,255,255,135,51,51,49,49,129,241,243,55,143,255,255,0,255,0,0,255,0,255,255,135,51,63,63,63,143,63,63,51,135,255,255,0,255,0,255,255,255,0,0,0,0,0,0,0,0,0,0,0,0,0,0,0,0,0,0,0,0,0,0,0,0,0,0,0,255,0,254,255,251,247,111,159,159,111,247,251,255,254,0,255},
   2302                            {127,255,192,159,160,175,175,175,175,175,175,175,175,175,175,175,175,175,175,160,159,128,128,159,160,175,175,175,175,175,175,175,175,175,175,175,175,175,175,160,159,128,128,159,160,175,175,175,175,175,175,175,175,175,175,175,175,175,175,160,159,128,128,159,160,175,175,175,175,175,175,175,175,175,175,175,175,175,175,160,159,192,255,255,255,192,192,192,192,192,192,192,192,192,192,192,192,192,192,192,192,192,192,192,192,192,192,192,192,192,192,192,255,240,231,239,237,238,239,239,239,239,238,237,239,103,48,31},
   2303                            };
   \   00000010   6846               MOV      R0,SP
   \   00000012   2049               LDR      R1,??Number_Paint_0+0x4  ;; `?<Constant {{254, 255, 3, 249, 5, 245, 245, 24`
   \   00000014   8022               MOVS     R2,#+128
   \   00000016   D200               LSLS     R2,R2,#+3        ;; #+1024
   \   00000018   ........           BL       __aeabi_memcpy4
   2304              
   2305              CopyToCanvas(ekran_tab);
   \   0000001C   6846               MOV      R0,SP
   \   0000001E   ........           BL       CopyToCanvas
   2306              Label(name,0,2,116,10,42,0,127,1);  //(char *Vstring, char alig, char X, int Y, char maxChar, char clean, char minY, char maxY, char negatyw) 
   \   00000022   82B0               SUB      SP,SP,#+8
   \   00000024   0120               MOVS     R0,#+1
   \   00000026   0090               STR      R0,[SP, #+0]
   \   00000028   7F21               MOVS     R1,#+127
   \   0000002A   0020               MOVS     R0,#+0
   \   0000002C   03B4               PUSH     {R0,R1}
   \   0000002E   2A21               MOVS     R1,#+42
   \   00000030   0A20               MOVS     R0,#+10
   \   00000032   03B4               PUSH     {R0,R1}
   \   00000034   7423               MOVS     R3,#+116
   \   00000036   0222               MOVS     R2,#+2
   \   00000038   0021               MOVS     R1,#+0
   \   0000003A   3000               MOVS     R0,R6
   \   0000003C   ........           BL       Label
   \   00000040   06B0               ADD      SP,SP,#+24
   2307              
   2308           
   2309              
   2310          
   2311          
   2312              Label(p1,0,9,7,2,7,0,127,1);      //(char *Vstring, char alig, char X, int Y, char maxChar, char clean, char minY, char maxY, char negatyw) 
   \   00000042   82B0               SUB      SP,SP,#+8
   \   00000044   0120               MOVS     R0,#+1
   \   00000046   0090               STR      R0,[SP, #+0]
   \   00000048   7F21               MOVS     R1,#+127
   \   0000004A   0020               MOVS     R0,#+0
   \   0000004C   03B4               PUSH     {R0,R1}
   \   0000004E   0721               MOVS     R1,#+7
   \   00000050   0220               MOVS     R0,#+2
   \   00000052   03B4               PUSH     {R0,R1}
   \   00000054   0723               MOVS     R3,#+7
   \   00000056   0922               MOVS     R2,#+9
   \   00000058   0021               MOVS     R1,#+0
   \   0000005A   2000               MOVS     R0,R4
   \   0000005C   ........           BL       Label
   \   00000060   06B0               ADD      SP,SP,#+24
   2313              Label(p2,0,51,7,2,7,0,127,1);    //(char *Vstring, char alig, char X, int Y, char maxChar, char clean, char minY, char maxY, char negatyw) 
   \   00000062   82B0               SUB      SP,SP,#+8
   \   00000064   0120               MOVS     R0,#+1
   \   00000066   0090               STR      R0,[SP, #+0]
   \   00000068   7F21               MOVS     R1,#+127
   \   0000006A   0020               MOVS     R0,#+0
   \   0000006C   03B4               PUSH     {R0,R1}
   \   0000006E   0721               MOVS     R1,#+7
   \   00000070   0220               MOVS     R0,#+2
   \   00000072   03B4               PUSH     {R0,R1}
   \   00000074   0723               MOVS     R3,#+7
   \   00000076   3322               MOVS     R2,#+51
   \   00000078   0021               MOVS     R1,#+0
   \   0000007A   2800               MOVS     R0,R5
   \   0000007C   ........           BL       Label
   \   00000080   06B0               ADD      SP,SP,#+24
   2314              
   2315          }//_______________________ Koniec funkcji List_Paint __________________________
   \   00000082   8020               MOVS     R0,#+128
   \   00000084   C000               LSLS     R0,R0,#+3        ;; #+1024
   \   00000086   8544               ADD      SP,SP,R0
   \   00000088   70BC               POP      {R4-R6}
   \   0000008A   01BC               POP      {R0}
   \   0000008C   0047               BX       R0               ;; return
   \   0000008E   C046               Nop      
   \                     ??Number_Paint_0:
   \   00000090   00FCFFFF           DC32     0xfffffc00
   \   00000094   ........           DC32     `?<Constant {{254, 255, 3, 249, 5, 245, 245, 24`
   2316          
   2317          
   2318          
   2319          
   2320          
   2321          //*-----------------------------------------------------------------------------
   2322          //* Nazwa funkcji :    Number_Event
   2323          //* Funkcja rysowania listy
   2324          //*-----------------------------------------------------------------------------
   2325          //* name[7]   -  Nazwa listy
   2326          //* Rows      -  ilosc wierszy
   2327          //* RowWith   -  szerokosc wiersza
   2328          //* Y         -  odsuniecie od górnej krawêdzi
   2329          //* p1...p8   - nazwy kolejnych pól
   2330          //*-----------------------------------------------------------------------------

   \                                 In section Debug.txt, align 4, keep-with-next
   2331          int Number_Event(int X_up, int Y_up, int X_down, int Y_down)
   2332          {
   \                     Number_Event:
   \   00000000   F3B5               PUSH     {R0,R1,R4-R7,LR}
   \   00000002   83B0               SUB      SP,SP,#+12
   \   00000004   1400               MOVS     R4,R2
   \   00000006   1D00               MOVS     R5,R3
   2333          
   2334            char podswietl=0;
   \   00000008   6846               MOV      R0,SP
   \   0000000A   0021               MOVS     R1,#+0
   \   0000000C   0170               STRB     R1,[R0, #+0]
   2335            int ans = 0;
   \   0000000E   0020               MOVS     R0,#+0
   \   00000010   0190               STR      R0,[SP, #+4]
   2336            char kol = 0;
   \   00000012   0026               MOVS     R6,#+0
   2337            char row = 0;
   \   00000014   0027               MOVS     R7,#+0
   2338            
   2339          
   2340          
   2341            //zdarzenie typu down (najechanie na przycisk)
   2342            if ((X_down>1) && (X_down<62) && (Y_down>3) && (Y_down<81) && (X_down!=21) && (X_down!=42) && (Y_down!=61) && (Y_down!=41) && (Y_down!=21) )   
   \   00000016   022C               CMP      R4,#+2
   \   00000018   52DB               BLT      ??Number_Event_0
   \   0000001A   3E2C               CMP      R4,#+62
   \   0000001C   50DA               BGE      ??Number_Event_0
   \   0000001E   042D               CMP      R5,#+4
   \   00000020   4EDB               BLT      ??Number_Event_0
   \   00000022   512D               CMP      R5,#+81
   \   00000024   4CDA               BGE      ??Number_Event_0
   \   00000026   152C               CMP      R4,#+21
   \   00000028   4AD0               BEQ      ??Number_Event_0
   \   0000002A   2A2C               CMP      R4,#+42
   \   0000002C   48D0               BEQ      ??Number_Event_0
   \   0000002E   3D2D               CMP      R5,#+61
   \   00000030   46D0               BEQ      ??Number_Event_0
   \   00000032   292D               CMP      R5,#+41
   \   00000034   44D0               BEQ      ??Number_Event_0
   \   00000036   152D               CMP      R5,#+21
   \   00000038   42D0               BEQ      ??Number_Event_0
   2343              {
   2344                kol = (((X_down-1)/21))*21;
   \   0000003A   601E               SUBS     R0,R4,#+1
   \   0000003C   1521               MOVS     R1,#+21
   \   0000003E   ........           BL       __aeabi_idivmod
   \   00000042   0600               MOVS     R6,R0
   \   00000044   1520               MOVS     R0,#+21
   \   00000046   4643               MULS     R6,R0,R6
   2345                row = (((Y_down-3)/20))*20;
   \   00000048   E81E               SUBS     R0,R5,#+3
   \   0000004A   1421               MOVS     R1,#+20
   \   0000004C   ........           BL       __aeabi_idivmod
   \   00000050   0700               MOVS     R7,R0
   \   00000052   1420               MOVS     R0,#+20
   \   00000054   4743               MULS     R7,R0,R7
   2346                
   2347                MenuPaint();   
                       ^
Warning[Pe223]: function "MenuPaint" declared implicitly
   \   00000056   ........           BL       MenuPaint
   2348                
   2349                H_line(kol+3, row+4, 16,1);
   \   0000005A   0123               MOVS     R3,#+1
   \   0000005C   1022               MOVS     R2,#+16
   \   0000005E   3F06               LSLS     R7,R7,#+24       ;; ZeroExtS R7,R7,#+24,#+24
   \   00000060   3F0E               LSRS     R7,R7,#+24
   \   00000062   3900               MOVS     R1,R7
   \   00000064   091D               ADDS     R1,R1,#+4
   \   00000066   3000               MOVS     R0,R6
   \   00000068   C01C               ADDS     R0,R0,#+3
   \   0000006A   0006               LSLS     R0,R0,#+24       ;; ZeroExtS R0,R0,#+24,#+24
   \   0000006C   000E               LSRS     R0,R0,#+24
   \   0000006E   ........           BL       H_line
   2350                H_line(kol+3, row+19, 16,1);
   \   00000072   0123               MOVS     R3,#+1
   \   00000074   1022               MOVS     R2,#+16
   \   00000076   3F06               LSLS     R7,R7,#+24       ;; ZeroExtS R7,R7,#+24,#+24
   \   00000078   3F0E               LSRS     R7,R7,#+24
   \   0000007A   3900               MOVS     R1,R7
   \   0000007C   1331               ADDS     R1,R1,#+19
   \   0000007E   3000               MOVS     R0,R6
   \   00000080   C01C               ADDS     R0,R0,#+3
   \   00000082   0006               LSLS     R0,R0,#+24       ;; ZeroExtS R0,R0,#+24,#+24
   \   00000084   000E               LSRS     R0,R0,#+24
   \   00000086   ........           BL       H_line
   2351                V_line(kol+3, row+4, 16,1);
   \   0000008A   0123               MOVS     R3,#+1
   \   0000008C   1022               MOVS     R2,#+16
   \   0000008E   3F06               LSLS     R7,R7,#+24       ;; ZeroExtS R7,R7,#+24,#+24
   \   00000090   3F0E               LSRS     R7,R7,#+24
   \   00000092   3900               MOVS     R1,R7
   \   00000094   091D               ADDS     R1,R1,#+4
   \   00000096   3000               MOVS     R0,R6
   \   00000098   C01C               ADDS     R0,R0,#+3
   \   0000009A   0006               LSLS     R0,R0,#+24       ;; ZeroExtS R0,R0,#+24,#+24
   \   0000009C   000E               LSRS     R0,R0,#+24
   \   0000009E   ........           BL       V_line
   2352                V_line(kol+18, row+4, 16,1);
   \   000000A2   0123               MOVS     R3,#+1
   \   000000A4   1022               MOVS     R2,#+16
   \   000000A6   3F06               LSLS     R7,R7,#+24       ;; ZeroExtS R7,R7,#+24,#+24
   \   000000A8   3F0E               LSRS     R7,R7,#+24
   \   000000AA   3F1D               ADDS     R7,R7,#+4
   \   000000AC   3900               MOVS     R1,R7
   \   000000AE   1236               ADDS     R6,R6,#+18
   \   000000B0   3000               MOVS     R0,R6
   \   000000B2   0006               LSLS     R0,R0,#+24       ;; ZeroExtS R0,R0,#+24,#+24
   \   000000B4   000E               LSRS     R0,R0,#+24
   \   000000B6   ........           BL       V_line
   2353             
   2354                podswietl=1;
   \   000000BA   6846               MOV      R0,SP
   \   000000BC   0121               MOVS     R1,#+1
   \   000000BE   0170               STRB     R1,[R0, #+0]
   2355              }
   2356           
   2357          
   2358              
   2359            //zdarzenie typu down "X"
   2360              if ((X_down>46) && (X_down<63) && (Y_down>112) && (Y_down<127))    //"X"
   \                     ??Number_Event_0:
   \   000000C0   2F2C               CMP      R4,#+47
   \   000000C2   22DB               BLT      ??Number_Event_1
   \   000000C4   3F2C               CMP      R4,#+63
   \   000000C6   20DA               BGE      ??Number_Event_1
   \   000000C8   712D               CMP      R5,#+113
   \   000000CA   1EDB               BLT      ??Number_Event_1
   \   000000CC   7F2D               CMP      R5,#+127
   \   000000CE   1CDA               BGE      ??Number_Event_1
   2361              {
   2362                MenuPaint();
                       ^
Warning[Pe223]: function "MenuPaint" declared implicitly
   \   000000D0   ........           BL       MenuPaint
   2363                H_line(49,115,10,0);
   \   000000D4   0023               MOVS     R3,#+0
   \   000000D6   0A22               MOVS     R2,#+10
   \   000000D8   7321               MOVS     R1,#+115
   \   000000DA   3120               MOVS     R0,#+49
   \   000000DC   ........           BL       H_line
   2364                H_line(49,124,10,0); 
   \   000000E0   0023               MOVS     R3,#+0
   \   000000E2   0A22               MOVS     R2,#+10
   \   000000E4   7C21               MOVS     R1,#+124
   \   000000E6   3120               MOVS     R0,#+49
   \   000000E8   ........           BL       H_line
   2365                V_line(49,115,10,0); 
   \   000000EC   0023               MOVS     R3,#+0
   \   000000EE   0A22               MOVS     R2,#+10
   \   000000F0   7321               MOVS     R1,#+115
   \   000000F2   3120               MOVS     R0,#+49
   \   000000F4   ........           BL       V_line
   2366                V_line(58,115,10,0); 
   \   000000F8   0023               MOVS     R3,#+0
   \   000000FA   0A22               MOVS     R2,#+10
   \   000000FC   7321               MOVS     R1,#+115
   \   000000FE   3A20               MOVS     R0,#+58
   \   00000100   ........           BL       V_line
   2367                podswietl=1;
   \   00000104   6846               MOV      R0,SP
   \   00000106   0121               MOVS     R1,#+1
   \   00000108   0170               STRB     R1,[R0, #+0]
   2368              }
   2369             
   2370            
   2371             //zdarzenie typu up (naciœniêcie na "X")
   2372              if ( (X_up>46) && (X_up<63) && (Y_up>112) && (Y_up<127))                    //"X"
   \                     ??Number_Event_1:
   \   0000010A   0398               LDR      R0,[SP, #+12]
   \   0000010C   2F28               CMP      R0,#+47
   \   0000010E   0BDB               BLT      ??Number_Event_2
   \   00000110   0398               LDR      R0,[SP, #+12]
   \   00000112   3F28               CMP      R0,#+63
   \   00000114   08DA               BGE      ??Number_Event_2
   \   00000116   0498               LDR      R0,[SP, #+16]
   \   00000118   7128               CMP      R0,#+113
   \   0000011A   05DB               BLT      ??Number_Event_2
   \   0000011C   0498               LDR      R0,[SP, #+16]
   \   0000011E   7F28               CMP      R0,#+127
   \   00000120   02DA               BGE      ??Number_Event_2
   2373              {
   2374                ans = -1;
   \   00000122   0020               MOVS     R0,#+0
   \   00000124   C043               MVNS     R0,R0            ;; #-1
   \   00000126   0190               STR      R0,[SP, #+4]
   2375              }  
   2376            
   2377            
   2378              if ((X_up>1) && (X_up<62) && (Y_up>3) && (Y_up<81) && (X_up!=21) && (X_up!=42) && (Y_up!=61) && (Y_up!=41) && (Y_up!=21) )   
   \                     ??Number_Event_2:
   \   00000128   0398               LDR      R0,[SP, #+12]
   \   0000012A   0228               CMP      R0,#+2
   \   0000012C   42DB               BLT      ??Number_Event_3
   \   0000012E   0398               LDR      R0,[SP, #+12]
   \   00000130   3E28               CMP      R0,#+62
   \   00000132   3FDA               BGE      ??Number_Event_3
   \   00000134   0498               LDR      R0,[SP, #+16]
   \   00000136   0428               CMP      R0,#+4
   \   00000138   3CDB               BLT      ??Number_Event_3
   \   0000013A   0498               LDR      R0,[SP, #+16]
   \   0000013C   5128               CMP      R0,#+81
   \   0000013E   39DA               BGE      ??Number_Event_3
   \   00000140   0398               LDR      R0,[SP, #+12]
   \   00000142   1528               CMP      R0,#+21
   \   00000144   36D0               BEQ      ??Number_Event_3
   \   00000146   0398               LDR      R0,[SP, #+12]
   \   00000148   2A28               CMP      R0,#+42
   \   0000014A   33D0               BEQ      ??Number_Event_3
   \   0000014C   0498               LDR      R0,[SP, #+16]
   \   0000014E   3D28               CMP      R0,#+61
   \   00000150   30D0               BEQ      ??Number_Event_3
   \   00000152   0498               LDR      R0,[SP, #+16]
   \   00000154   2928               CMP      R0,#+41
   \   00000156   2DD0               BEQ      ??Number_Event_3
   \   00000158   0498               LDR      R0,[SP, #+16]
   \   0000015A   1528               CMP      R0,#+21
   \   0000015C   2AD0               BEQ      ??Number_Event_3
   2379              {
   2380                kol = (((X_up-1)/21)+1);
   \   0000015E   0398               LDR      R0,[SP, #+12]
   \   00000160   401E               SUBS     R0,R0,#+1
   \   00000162   1521               MOVS     R1,#+21
   \   00000164   ........           BL       __aeabi_idivmod
   \   00000168   0600               MOVS     R6,R0
   \   0000016A   761C               ADDS     R6,R6,#+1
   2381                row = 3-(((Y_up-3)/20));
   \   0000016C   0325               MOVS     R5,#+3
   \   0000016E   0498               LDR      R0,[SP, #+16]
   \   00000170   C01E               SUBS     R0,R0,#+3
   \   00000172   1421               MOVS     R1,#+20
   \   00000174   ........           BL       __aeabi_idivmod
   \   00000178   2F1A               SUBS     R7,R5,R0
   2382          
   2383                ans=(row*3)+kol;
   \   0000017A   3F06               LSLS     R7,R7,#+24       ;; ZeroExtS R7,R7,#+24,#+24
   \   0000017C   3F0E               LSRS     R7,R7,#+24
   \   0000017E   0320               MOVS     R0,#+3
   \   00000180   4743               MULS     R7,R0,R7
   \   00000182   3606               LSLS     R6,R6,#+24       ;; ZeroExtS R6,R6,#+24,#+24
   \   00000184   360E               LSRS     R6,R6,#+24
   \   00000186   B819               ADDS     R0,R7,R6
   \   00000188   0190               STR      R0,[SP, #+4]
   2384                
   2385                if ((!(AT91C_IFLASH_MEM->Config.SoundOff)) && (AlarmOn==0)) {
   \   0000018A   1248               LDR      R0,??Number_Event_4  ;; 0x13d7e9
   \   0000018C   0078               LDRB     R0,[R0, #+0]
   \   0000018E   1249               LDR      R1,??Number_Event_4+0x4  ;; AlarmOn
   \   00000190   0978               LDRB     R1,[R1, #+0]
   \   00000192   0143               ORRS     R1,R1,R0
   \   00000194   0906               LSLS     R1,R1,#+24       ;; ZeroExtS R1,R1,#+24,#+24
   \   00000196   090E               LSRS     R1,R1,#+24
   \   00000198   0029               CMP      R1,#+0
   \   0000019A   0BD1               BNE      ??Number_Event_3
   2386                  ButtonBipCounter=g_counter+8;
   \   0000019C   0F4A               LDR      R2,??Number_Event_4+0x8  ;; ButtonBipCounter
   \   0000019E   1048               LDR      R0,??Number_Event_4+0xC  ;; g_counter
   \   000001A0   03C8               LDM      R0!,{R0,R1}
   \   000001A2   0023               MOVS     R3,#+0
   \   000001A4   0830               ADDS     R0,R0,#+8
   \   000001A6   5941               ADCS     R1,R1,R3
   \   000001A8   03C2               STM      R2!,{R0,R1}
   \   000001AA   083A               SUBS     R2,R2,#+8
   2387                    AT91C_BASE_PIOA->PIO_SODR =SpeakerPin;
                                                      ^
Warning[Pe068]: integer conversion resulted in a change of sign
   \   000001AC   0D48               LDR      R0,??Number_Event_4+0x10  ;; 0xfffff430
   \   000001AE   8021               MOVS     R1,#+128
   \   000001B0   0906               LSLS     R1,R1,#+24       ;; #-2147483648
   \   000001B2   0160               STR      R1,[R0, #+0]
   2388                  } 
   2389              }
   2390          
   2391            
   2392              if ((X_down>=0) && (X_down<64) && (podswietl==0)) MenuPaint();
                                                                       ^
Warning[Pe223]: function "MenuPaint" declared implicitly
   \                     ??Number_Event_3:
   \   000001B4   002C               CMP      R4,#+0
   \   000001B6   07D4               BMI      ??Number_Event_5
   \   000001B8   402C               CMP      R4,#+64
   \   000001BA   05DA               BGE      ??Number_Event_5
   \   000001BC   6846               MOV      R0,SP
   \   000001BE   0078               LDRB     R0,[R0, #+0]
   \   000001C0   0028               CMP      R0,#+0
   \   000001C2   01D1               BNE      ??Number_Event_5
   \   000001C4   ........           BL       MenuPaint
   2393          
   2394           
   2395          
   2396              return ans;
   \                     ??Number_Event_5:
   \   000001C8   0198               LDR      R0,[SP, #+4]
   \   000001CA   05B0               ADD      SP,SP,#+20
   \   000001CC   F0BC               POP      {R4-R7}
   \   000001CE   02BC               POP      {R1}
   \   000001D0   0847               BX       R1               ;; return
   \   000001D2   C046               Nop      
   \                     ??Number_Event_4:
   \   000001D4   E9D71300           DC32     0x13d7e9
   \   000001D8   ........           DC32     AlarmOn
   \   000001DC   ........           DC32     ButtonBipCounter
   \   000001E0   ........           DC32     g_counter
   \   000001E4   30F4FFFF           DC32     0xfffff430
   2397            
   2398              
   2399          }//_______________________ Koniec funkcji List_Event __________________________
   2400          
   2401          
   2402          
   2403          
   2404          
   2405          
   2406          
   2407          
   2408          
   2409          //*-----------------------------------------------------------------------------
   2410          //* Nazwa funkcji :    Message_Paint
   2411          //* Funkcja wiadomosci
   2412          //*-----------------------------------------------------------------------------
   2413          //* algin    - wyrównanie tekstu
   2414          //* p1..p3   -   napisy kolejnych lini
   2415          
   2416          //*-----------------------------------------------------------------------------
   2417          extern  char g_Message;

   \                                 In section Debug.txt, align 4, keep-with-next
   2418          void Message_Paint(char algin, char p1[15], char p2[15], char p3[15],char p4[15],char p5[15])
   2419          {
   \                     Message_Paint:
   \   00000000   F6B5               PUSH     {R1,R2,R4-R7,LR}
   \   00000002   454C               LDR      R4,??Message_Paint_0  ;; 0xfffffbfc
   \   00000004   A544               ADD      SP,SP,R4
   \   00000006   0400               MOVS     R4,R0
   \   00000008   1D00               MOVS     R5,R3
   \   0000000A   FFAE               ADD      R6,SP,#+1020
   \   0000000C   766A               LDR      R6,[R6, #+36]
   \   0000000E   FFAF               ADD      R7,SP,#+1020
   \   00000010   BF6A               LDR      R7,[R7, #+40]
   2420            g_Message=1;
   \   00000012   4248               LDR      R0,??Message_Paint_0+0x4  ;; g_Message
   \   00000014   0121               MOVS     R1,#+1
   \   00000016   0170               STRB     R1,[R0, #+0]
   2421            g_info=1;
   \   00000018   4148               LDR      R0,??Message_Paint_0+0x8  ;; g_info
   \   0000001A   0121               MOVS     R1,#+1
   \   0000001C   0170               STRB     R1,[R0, #+0]
   2422            
   2423            char ekran_tab[8][128] = {
   2424                            {0,0,0,0,0,0,0,0,0,0,0,0,0,0,0,0,0,0,0,0,0,0,0,0,0,0,0,0,0,0,0,255,1,253,5,5,5,5,5,5,5,5,5,5,5,5,5,5,5,5,5,5,229,5,5,5,5,5,5,5,5,5,5,5,5,5,5,5,5,5,5,5,5,5,5,5,5,5,5,5,5,5,5,5,5,5,5,5,5,5,5,5,5,5,5,5,5,5,5,5,253,1,255,0,0,0,0,0,0,0,0,0,0,0,0,0,0,0,0,0,0,0,0,0,0,0,0,0},
   2425                            {0,0,0,0,0,0,0,0,0,0,0,0,0,0,0,0,0,0,0,0,0,0,0,0,0,0,0,0,0,0,0,255,0,255,0,0,248,12,244,244,244,244,244,244,244,244,244,244,12,248,0,0,255,0,0,0,0,0,0,0,0,0,0,0,0,0,0,0,0,0,0,0,0,0,0,0,0,0,0,0,0,0,0,0,0,0,0,0,0,0,0,0,0,0,0,0,0,0,0,0,255,0,255,0,0,0,0,0,0,0,0,0,0,0,0,0,0,0,0,0,0,0,0,0,0,0,0,0},
   2426                            {0,0,0,0,0,0,0,0,0,0,0,0,0,0,0,0,0,0,0,0,0,0,0,0,0,0,0,0,0,0,0,255,0,255,0,0,255,0,255,255,255,255,255,255,255,255,255,255,0,255,0,0,255,0,0,0,0,0,0,0,0,0,0,0,0,0,0,0,0,0,0,0,0,0,0,0,0,0,0,0,0,0,0,0,0,0,0,0,0,0,0,0,0,0,0,0,0,0,0,0,255,0,255,0,0,0,0,0,0,0,0,0,0,0,0,0,0,0,0,0,0,0,0,0,0,0,0,0},
   2427                            {0,0,0,0,0,0,0,0,0,0,0,0,0,0,0,0,0,0,0,0,0,0,0,0,0,0,0,0,0,0,0,255,0,255,0,0,255,0,255,255,199,187,187,187,187,187,199,255,0,255,0,0,255,0,0,0,0,0,0,0,0,0,0,0,0,0,0,0,0,0,0,0,0,0,0,0,0,0,0,0,0,0,0,0,0,0,0,0,0,0,0,0,0,0,0,0,0,0,0,0,255,0,255,0,0,0,0,0,0,0,0,0,0,0,0,0,0,0,0,0,0,0,0,0,0,0,0,0},
   2428                            {0,0,0,0,0,0,0,0,0,0,0,0,0,0,0,0,0,0,0,0,0,0,0,0,0,0,0,0,0,0,0,255,0,255,0,0,255,0,255,255,221,237,245,249,245,237,221,255,0,255,0,0,255,0,0,0,0,0,0,0,0,0,0,0,0,0,0,0,0,0,0,0,0,0,0,0,0,0,0,0,0,0,0,0,0,0,0,0,0,0,0,0,0,0,0,0,0,0,0,0,255,0,255,0,0,0,0,0,0,0,0,0,0,0,0,0,0,0,0,0,0,0,0,0,0,0,0,0},
   2429                            {0,0,0,0,0,0,0,0,0,0,0,0,0,0,0,0,0,0,0,0,0,0,0,0,0,0,0,0,0,0,0,255,0,255,0,0,255,0,255,255,255,255,255,255,255,255,255,255,0,255,0,0,255,0,0,0,0,0,0,0,0,0,0,0,0,0,0,0,0,0,0,0,0,0,0,0,0,0,0,0,0,0,0,0,0,0,0,0,0,0,0,0,0,0,0,0,0,0,0,0,255,0,255,0,0,0,0,0,0,0,0,0,0,0,0,0,0,0,0,0,0,0,0,0,0,0,0,0},
   2430                            {0,0,0,0,0,0,0,0,0,0,0,0,0,0,0,0,0,0,0,0,0,0,0,0,0,0,0,0,0,0,0,255,0,255,0,0,63,96,95,95,95,95,95,95,95,95,95,95,96,63,0,0,255,0,0,0,0,0,0,0,0,0,0,0,0,0,0,0,0,0,0,0,0,0,0,0,0,0,0,0,0,0,0,0,0,0,0,0,0,0,0,0,0,0,0,0,0,0,0,0,255,0,255,0,0,0,0,0,0,0,0,0,0,0,0,0,0,0,0,0,0,0,0,0,0,0,0,0},
   2431                            {0,0,0,0,0,0,0,0,0,0,0,0,0,0,0,0,0,0,0,0,0,0,0,0,0,0,0,0,0,0,0,255,128,191,160,160,160,160,160,160,160,160,160,160,160,160,160,160,160,160,160,160,167,160,160,160,160,160,160,160,160,160,160,160,160,160,160,160,160,160,160,160,160,160,160,160,160,160,160,160,160,160,160,160,160,160,160,160,160,160,160,160,160,160,160,160,160,160,160,160,191,128,255,0,0,0,0,0,0,0,0,0,0,0,0,0,0,0,0,0,0,0,0,0,0,0,0,0},
   2432                            };
   \   0000001E   6846               MOV      R0,SP
   \   00000020   4049               LDR      R1,??Message_Paint_0+0xC  ;; `?<Constant {{0, 0, 0, 0, 0, 0, 0, 0, 0, 0, 0, `
   \   00000022   8022               MOVS     R2,#+128
   \   00000024   D200               LSLS     R2,R2,#+3        ;; #+1024
   \   00000026   ........           BL       __aeabi_memcpy4
   2433              
   2434              CopyToCanvas(ekran_tab);
   \   0000002A   6846               MOV      R0,SP
   \   0000002C   ........           BL       CopyToCanvas
   2435          
   2436          
   2437              if (p1!="") Label(p1,algin,4,90,15,56,0,127,0);      //(char *Vstring, char alig, char X, int Y, char maxChar, char clean, char minY, char maxY, char negatyw) 
   \   00000030   FFA8               ADD      R0,SP,#+1020
   \   00000032   8068               LDR      R0,[R0, #+8]
   \   00000034   3CA1               ADR      R1,??Message_Paint_0+0x10  ;; 0x00, 0x00, 0x00, 0x00
   \   00000036   8842               CMP      R0,R1
   \   00000038   12D0               BEQ      ??Message_Paint_1
   \   0000003A   82B0               SUB      SP,SP,#+8
   \   0000003C   0020               MOVS     R0,#+0
   \   0000003E   0090               STR      R0,[SP, #+0]
   \   00000040   7F21               MOVS     R1,#+127
   \   00000042   0020               MOVS     R0,#+0
   \   00000044   03B4               PUSH     {R0,R1}
   \   00000046   3821               MOVS     R1,#+56
   \   00000048   0F20               MOVS     R0,#+15
   \   0000004A   03B4               PUSH     {R0,R1}
   \   0000004C   5A23               MOVS     R3,#+90
   \   0000004E   0422               MOVS     R2,#+4
   \   00000050   2100               MOVS     R1,R4
   \   00000052   0906               LSLS     R1,R1,#+24       ;; ZeroExtS R1,R1,#+24,#+24
   \   00000054   090E               LSRS     R1,R1,#+24
   \   00000056   FFA8               ADD      R0,SP,#+1020
   \   00000058   006A               LDR      R0,[R0, #+32]
   \   0000005A   ........           BL       Label
   \   0000005E   06B0               ADD      SP,SP,#+24
   2438              if (p2!="") Label(p2,algin,4,90-9,15,56,0,127,0);    //(char *Vstring, char alig, char X, int Y, char maxChar, char clean, char minY, char maxY, char negatyw) 
   \                     ??Message_Paint_1:
   \   00000060   FFA8               ADD      R0,SP,#+1020
   \   00000062   C068               LDR      R0,[R0, #+12]
   \   00000064   30A1               ADR      R1,??Message_Paint_0+0x10  ;; 0x00, 0x00, 0x00, 0x00
   \   00000066   8842               CMP      R0,R1
   \   00000068   12D0               BEQ      ??Message_Paint_2
   \   0000006A   82B0               SUB      SP,SP,#+8
   \   0000006C   0020               MOVS     R0,#+0
   \   0000006E   0090               STR      R0,[SP, #+0]
   \   00000070   7F21               MOVS     R1,#+127
   \   00000072   0020               MOVS     R0,#+0
   \   00000074   03B4               PUSH     {R0,R1}
   \   00000076   3821               MOVS     R1,#+56
   \   00000078   0F20               MOVS     R0,#+15
   \   0000007A   03B4               PUSH     {R0,R1}
   \   0000007C   5123               MOVS     R3,#+81
   \   0000007E   0422               MOVS     R2,#+4
   \   00000080   2100               MOVS     R1,R4
   \   00000082   0906               LSLS     R1,R1,#+24       ;; ZeroExtS R1,R1,#+24,#+24
   \   00000084   090E               LSRS     R1,R1,#+24
   \   00000086   FFA8               ADD      R0,SP,#+1020
   \   00000088   406A               LDR      R0,[R0, #+36]
   \   0000008A   ........           BL       Label
   \   0000008E   06B0               ADD      SP,SP,#+24
   2439              if (p3!="") Label(p3,algin,4,90-18,15,56,0,127,0);    //(char *Vstring, char alig, char X, int Y, char maxChar, char clean, char minY, char maxY, char negatyw) 
   \                     ??Message_Paint_2:
   \   00000090   25A0               ADR      R0,??Message_Paint_0+0x10  ;; 0x00, 0x00, 0x00, 0x00
   \   00000092   8542               CMP      R5,R0
   \   00000094   11D0               BEQ      ??Message_Paint_3
   \   00000096   82B0               SUB      SP,SP,#+8
   \   00000098   0020               MOVS     R0,#+0
   \   0000009A   0090               STR      R0,[SP, #+0]
   \   0000009C   7F21               MOVS     R1,#+127
   \   0000009E   0020               MOVS     R0,#+0
   \   000000A0   03B4               PUSH     {R0,R1}
   \   000000A2   3821               MOVS     R1,#+56
   \   000000A4   0F20               MOVS     R0,#+15
   \   000000A6   03B4               PUSH     {R0,R1}
   \   000000A8   4823               MOVS     R3,#+72
   \   000000AA   0422               MOVS     R2,#+4
   \   000000AC   2100               MOVS     R1,R4
   \   000000AE   0906               LSLS     R1,R1,#+24       ;; ZeroExtS R1,R1,#+24,#+24
   \   000000B0   090E               LSRS     R1,R1,#+24
   \   000000B2   2800               MOVS     R0,R5
   \   000000B4   ........           BL       Label
   \   000000B8   06B0               ADD      SP,SP,#+24
   2440              if (p4!="") Label(p4,algin,4,90-27,15,56,0,127,0);    //(char *Vstring, char alig, char X, int Y, char maxChar, char clean, char minY, char maxY, char negatyw) 
   \                     ??Message_Paint_3:
   \   000000BA   1BA0               ADR      R0,??Message_Paint_0+0x10  ;; 0x00, 0x00, 0x00, 0x00
   \   000000BC   8642               CMP      R6,R0
   \   000000BE   11D0               BEQ      ??Message_Paint_4
   \   000000C0   82B0               SUB      SP,SP,#+8
   \   000000C2   0020               MOVS     R0,#+0
   \   000000C4   0090               STR      R0,[SP, #+0]
   \   000000C6   7F21               MOVS     R1,#+127
   \   000000C8   0020               MOVS     R0,#+0
   \   000000CA   03B4               PUSH     {R0,R1}
   \   000000CC   3821               MOVS     R1,#+56
   \   000000CE   0F20               MOVS     R0,#+15
   \   000000D0   03B4               PUSH     {R0,R1}
   \   000000D2   3F23               MOVS     R3,#+63
   \   000000D4   0422               MOVS     R2,#+4
   \   000000D6   2100               MOVS     R1,R4
   \   000000D8   0906               LSLS     R1,R1,#+24       ;; ZeroExtS R1,R1,#+24,#+24
   \   000000DA   090E               LSRS     R1,R1,#+24
   \   000000DC   3000               MOVS     R0,R6
   \   000000DE   ........           BL       Label
   \   000000E2   06B0               ADD      SP,SP,#+24
   2441              if (p5!="") Label(p5,algin,4,90-36,15,56,0,127,0);    //(char *Vstring, char alig, char X, int Y, char maxChar, char clean, char minY, char maxY, char negatyw) 
   \                     ??Message_Paint_4:
   \   000000E4   10A0               ADR      R0,??Message_Paint_0+0x10  ;; 0x00, 0x00, 0x00, 0x00
   \   000000E6   8742               CMP      R7,R0
   \   000000E8   11D0               BEQ      ??Message_Paint_5
   \   000000EA   82B0               SUB      SP,SP,#+8
   \   000000EC   0020               MOVS     R0,#+0
   \   000000EE   0090               STR      R0,[SP, #+0]
   \   000000F0   7F21               MOVS     R1,#+127
   \   000000F2   0020               MOVS     R0,#+0
   \   000000F4   03B4               PUSH     {R0,R1}
   \   000000F6   3821               MOVS     R1,#+56
   \   000000F8   0F20               MOVS     R0,#+15
   \   000000FA   03B4               PUSH     {R0,R1}
   \   000000FC   3623               MOVS     R3,#+54
   \   000000FE   0422               MOVS     R2,#+4
   \   00000100   2100               MOVS     R1,R4
   \   00000102   0906               LSLS     R1,R1,#+24       ;; ZeroExtS R1,R1,#+24,#+24
   \   00000104   090E               LSRS     R1,R1,#+24
   \   00000106   3800               MOVS     R0,R7
   \   00000108   ........           BL       Label
   \   0000010C   06B0               ADD      SP,SP,#+24
   2442              
   2443              
   2444          }//_______________________ Koniec funkcji Mesage_Paint __________________________
   \                     ??Message_Paint_5:
   \   0000010E   0748               LDR      R0,??Message_Paint_0+0x14  ;; 0x40c
   \   00000110   8544               ADD      SP,SP,R0
   \   00000112   F0BC               POP      {R4-R7}
   \   00000114   01BC               POP      {R0}
   \   00000116   0047               BX       R0               ;; return
   \                     ??Message_Paint_0:
   \   00000118   FCFBFFFF           DC32     0xfffffbfc
   \   0000011C   ........           DC32     g_Message
   \   00000120   ........           DC32     g_info
   \   00000124   ........           DC32     `?<Constant {{0, 0, 0, 0, 0, 0, 0, 0, 0, 0, 0, `
   \   00000128   00000000           DC8      0x00, 0x00, 0x00, 0x00
   \   0000012C   0C040000           DC32     0x40c
   2445          
   2446          
   2447          
   2448          
   2449          
   2450          
   2451          
   2452          //*-----------------------------------------------------------------------------
   2453          //* Nazwa funkcji :    FloToStr
   2454          //* Funkcja konwersji zmiennej float na ³añcuch string   
   2455          //*-----------------------------------------------------------------------------
   2456          //*  Value   - zmienna typu float
   2457          //*  Vstring - tablica znaków
   2458          //*  ill     - liloœæ znaków (max=9) , ostatnia wartoœæ zapisanego ³añcucha to zawsze 0
   2459          //*  Funkcja zwraca d³ugoœæ ³añcucha
   2460          //*-----------------------------------------------------------------------------

   \                                 In section Debug.txt, align 4, keep-with-next
   2461          char FloToStr (float Value, char Vstring[8],char ill) 
   2462          { 
   \                     FloToStr:
   \   00000000   F7B5               PUSH     {R0-R2,R4-R7,LR}
   \   00000002   96B0               SUB      SP,SP,#+88
   2463            float str_tmp[15]={0,0,0,0,0,0,0,0,0,0,0,0,0,0,0};        
   \   00000004   04A8               ADD      R0,SP,#+16
   \   00000006   3C21               MOVS     R1,#+60
   \   00000008   ........           BL       __aeabi_memclr4
   2464             int min;
   2465             ill-=1;
   \   0000000C   18A8               ADD      R0,SP,#+96
   \   0000000E   18A9               ADD      R1,SP,#+96
   \   00000010   0978               LDRB     R1,[R1, #+0]
   \   00000012   491E               SUBS     R1,R1,#+1
   \   00000014   0170               STRB     R1,[R0, #+0]
   2466            
   2467             for (char i=0; i<=7; i++)  Vstring[i]=0;
   \   00000016   0020               MOVS     R0,#+0
   \   00000018   05E0               B        ??FloToStr_0
   \                     ??FloToStr_1:
   \   0000001A   0006               LSLS     R0,R0,#+24       ;; ZeroExtS R0,R0,#+24,#+24
   \   0000001C   000E               LSRS     R0,R0,#+24
   \   0000001E   1799               LDR      R1,[SP, #+92]
   \   00000020   0022               MOVS     R2,#+0
   \   00000022   0A54               STRB     R2,[R1, R0]
   \   00000024   401C               ADDS     R0,R0,#+1
   \                     ??FloToStr_0:
   \   00000026   0006               LSLS     R0,R0,#+24       ;; ZeroExtS R0,R0,#+24,#+24
   \   00000028   000E               LSRS     R0,R0,#+24
   \   0000002A   0828               CMP      R0,#+8
   \   0000002C   F5D3               BCC      ??FloToStr_1
   2468             for (char i=0; i<=14; i++)  str_tmp[i]=0;
   \   0000002E   0020               MOVS     R0,#+0
   \   00000030   07E0               B        ??FloToStr_2
   \                     ??FloToStr_3:
   \   00000032   0006               LSLS     R0,R0,#+24       ;; ZeroExtS R0,R0,#+24,#+24
   \   00000034   000E               LSRS     R0,R0,#+24
   \   00000036   0421               MOVS     R1,#+4
   \   00000038   4143               MULS     R1,R0,R1
   \   0000003A   04AA               ADD      R2,SP,#+16
   \   0000003C   0023               MOVS     R3,#+0
   \   0000003E   5350               STR      R3,[R2, R1]
   \   00000040   401C               ADDS     R0,R0,#+1
   \                     ??FloToStr_2:
   \   00000042   0006               LSLS     R0,R0,#+24       ;; ZeroExtS R0,R0,#+24,#+24
   \   00000044   000E               LSRS     R0,R0,#+24
   \   00000046   0F28               CMP      R0,#+15
   \   00000048   F3D3               BCC      ??FloToStr_3
   2469             
   2470             min=0;
   \   0000004A   0020               MOVS     R0,#+0
   \   0000004C   0190               STR      R0,[SP, #+4]
   2471             if (Value<0)
   \   0000004E   1698               LDR      R0,[SP, #+88]
   \   00000050   0021               MOVS     R1,#+0
   \   00000052   ........           BL       __aeabi_cfcmple
   \   00000056   0BD2               BCS      ??FloToStr_4
   2472             {
   2473               Value=Value*(-1); 
   \   00000058   1699               LDR      R1,[SP, #+88]
   \   0000005A   1C48               LDR      R0,??FloToStr_5  ;; 0xbf800000
   \   0000005C   ........           BL       __aeabi_fmul
   \   00000060   1690               STR      R0,[SP, #+88]
   2474               min=1;
   \   00000062   0120               MOVS     R0,#+1
   \   00000064   0190               STR      R0,[SP, #+4]
   2475               ill-=1;
   \   00000066   18A8               ADD      R0,SP,#+96
   \   00000068   18A9               ADD      R1,SP,#+96
   \   0000006A   0978               LDRB     R1,[R1, #+0]
   \   0000006C   491E               SUBS     R1,R1,#+1
   \   0000006E   0170               STRB     R1,[R0, #+0]
   2476             }
   2477             
   2478           
   2479             int E_tmp=0;
   \                     ??FloToStr_4:
   \   00000070   0025               MOVS     R5,#+0
   2480             int ill_tmp=0;
   \   00000072   0024               MOVS     R4,#+0
   2481             int ill_cor=0;
   \   00000074   0020               MOVS     R0,#+0
   \   00000076   0090               STR      R0,[SP, #+0]
   2482             
   2483             
   2484             if (Value==0)
   \   00000078   1698               LDR      R0,[SP, #+88]
   \   0000007A   0021               MOVS     R1,#+0
   \   0000007C   ........           BL       __aeabi_cfcmpeq
   \   00000080   05D1               BNE      ??FloToStr_6
   2485             {
   2486               Vstring[0]=48;
   \   00000082   1798               LDR      R0,[SP, #+92]
   \   00000084   3021               MOVS     R1,#+48
   \   00000086   0170               STRB     R1,[R0, #+0]
   2487               ill_tmp=1;
   \   00000088   0124               MOVS     R4,#+1
   \   0000008A   00F082FE           BL       ??FloToStr_7
   2488             }
   2489             else
   2490             {
   2491              if (Value>=1000000000000) 
   \                     ??FloToStr_6:
   \   0000008E   1698               LDR      R0,[SP, #+88]
   \   00000090   0F49               LDR      R1,??FloToStr_5+0x4  ;; 0x5368d4a5
   \   00000092   ........           BL       __aeabi_cfrcmple
   \   00000096   1DD8               BHI      ??FloToStr_8
   2492              {
   2493                 Vstring[0]=0x4C; //L
   \   00000098   1798               LDR      R0,[SP, #+92]
   \   0000009A   4C21               MOVS     R1,#+76
   \   0000009C   0170               STRB     R1,[R0, #+0]
   2494                 Vstring[1]=0x4F; //O
   \   0000009E   1798               LDR      R0,[SP, #+92]
   \   000000A0   4F21               MOVS     R1,#+79
   \   000000A2   4170               STRB     R1,[R0, #+1]
   2495                 Vstring[2]=0x4E; //N
   \   000000A4   1798               LDR      R0,[SP, #+92]
   \   000000A6   4E21               MOVS     R1,#+78
   \   000000A8   8170               STRB     R1,[R0, #+2]
   2496                 Vstring[3]=0x47; //G
   \   000000AA   1798               LDR      R0,[SP, #+92]
   \   000000AC   4721               MOVS     R1,#+71
   \   000000AE   C170               STRB     R1,[R0, #+3]
   2497                 Vstring[4]=0; Vstring[5]=0; Vstring[6]=0; Vstring[7]=0;
   \   000000B0   1798               LDR      R0,[SP, #+92]
   \   000000B2   0021               MOVS     R1,#+0
   \   000000B4   0171               STRB     R1,[R0, #+4]
   \   000000B6   1798               LDR      R0,[SP, #+92]
   \   000000B8   0021               MOVS     R1,#+0
   \   000000BA   4171               STRB     R1,[R0, #+5]
   \   000000BC   1798               LDR      R0,[SP, #+92]
   \   000000BE   0021               MOVS     R1,#+0
   \   000000C0   8171               STRB     R1,[R0, #+6]
   \   000000C2   1798               LDR      R0,[SP, #+92]
   \   000000C4   0021               MOVS     R1,#+0
   \   000000C6   C171               STRB     R1,[R0, #+7]
   \   000000C8   00F063FE           BL       ??FloToStr_7
   \                     ??FloToStr_5:
   \   000000CC   000080BF           DC32     0xbf800000
   \   000000D0   A5D46853           DC32     0x5368d4a5
   2498              }  
   2499              else 
   2500              {  
   2501                long long int __Value=(long long int)(Value*1000000);
   \                     ??FloToStr_8:
   \   000000D4   1699               LDR      R1,[SP, #+88]
   \   000000D6   D248               LDR      R0,??FloToStr_9  ;; 0x49742400
   \   000000D8   ........           BL       __aeabi_fmul
   \   000000DC   ........           BL       __aeabi_f2lz
   \   000000E0   14AA               ADD      R2,SP,#+80
   \   000000E2   03C2               STM      R2!,{R0,R1}
   \   000000E4   083A               SUBS     R2,R2,#+8
   2502                long long int __ValueRST=__Value;
   \   000000E6   14A8               ADD      R0,SP,#+80
   \   000000E8   C0C8               LDM      R0!,{R6,R7}
   \   000000EA   0838               SUBS     R0,R0,#+8
   2503                long long int NastDiel=0;
   \   000000EC   02AA               ADD      R2,SP,#+8
   \   000000EE   0020               MOVS     R0,#+0
   \   000000F0   0021               MOVS     R1,#+0
   \   000000F2   03C2               STM      R2!,{R0,R1}
   \   000000F4   083A               SUBS     R2,R2,#+8
   2504               
   2505                 if (Value>=100000000000 ) {if (E_tmp==0) E_tmp=12;     if (ill_tmp<ill)                   { ill_tmp++;  str_tmp[ill_tmp]=48+__Value    / 100000000000000000; __ValueRST=__Value    % 100000000000000000; }};
   \   000000F6   1698               LDR      R0,[SP, #+88]
   \   000000F8   CA49               LDR      R1,??FloToStr_9+0x4  ;; 0x51ba43b7
   \   000000FA   ........           BL       __aeabi_cfrcmple
   \   000000FE   1ED8               BHI      ??FloToStr_10
   \   00000100   002D               CMP      R5,#+0
   \   00000102   00D1               BNE      ??FloToStr_11
   \   00000104   0C25               MOVS     R5,#+12
   \                     ??FloToStr_11:
   \   00000106   18A8               ADD      R0,SP,#+96
   \   00000108   0078               LDRB     R0,[R0, #+0]
   \   0000010A   8442               CMP      R4,R0
   \   0000010C   17DA               BGE      ??FloToStr_10
   \   0000010E   641C               ADDS     R4,R4,#+1
   \   00000110   14A8               ADD      R0,SP,#+80
   \   00000112   03C8               LDM      R0!,{R0,R1}
   \   00000114   C44A               LDR      R2,??FloToStr_9+0x8  ;; 0x5d8a0000
   \   00000116   C54B               LDR      R3,??FloToStr_9+0xC  ;; 0x1634578
   \   00000118   ........           BL       __aeabi_ldivmod
   \   0000011C   0022               MOVS     R2,#+0
   \   0000011E   3030               ADDS     R0,R0,#+48
   \   00000120   5141               ADCS     R1,R1,R2
   \   00000122   ........           BL       __aeabi_l2f
   \   00000126   0421               MOVS     R1,#+4
   \   00000128   6143               MULS     R1,R4,R1
   \   0000012A   04AA               ADD      R2,SP,#+16
   \   0000012C   5050               STR      R0,[R2, R1]
   \   0000012E   14A8               ADD      R0,SP,#+80
   \   00000130   03C8               LDM      R0!,{R0,R1}
   \   00000132   BD4A               LDR      R2,??FloToStr_9+0x8  ;; 0x5d8a0000
   \   00000134   BD4B               LDR      R3,??FloToStr_9+0xC  ;; 0x1634578
   \   00000136   ........           BL       __aeabi_ldivmod
   \   0000013A   1600               MOVS     R6,R2
   \   0000013C   1F00               MOVS     R7,R3
   2506                 if (Value>=10000000000  ) {if (E_tmp==0) E_tmp=11;     if (ill_tmp<ill)                   { ill_tmp++;  str_tmp[ill_tmp]=48+__ValueRST / 10000000000000000 ; __ValueRST=__ValueRST % 10000000000000000 ; }};
   \                     ??FloToStr_10:
   \   0000013E   1698               LDR      R0,[SP, #+88]
   \   00000140   BB49               LDR      R1,??FloToStr_9+0x10  ;; 0x501502f9
   \   00000142   ........           BL       __aeabi_cfrcmple
   \   00000146   1ED8               BHI      ??FloToStr_12
   \   00000148   002D               CMP      R5,#+0
   \   0000014A   00D1               BNE      ??FloToStr_13
   \   0000014C   0B25               MOVS     R5,#+11
   \                     ??FloToStr_13:
   \   0000014E   18A8               ADD      R0,SP,#+96
   \   00000150   0078               LDRB     R0,[R0, #+0]
   \   00000152   8442               CMP      R4,R0
   \   00000154   17DA               BGE      ??FloToStr_12
   \   00000156   641C               ADDS     R4,R4,#+1
   \   00000158   3000               MOVS     R0,R6
   \   0000015A   3900               MOVS     R1,R7
   \   0000015C   B54A               LDR      R2,??FloToStr_9+0x14  ;; 0x6fc10000
   \   0000015E   B64B               LDR      R3,??FloToStr_9+0x18  ;; 0x2386f2
   \   00000160   ........           BL       __aeabi_ldivmod
   \   00000164   0022               MOVS     R2,#+0
   \   00000166   3030               ADDS     R0,R0,#+48
   \   00000168   5141               ADCS     R1,R1,R2
   \   0000016A   ........           BL       __aeabi_l2f
   \   0000016E   0421               MOVS     R1,#+4
   \   00000170   6143               MULS     R1,R4,R1
   \   00000172   04AA               ADD      R2,SP,#+16
   \   00000174   5050               STR      R0,[R2, R1]
   \   00000176   3000               MOVS     R0,R6
   \   00000178   3900               MOVS     R1,R7
   \   0000017A   AE4A               LDR      R2,??FloToStr_9+0x14  ;; 0x6fc10000
   \   0000017C   AE4B               LDR      R3,??FloToStr_9+0x18  ;; 0x2386f2
   \   0000017E   ........           BL       __aeabi_ldivmod
   \   00000182   1600               MOVS     R6,R2
   \   00000184   1F00               MOVS     R7,R3
   2507                 if (Value>=1000000000   ) {if (E_tmp==0) E_tmp=10;     if (ill_tmp<ill)                   { ill_tmp++;  str_tmp[ill_tmp]=48+__ValueRST / 1000000000000000  ; __ValueRST=__ValueRST % 1000000000000000  ; }};
   \                     ??FloToStr_12:
   \   00000186   1698               LDR      R0,[SP, #+88]
   \   00000188   AC49               LDR      R1,??FloToStr_9+0x1C  ;; 0x4e6e6b28
   \   0000018A   ........           BL       __aeabi_cfrcmple
   \   0000018E   1ED8               BHI      ??FloToStr_14
   \   00000190   002D               CMP      R5,#+0
   \   00000192   00D1               BNE      ??FloToStr_15
   \   00000194   0A25               MOVS     R5,#+10
   \                     ??FloToStr_15:
   \   00000196   18A8               ADD      R0,SP,#+96
   \   00000198   0078               LDRB     R0,[R0, #+0]
   \   0000019A   8442               CMP      R4,R0
   \   0000019C   17DA               BGE      ??FloToStr_14
   \   0000019E   641C               ADDS     R4,R4,#+1
   \   000001A0   3000               MOVS     R0,R6
   \   000001A2   3900               MOVS     R1,R7
   \   000001A4   A64A               LDR      R2,??FloToStr_9+0x20  ;; 0xa4c68000
   \   000001A6   A74B               LDR      R3,??FloToStr_9+0x24  ;; 0x38d7e
   \   000001A8   ........           BL       __aeabi_ldivmod
   \   000001AC   0022               MOVS     R2,#+0
   \   000001AE   3030               ADDS     R0,R0,#+48
   \   000001B0   5141               ADCS     R1,R1,R2
   \   000001B2   ........           BL       __aeabi_l2f
   \   000001B6   0421               MOVS     R1,#+4
   \   000001B8   6143               MULS     R1,R4,R1
   \   000001BA   04AA               ADD      R2,SP,#+16
   \   000001BC   5050               STR      R0,[R2, R1]
   \   000001BE   3000               MOVS     R0,R6
   \   000001C0   3900               MOVS     R1,R7
   \   000001C2   9F4A               LDR      R2,??FloToStr_9+0x20  ;; 0xa4c68000
   \   000001C4   9F4B               LDR      R3,??FloToStr_9+0x24  ;; 0x38d7e
   \   000001C6   ........           BL       __aeabi_ldivmod
   \   000001CA   1600               MOVS     R6,R2
   \   000001CC   1F00               MOVS     R7,R3
   2508                 if (Value>=100000000    ) {if (E_tmp==0) E_tmp=9;      if (ill_tmp<ill)                   { ill_tmp++;  str_tmp[ill_tmp]=48+__ValueRST / 100000000000000   ; __ValueRST=__ValueRST % 100000000000000   ; }};
   \                     ??FloToStr_14:
   \   000001CE   1698               LDR      R0,[SP, #+88]
   \   000001D0   9D49               LDR      R1,??FloToStr_9+0x28  ;; 0x4cbebc20
   \   000001D2   ........           BL       __aeabi_cfrcmple
   \   000001D6   1ED8               BHI      ??FloToStr_16
   \   000001D8   002D               CMP      R5,#+0
   \   000001DA   00D1               BNE      ??FloToStr_17
   \   000001DC   0925               MOVS     R5,#+9
   \                     ??FloToStr_17:
   \   000001DE   18A8               ADD      R0,SP,#+96
   \   000001E0   0078               LDRB     R0,[R0, #+0]
   \   000001E2   8442               CMP      R4,R0
   \   000001E4   17DA               BGE      ??FloToStr_16
   \   000001E6   641C               ADDS     R4,R4,#+1
   \   000001E8   3000               MOVS     R0,R6
   \   000001EA   3900               MOVS     R1,R7
   \   000001EC   974A               LDR      R2,??FloToStr_9+0x2C  ;; 0x107a4000
   \   000001EE   984B               LDR      R3,??FloToStr_9+0x30  ;; 0x5af3
   \   000001F0   ........           BL       __aeabi_ldivmod
   \   000001F4   0022               MOVS     R2,#+0
   \   000001F6   3030               ADDS     R0,R0,#+48
   \   000001F8   5141               ADCS     R1,R1,R2
   \   000001FA   ........           BL       __aeabi_l2f
   \   000001FE   0421               MOVS     R1,#+4
   \   00000200   6143               MULS     R1,R4,R1
   \   00000202   04AA               ADD      R2,SP,#+16
   \   00000204   5050               STR      R0,[R2, R1]
   \   00000206   3000               MOVS     R0,R6
   \   00000208   3900               MOVS     R1,R7
   \   0000020A   904A               LDR      R2,??FloToStr_9+0x2C  ;; 0x107a4000
   \   0000020C   904B               LDR      R3,??FloToStr_9+0x30  ;; 0x5af3
   \   0000020E   ........           BL       __aeabi_ldivmod
   \   00000212   1600               MOVS     R6,R2
   \   00000214   1F00               MOVS     R7,R3
   2509                 if (Value>=10000000     ) {if (E_tmp==0) E_tmp=8;      if (ill_tmp<ill)                   { ill_tmp++;  str_tmp[ill_tmp]=48+__ValueRST / 10000000000000    ; __ValueRST=__ValueRST % 10000000000000    ; }};
   \                     ??FloToStr_16:
   \   00000216   1698               LDR      R0,[SP, #+88]
   \   00000218   8E49               LDR      R1,??FloToStr_9+0x34  ;; 0x4b189680
   \   0000021A   ........           BL       __aeabi_cfrcmple
   \   0000021E   1ED8               BHI      ??FloToStr_18
   \   00000220   002D               CMP      R5,#+0
   \   00000222   00D1               BNE      ??FloToStr_19
   \   00000224   0825               MOVS     R5,#+8
   \                     ??FloToStr_19:
   \   00000226   18A8               ADD      R0,SP,#+96
   \   00000228   0078               LDRB     R0,[R0, #+0]
   \   0000022A   8442               CMP      R4,R0
   \   0000022C   17DA               BGE      ??FloToStr_18
   \   0000022E   641C               ADDS     R4,R4,#+1
   \   00000230   3000               MOVS     R0,R6
   \   00000232   3900               MOVS     R1,R7
   \   00000234   884A               LDR      R2,??FloToStr_9+0x38  ;; 0x4e72a000
   \   00000236   894B               LDR      R3,??FloToStr_9+0x3C  ;; 0x918
   \   00000238   ........           BL       __aeabi_ldivmod
   \   0000023C   0022               MOVS     R2,#+0
   \   0000023E   3030               ADDS     R0,R0,#+48
   \   00000240   5141               ADCS     R1,R1,R2
   \   00000242   ........           BL       __aeabi_l2f
   \   00000246   0421               MOVS     R1,#+4
   \   00000248   6143               MULS     R1,R4,R1
   \   0000024A   04AA               ADD      R2,SP,#+16
   \   0000024C   5050               STR      R0,[R2, R1]
   \   0000024E   3000               MOVS     R0,R6
   \   00000250   3900               MOVS     R1,R7
   \   00000252   814A               LDR      R2,??FloToStr_9+0x38  ;; 0x4e72a000
   \   00000254   814B               LDR      R3,??FloToStr_9+0x3C  ;; 0x918
   \   00000256   ........           BL       __aeabi_ldivmod
   \   0000025A   1600               MOVS     R6,R2
   \   0000025C   1F00               MOVS     R7,R3
   2510                 if (Value>=1000000      ) {if (E_tmp==0) E_tmp=7;      if (ill_tmp<ill)                   { ill_tmp++;  str_tmp[ill_tmp]=48+__ValueRST / 1000000000000     ; __ValueRST=__ValueRST % 1000000000000     ; NastDiel=100000000000; }};
   \                     ??FloToStr_18:
   \   0000025E   1698               LDR      R0,[SP, #+88]
   \   00000260   6F49               LDR      R1,??FloToStr_9  ;; 0x49742400
   \   00000262   ........           BL       __aeabi_cfrcmple
   \   00000266   23D8               BHI      ??FloToStr_20
   \   00000268   002D               CMP      R5,#+0
   \   0000026A   00D1               BNE      ??FloToStr_21
   \   0000026C   0725               MOVS     R5,#+7
   \                     ??FloToStr_21:
   \   0000026E   18A8               ADD      R0,SP,#+96
   \   00000270   0078               LDRB     R0,[R0, #+0]
   \   00000272   8442               CMP      R4,R0
   \   00000274   1CDA               BGE      ??FloToStr_20
   \   00000276   641C               ADDS     R4,R4,#+1
   \   00000278   3000               MOVS     R0,R6
   \   0000027A   3900               MOVS     R1,R7
   \   0000027C   784A               LDR      R2,??FloToStr_9+0x40  ;; 0xd4a51000
   \   0000027E   E823               MOVS     R3,#+232
   \   00000280   ........           BL       __aeabi_ldivmod
   \   00000284   0022               MOVS     R2,#+0
   \   00000286   3030               ADDS     R0,R0,#+48
   \   00000288   5141               ADCS     R1,R1,R2
   \   0000028A   ........           BL       __aeabi_l2f
   \   0000028E   0421               MOVS     R1,#+4
   \   00000290   6143               MULS     R1,R4,R1
   \   00000292   04AA               ADD      R2,SP,#+16
   \   00000294   5050               STR      R0,[R2, R1]
   \   00000296   3000               MOVS     R0,R6
   \   00000298   3900               MOVS     R1,R7
   \   0000029A   714A               LDR      R2,??FloToStr_9+0x40  ;; 0xd4a51000
   \   0000029C   E823               MOVS     R3,#+232
   \   0000029E   ........           BL       __aeabi_ldivmod
   \   000002A2   1600               MOVS     R6,R2
   \   000002A4   1F00               MOVS     R7,R3
   \   000002A6   02AA               ADD      R2,SP,#+8
   \   000002A8   6E48               LDR      R0,??FloToStr_9+0x44  ;; 0x4876e800
   \   000002AA   1721               MOVS     R1,#+23
   \   000002AC   03C2               STM      R2!,{R0,R1}
   \   000002AE   083A               SUBS     R2,R2,#+8
   2511                 if (Value>=100000       ) {if (E_tmp==0) E_tmp=6;      if (ill_tmp<ill)                   { ill_tmp++;  str_tmp[ill_tmp]=48+__ValueRST / 100000000000      ; __ValueRST=__ValueRST % 100000000000      ; NastDiel=10000000000 ; }};
   \                     ??FloToStr_20:
   \   000002B0   1698               LDR      R0,[SP, #+88]
   \   000002B2   6D49               LDR      R1,??FloToStr_9+0x48  ;; 0x47c35000
   \   000002B4   ........           BL       __aeabi_cfrcmple
   \   000002B8   23D8               BHI      ??FloToStr_22
   \   000002BA   002D               CMP      R5,#+0
   \   000002BC   00D1               BNE      ??FloToStr_23
   \   000002BE   0625               MOVS     R5,#+6
   \                     ??FloToStr_23:
   \   000002C0   18A8               ADD      R0,SP,#+96
   \   000002C2   0078               LDRB     R0,[R0, #+0]
   \   000002C4   8442               CMP      R4,R0
   \   000002C6   1CDA               BGE      ??FloToStr_22
   \   000002C8   641C               ADDS     R4,R4,#+1
   \   000002CA   3000               MOVS     R0,R6
   \   000002CC   3900               MOVS     R1,R7
   \   000002CE   654A               LDR      R2,??FloToStr_9+0x44  ;; 0x4876e800
   \   000002D0   1723               MOVS     R3,#+23
   \   000002D2   ........           BL       __aeabi_ldivmod
   \   000002D6   0022               MOVS     R2,#+0
   \   000002D8   3030               ADDS     R0,R0,#+48
   \   000002DA   5141               ADCS     R1,R1,R2
   \   000002DC   ........           BL       __aeabi_l2f
   \   000002E0   0421               MOVS     R1,#+4
   \   000002E2   6143               MULS     R1,R4,R1
   \   000002E4   04AA               ADD      R2,SP,#+16
   \   000002E6   5050               STR      R0,[R2, R1]
   \   000002E8   3000               MOVS     R0,R6
   \   000002EA   3900               MOVS     R1,R7
   \   000002EC   5D4A               LDR      R2,??FloToStr_9+0x44  ;; 0x4876e800
   \   000002EE   1723               MOVS     R3,#+23
   \   000002F0   ........           BL       __aeabi_ldivmod
   \   000002F4   1600               MOVS     R6,R2
   \   000002F6   1F00               MOVS     R7,R3
   \   000002F8   02AA               ADD      R2,SP,#+8
   \   000002FA   5C48               LDR      R0,??FloToStr_9+0x4C  ;; 0x540be400
   \   000002FC   0221               MOVS     R1,#+2
   \   000002FE   03C2               STM      R2!,{R0,R1}
   \   00000300   083A               SUBS     R2,R2,#+8
   2512                 if (Value>=10000        ) {if (E_tmp==0) E_tmp=5;      if (ill_tmp<ill) { ill_tmp++;  str_tmp[ill_tmp]=48+__ValueRST / 10000000000       ; __ValueRST=__ValueRST % 10000000000       ; NastDiel=1000000000  ; }};
   \                     ??FloToStr_22:
   \   00000302   1698               LDR      R0,[SP, #+88]
   \   00000304   5A49               LDR      R1,??FloToStr_9+0x50  ;; 0x461c4000
   \   00000306   ........           BL       __aeabi_cfrcmple
   \   0000030A   23D8               BHI      ??FloToStr_24
   \   0000030C   002D               CMP      R5,#+0
   \   0000030E   00D1               BNE      ??FloToStr_25
   \   00000310   0525               MOVS     R5,#+5
   \                     ??FloToStr_25:
   \   00000312   18A8               ADD      R0,SP,#+96
   \   00000314   0078               LDRB     R0,[R0, #+0]
   \   00000316   8442               CMP      R4,R0
   \   00000318   1CDA               BGE      ??FloToStr_24
   \   0000031A   641C               ADDS     R4,R4,#+1
   \   0000031C   3000               MOVS     R0,R6
   \   0000031E   3900               MOVS     R1,R7
   \   00000320   524A               LDR      R2,??FloToStr_9+0x4C  ;; 0x540be400
   \   00000322   0223               MOVS     R3,#+2
   \   00000324   ........           BL       __aeabi_ldivmod
   \   00000328   0022               MOVS     R2,#+0
   \   0000032A   3030               ADDS     R0,R0,#+48
   \   0000032C   5141               ADCS     R1,R1,R2
   \   0000032E   ........           BL       __aeabi_l2f
   \   00000332   0421               MOVS     R1,#+4
   \   00000334   6143               MULS     R1,R4,R1
   \   00000336   04AA               ADD      R2,SP,#+16
   \   00000338   5050               STR      R0,[R2, R1]
   \   0000033A   3000               MOVS     R0,R6
   \   0000033C   3900               MOVS     R1,R7
   \   0000033E   4B4A               LDR      R2,??FloToStr_9+0x4C  ;; 0x540be400
   \   00000340   0223               MOVS     R3,#+2
   \   00000342   ........           BL       __aeabi_ldivmod
   \   00000346   1600               MOVS     R6,R2
   \   00000348   1F00               MOVS     R7,R3
   \   0000034A   02AA               ADD      R2,SP,#+8
   \   0000034C   4948               LDR      R0,??FloToStr_9+0x54  ;; 0x3b9aca00
   \   0000034E   0021               MOVS     R1,#+0
   \   00000350   03C2               STM      R2!,{R0,R1}
   \   00000352   083A               SUBS     R2,R2,#+8
   2513                 if (Value>=1000         ) {if (E_tmp==0) E_tmp=4;      if (ill_tmp<ill) { ill_tmp++;  str_tmp[ill_tmp]=48+__ValueRST / 1000000000        ; __ValueRST=__ValueRST % 1000000000        ; NastDiel=100000000   ; }};
   \                     ??FloToStr_24:
   \   00000354   1698               LDR      R0,[SP, #+88]
   \   00000356   4849               LDR      R1,??FloToStr_9+0x58  ;; 0x447a0000
   \   00000358   ........           BL       __aeabi_cfrcmple
   \   0000035C   23D8               BHI      ??FloToStr_26
   \   0000035E   002D               CMP      R5,#+0
   \   00000360   00D1               BNE      ??FloToStr_27
   \   00000362   0425               MOVS     R5,#+4
   \                     ??FloToStr_27:
   \   00000364   18A8               ADD      R0,SP,#+96
   \   00000366   0078               LDRB     R0,[R0, #+0]
   \   00000368   8442               CMP      R4,R0
   \   0000036A   1CDA               BGE      ??FloToStr_26
   \   0000036C   641C               ADDS     R4,R4,#+1
   \   0000036E   3000               MOVS     R0,R6
   \   00000370   3900               MOVS     R1,R7
   \   00000372   404A               LDR      R2,??FloToStr_9+0x54  ;; 0x3b9aca00
   \   00000374   0023               MOVS     R3,#+0
   \   00000376   ........           BL       __aeabi_ldivmod
   \   0000037A   0022               MOVS     R2,#+0
   \   0000037C   3030               ADDS     R0,R0,#+48
   \   0000037E   5141               ADCS     R1,R1,R2
   \   00000380   ........           BL       __aeabi_l2f
   \   00000384   0421               MOVS     R1,#+4
   \   00000386   6143               MULS     R1,R4,R1
   \   00000388   04AA               ADD      R2,SP,#+16
   \   0000038A   5050               STR      R0,[R2, R1]
   \   0000038C   3000               MOVS     R0,R6
   \   0000038E   3900               MOVS     R1,R7
   \   00000390   384A               LDR      R2,??FloToStr_9+0x54  ;; 0x3b9aca00
   \   00000392   0023               MOVS     R3,#+0
   \   00000394   ........           BL       __aeabi_ldivmod
   \   00000398   1600               MOVS     R6,R2
   \   0000039A   1F00               MOVS     R7,R3
   \   0000039C   02AA               ADD      R2,SP,#+8
   \   0000039E   3748               LDR      R0,??FloToStr_9+0x5C  ;; 0x5f5e100
   \   000003A0   0021               MOVS     R1,#+0
   \   000003A2   03C2               STM      R2!,{R0,R1}
   \   000003A4   083A               SUBS     R2,R2,#+8
   2514                 if (Value>=100          ) {if (E_tmp==0) E_tmp=3;      if (ill_tmp<ill) { ill_tmp++;  str_tmp[ill_tmp]=48+__ValueRST / 100000000         ; __ValueRST=__ValueRST % 100000000         ; NastDiel=10000000    ; }};
   \                     ??FloToStr_26:
   \   000003A6   1698               LDR      R0,[SP, #+88]
   \   000003A8   3549               LDR      R1,??FloToStr_9+0x60  ;; 0x42c80000
   \   000003AA   ........           BL       __aeabi_cfrcmple
   \   000003AE   23D8               BHI      ??FloToStr_28
   \   000003B0   002D               CMP      R5,#+0
   \   000003B2   00D1               BNE      ??FloToStr_29
   \   000003B4   0325               MOVS     R5,#+3
   \                     ??FloToStr_29:
   \   000003B6   18A8               ADD      R0,SP,#+96
   \   000003B8   0078               LDRB     R0,[R0, #+0]
   \   000003BA   8442               CMP      R4,R0
   \   000003BC   1CDA               BGE      ??FloToStr_28
   \   000003BE   641C               ADDS     R4,R4,#+1
   \   000003C0   3000               MOVS     R0,R6
   \   000003C2   3900               MOVS     R1,R7
   \   000003C4   2D4A               LDR      R2,??FloToStr_9+0x5C  ;; 0x5f5e100
   \   000003C6   0023               MOVS     R3,#+0
   \   000003C8   ........           BL       __aeabi_ldivmod
   \   000003CC   0022               MOVS     R2,#+0
   \   000003CE   3030               ADDS     R0,R0,#+48
   \   000003D0   5141               ADCS     R1,R1,R2
   \   000003D2   ........           BL       __aeabi_l2f
   \   000003D6   0421               MOVS     R1,#+4
   \   000003D8   6143               MULS     R1,R4,R1
   \   000003DA   04AA               ADD      R2,SP,#+16
   \   000003DC   5050               STR      R0,[R2, R1]
   \   000003DE   3000               MOVS     R0,R6
   \   000003E0   3900               MOVS     R1,R7
   \   000003E2   264A               LDR      R2,??FloToStr_9+0x5C  ;; 0x5f5e100
   \   000003E4   0023               MOVS     R3,#+0
   \   000003E6   ........           BL       __aeabi_ldivmod
   \   000003EA   1600               MOVS     R6,R2
   \   000003EC   1F00               MOVS     R7,R3
   \   000003EE   02AA               ADD      R2,SP,#+8
   \   000003F0   2448               LDR      R0,??FloToStr_9+0x64  ;; 0x989680
   \   000003F2   0021               MOVS     R1,#+0
   \   000003F4   03C2               STM      R2!,{R0,R1}
   \   000003F6   083A               SUBS     R2,R2,#+8
   2515                 if (Value>=10           ) {if (E_tmp==0) E_tmp=2;      if (ill_tmp<ill) { ill_tmp++;  str_tmp[ill_tmp]=48+__ValueRST / 10000000          ; __ValueRST=__ValueRST % 10000000          ; NastDiel=1000000     ; }};
   \                     ??FloToStr_28:
   \   000003F8   1698               LDR      R0,[SP, #+88]
   \   000003FA   2349               LDR      R1,??FloToStr_9+0x68  ;; 0x41200000
   \   000003FC   ........           BL       __aeabi_cfrcmple
   \   00000400   5AD8               BHI      ??FloToStr_30
   \   00000402   002D               CMP      R5,#+0
   \   00000404   00D1               BNE      ??FloToStr_31
   \   00000406   0225               MOVS     R5,#+2
   \                     ??FloToStr_31:
   \   00000408   18A8               ADD      R0,SP,#+96
   \   0000040A   0078               LDRB     R0,[R0, #+0]
   \   0000040C   8442               CMP      R4,R0
   \   0000040E   53DA               BGE      ??FloToStr_30
   \   00000410   641C               ADDS     R4,R4,#+1
   \   00000412   3000               MOVS     R0,R6
   \   00000414   3900               MOVS     R1,R7
   \   00000416   1B4A               LDR      R2,??FloToStr_9+0x64  ;; 0x989680
   \   00000418   0023               MOVS     R3,#+0
   \   0000041A   ........           BL       __aeabi_ldivmod
   \   0000041E   35E0               B.N      ??FloToStr_32
   \                     ??FloToStr_9:
   \   00000420   00247449           DC32     0x49742400
   \   00000424   B743BA51           DC32     0x51ba43b7
   \   00000428   00008A5D           DC32     0x5d8a0000
   \   0000042C   78456301           DC32     0x1634578
   \   00000430   F9021550           DC32     0x501502f9
   \   00000434   0000C16F           DC32     0x6fc10000
   \   00000438   F2862300           DC32     0x2386f2
   \   0000043C   286B6E4E           DC32     0x4e6e6b28
   \   00000440   0080C6A4           DC32     0xa4c68000
   \   00000444   7E8D0300           DC32     0x38d7e
   \   00000448   20BCBE4C           DC32     0x4cbebc20
   \   0000044C   00407A10           DC32     0x107a4000
   \   00000450   F35A0000           DC32     0x5af3
   \   00000454   8096184B           DC32     0x4b189680
   \   00000458   00A0724E           DC32     0x4e72a000
   \   0000045C   18090000           DC32     0x918
   \   00000460   0010A5D4           DC32     0xd4a51000
   \   00000464   00E87648           DC32     0x4876e800
   \   00000468   0050C347           DC32     0x47c35000
   \   0000046C   00E40B54           DC32     0x540be400
   \   00000470   00401C46           DC32     0x461c4000
   \   00000474   00CA9A3B           DC32     0x3b9aca00
   \   00000478   00007A44           DC32     0x447a0000
   \   0000047C   00E1F505           DC32     0x5f5e100
   \   00000480   0000C842           DC32     0x42c80000
   \   00000484   80969800           DC32     0x989680
   \   00000488   00002041           DC32     0x41200000
   \                     ??FloToStr_32:
   \   0000048C   0022               MOVS     R2,#+0
   \   0000048E   3030               ADDS     R0,R0,#+48
   \   00000490   5141               ADCS     R1,R1,R2
   \   00000492   ........           BL       __aeabi_l2f
   \   00000496   0421               MOVS     R1,#+4
   \   00000498   6143               MULS     R1,R4,R1
   \   0000049A   04AA               ADD      R2,SP,#+16
   \   0000049C   5050               STR      R0,[R2, R1]
   \   0000049E   3000               MOVS     R0,R6
   \   000004A0   3900               MOVS     R1,R7
   \   000004A2   C44A               LDR      R2,??FloToStr_33  ;; 0x989680
   \   000004A4   0023               MOVS     R3,#+0
   \   000004A6   ........           BL       __aeabi_ldivmod
   \   000004AA   1600               MOVS     R6,R2
   \   000004AC   1F00               MOVS     R7,R3
   \   000004AE   02AA               ADD      R2,SP,#+8
   \   000004B0   C148               LDR      R0,??FloToStr_33+0x4  ;; 0xf4240
   \   000004B2   0021               MOVS     R1,#+0
   \   000004B4   03C2               STM      R2!,{R0,R1}
   \   000004B6   083A               SUBS     R2,R2,#+8
   2516                 if (Value>=1            ) {if (E_tmp==0) E_tmp=1;      if (ill_tmp<ill) { ill_tmp++;  str_tmp[ill_tmp]=48+__ValueRST / 1000000           ; __ValueRST=__ValueRST % 1000000           ; NastDiel=100000      ; }};
   \                     ??FloToStr_30:
   \   000004B8   1698               LDR      R0,[SP, #+88]
   \   000004BA   FE21               MOVS     R1,#+254
   \   000004BC   8905               LSLS     R1,R1,#+22       ;; #+1065353216
   \   000004BE   ........           BL       __aeabi_cfrcmple
   \   000004C2   23D8               BHI      ??FloToStr_34
   \   000004C4   002D               CMP      R5,#+0
   \   000004C6   00D1               BNE      ??FloToStr_35
   \   000004C8   0125               MOVS     R5,#+1
   \                     ??FloToStr_35:
   \   000004CA   18A8               ADD      R0,SP,#+96
   \   000004CC   0078               LDRB     R0,[R0, #+0]
   \   000004CE   8442               CMP      R4,R0
   \   000004D0   1CDA               BGE      ??FloToStr_34
   \   000004D2   641C               ADDS     R4,R4,#+1
   \   000004D4   3000               MOVS     R0,R6
   \   000004D6   3900               MOVS     R1,R7
   \   000004D8   B74A               LDR      R2,??FloToStr_33+0x4  ;; 0xf4240
   \   000004DA   0023               MOVS     R3,#+0
   \   000004DC   ........           BL       __aeabi_ldivmod
   \   000004E0   0022               MOVS     R2,#+0
   \   000004E2   3030               ADDS     R0,R0,#+48
   \   000004E4   5141               ADCS     R1,R1,R2
   \   000004E6   ........           BL       __aeabi_l2f
   \   000004EA   0421               MOVS     R1,#+4
   \   000004EC   6143               MULS     R1,R4,R1
   \   000004EE   04AA               ADD      R2,SP,#+16
   \   000004F0   5050               STR      R0,[R2, R1]
   \   000004F2   3000               MOVS     R0,R6
   \   000004F4   3900               MOVS     R1,R7
   \   000004F6   B04A               LDR      R2,??FloToStr_33+0x4  ;; 0xf4240
   \   000004F8   0023               MOVS     R3,#+0
   \   000004FA   ........           BL       __aeabi_ldivmod
   \   000004FE   1600               MOVS     R6,R2
   \   00000500   1F00               MOVS     R7,R3
   \   00000502   02AA               ADD      R2,SP,#+8
   \   00000504   AD48               LDR      R0,??FloToStr_33+0x8  ;; 0x186a0
   \   00000506   0021               MOVS     R1,#+0
   \   00000508   03C2               STM      R2!,{R0,R1}
   \   0000050A   083A               SUBS     R2,R2,#+8
   2517                 if (Value>=0.09999      ) {if (E_tmp==0) E_tmp=100;    if ((ill_tmp<ill)&&(__ValueRST>0)) { ill_tmp++;  str_tmp[ill_tmp]=0x2E; ill_tmp++;  str_tmp[ill_tmp]=48+__ValueRST / 100000            ; __ValueRST=__ValueRST % 100000            ; NastDiel=10000; }};
   \                     ??FloToStr_34:
   \   0000050C   1698               LDR      R0,[SP, #+88]
   \   0000050E   AC49               LDR      R1,??FloToStr_33+0xC  ;; 0x3dccc78f
   \   00000510   ........           BL       __aeabi_cfrcmple
   \   00000514   2ED8               BHI      ??FloToStr_36
   \   00000516   002D               CMP      R5,#+0
   \   00000518   00D1               BNE      ??FloToStr_37
   \   0000051A   6425               MOVS     R5,#+100
   \                     ??FloToStr_37:
   \   0000051C   18A8               ADD      R0,SP,#+96
   \   0000051E   0078               LDRB     R0,[R0, #+0]
   \   00000520   8442               CMP      R4,R0
   \   00000522   27DA               BGE      ??FloToStr_36
   \   00000524   002F               CMP      R7,#+0
   \   00000526   25DB               BLT      ??FloToStr_36
   \   00000528   01DC               BGT      ??FloToStr_38
   \   0000052A   012E               CMP      R6,#+1
   \   0000052C   22D3               BCC      ??FloToStr_36
   \                     ??FloToStr_38:
   \   0000052E   641C               ADDS     R4,R4,#+1
   \   00000530   0420               MOVS     R0,#+4
   \   00000532   6043               MULS     R0,R4,R0
   \   00000534   04A9               ADD      R1,SP,#+16
   \   00000536   A34A               LDR      R2,??FloToStr_33+0x10  ;; 0x42380000
   \   00000538   0A50               STR      R2,[R1, R0]
   \   0000053A   641C               ADDS     R4,R4,#+1
   \   0000053C   3000               MOVS     R0,R6
   \   0000053E   3900               MOVS     R1,R7
   \   00000540   9E4A               LDR      R2,??FloToStr_33+0x8  ;; 0x186a0
   \   00000542   0023               MOVS     R3,#+0
   \   00000544   ........           BL       __aeabi_ldivmod
   \   00000548   0022               MOVS     R2,#+0
   \   0000054A   3030               ADDS     R0,R0,#+48
   \   0000054C   5141               ADCS     R1,R1,R2
   \   0000054E   ........           BL       __aeabi_l2f
   \   00000552   0421               MOVS     R1,#+4
   \   00000554   6143               MULS     R1,R4,R1
   \   00000556   04AA               ADD      R2,SP,#+16
   \   00000558   5050               STR      R0,[R2, R1]
   \   0000055A   3000               MOVS     R0,R6
   \   0000055C   3900               MOVS     R1,R7
   \   0000055E   974A               LDR      R2,??FloToStr_33+0x8  ;; 0x186a0
   \   00000560   0023               MOVS     R3,#+0
   \   00000562   ........           BL       __aeabi_ldivmod
   \   00000566   1600               MOVS     R6,R2
   \   00000568   1F00               MOVS     R7,R3
   \   0000056A   02AA               ADD      R2,SP,#+8
   \   0000056C   9648               LDR      R0,??FloToStr_33+0x14  ;; 0x2710
   \   0000056E   0021               MOVS     R1,#+0
   \   00000570   03C2               STM      R2!,{R0,R1}
   \   00000572   083A               SUBS     R2,R2,#+8
   2518                 if (Value>=0.009999     ) {if (E_tmp==0) E_tmp=101;    if ((ill_tmp<ill)&&(__ValueRST>0)) { ill_tmp++;  str_tmp[ill_tmp]=48+(__ValueRST / 10000)           ; __ValueRST=__ValueRST % 10000             ; NastDiel=1000        ; }};
   \                     ??FloToStr_36:
   \   00000574   1698               LDR      R0,[SP, #+88]
   \   00000576   9549               LDR      R1,??FloToStr_33+0x18  ;; 0x3c23d2d9
   \   00000578   ........           BL       __aeabi_cfrcmple
   \   0000057C   29D8               BHI      ??FloToStr_39
   \   0000057E   002D               CMP      R5,#+0
   \   00000580   00D1               BNE      ??FloToStr_40
   \   00000582   6525               MOVS     R5,#+101
   \                     ??FloToStr_40:
   \   00000584   18A8               ADD      R0,SP,#+96
   \   00000586   0078               LDRB     R0,[R0, #+0]
   \   00000588   8442               CMP      R4,R0
   \   0000058A   22DA               BGE      ??FloToStr_39
   \   0000058C   002F               CMP      R7,#+0
   \   0000058E   20DB               BLT      ??FloToStr_39
   \   00000590   01DC               BGT      ??FloToStr_41
   \   00000592   012E               CMP      R6,#+1
   \   00000594   1DD3               BCC      ??FloToStr_39
   \                     ??FloToStr_41:
   \   00000596   641C               ADDS     R4,R4,#+1
   \   00000598   3000               MOVS     R0,R6
   \   0000059A   3900               MOVS     R1,R7
   \   0000059C   8A4A               LDR      R2,??FloToStr_33+0x14  ;; 0x2710
   \   0000059E   0023               MOVS     R3,#+0
   \   000005A0   ........           BL       __aeabi_ldivmod
   \   000005A4   0022               MOVS     R2,#+0
   \   000005A6   3030               ADDS     R0,R0,#+48
   \   000005A8   5141               ADCS     R1,R1,R2
   \   000005AA   ........           BL       __aeabi_l2f
   \   000005AE   0421               MOVS     R1,#+4
   \   000005B0   6143               MULS     R1,R4,R1
   \   000005B2   04AA               ADD      R2,SP,#+16
   \   000005B4   5050               STR      R0,[R2, R1]
   \   000005B6   3000               MOVS     R0,R6
   \   000005B8   3900               MOVS     R1,R7
   \   000005BA   834A               LDR      R2,??FloToStr_33+0x14  ;; 0x2710
   \   000005BC   0023               MOVS     R3,#+0
   \   000005BE   ........           BL       __aeabi_ldivmod
   \   000005C2   1600               MOVS     R6,R2
   \   000005C4   1F00               MOVS     R7,R3
   \   000005C6   02AA               ADD      R2,SP,#+8
   \   000005C8   FA20               MOVS     R0,#+250
   \   000005CA   8000               LSLS     R0,R0,#+2        ;; #+1000
   \   000005CC   0021               MOVS     R1,#+0
   \   000005CE   03C2               STM      R2!,{R0,R1}
   \   000005D0   083A               SUBS     R2,R2,#+8
   2519                 if (Value>=0.0009999    ) {if (E_tmp==0) E_tmp=102;    if ((ill_tmp<ill)&&(__ValueRST>0)) { ill_tmp++;  str_tmp[ill_tmp]=48+(__ValueRST / 1000)            ; __ValueRST=__ValueRST % 1000              ; NastDiel=100         ; }};
   \                     ??FloToStr_39:
   \   000005D2   1698               LDR      R0,[SP, #+88]
   \   000005D4   7E49               LDR      R1,??FloToStr_33+0x1C  ;; 0x3a830f14
   \   000005D6   ........           BL       __aeabi_cfrcmple
   \   000005DA   2AD8               BHI      ??FloToStr_42
   \   000005DC   002D               CMP      R5,#+0
   \   000005DE   00D1               BNE      ??FloToStr_43
   \   000005E0   6625               MOVS     R5,#+102
   \                     ??FloToStr_43:
   \   000005E2   18A8               ADD      R0,SP,#+96
   \   000005E4   0078               LDRB     R0,[R0, #+0]
   \   000005E6   8442               CMP      R4,R0
   \   000005E8   23DA               BGE      ??FloToStr_42
   \   000005EA   002F               CMP      R7,#+0
   \   000005EC   21DB               BLT      ??FloToStr_42
   \   000005EE   01DC               BGT      ??FloToStr_44
   \   000005F0   012E               CMP      R6,#+1
   \   000005F2   1ED3               BCC      ??FloToStr_42
   \                     ??FloToStr_44:
   \   000005F4   641C               ADDS     R4,R4,#+1
   \   000005F6   3000               MOVS     R0,R6
   \   000005F8   3900               MOVS     R1,R7
   \   000005FA   FA22               MOVS     R2,#+250
   \   000005FC   9200               LSLS     R2,R2,#+2        ;; #+1000
   \   000005FE   0023               MOVS     R3,#+0
   \   00000600   ........           BL       __aeabi_ldivmod
   \   00000604   0022               MOVS     R2,#+0
   \   00000606   3030               ADDS     R0,R0,#+48
   \   00000608   5141               ADCS     R1,R1,R2
   \   0000060A   ........           BL       __aeabi_l2f
   \   0000060E   0421               MOVS     R1,#+4
   \   00000610   6143               MULS     R1,R4,R1
   \   00000612   04AA               ADD      R2,SP,#+16
   \   00000614   5050               STR      R0,[R2, R1]
   \   00000616   3000               MOVS     R0,R6
   \   00000618   3900               MOVS     R1,R7
   \   0000061A   FA22               MOVS     R2,#+250
   \   0000061C   9200               LSLS     R2,R2,#+2        ;; #+1000
   \   0000061E   0023               MOVS     R3,#+0
   \   00000620   ........           BL       __aeabi_ldivmod
   \   00000624   1600               MOVS     R6,R2
   \   00000626   1F00               MOVS     R7,R3
   \   00000628   02AA               ADD      R2,SP,#+8
   \   0000062A   6420               MOVS     R0,#+100
   \   0000062C   0021               MOVS     R1,#+0
   \   0000062E   03C2               STM      R2!,{R0,R1}
   \   00000630   083A               SUBS     R2,R2,#+8
   2520                 if (Value>=0.00009999   ) {if (E_tmp==0) E_tmp=103;    if ((ill_tmp<ill)&&(__ValueRST>0)) { ill_tmp++;  str_tmp[ill_tmp]=48+(__ValueRST / 100)             ; __ValueRST=__ValueRST % 100               ; NastDiel=10          ; }};
   \                     ??FloToStr_42:
   \   00000632   1698               LDR      R0,[SP, #+88]
   \   00000634   6749               LDR      R1,??FloToStr_33+0x20  ;; 0x38d1b1b9
   \   00000636   ........           BL       __aeabi_cfrcmple
   \   0000063A   28D8               BHI      ??FloToStr_45
   \   0000063C   002D               CMP      R5,#+0
   \   0000063E   00D1               BNE      ??FloToStr_46
   \   00000640   6725               MOVS     R5,#+103
   \                     ??FloToStr_46:
   \   00000642   18A8               ADD      R0,SP,#+96
   \   00000644   0078               LDRB     R0,[R0, #+0]
   \   00000646   8442               CMP      R4,R0
   \   00000648   21DA               BGE      ??FloToStr_45
   \   0000064A   002F               CMP      R7,#+0
   \   0000064C   1FDB               BLT      ??FloToStr_45
   \   0000064E   01DC               BGT      ??FloToStr_47
   \   00000650   012E               CMP      R6,#+1
   \   00000652   1CD3               BCC      ??FloToStr_45
   \                     ??FloToStr_47:
   \   00000654   641C               ADDS     R4,R4,#+1
   \   00000656   3000               MOVS     R0,R6
   \   00000658   3900               MOVS     R1,R7
   \   0000065A   6422               MOVS     R2,#+100
   \   0000065C   0023               MOVS     R3,#+0
   \   0000065E   ........           BL       __aeabi_ldivmod
   \   00000662   0022               MOVS     R2,#+0
   \   00000664   3030               ADDS     R0,R0,#+48
   \   00000666   5141               ADCS     R1,R1,R2
   \   00000668   ........           BL       __aeabi_l2f
   \   0000066C   0421               MOVS     R1,#+4
   \   0000066E   6143               MULS     R1,R4,R1
   \   00000670   04AA               ADD      R2,SP,#+16
   \   00000672   5050               STR      R0,[R2, R1]
   \   00000674   3000               MOVS     R0,R6
   \   00000676   3900               MOVS     R1,R7
   \   00000678   6422               MOVS     R2,#+100
   \   0000067A   0023               MOVS     R3,#+0
   \   0000067C   ........           BL       __aeabi_ldivmod
   \   00000680   1600               MOVS     R6,R2
   \   00000682   1F00               MOVS     R7,R3
   \   00000684   02AA               ADD      R2,SP,#+8
   \   00000686   0A20               MOVS     R0,#+10
   \   00000688   0021               MOVS     R1,#+0
   \   0000068A   03C2               STM      R2!,{R0,R1}
   \   0000068C   083A               SUBS     R2,R2,#+8
   2521                 if (Value>=0.000009999  ) {if (E_tmp==0) E_tmp=104;    if ((ill_tmp<ill)&&(__ValueRST>0)) { ill_tmp++;  str_tmp[ill_tmp]=48+(__ValueRST / 10)              ; __ValueRST=__ValueRST % 10                ; NastDiel=1           ; }};
   \                     ??FloToStr_45:
   \   0000068E   1698               LDR      R0,[SP, #+88]
   \   00000690   5149               LDR      R1,??FloToStr_33+0x24  ;; 0x3727c161
   \   00000692   ........           BL       __aeabi_cfrcmple
   \   00000696   28D8               BHI      ??FloToStr_48
   \   00000698   002D               CMP      R5,#+0
   \   0000069A   00D1               BNE      ??FloToStr_49
   \   0000069C   6825               MOVS     R5,#+104
   \                     ??FloToStr_49:
   \   0000069E   18A8               ADD      R0,SP,#+96
   \   000006A0   0078               LDRB     R0,[R0, #+0]
   \   000006A2   8442               CMP      R4,R0
   \   000006A4   21DA               BGE      ??FloToStr_48
   \   000006A6   002F               CMP      R7,#+0
   \   000006A8   1FDB               BLT      ??FloToStr_48
   \   000006AA   01DC               BGT      ??FloToStr_50
   \   000006AC   012E               CMP      R6,#+1
   \   000006AE   1CD3               BCC      ??FloToStr_48
   \                     ??FloToStr_50:
   \   000006B0   641C               ADDS     R4,R4,#+1
   \   000006B2   3000               MOVS     R0,R6
   \   000006B4   3900               MOVS     R1,R7
   \   000006B6   0A22               MOVS     R2,#+10
   \   000006B8   0023               MOVS     R3,#+0
   \   000006BA   ........           BL       __aeabi_ldivmod
   \   000006BE   0022               MOVS     R2,#+0
   \   000006C0   3030               ADDS     R0,R0,#+48
   \   000006C2   5141               ADCS     R1,R1,R2
   \   000006C4   ........           BL       __aeabi_l2f
   \   000006C8   0421               MOVS     R1,#+4
   \   000006CA   6143               MULS     R1,R4,R1
   \   000006CC   04AA               ADD      R2,SP,#+16
   \   000006CE   5050               STR      R0,[R2, R1]
   \   000006D0   3000               MOVS     R0,R6
   \   000006D2   3900               MOVS     R1,R7
   \   000006D4   0A22               MOVS     R2,#+10
   \   000006D6   0023               MOVS     R3,#+0
   \   000006D8   ........           BL       __aeabi_ldivmod
   \   000006DC   1600               MOVS     R6,R2
   \   000006DE   1F00               MOVS     R7,R3
   \   000006E0   02AA               ADD      R2,SP,#+8
   \   000006E2   0120               MOVS     R0,#+1
   \   000006E4   0021               MOVS     R1,#+0
   \   000006E6   03C2               STM      R2!,{R0,R1}
   \   000006E8   083A               SUBS     R2,R2,#+8
   2522                 if (Value>=0.0000009999 ) {if (E_tmp==0) E_tmp=105;    if ((ill_tmp<ill)&&(__ValueRST>0)) { ill_tmp++;  str_tmp[ill_tmp]=48+(__ValueRST / 1)               ; __ValueRST=__ValueRST % 1                 ; NastDiel=0           ; }};
   \                     ??FloToStr_48:
   \   000006EA   1698               LDR      R0,[SP, #+88]
   \   000006EC   3B49               LDR      R1,??FloToStr_33+0x28  ;; 0x3586344e
   \   000006EE   ........           BL       __aeabi_cfrcmple
   \   000006F2   28D8               BHI      ??FloToStr_51
   \   000006F4   002D               CMP      R5,#+0
   \   000006F6   00D1               BNE      ??FloToStr_52
   \   000006F8   6925               MOVS     R5,#+105
   \                     ??FloToStr_52:
   \   000006FA   18A8               ADD      R0,SP,#+96
   \   000006FC   0078               LDRB     R0,[R0, #+0]
   \   000006FE   8442               CMP      R4,R0
   \   00000700   21DA               BGE      ??FloToStr_51
   \   00000702   002F               CMP      R7,#+0
   \   00000704   1FDB               BLT      ??FloToStr_51
   \   00000706   01DC               BGT      ??FloToStr_53
   \   00000708   012E               CMP      R6,#+1
   \   0000070A   1CD3               BCC      ??FloToStr_51
   \                     ??FloToStr_53:
   \   0000070C   641C               ADDS     R4,R4,#+1
   \   0000070E   3000               MOVS     R0,R6
   \   00000710   3900               MOVS     R1,R7
   \   00000712   0122               MOVS     R2,#+1
   \   00000714   0023               MOVS     R3,#+0
   \   00000716   ........           BL       __aeabi_ldivmod
   \   0000071A   0022               MOVS     R2,#+0
   \   0000071C   3030               ADDS     R0,R0,#+48
   \   0000071E   5141               ADCS     R1,R1,R2
   \   00000720   ........           BL       __aeabi_l2f
   \   00000724   0421               MOVS     R1,#+4
   \   00000726   6143               MULS     R1,R4,R1
   \   00000728   04AA               ADD      R2,SP,#+16
   \   0000072A   5050               STR      R0,[R2, R1]
   \   0000072C   3000               MOVS     R0,R6
   \   0000072E   3900               MOVS     R1,R7
   \   00000730   0122               MOVS     R2,#+1
   \   00000732   0023               MOVS     R3,#+0
   \   00000734   ........           BL       __aeabi_ldivmod
   \   00000738   1600               MOVS     R6,R2
   \   0000073A   1F00               MOVS     R7,R3
   \   0000073C   02AA               ADD      R2,SP,#+8
   \   0000073E   0020               MOVS     R0,#+0
   \   00000740   0021               MOVS     R1,#+0
   \   00000742   03C2               STM      R2!,{R0,R1}
   \   00000744   083A               SUBS     R2,R2,#+8
   2523             
   2524                 if ((__ValueRST) && (NastDiel))
   \                     ??FloToStr_51:
   \   00000746   002F               CMP      R7,#+0
   \   00000748   02D1               BNE      ??FloToStr_54
   \   0000074A   002E               CMP      R6,#+0
   \   0000074C   00D1               BNE      .+4
   \   0000074E   80E1               B        ??FloToStr_55
   \                     ??FloToStr_54:
   \   00000750   02A8               ADD      R0,SP,#+8
   \   00000752   03C8               LDM      R0!,{R0,R1}
   \   00000754   0029               CMP      R1,#+0
   \   00000756   02D1               BNE      ??FloToStr_56
   \   00000758   0028               CMP      R0,#+0
   \   0000075A   00D1               BNE      .+4
   \   0000075C   79E1               B        ??FloToStr_55
   2525                 {
   2526                   if (((__ValueRST/NastDiel)>5) && (str_tmp[ill_tmp]<57)) { str_tmp[ill_tmp]++; }
   \                     ??FloToStr_56:
   \   0000075E   3000               MOVS     R0,R6
   \   00000760   3900               MOVS     R1,R7
   \   00000762   02AA               ADD      R2,SP,#+8
   \   00000764   0CCA               LDM      R2!,{R2,R3}
   \   00000766   ........           BL       __aeabi_ldivmod
   \   0000076A   0029               CMP      R1,#+0
   \   0000076C   16DB               BLT      ??FloToStr_57
   \   0000076E   01DC               BGT      ??FloToStr_58
   \   00000770   0628               CMP      R0,#+6
   \   00000772   13D3               BCC      ??FloToStr_57
   \                     ??FloToStr_58:
   \   00000774   0420               MOVS     R0,#+4
   \   00000776   6043               MULS     R0,R4,R0
   \   00000778   04A9               ADD      R1,SP,#+16
   \   0000077A   0858               LDR      R0,[R1, R0]
   \   0000077C   1849               LDR      R1,??FloToStr_33+0x2C  ;; 0x42640000
   \   0000077E   ........           BL       __aeabi_cfcmple
   \   00000782   0BD2               BCS      ??FloToStr_57
   \   00000784   0420               MOVS     R0,#+4
   \   00000786   6043               MULS     R0,R4,R0
   \   00000788   04A9               ADD      R1,SP,#+16
   \   0000078A   0958               LDR      R1,[R1, R0]
   \   0000078C   FE20               MOVS     R0,#+254
   \   0000078E   8005               LSLS     R0,R0,#+22       ;; #+1065353216
   \   00000790   ........           BL       __aeabi_fadd
   \   00000794   0421               MOVS     R1,#+4
   \   00000796   6143               MULS     R1,R4,R1
   \   00000798   04AA               ADD      R2,SP,#+16
   \   0000079A   5050               STR      R0,[R2, R1]
   2527                   if (((__ValueRST/NastDiel)>5) && (str_tmp[ill_tmp]==57)) 
   \                     ??FloToStr_57:
   \   0000079C   3000               MOVS     R0,R6
   \   0000079E   3900               MOVS     R1,R7
   \   000007A0   02AA               ADD      R2,SP,#+8
   \   000007A2   0CCA               LDM      R2!,{R2,R3}
   \   000007A4   ........           BL       __aeabi_ldivmod
   \   000007A8   0029               CMP      R1,#+0
   \   000007AA   00DA               BGE      .+4
   \   000007AC   51E1               B        ??FloToStr_55
   \   000007AE   1CDC               BGT      ??FloToStr_59
   \   000007B0   18E0               B.N      ??FloToStr_60
   \   000007B2   C046               Nop      
   \                     ??FloToStr_33:
   \   000007B4   80969800           DC32     0x989680
   \   000007B8   40420F00           DC32     0xf4240
   \   000007BC   A0860100           DC32     0x186a0
   \   000007C0   8FC7CC3D           DC32     0x3dccc78f
   \   000007C4   00003842           DC32     0x42380000
   \   000007C8   10270000           DC32     0x2710
   \   000007CC   D9D2233C           DC32     0x3c23d2d9
   \   000007D0   140F833A           DC32     0x3a830f14
   \   000007D4   B9B1D138           DC32     0x38d1b1b9
   \   000007D8   61C12737           DC32     0x3727c161
   \   000007DC   4E348635           DC32     0x3586344e
   \   000007E0   00006442           DC32     0x42640000
   \                     ??FloToStr_60:
   \   000007E4   0628               CMP      R0,#+6
   \   000007E6   00D2               BCS      .+4
   \   000007E8   33E1               B        ??FloToStr_55
   \                     ??FloToStr_59:
   \   000007EA   0420               MOVS     R0,#+4
   \   000007EC   6043               MULS     R0,R4,R0
   \   000007EE   04A9               ADD      R1,SP,#+16
   \   000007F0   0858               LDR      R0,[R1, R0]
   \   000007F2   C849               LDR      R1,??FloToStr_61  ;; 0x42640000
   \   000007F4   ........           BL       __aeabi_cfcmpeq
   \   000007F8   00D0               BEQ      .+4
   \   000007FA   2AE1               B        ??FloToStr_55
   2528                      { 
   2529                        str_tmp[ill_tmp]=0;
   \   000007FC   0420               MOVS     R0,#+4
   \   000007FE   6043               MULS     R0,R4,R0
   \   00000800   04A9               ADD      R1,SP,#+16
   \   00000802   0022               MOVS     R2,#+0
   \   00000804   0A50               STR      R2,[R1, R0]
   2530                        ill_cor++;
   \   00000806   0098               LDR      R0,[SP, #+0]
   \   00000808   401C               ADDS     R0,R0,#+1
   \   0000080A   0090               STR      R0,[SP, #+0]
   2531                        if ((str_tmp[ill_tmp-1]>53) && (str_tmp[ill_tmp-1]<57) && ((ill_tmp-1)<1)  )
   \   0000080C   0420               MOVS     R0,#+4
   \   0000080E   6043               MULS     R0,R4,R0
   \   00000810   04A9               ADD      R1,SP,#+16
   \   00000812   0818               ADDS     R0,R1,R0
   \   00000814   001F               SUBS     R0,R0,#+4
   \   00000816   0068               LDR      R0,[R0, #+0]
   \   00000818   BF49               LDR      R1,??FloToStr_61+0x4  ;; 0x42540001
   \   0000081A   ........           BL       __aeabi_cfrcmple
   \   0000081E   1CD8               BHI      ??FloToStr_62
   \   00000820   0420               MOVS     R0,#+4
   \   00000822   6043               MULS     R0,R4,R0
   \   00000824   04A9               ADD      R1,SP,#+16
   \   00000826   0818               ADDS     R0,R1,R0
   \   00000828   001F               SUBS     R0,R0,#+4
   \   0000082A   0068               LDR      R0,[R0, #+0]
   \   0000082C   B949               LDR      R1,??FloToStr_61  ;; 0x42640000
   \   0000082E   ........           BL       __aeabi_cfcmple
   \   00000832   12D2               BCS      ??FloToStr_62
   \   00000834   601E               SUBS     R0,R4,#+1
   \   00000836   0128               CMP      R0,#+1
   \   00000838   0FDA               BGE      ??FloToStr_62
   2532                          { 
   2533                            str_tmp[ill_tmp-1]++; 
   \   0000083A   0420               MOVS     R0,#+4
   \   0000083C   6043               MULS     R0,R4,R0
   \   0000083E   04A9               ADD      R1,SP,#+16
   \   00000840   0818               ADDS     R0,R1,R0
   \   00000842   001F               SUBS     R0,R0,#+4
   \   00000844   0168               LDR      R1,[R0, #+0]
   \   00000846   FE20               MOVS     R0,#+254
   \   00000848   8005               LSLS     R0,R0,#+22       ;; #+1065353216
   \   0000084A   ........           BL       __aeabi_fadd
   \   0000084E   0421               MOVS     R1,#+4
   \   00000850   6143               MULS     R1,R4,R1
   \   00000852   04AA               ADD      R2,SP,#+16
   \   00000854   5118               ADDS     R1,R2,R1
   \   00000856   091F               SUBS     R1,R1,#+4
   \   00000858   0860               STR      R0,[R1, #+0]
   2534                          }
   2535                          if ((str_tmp[ill_tmp-1]==57) && ((ill_tmp-1)>0)  )
   \                     ??FloToStr_62:
   \   0000085A   0420               MOVS     R0,#+4
   \   0000085C   6043               MULS     R0,R4,R0
   \   0000085E   04A9               ADD      R1,SP,#+16
   \   00000860   0818               ADDS     R0,R1,R0
   \   00000862   001F               SUBS     R0,R0,#+4
   \   00000864   0068               LDR      R0,[R0, #+0]
   \   00000866   AB49               LDR      R1,??FloToStr_61  ;; 0x42640000
   \   00000868   ........           BL       __aeabi_cfcmpeq
   \   0000086C   00D0               BEQ      .+4
   \   0000086E   F0E0               B        ??FloToStr_55
   \   00000870   601E               SUBS     R0,R4,#+1
   \   00000872   0128               CMP      R0,#+1
   \   00000874   00DA               BGE      .+4
   \   00000876   ECE0               B        ??FloToStr_55
   2536                          {
   2537                            ill_cor++;
   \   00000878   0098               LDR      R0,[SP, #+0]
   \   0000087A   401C               ADDS     R0,R0,#+1
   \   0000087C   0090               STR      R0,[SP, #+0]
   2538                            str_tmp[ill_tmp-1]=0;
   \   0000087E   0420               MOVS     R0,#+4
   \   00000880   6043               MULS     R0,R4,R0
   \   00000882   04A9               ADD      R1,SP,#+16
   \   00000884   0818               ADDS     R0,R1,R0
   \   00000886   001F               SUBS     R0,R0,#+4
   \   00000888   0021               MOVS     R1,#+0
   \   0000088A   0160               STR      R1,[R0, #+0]
   2539                            
   2540                              if ((str_tmp[ill_tmp-2]>53) && (str_tmp[ill_tmp-2]<57) && ((ill_tmp-2)<1)  )
   \   0000088C   0420               MOVS     R0,#+4
   \   0000088E   6043               MULS     R0,R4,R0
   \   00000890   04A9               ADD      R1,SP,#+16
   \   00000892   0818               ADDS     R0,R1,R0
   \   00000894   0838               SUBS     R0,R0,#+8
   \   00000896   0068               LDR      R0,[R0, #+0]
   \   00000898   9F49               LDR      R1,??FloToStr_61+0x4  ;; 0x42540001
   \   0000089A   ........           BL       __aeabi_cfrcmple
   \   0000089E   1CD8               BHI      ??FloToStr_63
   \   000008A0   0420               MOVS     R0,#+4
   \   000008A2   6043               MULS     R0,R4,R0
   \   000008A4   04A9               ADD      R1,SP,#+16
   \   000008A6   0818               ADDS     R0,R1,R0
   \   000008A8   0838               SUBS     R0,R0,#+8
   \   000008AA   0068               LDR      R0,[R0, #+0]
   \   000008AC   9949               LDR      R1,??FloToStr_61  ;; 0x42640000
   \   000008AE   ........           BL       __aeabi_cfcmple
   \   000008B2   12D2               BCS      ??FloToStr_63
   \   000008B4   A01E               SUBS     R0,R4,#+2
   \   000008B6   0128               CMP      R0,#+1
   \   000008B8   0FDA               BGE      ??FloToStr_63
   2541                              { 
   2542                                str_tmp[ill_tmp-2]++; 
   \   000008BA   0420               MOVS     R0,#+4
   \   000008BC   6043               MULS     R0,R4,R0
   \   000008BE   04A9               ADD      R1,SP,#+16
   \   000008C0   0818               ADDS     R0,R1,R0
   \   000008C2   0838               SUBS     R0,R0,#+8
   \   000008C4   0168               LDR      R1,[R0, #+0]
   \   000008C6   FE20               MOVS     R0,#+254
   \   000008C8   8005               LSLS     R0,R0,#+22       ;; #+1065353216
   \   000008CA   ........           BL       __aeabi_fadd
   \   000008CE   0421               MOVS     R1,#+4
   \   000008D0   6143               MULS     R1,R4,R1
   \   000008D2   04AA               ADD      R2,SP,#+16
   \   000008D4   5118               ADDS     R1,R2,R1
   \   000008D6   0839               SUBS     R1,R1,#+8
   \   000008D8   0860               STR      R0,[R1, #+0]
   2543                              }
   2544                            
   2545                              if ((str_tmp[ill_tmp-2]==57) && ((ill_tmp-2)>0)  )
   \                     ??FloToStr_63:
   \   000008DA   0420               MOVS     R0,#+4
   \   000008DC   6043               MULS     R0,R4,R0
   \   000008DE   04A9               ADD      R1,SP,#+16
   \   000008E0   0818               ADDS     R0,R1,R0
   \   000008E2   0838               SUBS     R0,R0,#+8
   \   000008E4   0068               LDR      R0,[R0, #+0]
   \   000008E6   8B49               LDR      R1,??FloToStr_61  ;; 0x42640000
   \   000008E8   ........           BL       __aeabi_cfcmpeq
   \   000008EC   00D0               BEQ      .+4
   \   000008EE   B0E0               B        ??FloToStr_55
   \   000008F0   A01E               SUBS     R0,R4,#+2
   \   000008F2   0128               CMP      R0,#+1
   \   000008F4   00DA               BGE      .+4
   \   000008F6   ACE0               B        ??FloToStr_55
   2546                              {
   2547                                  str_tmp[ill_tmp-2]=0;
   \   000008F8   0420               MOVS     R0,#+4
   \   000008FA   6043               MULS     R0,R4,R0
   \   000008FC   04A9               ADD      R1,SP,#+16
   \   000008FE   0818               ADDS     R0,R1,R0
   \   00000900   0838               SUBS     R0,R0,#+8
   \   00000902   0021               MOVS     R1,#+0
   \   00000904   0160               STR      R1,[R0, #+0]
   2548                                  if ((str_tmp[ill_tmp-3]>53) && (str_tmp[ill_tmp-3]<57) && ((ill_tmp-3)<1)  )
   \   00000906   0420               MOVS     R0,#+4
   \   00000908   6043               MULS     R0,R4,R0
   \   0000090A   04A9               ADD      R1,SP,#+16
   \   0000090C   0818               ADDS     R0,R1,R0
   \   0000090E   0C38               SUBS     R0,R0,#+12
   \   00000910   0068               LDR      R0,[R0, #+0]
   \   00000912   8149               LDR      R1,??FloToStr_61+0x4  ;; 0x42540001
   \   00000914   ........           BL       __aeabi_cfrcmple
   \   00000918   1FD8               BHI      ??FloToStr_64
   \   0000091A   0420               MOVS     R0,#+4
   \   0000091C   6043               MULS     R0,R4,R0
   \   0000091E   04A9               ADD      R1,SP,#+16
   \   00000920   0818               ADDS     R0,R1,R0
   \   00000922   0C38               SUBS     R0,R0,#+12
   \   00000924   0068               LDR      R0,[R0, #+0]
   \   00000926   7B49               LDR      R1,??FloToStr_61  ;; 0x42640000
   \   00000928   ........           BL       __aeabi_cfcmple
   \   0000092C   15D2               BCS      ??FloToStr_64
   \   0000092E   E01E               SUBS     R0,R4,#+3
   \   00000930   0128               CMP      R0,#+1
   \   00000932   12DA               BGE      ??FloToStr_64
   2549                                  { 
   2550                                    ill_cor++;
   \   00000934   0098               LDR      R0,[SP, #+0]
   \   00000936   401C               ADDS     R0,R0,#+1
   \   00000938   0090               STR      R0,[SP, #+0]
   2551                                    str_tmp[ill_tmp-3]++; 
   \   0000093A   0420               MOVS     R0,#+4
   \   0000093C   6043               MULS     R0,R4,R0
   \   0000093E   04A9               ADD      R1,SP,#+16
   \   00000940   0818               ADDS     R0,R1,R0
   \   00000942   0C38               SUBS     R0,R0,#+12
   \   00000944   0168               LDR      R1,[R0, #+0]
   \   00000946   FE20               MOVS     R0,#+254
   \   00000948   8005               LSLS     R0,R0,#+22       ;; #+1065353216
   \   0000094A   ........           BL       __aeabi_fadd
   \   0000094E   0421               MOVS     R1,#+4
   \   00000950   6143               MULS     R1,R4,R1
   \   00000952   04AA               ADD      R2,SP,#+16
   \   00000954   5118               ADDS     R1,R2,R1
   \   00000956   0C39               SUBS     R1,R1,#+12
   \   00000958   0860               STR      R0,[R1, #+0]
   2552                                  }
   2553                                  if ((str_tmp[ill_tmp-3]==57) && ((ill_tmp-3)>0)  )
   \                     ??FloToStr_64:
   \   0000095A   0420               MOVS     R0,#+4
   \   0000095C   6043               MULS     R0,R4,R0
   \   0000095E   04A9               ADD      R1,SP,#+16
   \   00000960   0818               ADDS     R0,R1,R0
   \   00000962   0C38               SUBS     R0,R0,#+12
   \   00000964   0068               LDR      R0,[R0, #+0]
   \   00000966   6B49               LDR      R1,??FloToStr_61  ;; 0x42640000
   \   00000968   ........           BL       __aeabi_cfcmpeq
   \   0000096C   71D1               BNE      ??FloToStr_55
   \   0000096E   E01E               SUBS     R0,R4,#+3
   \   00000970   0128               CMP      R0,#+1
   \   00000972   6EDB               BLT      ??FloToStr_55
   2554                                  {
   2555                                      str_tmp[ill_tmp-3]=0;
   \   00000974   0420               MOVS     R0,#+4
   \   00000976   6043               MULS     R0,R4,R0
   \   00000978   04A9               ADD      R1,SP,#+16
   \   0000097A   0818               ADDS     R0,R1,R0
   \   0000097C   0C38               SUBS     R0,R0,#+12
   \   0000097E   0021               MOVS     R1,#+0
   \   00000980   0160               STR      R1,[R0, #+0]
   2556                                      if ((str_tmp[ill_tmp-4]>53) && (str_tmp[ill_tmp-4]<57) && ((ill_tmp-4)<1)  )
   \   00000982   0420               MOVS     R0,#+4
   \   00000984   6043               MULS     R0,R4,R0
   \   00000986   04A9               ADD      R1,SP,#+16
   \   00000988   0818               ADDS     R0,R1,R0
   \   0000098A   1038               SUBS     R0,R0,#+16
   \   0000098C   0068               LDR      R0,[R0, #+0]
   \   0000098E   6249               LDR      R1,??FloToStr_61+0x4  ;; 0x42540001
   \   00000990   ........           BL       __aeabi_cfrcmple
   \   00000994   1FD8               BHI      ??FloToStr_65
   \   00000996   0420               MOVS     R0,#+4
   \   00000998   6043               MULS     R0,R4,R0
   \   0000099A   04A9               ADD      R1,SP,#+16
   \   0000099C   0818               ADDS     R0,R1,R0
   \   0000099E   1038               SUBS     R0,R0,#+16
   \   000009A0   0068               LDR      R0,[R0, #+0]
   \   000009A2   5C49               LDR      R1,??FloToStr_61  ;; 0x42640000
   \   000009A4   ........           BL       __aeabi_cfcmple
   \   000009A8   15D2               BCS      ??FloToStr_65
   \   000009AA   201F               SUBS     R0,R4,#+4
   \   000009AC   0128               CMP      R0,#+1
   \   000009AE   12DA               BGE      ??FloToStr_65
   2557                                      { 
   2558                                        ill_cor++;
   \   000009B0   0098               LDR      R0,[SP, #+0]
   \   000009B2   401C               ADDS     R0,R0,#+1
   \   000009B4   0090               STR      R0,[SP, #+0]
   2559                            
   2560                                        str_tmp[ill_tmp-4]++; 
   \   000009B6   0420               MOVS     R0,#+4
   \   000009B8   6043               MULS     R0,R4,R0
   \   000009BA   04A9               ADD      R1,SP,#+16
   \   000009BC   0818               ADDS     R0,R1,R0
   \   000009BE   1038               SUBS     R0,R0,#+16
   \   000009C0   0168               LDR      R1,[R0, #+0]
   \   000009C2   FE20               MOVS     R0,#+254
   \   000009C4   8005               LSLS     R0,R0,#+22       ;; #+1065353216
   \   000009C6   ........           BL       __aeabi_fadd
   \   000009CA   0421               MOVS     R1,#+4
   \   000009CC   6143               MULS     R1,R4,R1
   \   000009CE   04AA               ADD      R2,SP,#+16
   \   000009D0   5118               ADDS     R1,R2,R1
   \   000009D2   1039               SUBS     R1,R1,#+16
   \   000009D4   0860               STR      R0,[R1, #+0]
   2561                                      }
   2562                                      if ((str_tmp[ill_tmp-4]==57) && ((ill_tmp-4)>0)  )
   \                     ??FloToStr_65:
   \   000009D6   0420               MOVS     R0,#+4
   \   000009D8   6043               MULS     R0,R4,R0
   \   000009DA   04A9               ADD      R1,SP,#+16
   \   000009DC   0818               ADDS     R0,R1,R0
   \   000009DE   1038               SUBS     R0,R0,#+16
   \   000009E0   0068               LDR      R0,[R0, #+0]
   \   000009E2   4C49               LDR      R1,??FloToStr_61  ;; 0x42640000
   \   000009E4   ........           BL       __aeabi_cfcmpeq
   \   000009E8   33D1               BNE      ??FloToStr_55
   \   000009EA   201F               SUBS     R0,R4,#+4
   \   000009EC   0128               CMP      R0,#+1
   \   000009EE   30DB               BLT      ??FloToStr_55
   2563                                      {
   2564                                
   2565                                        if ((str_tmp[ill_tmp-5]>53) && (str_tmp[ill_tmp-5]<57) && ((ill_tmp-5)<1)  )
   \   000009F0   0420               MOVS     R0,#+4
   \   000009F2   6043               MULS     R0,R4,R0
   \   000009F4   04A9               ADD      R1,SP,#+16
   \   000009F6   0818               ADDS     R0,R1,R0
   \   000009F8   1438               SUBS     R0,R0,#+20
   \   000009FA   0068               LDR      R0,[R0, #+0]
   \   000009FC   4649               LDR      R1,??FloToStr_61+0x4  ;; 0x42540001
   \   000009FE   ........           BL       __aeabi_cfrcmple
   \   00000A02   26D8               BHI      ??FloToStr_55
   \   00000A04   0420               MOVS     R0,#+4
   \   00000A06   6043               MULS     R0,R4,R0
   \   00000A08   04A9               ADD      R1,SP,#+16
   \   00000A0A   0818               ADDS     R0,R1,R0
   \   00000A0C   1438               SUBS     R0,R0,#+20
   \   00000A0E   0068               LDR      R0,[R0, #+0]
   \   00000A10   4049               LDR      R1,??FloToStr_61  ;; 0x42640000
   \   00000A12   ........           BL       __aeabi_cfcmple
   \   00000A16   1CD2               BCS      ??FloToStr_55
   \   00000A18   601F               SUBS     R0,R4,#+5
   \   00000A1A   0128               CMP      R0,#+1
   \   00000A1C   19DA               BGE      ??FloToStr_55
   2566                                        { 
   2567                                          ill_cor++;
   \   00000A1E   0098               LDR      R0,[SP, #+0]
   \   00000A20   401C               ADDS     R0,R0,#+1
   \   00000A22   0090               STR      R0,[SP, #+0]
   2568                                          str_tmp[ill_tmp-4]=0;
   \   00000A24   0420               MOVS     R0,#+4
   \   00000A26   6043               MULS     R0,R4,R0
   \   00000A28   04A9               ADD      R1,SP,#+16
   \   00000A2A   0818               ADDS     R0,R1,R0
   \   00000A2C   1038               SUBS     R0,R0,#+16
   \   00000A2E   0021               MOVS     R1,#+0
   \   00000A30   0160               STR      R1,[R0, #+0]
   2569                                          str_tmp[ill_tmp-5]++; 
   \   00000A32   0420               MOVS     R0,#+4
   \   00000A34   6043               MULS     R0,R4,R0
   \   00000A36   04A9               ADD      R1,SP,#+16
   \   00000A38   0818               ADDS     R0,R1,R0
   \   00000A3A   1438               SUBS     R0,R0,#+20
   \   00000A3C   0168               LDR      R1,[R0, #+0]
   \   00000A3E   FE20               MOVS     R0,#+254
   \   00000A40   8005               LSLS     R0,R0,#+22       ;; #+1065353216
   \   00000A42   ........           BL       __aeabi_fadd
   \   00000A46   0421               MOVS     R1,#+4
   \   00000A48   6143               MULS     R1,R4,R1
   \   00000A4A   04AA               ADD      R2,SP,#+16
   \   00000A4C   5118               ADDS     R1,R2,R1
   \   00000A4E   1439               SUBS     R1,R1,#+20
   \   00000A50   0860               STR      R0,[R1, #+0]
   2570                                        }
   2571                      
   2572                                      }
   2573                                  }
   2574                                     
   2575                              }
   2576                            
   2577                            
   2578                          }
   2579                      }
   2580                 }
   2581                 
   2582          
   2583                
   2584                if (ill_tmp-ill_cor) {ill_tmp-=ill_cor;} else {ill_tmp=0;}
   \                     ??FloToStr_55:
   \   00000A52   0098               LDR      R0,[SP, #+0]
   \   00000A54   201A               SUBS     R0,R4,R0
   \   00000A56   0028               CMP      R0,#+0
   \   00000A58   02D0               BEQ      ??FloToStr_66
   \   00000A5A   0098               LDR      R0,[SP, #+0]
   \   00000A5C   241A               SUBS     R4,R4,R0
   \   00000A5E   00E0               B        ??FloToStr_67
   \                     ??FloToStr_66:
   \   00000A60   0024               MOVS     R4,#+0
   2585          
   2586                
   2587                if (E_tmp<100) 
   \                     ??FloToStr_67:
   \   00000A62   642D               CMP      R5,#+100
   \   00000A64   12DA               BGE      ??FloToStr_68
   2588                {
   2589                  for (int i=0; i<=ill-1; i++) Vstring[min+i]=str_tmp[i+1];  
   \   00000A66   0026               MOVS     R6,#+0
   \   00000A68   0BE0               B        ??FloToStr_69
   \                     ??FloToStr_70:
   \   00000A6A   0420               MOVS     R0,#+4
   \   00000A6C   7043               MULS     R0,R6,R0
   \   00000A6E   04A9               ADD      R1,SP,#+16
   \   00000A70   0818               ADDS     R0,R1,R0
   \   00000A72   4068               LDR      R0,[R0, #+4]
   \   00000A74   ........           BL       __aeabi_f2iz
   \   00000A78   0199               LDR      R1,[SP, #+4]
   \   00000A7A   8919               ADDS     R1,R1,R6
   \   00000A7C   179A               LDR      R2,[SP, #+92]
   \   00000A7E   5054               STRB     R0,[R2, R1]
   \   00000A80   761C               ADDS     R6,R6,#+1
   \                     ??FloToStr_69:
   \   00000A82   18A8               ADD      R0,SP,#+96
   \   00000A84   0078               LDRB     R0,[R0, #+0]
   \   00000A86   401E               SUBS     R0,R0,#+1
   \   00000A88   B042               CMP      R0,R6
   \   00000A8A   EEDA               BGE      ??FloToStr_70
   2590                }
   2591          
   2592                if ( E_tmp == 100 )
   \                     ??FloToStr_68:
   \   00000A8C   642D               CMP      R5,#+100
   \   00000A8E   26D1               BNE      ??FloToStr_71
   2593                  {
   2594                    Vstring[min+0]=48;
   \   00000A90   0198               LDR      R0,[SP, #+4]
   \   00000A92   1799               LDR      R1,[SP, #+92]
   \   00000A94   3022               MOVS     R2,#+48
   \   00000A96   0A54               STRB     R2,[R1, R0]
   2595                    for (int i=1; i<=(E_tmp-100); i++) Vstring[min+i]=48; 
   \   00000A98   0120               MOVS     R0,#+1
   \   00000A9A   05E0               B        ??FloToStr_72
   \                     ??FloToStr_73:
   \   00000A9C   0199               LDR      R1,[SP, #+4]
   \   00000A9E   0918               ADDS     R1,R1,R0
   \   00000AA0   179A               LDR      R2,[SP, #+92]
   \   00000AA2   3023               MOVS     R3,#+48
   \   00000AA4   5354               STRB     R3,[R2, R1]
   \   00000AA6   401C               ADDS     R0,R0,#+1
   \                     ??FloToStr_72:
   \   00000AA8   2900               MOVS     R1,R5
   \   00000AAA   6439               SUBS     R1,R1,#+100
   \   00000AAC   8142               CMP      R1,R0
   \   00000AAE   F5DA               BGE      ??FloToStr_73
   2596                    for (int i=1+(E_tmp-100); i<=ill-1; i++) Vstring[min+i]=str_tmp[1+i-(1+(E_tmp-100))];  
   \   00000AB0   2E00               MOVS     R6,R5
   \   00000AB2   633E               SUBS     R6,R6,#+99
   \   00000AB4   0EE0               B        ??FloToStr_74
   \                     ??FloToStr_75:
   \   00000AB6   3000               MOVS     R0,R6
   \   00000AB8   401C               ADDS     R0,R0,#+1
   \   00000ABA   401B               SUBS     R0,R0,R5
   \   00000ABC   6330               ADDS     R0,R0,#+99
   \   00000ABE   0421               MOVS     R1,#+4
   \   00000AC0   4843               MULS     R0,R1,R0
   \   00000AC2   04A9               ADD      R1,SP,#+16
   \   00000AC4   0858               LDR      R0,[R1, R0]
   \   00000AC6   ........           BL       __aeabi_f2iz
   \   00000ACA   0199               LDR      R1,[SP, #+4]
   \   00000ACC   8919               ADDS     R1,R1,R6
   \   00000ACE   179A               LDR      R2,[SP, #+92]
   \   00000AD0   5054               STRB     R0,[R2, R1]
   \   00000AD2   761C               ADDS     R6,R6,#+1
   \                     ??FloToStr_74:
   \   00000AD4   18A8               ADD      R0,SP,#+96
   \   00000AD6   0078               LDRB     R0,[R0, #+0]
   \   00000AD8   401E               SUBS     R0,R0,#+1
   \   00000ADA   B042               CMP      R0,R6
   \   00000ADC   EBDA               BGE      ??FloToStr_75
   2597                  }
   2598                if ( E_tmp > 100 )
   \                     ??FloToStr_71:
   \   00000ADE   652D               CMP      R5,#+101
   \   00000AE0   30DB               BLT      ??FloToStr_76
   2599                  {
   2600                    Vstring[min+0]=48;
   \   00000AE2   0198               LDR      R0,[SP, #+4]
   \   00000AE4   1799               LDR      R1,[SP, #+92]
   \   00000AE6   3022               MOVS     R2,#+48
   \   00000AE8   0A54               STRB     R2,[R1, R0]
   2601                    Vstring[min+1]=46;
   \   00000AEA   0198               LDR      R0,[SP, #+4]
   \   00000AEC   1799               LDR      R1,[SP, #+92]
   \   00000AEE   0818               ADDS     R0,R1,R0
   \   00000AF0   2E21               MOVS     R1,#+46
   \   00000AF2   4170               STRB     R1,[R0, #+1]
   2602                    for (int i=2; i<=(1+E_tmp-100); i++) Vstring[min+i]=48; 
   \   00000AF4   0220               MOVS     R0,#+2
   \   00000AF6   05E0               B        ??FloToStr_77
   \                     ??FloToStr_78:
   \   00000AF8   0199               LDR      R1,[SP, #+4]
   \   00000AFA   0918               ADDS     R1,R1,R0
   \   00000AFC   179A               LDR      R2,[SP, #+92]
   \   00000AFE   3023               MOVS     R3,#+48
   \   00000B00   5354               STRB     R3,[R2, R1]
   \   00000B02   401C               ADDS     R0,R0,#+1
   \                     ??FloToStr_77:
   \   00000B04   2900               MOVS     R1,R5
   \   00000B06   6339               SUBS     R1,R1,#+99
   \   00000B08   8142               CMP      R1,R0
   \   00000B0A   F5DA               BGE      ??FloToStr_78
   2603                    for (int i=2+(E_tmp-100); i<=ill-1; i++) {Vstring[min+i]=str_tmp[1+i-(2+(E_tmp-100))];  }
   \   00000B0C   2E00               MOVS     R6,R5
   \   00000B0E   623E               SUBS     R6,R6,#+98
   \   00000B10   13E0               B        ??FloToStr_79
   \   00000B12   C046               Nop      
   \                     ??FloToStr_61:
   \   00000B14   00006442           DC32     0x42640000
   \   00000B18   01005442           DC32     0x42540001
   \                     ??FloToStr_80:
   \   00000B1C   3000               MOVS     R0,R6
   \   00000B1E   401C               ADDS     R0,R0,#+1
   \   00000B20   401B               SUBS     R0,R0,R5
   \   00000B22   6230               ADDS     R0,R0,#+98
   \   00000B24   0421               MOVS     R1,#+4
   \   00000B26   4843               MULS     R0,R1,R0
   \   00000B28   04A9               ADD      R1,SP,#+16
   \   00000B2A   0858               LDR      R0,[R1, R0]
   \   00000B2C   ........           BL       __aeabi_f2iz
   \   00000B30   0199               LDR      R1,[SP, #+4]
   \   00000B32   8919               ADDS     R1,R1,R6
   \   00000B34   179A               LDR      R2,[SP, #+92]
   \   00000B36   5054               STRB     R0,[R2, R1]
   \   00000B38   761C               ADDS     R6,R6,#+1
   \                     ??FloToStr_79:
   \   00000B3A   18A8               ADD      R0,SP,#+96
   \   00000B3C   0078               LDRB     R0,[R0, #+0]
   \   00000B3E   401E               SUBS     R0,R0,#+1
   \   00000B40   B042               CMP      R0,R6
   \   00000B42   EBDA               BGE      ??FloToStr_80
   2604          
   2605                  }  
   2606           
   2607              
   2608            
   2609                if (NastDiel<=10000)
   \                     ??FloToStr_76:
   \   00000B44   02A8               ADD      R0,SP,#+8
   \   00000B46   03C8               LDM      R0!,{R0,R1}
   \   00000B48   954A               LDR      R2,??FloToStr_81  ;; 0x2711
   \   00000B4A   0023               MOVS     R3,#+0
   \   00000B4C   9942               CMP      R1,R3
   \   00000B4E   00DD               BLE      .+4
   \   00000B50   D9E0               B        ??FloToStr_82
   \   00000B52   02DB               BLT      ??FloToStr_83
   \   00000B54   9042               CMP      R0,R2
   \   00000B56   00D3               BCC      .+4
   \   00000B58   D5E0               B        ??FloToStr_82
   2610                {
   2611                  if ((Vstring[ill-1]==46)) 
   \                     ??FloToStr_83:
   \   00000B5A   18A8               ADD      R0,SP,#+96
   \   00000B5C   0078               LDRB     R0,[R0, #+0]
   \   00000B5E   1799               LDR      R1,[SP, #+92]
   \   00000B60   0818               ADDS     R0,R1,R0
   \   00000B62   401E               SUBS     R0,R0,#+1
   \   00000B64   0078               LDRB     R0,[R0, #+0]
   \   00000B66   2E28               CMP      R0,#+46
   \   00000B68   06D1               BNE      ??FloToStr_84
   2612                    {
   2613                      Vstring[ill-1]=0;
   \   00000B6A   18A8               ADD      R0,SP,#+96
   \   00000B6C   0078               LDRB     R0,[R0, #+0]
   \   00000B6E   1799               LDR      R1,[SP, #+92]
   \   00000B70   0818               ADDS     R0,R1,R0
   \   00000B72   401E               SUBS     R0,R0,#+1
   \   00000B74   0021               MOVS     R1,#+0
   \   00000B76   0170               STRB     R1,[R0, #+0]
   2614                    }
   2615                  if ((Vstring[ill-1]==48)) 
   \                     ??FloToStr_84:
   \   00000B78   18A8               ADD      R0,SP,#+96
   \   00000B7A   0078               LDRB     R0,[R0, #+0]
   \   00000B7C   1799               LDR      R1,[SP, #+92]
   \   00000B7E   0818               ADDS     R0,R1,R0
   \   00000B80   401E               SUBS     R0,R0,#+1
   \   00000B82   0078               LDRB     R0,[R0, #+0]
   \   00000B84   3028               CMP      R0,#+48
   \   00000B86   00D0               BEQ      .+4
   \   00000B88   BDE0               B        ??FloToStr_82
   2616                    {
   2617                      Vstring[ill-1]=0;
   \   00000B8A   18A8               ADD      R0,SP,#+96
   \   00000B8C   0078               LDRB     R0,[R0, #+0]
   \   00000B8E   1799               LDR      R1,[SP, #+92]
   \   00000B90   0818               ADDS     R0,R1,R0
   \   00000B92   401E               SUBS     R0,R0,#+1
   \   00000B94   0021               MOVS     R1,#+0
   \   00000B96   0170               STRB     R1,[R0, #+0]
   2618                      ill_tmp--;
   \   00000B98   641E               SUBS     R4,R4,#+1
   2619                      if (Vstring[ill-2]==46)
   \   00000B9A   18A8               ADD      R0,SP,#+96
   \   00000B9C   0078               LDRB     R0,[R0, #+0]
   \   00000B9E   1799               LDR      R1,[SP, #+92]
   \   00000BA0   0818               ADDS     R0,R1,R0
   \   00000BA2   801E               SUBS     R0,R0,#+2
   \   00000BA4   0078               LDRB     R0,[R0, #+0]
   \   00000BA6   2E28               CMP      R0,#+46
   \   00000BA8   08D1               BNE      ??FloToStr_85
   2620                      {
   2621                         Vstring[ill-2]=0;
   \   00000BAA   18A8               ADD      R0,SP,#+96
   \   00000BAC   0078               LDRB     R0,[R0, #+0]
   \   00000BAE   1799               LDR      R1,[SP, #+92]
   \   00000BB0   0818               ADDS     R0,R1,R0
   \   00000BB2   801E               SUBS     R0,R0,#+2
   \   00000BB4   0021               MOVS     R1,#+0
   \   00000BB6   0170               STRB     R1,[R0, #+0]
   2622                         ill_tmp--; 
   \   00000BB8   641E               SUBS     R4,R4,#+1
   \   00000BBA   A4E0               B        ??FloToStr_82
   2623                      }
   2624                      else
   2625                      {
   2626                           if ((Vstring[ill-2]==48)) 
   \                     ??FloToStr_85:
   \   00000BBC   18A8               ADD      R0,SP,#+96
   \   00000BBE   0078               LDRB     R0,[R0, #+0]
   \   00000BC0   1799               LDR      R1,[SP, #+92]
   \   00000BC2   0818               ADDS     R0,R1,R0
   \   00000BC4   801E               SUBS     R0,R0,#+2
   \   00000BC6   0078               LDRB     R0,[R0, #+0]
   \   00000BC8   3028               CMP      R0,#+48
   \   00000BCA   00D0               BEQ      .+4
   \   00000BCC   9BE0               B        ??FloToStr_82
   2627                           {
   2628                              Vstring[ill-2]=0;
   \   00000BCE   18A8               ADD      R0,SP,#+96
   \   00000BD0   0078               LDRB     R0,[R0, #+0]
   \   00000BD2   1799               LDR      R1,[SP, #+92]
   \   00000BD4   0818               ADDS     R0,R1,R0
   \   00000BD6   801E               SUBS     R0,R0,#+2
   \   00000BD8   0021               MOVS     R1,#+0
   \   00000BDA   0170               STRB     R1,[R0, #+0]
   2629                              ill_tmp--;
   \   00000BDC   641E               SUBS     R4,R4,#+1
   2630                              if (Vstring[ill-3]==46)
   \   00000BDE   18A8               ADD      R0,SP,#+96
   \   00000BE0   0078               LDRB     R0,[R0, #+0]
   \   00000BE2   1799               LDR      R1,[SP, #+92]
   \   00000BE4   0818               ADDS     R0,R1,R0
   \   00000BE6   C01E               SUBS     R0,R0,#+3
   \   00000BE8   0078               LDRB     R0,[R0, #+0]
   \   00000BEA   2E28               CMP      R0,#+46
   \   00000BEC   08D1               BNE      ??FloToStr_86
   2631                              {
   2632                                Vstring[ill-3]=0;
   \   00000BEE   18A8               ADD      R0,SP,#+96
   \   00000BF0   0078               LDRB     R0,[R0, #+0]
   \   00000BF2   1799               LDR      R1,[SP, #+92]
   \   00000BF4   0818               ADDS     R0,R1,R0
   \   00000BF6   C01E               SUBS     R0,R0,#+3
   \   00000BF8   0021               MOVS     R1,#+0
   \   00000BFA   0170               STRB     R1,[R0, #+0]
   2633                                ill_tmp--; 
   \   00000BFC   641E               SUBS     R4,R4,#+1
   \   00000BFE   82E0               B        ??FloToStr_82
   2634                              }
   2635                              else
   2636                              {
   2637                                    if ((Vstring[ill-3]==48)) 
   \                     ??FloToStr_86:
   \   00000C00   18A8               ADD      R0,SP,#+96
   \   00000C02   0078               LDRB     R0,[R0, #+0]
   \   00000C04   1799               LDR      R1,[SP, #+92]
   \   00000C06   0818               ADDS     R0,R1,R0
   \   00000C08   C01E               SUBS     R0,R0,#+3
   \   00000C0A   0078               LDRB     R0,[R0, #+0]
   \   00000C0C   3028               CMP      R0,#+48
   \   00000C0E   7AD1               BNE      ??FloToStr_82
   2638                                    {
   2639                                      Vstring[ill-3]=0;
   \   00000C10   18A8               ADD      R0,SP,#+96
   \   00000C12   0078               LDRB     R0,[R0, #+0]
   \   00000C14   1799               LDR      R1,[SP, #+92]
   \   00000C16   0818               ADDS     R0,R1,R0
   \   00000C18   C01E               SUBS     R0,R0,#+3
   \   00000C1A   0021               MOVS     R1,#+0
   \   00000C1C   0170               STRB     R1,[R0, #+0]
   2640                                      ill_tmp--;
   \   00000C1E   641E               SUBS     R4,R4,#+1
   2641                                      if (Vstring[ill-4]==46)
   \   00000C20   18A8               ADD      R0,SP,#+96
   \   00000C22   0078               LDRB     R0,[R0, #+0]
   \   00000C24   1799               LDR      R1,[SP, #+92]
   \   00000C26   0818               ADDS     R0,R1,R0
   \   00000C28   001F               SUBS     R0,R0,#+4
   \   00000C2A   0078               LDRB     R0,[R0, #+0]
   \   00000C2C   2E28               CMP      R0,#+46
   \   00000C2E   08D1               BNE      ??FloToStr_87
   2642                                      {
   2643                                        Vstring[ill-4]=0;
   \   00000C30   18A8               ADD      R0,SP,#+96
   \   00000C32   0078               LDRB     R0,[R0, #+0]
   \   00000C34   1799               LDR      R1,[SP, #+92]
   \   00000C36   0818               ADDS     R0,R1,R0
   \   00000C38   001F               SUBS     R0,R0,#+4
   \   00000C3A   0021               MOVS     R1,#+0
   \   00000C3C   0170               STRB     R1,[R0, #+0]
   2644                                        ill_tmp--; 
   \   00000C3E   641E               SUBS     R4,R4,#+1
   \   00000C40   61E0               B        ??FloToStr_82
   2645                                      }
   2646                                      else
   2647                                      {
   2648                                          if ((Vstring[ill-4]==48)) 
   \                     ??FloToStr_87:
   \   00000C42   18A8               ADD      R0,SP,#+96
   \   00000C44   0078               LDRB     R0,[R0, #+0]
   \   00000C46   1799               LDR      R1,[SP, #+92]
   \   00000C48   0818               ADDS     R0,R1,R0
   \   00000C4A   001F               SUBS     R0,R0,#+4
   \   00000C4C   0078               LDRB     R0,[R0, #+0]
   \   00000C4E   3028               CMP      R0,#+48
   \   00000C50   59D1               BNE      ??FloToStr_82
   2649                                          {
   2650                                            Vstring[ill-4]=0;
   \   00000C52   18A8               ADD      R0,SP,#+96
   \   00000C54   0078               LDRB     R0,[R0, #+0]
   \   00000C56   1799               LDR      R1,[SP, #+92]
   \   00000C58   0818               ADDS     R0,R1,R0
   \   00000C5A   001F               SUBS     R0,R0,#+4
   \   00000C5C   0021               MOVS     R1,#+0
   \   00000C5E   0170               STRB     R1,[R0, #+0]
   2651                                            ill_tmp--;
   \   00000C60   641E               SUBS     R4,R4,#+1
   2652                                            if (Vstring[ill-5]==46)
   \   00000C62   18A8               ADD      R0,SP,#+96
   \   00000C64   0078               LDRB     R0,[R0, #+0]
   \   00000C66   1799               LDR      R1,[SP, #+92]
   \   00000C68   0818               ADDS     R0,R1,R0
   \   00000C6A   401F               SUBS     R0,R0,#+5
   \   00000C6C   0078               LDRB     R0,[R0, #+0]
   \   00000C6E   2E28               CMP      R0,#+46
   \   00000C70   08D1               BNE      ??FloToStr_88
   2653                                            {
   2654                                              Vstring[ill-5]=0;
   \   00000C72   18A8               ADD      R0,SP,#+96
   \   00000C74   0078               LDRB     R0,[R0, #+0]
   \   00000C76   1799               LDR      R1,[SP, #+92]
   \   00000C78   0818               ADDS     R0,R1,R0
   \   00000C7A   401F               SUBS     R0,R0,#+5
   \   00000C7C   0021               MOVS     R1,#+0
   \   00000C7E   0170               STRB     R1,[R0, #+0]
   2655                                              ill_tmp--; 
   \   00000C80   641E               SUBS     R4,R4,#+1
   \   00000C82   40E0               B        ??FloToStr_82
   2656                                            }
   2657                                            else
   2658                                            {
   2659                                                if ((Vstring[ill-5]==48)) 
   \                     ??FloToStr_88:
   \   00000C84   18A8               ADD      R0,SP,#+96
   \   00000C86   0078               LDRB     R0,[R0, #+0]
   \   00000C88   1799               LDR      R1,[SP, #+92]
   \   00000C8A   0818               ADDS     R0,R1,R0
   \   00000C8C   401F               SUBS     R0,R0,#+5
   \   00000C8E   0078               LDRB     R0,[R0, #+0]
   \   00000C90   3028               CMP      R0,#+48
   \   00000C92   38D1               BNE      ??FloToStr_82
   2660                                                {
   2661                                                  Vstring[ill-5]=0;
   \   00000C94   18A8               ADD      R0,SP,#+96
   \   00000C96   0078               LDRB     R0,[R0, #+0]
   \   00000C98   1799               LDR      R1,[SP, #+92]
   \   00000C9A   0818               ADDS     R0,R1,R0
   \   00000C9C   401F               SUBS     R0,R0,#+5
   \   00000C9E   0021               MOVS     R1,#+0
   \   00000CA0   0170               STRB     R1,[R0, #+0]
   2662                                                  ill_tmp--;
   \   00000CA2   641E               SUBS     R4,R4,#+1
   2663                                                  if (Vstring[ill-6]==46)
   \   00000CA4   18A8               ADD      R0,SP,#+96
   \   00000CA6   0078               LDRB     R0,[R0, #+0]
   \   00000CA8   1799               LDR      R1,[SP, #+92]
   \   00000CAA   0818               ADDS     R0,R1,R0
   \   00000CAC   801F               SUBS     R0,R0,#+6
   \   00000CAE   0078               LDRB     R0,[R0, #+0]
   \   00000CB0   2E28               CMP      R0,#+46
   \   00000CB2   08D1               BNE      ??FloToStr_89
   2664                                                  {
   2665                                                    Vstring[ill-6]=0;
   \   00000CB4   18A8               ADD      R0,SP,#+96
   \   00000CB6   0078               LDRB     R0,[R0, #+0]
   \   00000CB8   1799               LDR      R1,[SP, #+92]
   \   00000CBA   0818               ADDS     R0,R1,R0
   \   00000CBC   801F               SUBS     R0,R0,#+6
   \   00000CBE   0021               MOVS     R1,#+0
   \   00000CC0   0170               STRB     R1,[R0, #+0]
   2666                                                    ill_tmp--; 
   \   00000CC2   641E               SUBS     R4,R4,#+1
   \   00000CC4   1FE0               B        ??FloToStr_82
   2667                                                  }
   2668                                                  else
   2669                                                  {  
   2670                                                    if ((Vstring[ill-6]==48)) 
   \                     ??FloToStr_89:
   \   00000CC6   18A8               ADD      R0,SP,#+96
   \   00000CC8   0078               LDRB     R0,[R0, #+0]
   \   00000CCA   1799               LDR      R1,[SP, #+92]
   \   00000CCC   0818               ADDS     R0,R1,R0
   \   00000CCE   801F               SUBS     R0,R0,#+6
   \   00000CD0   0078               LDRB     R0,[R0, #+0]
   \   00000CD2   3028               CMP      R0,#+48
   \   00000CD4   17D1               BNE      ??FloToStr_82
   2671                                                    {
   2672                                                      Vstring[ill-6]=0;
   \   00000CD6   18A8               ADD      R0,SP,#+96
   \   00000CD8   0078               LDRB     R0,[R0, #+0]
   \   00000CDA   1799               LDR      R1,[SP, #+92]
   \   00000CDC   0818               ADDS     R0,R1,R0
   \   00000CDE   801F               SUBS     R0,R0,#+6
   \   00000CE0   0021               MOVS     R1,#+0
   \   00000CE2   0170               STRB     R1,[R0, #+0]
   2673                                                      ill_tmp--;
   \   00000CE4   641E               SUBS     R4,R4,#+1
   2674                                                      if (Vstring[ill-7]==46)
   \   00000CE6   18A8               ADD      R0,SP,#+96
   \   00000CE8   0078               LDRB     R0,[R0, #+0]
   \   00000CEA   1799               LDR      R1,[SP, #+92]
   \   00000CEC   0818               ADDS     R0,R1,R0
   \   00000CEE   C01F               SUBS     R0,R0,#+7
   \   00000CF0   0078               LDRB     R0,[R0, #+0]
   \   00000CF2   2E28               CMP      R0,#+46
   \   00000CF4   07D1               BNE      ??FloToStr_82
   2675                                                      {
   2676                                                        Vstring[ill-7]=0;
   \   00000CF6   18A8               ADD      R0,SP,#+96
   \   00000CF8   0078               LDRB     R0,[R0, #+0]
   \   00000CFA   1799               LDR      R1,[SP, #+92]
   \   00000CFC   0818               ADDS     R0,R1,R0
   \   00000CFE   C01F               SUBS     R0,R0,#+7
   \   00000D00   0021               MOVS     R1,#+0
   \   00000D02   0170               STRB     R1,[R0, #+0]
   2677                                                        ill_tmp--; 
   \   00000D04   641E               SUBS     R4,R4,#+1
   2678                                                      }
   2679          
   2680                                                    }
   2681                                                  }
   2682                                                 }
   2683                                          
   2684                                          
   2685                         
   2686                                            }
   2687                                          }
   2688                                    
   2689                         
   2690                                      }
   2691                                    }  
   2692                         
   2693                              }
   2694                           }  
   2695                        
   2696                         
   2697                      }
   2698                  
   2699                    }
   2700                  
   2701                }
   2702                
   2703              
   2704                if ((E_tmp>ill) && (E_tmp<100))
   \                     ??FloToStr_82:
   \   00000D06   18A8               ADD      R0,SP,#+96
   \   00000D08   0078               LDRB     R0,[R0, #+0]
   \   00000D0A   A842               CMP      R0,R5
   \   00000D0C   30DA               BGE      ??FloToStr_90
   \   00000D0E   642D               CMP      R5,#+100
   \   00000D10   2EDA               BGE      ??FloToStr_90
   2705                {
   2706                  if ((Vstring[ill-2]>53)&&(Vstring[ill-3]<57)) Vstring[ill-3]++;
   \   00000D12   18A8               ADD      R0,SP,#+96
   \   00000D14   0078               LDRB     R0,[R0, #+0]
   \   00000D16   1799               LDR      R1,[SP, #+92]
   \   00000D18   0818               ADDS     R0,R1,R0
   \   00000D1A   801E               SUBS     R0,R0,#+2
   \   00000D1C   0078               LDRB     R0,[R0, #+0]
   \   00000D1E   3628               CMP      R0,#+54
   \   00000D20   14D3               BCC      ??FloToStr_91
   \   00000D22   18A8               ADD      R0,SP,#+96
   \   00000D24   0078               LDRB     R0,[R0, #+0]
   \   00000D26   1799               LDR      R1,[SP, #+92]
   \   00000D28   0818               ADDS     R0,R1,R0
   \   00000D2A   C01E               SUBS     R0,R0,#+3
   \   00000D2C   0078               LDRB     R0,[R0, #+0]
   \   00000D2E   3928               CMP      R0,#+57
   \   00000D30   0CD2               BCS      ??FloToStr_91
   \   00000D32   18A8               ADD      R0,SP,#+96
   \   00000D34   0078               LDRB     R0,[R0, #+0]
   \   00000D36   1799               LDR      R1,[SP, #+92]
   \   00000D38   0818               ADDS     R0,R1,R0
   \   00000D3A   C01E               SUBS     R0,R0,#+3
   \   00000D3C   18A9               ADD      R1,SP,#+96
   \   00000D3E   0978               LDRB     R1,[R1, #+0]
   \   00000D40   179A               LDR      R2,[SP, #+92]
   \   00000D42   5118               ADDS     R1,R2,R1
   \   00000D44   C91E               SUBS     R1,R1,#+3
   \   00000D46   0978               LDRB     R1,[R1, #+0]
   \   00000D48   491C               ADDS     R1,R1,#+1
   \   00000D4A   0170               STRB     R1,[R0, #+0]
   2707                  Vstring[ill-2]=0x45;
   \                     ??FloToStr_91:
   \   00000D4C   18A8               ADD      R0,SP,#+96
   \   00000D4E   0078               LDRB     R0,[R0, #+0]
   \   00000D50   1799               LDR      R1,[SP, #+92]
   \   00000D52   0818               ADDS     R0,R1,R0
   \   00000D54   801E               SUBS     R0,R0,#+2
   \   00000D56   4521               MOVS     R1,#+69
   \   00000D58   0170               STRB     R1,[R0, #+0]
   2708                  Vstring[ill-1]=48+E_tmp-ill+2;
   \   00000D5A   18A8               ADD      R0,SP,#+96
   \   00000D5C   0078               LDRB     R0,[R0, #+0]
   \   00000D5E   1799               LDR      R1,[SP, #+92]
   \   00000D60   0818               ADDS     R0,R1,R0
   \   00000D62   401E               SUBS     R0,R0,#+1
   \   00000D64   3035               ADDS     R5,R5,#+48
   \   00000D66   18A9               ADD      R1,SP,#+96
   \   00000D68   0978               LDRB     R1,[R1, #+0]
   \   00000D6A   691A               SUBS     R1,R5,R1
   \   00000D6C   891C               ADDS     R1,R1,#+2
   \   00000D6E   0170               STRB     R1,[R0, #+0]
   2709                }    
   2710              
   2711                if (min)
   \                     ??FloToStr_90:
   \   00000D70   0198               LDR      R0,[SP, #+4]
   \   00000D72   0028               CMP      R0,#+0
   \   00000D74   02D0               BEQ      ??FloToStr_92
   2712                {
   2713                  Vstring[0]=45; 
   \   00000D76   1798               LDR      R0,[SP, #+92]
   \   00000D78   2D21               MOVS     R1,#+45
   \   00000D7A   0170               STRB     R1,[R0, #+0]
   2714                }
   2715                
   2716                ill++;
   \                     ??FloToStr_92:
   \   00000D7C   18A8               ADD      R0,SP,#+96
   \   00000D7E   18A9               ADD      R1,SP,#+96
   \   00000D80   0978               LDRB     R1,[R1, #+0]
   \   00000D82   491C               ADDS     R1,R1,#+1
   \   00000D84   0170               STRB     R1,[R0, #+0]
   2717                Vstring[ill+1]=0;
   \   00000D86   18A8               ADD      R0,SP,#+96
   \   00000D88   0078               LDRB     R0,[R0, #+0]
   \   00000D8A   1799               LDR      R1,[SP, #+92]
   \   00000D8C   0818               ADDS     R0,R1,R0
   \   00000D8E   0021               MOVS     R1,#+0
   \   00000D90   4170               STRB     R1,[R0, #+1]
   2718              
   2719               }
   2720             }
   2721          
   2722               
   2723             return ill_tmp;
   \                     ??FloToStr_7:
   \   00000D92   2000               MOVS     R0,R4
   \   00000D94   0006               LSLS     R0,R0,#+24       ;; ZeroExtS R0,R0,#+24,#+24
   \   00000D96   000E               LSRS     R0,R0,#+24
   \   00000D98   19B0               ADD      SP,SP,#+100
   \   00000D9A   F0BC               POP      {R4-R7}
   \   00000D9C   02BC               POP      {R1}
   \   00000D9E   0847               BX       R1               ;; return
   \                     ??FloToStr_81:
   \   00000DA0   11270000           DC32     0x2711
   2724          
   2725          
   2726             
   2727          }//_______________________ Koniec funkcji konwersji float na string ____________________________
   2728          
   2729          
   2730          
   2731          
   2732          
   2733          
   2734          //*-----------------------------------------------------------------------------
   2735          //* Nazwa funkcji :    H_line
   2736          //* Funkcja rysowania lini poziomej
   2737          //*-----------------------------------------------------------------------------
   2738          
   2739          //*  X          - wspó³¿êdna X zale¿na 
   2740          //*  Y          - wspó³¿êdna Y do³u napisu
   2741          //*  length     -d³ugoœæ
   2742          //*  typ        -0-bia³a 1=ci¹gla, 2=kropkowana, 3=kreskowana 
   2743          //*-----------------------------------------------------------------------------

   \                                 In section Debug.txt, align 4, keep-with-next
   2744          void H_line (char X, int Y, char lenght, char typ) 
   2745          { 
   \                     H_line:
   \   00000000   F5B5               PUSH     {R0,R2,R4-R7,LR}
   \   00000002   81B0               SUB      SP,SP,#+4
   \   00000004   0C00               MOVS     R4,R1
   \   00000006   1D00               MOVS     R5,R3
   2746              int kol=0;
   \   00000008   0027               MOVS     R7,#+0
   2747              char bit=0;
   \   0000000A   0026               MOVS     R6,#+0
   2748            
   2749                kol=X/8;
   \   0000000C   6846               MOV      R0,SP
   \   0000000E   0079               LDRB     R0,[R0, #+4]
   \   00000010   0821               MOVS     R1,#+8
   \   00000012   ........           BL       __aeabi_idivmod
   \   00000016   0700               MOVS     R7,R0
   2750                bit=X%8;
   \   00000018   6846               MOV      R0,SP
   \   0000001A   0079               LDRB     R0,[R0, #+4]
   \   0000001C   0821               MOVS     R1,#+8
   \   0000001E   ........           BL       __aeabi_idivmod
   \   00000022   0E00               MOVS     R6,R1
   2751                
   2752                for (int j=1; j<=lenght; j++)
   \   00000024   0121               MOVS     R1,#+1
   \   00000026   03E0               B        ??H_line_0
   2753                {
   2754                    
   2755                    if (typ>0) 
   2756                    {
   2757                      LCD_Canvas[kol][Y] |= (0x1)<<bit;
   2758                      if (bit<7) { bit++;} else {bit=0;  kol++; }
   2759                    }
   2760                    else
   2761                    {
   2762                        
   2763                        LCD_Canvas[kol][Y] &= ~((0x1)<<bit);
   2764                      if (bit<7) { bit++;} else {bit=0;  kol++; }
   2765                      
   2766                    }
   2767                   
   2768                    if ((typ==3) && ((j+1)<=lenght))
   2769                    {
   2770                      LCD_Canvas[kol][Y] |= (0x1)<<bit;
   2771                      if (bit<7) { bit++;} else {bit=0;  kol++;}
   2772                      j++;
   2773                    }
   2774                     if ((typ>=2) && ((j+1)<=lenght))
   2775                    {
   2776                      LCD_Canvas[kol][Y] &=~((0x1)<<bit);
   2777                      if (bit<7) { bit++;} else {bit=0;  kol++;}
   \                     ??H_line_1:
   \   00000028   0026               MOVS     R6,#+0
   \   0000002A   7F1C               ADDS     R7,R7,#+1
   2778                      j++;
   \                     ??H_line_2:
   \   0000002C   491C               ADDS     R1,R1,#+1
   \                     ??H_line_3:
   \   0000002E   491C               ADDS     R1,R1,#+1
   \                     ??H_line_0:
   \   00000030   6846               MOV      R0,SP
   \   00000032   007A               LDRB     R0,[R0, #+8]
   \   00000034   8842               CMP      R0,R1
   \   00000036   6BDB               BLT      ??H_line_4
   \   00000038   2D06               LSLS     R5,R5,#+24       ;; ZeroExtS R5,R5,#+24,#+24
   \   0000003A   2D0E               LSRS     R5,R5,#+24
   \   0000003C   012D               CMP      R5,#+1
   \   0000003E   15D3               BCC      ??H_line_5
   \   00000040   8020               MOVS     R0,#+128
   \   00000042   7843               MULS     R0,R7,R0
   \   00000044   344A               LDR      R2,??H_line_6    ;; LCD_Canvas
   \   00000046   1018               ADDS     R0,R2,R0
   \   00000048   8022               MOVS     R2,#+128
   \   0000004A   7A43               MULS     R2,R7,R2
   \   0000004C   324B               LDR      R3,??H_line_6    ;; LCD_Canvas
   \   0000004E   9A18               ADDS     R2,R3,R2
   \   00000050   125D               LDRB     R2,[R2, R4]
   \   00000052   0123               MOVS     R3,#+1
   \   00000054   B340               LSLS     R3,R3,R6
   \   00000056   1343               ORRS     R3,R3,R2
   \   00000058   0355               STRB     R3,[R0, R4]
   \   0000005A   3606               LSLS     R6,R6,#+24       ;; ZeroExtS R6,R6,#+24,#+24
   \   0000005C   360E               LSRS     R6,R6,#+24
   \   0000005E   072E               CMP      R6,#+7
   \   00000060   01D2               BCS      ??H_line_7
   \   00000062   761C               ADDS     R6,R6,#+1
   \   00000064   17E0               B        ??H_line_8
   \                     ??H_line_7:
   \   00000066   0026               MOVS     R6,#+0
   \   00000068   7F1C               ADDS     R7,R7,#+1
   \   0000006A   14E0               B        ??H_line_8
   \                     ??H_line_5:
   \   0000006C   8020               MOVS     R0,#+128
   \   0000006E   7843               MULS     R0,R7,R0
   \   00000070   294A               LDR      R2,??H_line_6    ;; LCD_Canvas
   \   00000072   1018               ADDS     R0,R2,R0
   \   00000074   8022               MOVS     R2,#+128
   \   00000076   7A43               MULS     R2,R7,R2
   \   00000078   274B               LDR      R3,??H_line_6    ;; LCD_Canvas
   \   0000007A   9A18               ADDS     R2,R3,R2
   \   0000007C   125D               LDRB     R2,[R2, R4]
   \   0000007E   0123               MOVS     R3,#+1
   \   00000080   B340               LSLS     R3,R3,R6
   \   00000082   9A43               BICS     R2,R2,R3
   \   00000084   0255               STRB     R2,[R0, R4]
   \   00000086   3606               LSLS     R6,R6,#+24       ;; ZeroExtS R6,R6,#+24,#+24
   \   00000088   360E               LSRS     R6,R6,#+24
   \   0000008A   072E               CMP      R6,#+7
   \   0000008C   01D2               BCS      ??H_line_9
   \   0000008E   761C               ADDS     R6,R6,#+1
   \   00000090   01E0               B        ??H_line_8
   \                     ??H_line_9:
   \   00000092   0026               MOVS     R6,#+0
   \   00000094   7F1C               ADDS     R7,R7,#+1
   \                     ??H_line_8:
   \   00000096   2D06               LSLS     R5,R5,#+24       ;; ZeroExtS R5,R5,#+24,#+24
   \   00000098   2D0E               LSRS     R5,R5,#+24
   \   0000009A   032D               CMP      R5,#+3
   \   0000009C   1BD1               BNE      ??H_line_10
   \   0000009E   6846               MOV      R0,SP
   \   000000A0   027A               LDRB     R2,[R0, #+8]
   \   000000A2   0800               MOVS     R0,R1
   \   000000A4   401C               ADDS     R0,R0,#+1
   \   000000A6   8242               CMP      R2,R0
   \   000000A8   15DB               BLT      ??H_line_10
   \   000000AA   8020               MOVS     R0,#+128
   \   000000AC   7843               MULS     R0,R7,R0
   \   000000AE   1A4A               LDR      R2,??H_line_6    ;; LCD_Canvas
   \   000000B0   1018               ADDS     R0,R2,R0
   \   000000B2   8022               MOVS     R2,#+128
   \   000000B4   7A43               MULS     R2,R7,R2
   \   000000B6   184B               LDR      R3,??H_line_6    ;; LCD_Canvas
   \   000000B8   9A18               ADDS     R2,R3,R2
   \   000000BA   125D               LDRB     R2,[R2, R4]
   \   000000BC   0123               MOVS     R3,#+1
   \   000000BE   B340               LSLS     R3,R3,R6
   \   000000C0   1343               ORRS     R3,R3,R2
   \   000000C2   0355               STRB     R3,[R0, R4]
   \   000000C4   3606               LSLS     R6,R6,#+24       ;; ZeroExtS R6,R6,#+24,#+24
   \   000000C6   360E               LSRS     R6,R6,#+24
   \   000000C8   072E               CMP      R6,#+7
   \   000000CA   01D2               BCS      ??H_line_11
   \   000000CC   761C               ADDS     R6,R6,#+1
   \   000000CE   01E0               B        ??H_line_12
   \                     ??H_line_11:
   \   000000D0   0026               MOVS     R6,#+0
   \   000000D2   7F1C               ADDS     R7,R7,#+1
   \                     ??H_line_12:
   \   000000D4   491C               ADDS     R1,R1,#+1
   \                     ??H_line_10:
   \   000000D6   2D06               LSLS     R5,R5,#+24       ;; ZeroExtS R5,R5,#+24,#+24
   \   000000D8   2D0E               LSRS     R5,R5,#+24
   \   000000DA   022D               CMP      R5,#+2
   \   000000DC   A7D3               BCC      ??H_line_3
   \   000000DE   6846               MOV      R0,SP
   \   000000E0   027A               LDRB     R2,[R0, #+8]
   \   000000E2   0800               MOVS     R0,R1
   \   000000E4   401C               ADDS     R0,R0,#+1
   \   000000E6   8242               CMP      R2,R0
   \   000000E8   A1DB               BLT      ??H_line_3
   \   000000EA   8020               MOVS     R0,#+128
   \   000000EC   7843               MULS     R0,R7,R0
   \   000000EE   0A4A               LDR      R2,??H_line_6    ;; LCD_Canvas
   \   000000F0   1018               ADDS     R0,R2,R0
   \   000000F2   8022               MOVS     R2,#+128
   \   000000F4   7A43               MULS     R2,R7,R2
   \   000000F6   084B               LDR      R3,??H_line_6    ;; LCD_Canvas
   \   000000F8   9A18               ADDS     R2,R3,R2
   \   000000FA   125D               LDRB     R2,[R2, R4]
   \   000000FC   0123               MOVS     R3,#+1
   \   000000FE   B340               LSLS     R3,R3,R6
   \   00000100   9A43               BICS     R2,R2,R3
   \   00000102   0255               STRB     R2,[R0, R4]
   \   00000104   3606               LSLS     R6,R6,#+24       ;; ZeroExtS R6,R6,#+24,#+24
   \   00000106   360E               LSRS     R6,R6,#+24
   \   00000108   072E               CMP      R6,#+7
   \   0000010A   8DD2               BCS      ??H_line_1
   \   0000010C   761C               ADDS     R6,R6,#+1
   \   0000010E   8DE7               B        ??H_line_2
   2779                    }
   2780                    
   2781                }   
   2782          
   2783          }//_______________________ Koniec funkcji H_line ____________________________ 
   \                     ??H_line_4:
   \   00000110   03B0               ADD      SP,SP,#+12
   \   00000112   F0BC               POP      {R4-R7}
   \   00000114   01BC               POP      {R0}
   \   00000116   0047               BX       R0               ;; return
   \                     ??H_line_6:
   \   00000118   ........           DC32     LCD_Canvas
   2784          
   2785          
   2786          
   2787          
   2788          
   2789          
   2790          
   2791          //*-----------------------------------------------------------------------------
   2792          //* Nazwa funkcji :    V_line
   2793          //* Funkcja rysowania lini pionowej
   2794          //*-----------------------------------------------------------------------------
   2795          
   2796          //*  X          - wspó³¿êdna X zale¿na 
   2797          //*  Y          - wspó³¿êdna Y do³u napisu
   2798          //*  length     -d³ugoœæ
   2799          //*  typ        -0-bia³a 1=ci¹gla, 2=kropkowana, 3=kreskowana 
   2800          //*-----------------------------------------------------------------------------

   \                                 In section Debug.txt, align 4, keep-with-next
   2801          void V_line (char X, int Y, char lenght, char typ) 
   2802          { 
   \                     V_line:
   \   00000000   FDB5               PUSH     {R0,R2-R7,LR}
   \   00000002   0700               MOVS     R7,R0
   \   00000004   0C00               MOVS     R4,R1
   2803              int kol=0;
   \   00000006   0025               MOVS     R5,#+0
   2804              char bit=0;
   \   00000008   0026               MOVS     R6,#+0
   2805            
   2806                kol=X/8;
   \   0000000A   3F06               LSLS     R7,R7,#+24       ;; ZeroExtS R7,R7,#+24,#+24
   \   0000000C   3F0E               LSRS     R7,R7,#+24
   \   0000000E   3800               MOVS     R0,R7
   \   00000010   0821               MOVS     R1,#+8
   \   00000012   ........           BL       __aeabi_idivmod
   \   00000016   0500               MOVS     R5,R0
   2807                bit=X%8;
   \   00000018   3F06               LSLS     R7,R7,#+24       ;; ZeroExtS R7,R7,#+24,#+24
   \   0000001A   3F0E               LSRS     R7,R7,#+24
   \   0000001C   3800               MOVS     R0,R7
   \   0000001E   0821               MOVS     R1,#+8
   \   00000020   ........           BL       __aeabi_idivmod
   \   00000024   0E00               MOVS     R6,R1
   2808                
   2809                if (typ==1) 
   \   00000026   6846               MOV      R0,SP
   \   00000028   007A               LDRB     R0,[R0, #+8]
   \   0000002A   0128               CMP      R0,#+1
   \   0000002C   18D1               BNE      ??V_line_0
   2810                {
   2811                  for (int j=0; j<=lenght-1; j++)
   \   0000002E   0020               MOVS     R0,#+0
   \   00000030   11E0               B        ??V_line_1
   2812                  {
   2813                    LCD_Canvas[kol][Y+j] |= (0x1)<<bit;
   \                     ??V_line_2:
   \   00000032   2318               ADDS     R3,R4,R0
   \   00000034   8021               MOVS     R1,#+128
   \   00000036   6943               MULS     R1,R5,R1
   \   00000038   514A               LDR      R2,??V_line_3    ;; LCD_Canvas
   \   0000003A   5718               ADDS     R7,R2,R1
   \   0000003C   2218               ADDS     R2,R4,R0
   \   0000003E   9446               MOV      R12,R2
   \   00000040   8022               MOVS     R2,#+128
   \   00000042   6A43               MULS     R2,R5,R2
   \   00000044   4E49               LDR      R1,??V_line_3    ;; LCD_Canvas
   \   00000046   8918               ADDS     R1,R1,R2
   \   00000048   6246               MOV      R2,R12
   \   0000004A   8A5C               LDRB     R2,[R1, R2]
   \   0000004C   0121               MOVS     R1,#+1
   \   0000004E   B140               LSLS     R1,R1,R6
   \   00000050   1143               ORRS     R1,R1,R2
   \   00000052   F954               STRB     R1,[R7, R3]
   2814                  }
   \   00000054   401C               ADDS     R0,R0,#+1
   \                     ??V_line_1:
   \   00000056   6946               MOV      R1,SP
   \   00000058   0979               LDRB     R1,[R1, #+4]
   \   0000005A   491E               SUBS     R1,R1,#+1
   \   0000005C   8142               CMP      R1,R0
   \   0000005E   E8DA               BGE      ??V_line_2
   2815                }
   2816                
   2817                if (typ==2) 
   \                     ??V_line_0:
   \   00000060   6846               MOV      R0,SP
   \   00000062   007A               LDRB     R0,[R0, #+8]
   \   00000064   0228               CMP      R0,#+2
   \   00000066   31D1               BNE      ??V_line_4
   2818                {
   2819                  char zmiana=0;
   \   00000068   0021               MOVS     R1,#+0
   2820                  for (int j=0; j<=lenght-1; j++)
   \   0000006A   0020               MOVS     R0,#+0
   \   0000006C   12E0               B        ??V_line_5
   2821                  {
   2822                    if (zmiana==0)
   2823                    {
   2824                      LCD_Canvas[kol][Y+j] |= (0x1)<<bit;
   2825                      zmiana=1;
   2826                    }
   2827                    else
   2828                    {
   2829                      LCD_Canvas[kol][Y+j] &= ~((0x1)<<bit);
   \                     ??V_line_6:
   \   0000006E   2318               ADDS     R3,R4,R0
   \   00000070   8021               MOVS     R1,#+128
   \   00000072   6943               MULS     R1,R5,R1
   \   00000074   424A               LDR      R2,??V_line_3    ;; LCD_Canvas
   \   00000076   5718               ADDS     R7,R2,R1
   \   00000078   2218               ADDS     R2,R4,R0
   \   0000007A   9446               MOV      R12,R2
   \   0000007C   8022               MOVS     R2,#+128
   \   0000007E   6A43               MULS     R2,R5,R2
   \   00000080   3F49               LDR      R1,??V_line_3    ;; LCD_Canvas
   \   00000082   8918               ADDS     R1,R1,R2
   \   00000084   6246               MOV      R2,R12
   \   00000086   895C               LDRB     R1,[R1, R2]
   \   00000088   0122               MOVS     R2,#+1
   \   0000008A   B240               LSLS     R2,R2,R6
   \   0000008C   9143               BICS     R1,R1,R2
   \   0000008E   F954               STRB     R1,[R7, R3]
   2830                      zmiana=0;
   \   00000090   0021               MOVS     R1,#+0
   2831                    }
   \                     ??V_line_7:
   \   00000092   401C               ADDS     R0,R0,#+1
   \                     ??V_line_5:
   \   00000094   6A46               MOV      R2,SP
   \   00000096   1279               LDRB     R2,[R2, #+4]
   \   00000098   521E               SUBS     R2,R2,#+1
   \   0000009A   8242               CMP      R2,R0
   \   0000009C   16DB               BLT      ??V_line_4
   \   0000009E   0906               LSLS     R1,R1,#+24       ;; ZeroExtS R1,R1,#+24,#+24
   \   000000A0   090E               LSRS     R1,R1,#+24
   \   000000A2   0029               CMP      R1,#+0
   \   000000A4   E3D1               BNE      ??V_line_6
   \   000000A6   2318               ADDS     R3,R4,R0
   \   000000A8   8021               MOVS     R1,#+128
   \   000000AA   6943               MULS     R1,R5,R1
   \   000000AC   344A               LDR      R2,??V_line_3    ;; LCD_Canvas
   \   000000AE   5718               ADDS     R7,R2,R1
   \   000000B0   2218               ADDS     R2,R4,R0
   \   000000B2   9446               MOV      R12,R2
   \   000000B4   8022               MOVS     R2,#+128
   \   000000B6   6A43               MULS     R2,R5,R2
   \   000000B8   3149               LDR      R1,??V_line_3    ;; LCD_Canvas
   \   000000BA   8918               ADDS     R1,R1,R2
   \   000000BC   6246               MOV      R2,R12
   \   000000BE   8A5C               LDRB     R2,[R1, R2]
   \   000000C0   0121               MOVS     R1,#+1
   \   000000C2   B140               LSLS     R1,R1,R6
   \   000000C4   1143               ORRS     R1,R1,R2
   \   000000C6   F954               STRB     R1,[R7, R3]
   \   000000C8   0121               MOVS     R1,#+1
   \   000000CA   E2E7               B        ??V_line_7
   2832                  }
   2833                }
   2834                
   2835                if (typ==3) 
   \                     ??V_line_4:
   \   000000CC   6846               MOV      R0,SP
   \   000000CE   007A               LDRB     R0,[R0, #+8]
   \   000000D0   0328               CMP      R0,#+3
   \   000000D2   34D1               BNE      ??V_line_8
   2836                {
   2837                  char zmiana=0;
   \   000000D4   0020               MOVS     R0,#+0
   2838                  for (int j=0; j<=lenght-1; j++)
   \   000000D6   0021               MOVS     R1,#+0
   \   000000D8   12E0               B        ??V_line_9
   2839                  {
   2840                    if (zmiana<2)
   2841                    {
   2842                      LCD_Canvas[kol][Y+j] |= (0x1)<<bit;
   2843                      zmiana++;
   2844                    }
   2845                    else
   2846                    {
   2847                      LCD_Canvas[kol][Y+j] &= ~((0x1)<<bit);
   \                     ??V_line_10:
   \   000000DA   6318               ADDS     R3,R4,R1
   \   000000DC   8020               MOVS     R0,#+128
   \   000000DE   6843               MULS     R0,R5,R0
   \   000000E0   274A               LDR      R2,??V_line_3    ;; LCD_Canvas
   \   000000E2   1718               ADDS     R7,R2,R0
   \   000000E4   6218               ADDS     R2,R4,R1
   \   000000E6   9446               MOV      R12,R2
   \   000000E8   8022               MOVS     R2,#+128
   \   000000EA   6A43               MULS     R2,R5,R2
   \   000000EC   2448               LDR      R0,??V_line_3    ;; LCD_Canvas
   \   000000EE   8018               ADDS     R0,R0,R2
   \   000000F0   6246               MOV      R2,R12
   \   000000F2   805C               LDRB     R0,[R0, R2]
   \   000000F4   0122               MOVS     R2,#+1
   \   000000F6   B240               LSLS     R2,R2,R6
   \   000000F8   9043               BICS     R0,R0,R2
   \   000000FA   F854               STRB     R0,[R7, R3]
   2848                      zmiana=0;
   \   000000FC   0020               MOVS     R0,#+0
   2849                    }
   \                     ??V_line_11:
   \   000000FE   491C               ADDS     R1,R1,#+1
   \                     ??V_line_9:
   \   00000100   6A46               MOV      R2,SP
   \   00000102   1279               LDRB     R2,[R2, #+4]
   \   00000104   521E               SUBS     R2,R2,#+1
   \   00000106   8A42               CMP      R2,R1
   \   00000108   19DB               BLT      ??V_line_8
   \   0000010A   0006               LSLS     R0,R0,#+24       ;; ZeroExtS R0,R0,#+24,#+24
   \   0000010C   000E               LSRS     R0,R0,#+24
   \   0000010E   0228               CMP      R0,#+2
   \   00000110   E3D2               BCS      ??V_line_10
   \   00000112   6318               ADDS     R3,R4,R1
   \   00000114   8022               MOVS     R2,#+128
   \   00000116   6A43               MULS     R2,R5,R2
   \   00000118   194F               LDR      R7,??V_line_3    ;; LCD_Canvas
   \   0000011A   BF18               ADDS     R7,R7,R2
   \   0000011C   08B5               PUSH     {R3,LR}
   \   0000011E   6318               ADDS     R3,R4,R1
   \   00000120   9C46               MOV      R12,R3
   \   00000122   8023               MOVS     R3,#+128
   \   00000124   6B43               MULS     R3,R5,R3
   \   00000126   164A               LDR      R2,??V_line_3    ;; LCD_Canvas
   \   00000128   D218               ADDS     R2,R2,R3
   \   0000012A   6346               MOV      R3,R12
   \   0000012C   D35C               LDRB     R3,[R2, R3]
   \   0000012E   0122               MOVS     R2,#+1
   \   00000130   B240               LSLS     R2,R2,R6
   \   00000132   1A43               ORRS     R2,R2,R3
   \   00000134   009B               LDR      R3,[SP, #0]
   \   00000136   02B0               ADD      SP,SP,#+8
   \   00000138   FA54               STRB     R2,[R7, R3]
   \   0000013A   401C               ADDS     R0,R0,#+1
   \   0000013C   DFE7               B        ??V_line_11
   2850                  }
   2851                }
   2852                
   2853                
   2854                if (typ==0) 
   \                     ??V_line_8:
   \   0000013E   6846               MOV      R0,SP
   \   00000140   007A               LDRB     R0,[R0, #+8]
   \   00000142   0028               CMP      R0,#+0
   \   00000144   18D1               BNE      ??V_line_12
   2855                {
   2856                   for (int j=0; j<=lenght-1; j++)
   \   00000146   0020               MOVS     R0,#+0
   \   00000148   11E0               B        ??V_line_13
   2857                    {
   2858                    LCD_Canvas[kol][Y+j] &= ~((0x1)<<bit);
   \                     ??V_line_14:
   \   0000014A   2318               ADDS     R3,R4,R0
   \   0000014C   8021               MOVS     R1,#+128
   \   0000014E   6943               MULS     R1,R5,R1
   \   00000150   0B4A               LDR      R2,??V_line_3    ;; LCD_Canvas
   \   00000152   5718               ADDS     R7,R2,R1
   \   00000154   2218               ADDS     R2,R4,R0
   \   00000156   9446               MOV      R12,R2
   \   00000158   8022               MOVS     R2,#+128
   \   0000015A   6A43               MULS     R2,R5,R2
   \   0000015C   0849               LDR      R1,??V_line_3    ;; LCD_Canvas
   \   0000015E   8918               ADDS     R1,R1,R2
   \   00000160   6246               MOV      R2,R12
   \   00000162   895C               LDRB     R1,[R1, R2]
   \   00000164   0122               MOVS     R2,#+1
   \   00000166   B240               LSLS     R2,R2,R6
   \   00000168   9143               BICS     R1,R1,R2
   \   0000016A   F954               STRB     R1,[R7, R3]
   2859                    }
   \   0000016C   401C               ADDS     R0,R0,#+1
   \                     ??V_line_13:
   \   0000016E   6946               MOV      R1,SP
   \   00000170   0979               LDRB     R1,[R1, #+4]
   \   00000172   491E               SUBS     R1,R1,#+1
   \   00000174   8142               CMP      R1,R0
   \   00000176   E8DA               BGE      ??V_line_14
   2860                  
   2861                }
   2862          
   2863          
   2864          }//_______________________ Koniec funkcji H_line ____________________________ 
   \                     ??V_line_12:
   \   00000178   03B0               ADD      SP,SP,#+12
   \   0000017A   F0BC               POP      {R4-R7}
   \   0000017C   01BC               POP      {R0}
   \   0000017E   0047               BX       R0               ;; return
   \                     ??V_line_3:
   \   00000180   ........           DC32     LCD_Canvas
   2865          
   2866          
   2867          

   \                                 In section .bss, align 8
   2868          long long int ButtonEventTime=0;
   \                     ButtonEventTime:
   \   00000000                      DS8 8
   2869          //*-----------------------------------------------------------------------------
   2870          //* Nazwa funkcji :    Button
   2871          //* Uniwersalna funkcja przycisku
   2872          //*-----------------------------------------------------------------------------
   2873          //*  Label        - etykieta
   2874          //*  poz_X   - pozycja lewy róg
   2875          //*  poz_Y   - pozycja dolny róg
   2876          //*  width -   szerokoœæ
   2877          //*  height -  wysokoœæ
   2878          //*-----------------------------------------------------------------------------

   \                                 In section .bss, align 8
   2879          long long ButtonBipCounter=0;
   \                     ButtonBipCounter:
   \   00000000                      DS8 8
   2880          

   \                                 In section Debug.txt, align 4, keep-with-next
   2881          char Button (char _Label[15], char poz_X , char poz_Y ,char width, char height) 
   2882          { 
   \                     Button:
   \   00000000   F9B5               PUSH     {R0,R3-R7,LR}
   \   00000002   81B0               SUB      SP,SP,#+4
   \   00000004   0C00               MOVS     R4,R1
   \   00000006   1500               MOVS     R5,R2
   \   00000008   08A8               ADD      R0,SP,#+32
   \   0000000A   0678               LDRB     R6,[R0, #+0]
   2883              char odp =0;
   \   0000000C   6846               MOV      R0,SP
   \   0000000E   0021               MOVS     R1,#+0
   \   00000010   0170               STRB     R1,[R0, #+0]
   2884              char tmpI=0;
   \   00000012   0027               MOVS     R7,#+0
   2885              char tmpF=0;
   \   00000014   0020               MOVS     R0,#+0
   \   00000016   00E0               B        ??Button_0
   2886              while ((tmpI<=15) && (tmpF==0))
   2887              {
   2888                if (_Label[tmpI]==0)
   2889                {
   2890                  tmpF=1;
   \                     ??Button_1:
   \   00000018   0120               MOVS     R0,#+1
   2891                }else{
   \                     ??Button_0:
   \   0000001A   3F06               LSLS     R7,R7,#+24       ;; ZeroExtS R7,R7,#+24,#+24
   \   0000001C   3F0E               LSRS     R7,R7,#+24
   \   0000001E   102F               CMP      R7,#+16
   \   00000020   0BD2               BCS      ??Button_2
   \   00000022   0006               LSLS     R0,R0,#+24       ;; ZeroExtS R0,R0,#+24,#+24
   \   00000024   000E               LSRS     R0,R0,#+24
   \   00000026   0028               CMP      R0,#+0
   \   00000028   07D1               BNE      ??Button_2
   \   0000002A   3F06               LSLS     R7,R7,#+24       ;; ZeroExtS R7,R7,#+24,#+24
   \   0000002C   3F0E               LSRS     R7,R7,#+24
   \   0000002E   0199               LDR      R1,[SP, #+4]
   \   00000030   C95D               LDRB     R1,[R1, R7]
   \   00000032   0029               CMP      R1,#+0
   \   00000034   F0D0               BEQ      ??Button_1
   2892                  tmpI++;
   \   00000036   7F1C               ADDS     R7,R7,#+1
   \   00000038   EFE7               B        ??Button_0
   2893                }
   2894              }
   2895              static char ButtonDown=0;
   2896              CleanCanvasArea(poz_X+2, poz_Y+2, width-4, height-4,1);  //(char X, char Y, char X_Lenght, char Y_Lenght, char Type);   
   \                     ??Button_2:
   \   0000003A   82B0               SUB      SP,SP,#+8
   \   0000003C   0120               MOVS     R0,#+1
   \   0000003E   0090               STR      R0,[SP, #+0]
   \   00000040   331F               SUBS     R3,R6,#+4
   \   00000042   1B06               LSLS     R3,R3,#+24       ;; ZeroExtS R3,R3,#+24,#+24
   \   00000044   1B0E               LSRS     R3,R3,#+24
   \   00000046   02A8               ADD      R0,SP,#+8
   \   00000048   007A               LDRB     R0,[R0, #+8]
   \   0000004A   021F               SUBS     R2,R0,#+4
   \   0000004C   1206               LSLS     R2,R2,#+24       ;; ZeroExtS R2,R2,#+24,#+24
   \   0000004E   120E               LSRS     R2,R2,#+24
   \   00000050   2900               MOVS     R1,R5
   \   00000052   891C               ADDS     R1,R1,#+2
   \   00000054   0906               LSLS     R1,R1,#+24       ;; ZeroExtS R1,R1,#+24,#+24
   \   00000056   090E               LSRS     R1,R1,#+24
   \   00000058   2000               MOVS     R0,R4
   \   0000005A   801C               ADDS     R0,R0,#+2
   \   0000005C   0006               LSLS     R0,R0,#+24       ;; ZeroExtS R0,R0,#+24,#+24
   \   0000005E   000E               LSRS     R0,R0,#+24
   \   00000060   ........           BL       CleanCanvasArea
   \   00000064   02B0               ADD      SP,SP,#+8
   2897              Label(_Label,2,poz_X+3,poz_Y+(height/2)-4,tmpI,width-7,1,127,1);  //(char *Vstring, char alig, char X, int Y, char maxChar, char clean, char minY, char maxY, negatyw) 
   \   00000066   82B0               SUB      SP,SP,#+8
   \   00000068   0120               MOVS     R0,#+1
   \   0000006A   0090               STR      R0,[SP, #+0]
   \   0000006C   7F21               MOVS     R1,#+127
   \   0000006E   0120               MOVS     R0,#+1
   \   00000070   03B4               PUSH     {R0,R1}
   \   00000072   04A8               ADD      R0,SP,#+16
   \   00000074   007A               LDRB     R0,[R0, #+8]
   \   00000076   C11F               SUBS     R1,R0,#+7
   \   00000078   3800               MOVS     R0,R7
   \   0000007A   0006               LSLS     R0,R0,#+24       ;; ZeroExtS R0,R0,#+24,#+24
   \   0000007C   000E               LSRS     R0,R0,#+24
   \   0000007E   0906               LSLS     R1,R1,#+24       ;; ZeroExtS R1,R1,#+24,#+24
   \   00000080   090E               LSRS     R1,R1,#+24
   \   00000082   03B4               PUSH     {R0,R1}
   \   00000084   2D06               LSLS     R5,R5,#+24       ;; ZeroExtS R5,R5,#+24,#+24
   \   00000086   2D0E               LSRS     R5,R5,#+24
   \   00000088   3606               LSLS     R6,R6,#+24       ;; ZeroExtS R6,R6,#+24,#+24
   \   0000008A   360E               LSRS     R6,R6,#+24
   \   0000008C   3000               MOVS     R0,R6
   \   0000008E   0221               MOVS     R1,#+2
   \   00000090   ........           BL       __aeabi_idivmod
   \   00000094   2B18               ADDS     R3,R5,R0
   \   00000096   1B1F               SUBS     R3,R3,#+4
   \   00000098   2200               MOVS     R2,R4
   \   0000009A   D21C               ADDS     R2,R2,#+3
   \   0000009C   1206               LSLS     R2,R2,#+24       ;; ZeroExtS R2,R2,#+24,#+24
   \   0000009E   120E               LSRS     R2,R2,#+24
   \   000000A0   0221               MOVS     R1,#+2
   \   000000A2   0798               LDR      R0,[SP, #+28]
   \   000000A4   ........           BL       Label
   \   000000A8   06B0               ADD      SP,SP,#+24
   2898           
   2899          
   2900          
   2901              if ( (X_down>poz_X) && (X_down<poz_X+width) && (Y_down>poz_Y+2) && (Y_down<poz_Y+height))
   \   000000AA   2000               MOVS     R0,R4
   \   000000AC   0006               LSLS     R0,R0,#+24       ;; ZeroExtS R0,R0,#+24,#+24
   \   000000AE   000E               LSRS     R0,R0,#+24
   \   000000B0   B349               LDR      R1,??Button_3    ;; X_down
   \   000000B2   0022               MOVS     R2,#+0
   \   000000B4   895E               LDRSH    R1,[R1, R2]
   \   000000B6   0004               LSLS     R0,R0,#+16       ;; SignExtS R0,R0,#+16,#+16
   \   000000B8   0014               ASRS     R0,R0,#+16
   \   000000BA   8842               CMP      R0,R1
   \   000000BC   79DA               BGE      ??Button_4
   \   000000BE   B048               LDR      R0,??Button_3    ;; X_down
   \   000000C0   0021               MOVS     R1,#+0
   \   000000C2   405E               LDRSH    R0,[R0, R1]
   \   000000C4   2406               LSLS     R4,R4,#+24       ;; ZeroExtS R4,R4,#+24,#+24
   \   000000C6   240E               LSRS     R4,R4,#+24
   \   000000C8   6946               MOV      R1,SP
   \   000000CA   097A               LDRB     R1,[R1, #+8]
   \   000000CC   6118               ADDS     R1,R4,R1
   \   000000CE   8842               CMP      R0,R1
   \   000000D0   6FDA               BGE      ??Button_4
   \   000000D2   2D06               LSLS     R5,R5,#+24       ;; ZeroExtS R5,R5,#+24,#+24
   \   000000D4   2D0E               LSRS     R5,R5,#+24
   \   000000D6   2800               MOVS     R0,R5
   \   000000D8   801C               ADDS     R0,R0,#+2
   \   000000DA   AA49               LDR      R1,??Button_3+0x4  ;; Y_down
   \   000000DC   0022               MOVS     R2,#+0
   \   000000DE   895E               LDRSH    R1,[R1, R2]
   \   000000E0   8842               CMP      R0,R1
   \   000000E2   66DA               BGE      ??Button_4
   \   000000E4   A748               LDR      R0,??Button_3+0x4  ;; Y_down
   \   000000E6   0021               MOVS     R1,#+0
   \   000000E8   405E               LDRSH    R0,[R0, R1]
   \   000000EA   2D06               LSLS     R5,R5,#+24       ;; ZeroExtS R5,R5,#+24,#+24
   \   000000EC   2D0E               LSRS     R5,R5,#+24
   \   000000EE   3606               LSLS     R6,R6,#+24       ;; ZeroExtS R6,R6,#+24,#+24
   \   000000F0   360E               LSRS     R6,R6,#+24
   \   000000F2   A919               ADDS     R1,R5,R6
   \   000000F4   8842               CMP      R0,R1
   \   000000F6   5CDA               BGE      ??Button_4
   2902              {    
   2903                  H_line(poz_X+2,poz_Y+1,width-4,1); // (char X, int Y, char lenght, char typ) 
   \   000000F8   0123               MOVS     R3,#+1
   \   000000FA   6846               MOV      R0,SP
   \   000000FC   007A               LDRB     R0,[R0, #+8]
   \   000000FE   021F               SUBS     R2,R0,#+4
   \   00000100   1206               LSLS     R2,R2,#+24       ;; ZeroExtS R2,R2,#+24,#+24
   \   00000102   120E               LSRS     R2,R2,#+24
   \   00000104   2D06               LSLS     R5,R5,#+24       ;; ZeroExtS R5,R5,#+24,#+24
   \   00000106   2D0E               LSRS     R5,R5,#+24
   \   00000108   2900               MOVS     R1,R5
   \   0000010A   491C               ADDS     R1,R1,#+1
   \   0000010C   2000               MOVS     R0,R4
   \   0000010E   801C               ADDS     R0,R0,#+2
   \   00000110   0006               LSLS     R0,R0,#+24       ;; ZeroExtS R0,R0,#+24,#+24
   \   00000112   000E               LSRS     R0,R0,#+24
   \   00000114   ........           BL       H_line
   2904                  H_line(poz_X+2,poz_Y+height-2,width-4,1); // (char X, int Y, char lenght, char typ) 
   \   00000118   0123               MOVS     R3,#+1
   \   0000011A   6846               MOV      R0,SP
   \   0000011C   007A               LDRB     R0,[R0, #+8]
   \   0000011E   021F               SUBS     R2,R0,#+4
   \   00000120   1206               LSLS     R2,R2,#+24       ;; ZeroExtS R2,R2,#+24,#+24
   \   00000122   120E               LSRS     R2,R2,#+24
   \   00000124   2D06               LSLS     R5,R5,#+24       ;; ZeroExtS R5,R5,#+24,#+24
   \   00000126   2D0E               LSRS     R5,R5,#+24
   \   00000128   3606               LSLS     R6,R6,#+24       ;; ZeroExtS R6,R6,#+24,#+24
   \   0000012A   360E               LSRS     R6,R6,#+24
   \   0000012C   A919               ADDS     R1,R5,R6
   \   0000012E   891E               SUBS     R1,R1,#+2
   \   00000130   2000               MOVS     R0,R4
   \   00000132   801C               ADDS     R0,R0,#+2
   \   00000134   0006               LSLS     R0,R0,#+24       ;; ZeroExtS R0,R0,#+24,#+24
   \   00000136   000E               LSRS     R0,R0,#+24
   \   00000138   ........           BL       H_line
   2905                  V_line(poz_X+1,poz_Y+2,height-4,1); // (char X, int Y, char lenght, char typ) 
   \   0000013C   0123               MOVS     R3,#+1
   \   0000013E   321F               SUBS     R2,R6,#+4
   \   00000140   1206               LSLS     R2,R2,#+24       ;; ZeroExtS R2,R2,#+24,#+24
   \   00000142   120E               LSRS     R2,R2,#+24
   \   00000144   2D06               LSLS     R5,R5,#+24       ;; ZeroExtS R5,R5,#+24,#+24
   \   00000146   2D0E               LSRS     R5,R5,#+24
   \   00000148   2900               MOVS     R1,R5
   \   0000014A   891C               ADDS     R1,R1,#+2
   \   0000014C   2000               MOVS     R0,R4
   \   0000014E   401C               ADDS     R0,R0,#+1
   \   00000150   0006               LSLS     R0,R0,#+24       ;; ZeroExtS R0,R0,#+24,#+24
   \   00000152   000E               LSRS     R0,R0,#+24
   \   00000154   ........           BL       V_line
   2906                  V_line(poz_X+width-2,poz_Y+2,height-4,1); // (char X, int Y, char lenght, char typ) 
   \   00000158   0123               MOVS     R3,#+1
   \   0000015A   321F               SUBS     R2,R6,#+4
   \   0000015C   1206               LSLS     R2,R2,#+24       ;; ZeroExtS R2,R2,#+24,#+24
   \   0000015E   120E               LSRS     R2,R2,#+24
   \   00000160   2D06               LSLS     R5,R5,#+24       ;; ZeroExtS R5,R5,#+24,#+24
   \   00000162   2D0E               LSRS     R5,R5,#+24
   \   00000164   AD1C               ADDS     R5,R5,#+2
   \   00000166   2900               MOVS     R1,R5
   \   00000168   6846               MOV      R0,SP
   \   0000016A   007A               LDRB     R0,[R0, #+8]
   \   0000016C   2018               ADDS     R0,R4,R0
   \   0000016E   801E               SUBS     R0,R0,#+2
   \   00000170   0006               LSLS     R0,R0,#+24       ;; ZeroExtS R0,R0,#+24,#+24
   \   00000172   000E               LSRS     R0,R0,#+24
   \   00000174   ........           BL       V_line
   2907                  odp=2;
   \   00000178   6846               MOV      R0,SP
   \   0000017A   0221               MOVS     R1,#+2
   \   0000017C   0170               STRB     R1,[R0, #+0]
   2908                  
   2909                  if ((ButtonDown==0) && (!(AT91C_IFLASH_MEM->Config.SoundOff))) {
   \   0000017E   8248               LDR      R0,??Button_3+0x8  ;; ??ButtonDown
   \   00000180   0078               LDRB     R0,[R0, #+0]
   \   00000182   0028               CMP      R0,#+0
   \   00000184   11D1               BNE      ??Button_5
   \   00000186   8148               LDR      R0,??Button_3+0xC  ;; 0x13d7e9
   \   00000188   0078               LDRB     R0,[R0, #+0]
   \   0000018A   0006               LSLS     R0,R0,#+24       ;; ZeroExtS R0,R0,#+24,#+24
   \   0000018C   000E               LSRS     R0,R0,#+24
   \   0000018E   0028               CMP      R0,#+0
   \   00000190   0BD1               BNE      ??Button_5
   2910                    AT91C_BASE_PIOA->PIO_SODR =SpeakerPin;
                                                      ^
Warning[Pe068]: integer conversion resulted in a change of sign
   \   00000192   7F48               LDR      R0,??Button_3+0x10  ;; 0xfffff430
   \   00000194   8021               MOVS     R1,#+128
   \   00000196   0906               LSLS     R1,R1,#+24       ;; #-2147483648
   \   00000198   0160               STR      R1,[R0, #+0]
   2911                    ButtonBipCounter=g_counter+8;
   \   0000019A   7E4A               LDR      R2,??Button_3+0x14  ;; ButtonBipCounter
   \   0000019C   7E48               LDR      R0,??Button_3+0x18  ;; g_counter
   \   0000019E   03C8               LDM      R0!,{R0,R1}
   \   000001A0   0023               MOVS     R3,#+0
   \   000001A2   0830               ADDS     R0,R0,#+8
   \   000001A4   5941               ADCS     R1,R1,R3
   \   000001A6   03C2               STM      R2!,{R0,R1}
   \   000001A8   083A               SUBS     R2,R2,#+8
   2912                  } 
   2913                  ButtonDown=1;
   \                     ??Button_5:
   \   000001AA   7748               LDR      R0,??Button_3+0x8  ;; ??ButtonDown
   \   000001AC   0121               MOVS     R1,#+1
   \   000001AE   0170               STRB     R1,[R0, #+0]
   \   000001B0   DAE0               B        ??Button_6
   2914              }
   2915              else 
   2916              {
   2917                  
   2918                
   2919                 
   2920                  H_line(poz_X+2,poz_Y+1,width-4,0); // (char X, int Y, char lenght, char typ) 
   \                     ??Button_4:
   \   000001B2   0023               MOVS     R3,#+0
   \   000001B4   6846               MOV      R0,SP
   \   000001B6   007A               LDRB     R0,[R0, #+8]
   \   000001B8   021F               SUBS     R2,R0,#+4
   \   000001BA   1206               LSLS     R2,R2,#+24       ;; ZeroExtS R2,R2,#+24,#+24
   \   000001BC   120E               LSRS     R2,R2,#+24
   \   000001BE   2D06               LSLS     R5,R5,#+24       ;; ZeroExtS R5,R5,#+24,#+24
   \   000001C0   2D0E               LSRS     R5,R5,#+24
   \   000001C2   2900               MOVS     R1,R5
   \   000001C4   491C               ADDS     R1,R1,#+1
   \   000001C6   2000               MOVS     R0,R4
   \   000001C8   801C               ADDS     R0,R0,#+2
   \   000001CA   0006               LSLS     R0,R0,#+24       ;; ZeroExtS R0,R0,#+24,#+24
   \   000001CC   000E               LSRS     R0,R0,#+24
   \   000001CE   ........           BL       H_line
   2921                  H_line(poz_X+2,poz_Y+height-2,width-4,0); // (char X, int Y, char lenght, char typ) 
   \   000001D2   0023               MOVS     R3,#+0
   \   000001D4   6846               MOV      R0,SP
   \   000001D6   007A               LDRB     R0,[R0, #+8]
   \   000001D8   021F               SUBS     R2,R0,#+4
   \   000001DA   1206               LSLS     R2,R2,#+24       ;; ZeroExtS R2,R2,#+24,#+24
   \   000001DC   120E               LSRS     R2,R2,#+24
   \   000001DE   2D06               LSLS     R5,R5,#+24       ;; ZeroExtS R5,R5,#+24,#+24
   \   000001E0   2D0E               LSRS     R5,R5,#+24
   \   000001E2   3606               LSLS     R6,R6,#+24       ;; ZeroExtS R6,R6,#+24,#+24
   \   000001E4   360E               LSRS     R6,R6,#+24
   \   000001E6   A919               ADDS     R1,R5,R6
   \   000001E8   891E               SUBS     R1,R1,#+2
   \   000001EA   2000               MOVS     R0,R4
   \   000001EC   801C               ADDS     R0,R0,#+2
   \   000001EE   0006               LSLS     R0,R0,#+24       ;; ZeroExtS R0,R0,#+24,#+24
   \   000001F0   000E               LSRS     R0,R0,#+24
   \   000001F2   ........           BL       H_line
   2922                  V_line(poz_X+1,poz_Y+2,height-4,0); // (char X, int Y, char lenght, char typ) 
   \   000001F6   0023               MOVS     R3,#+0
   \   000001F8   321F               SUBS     R2,R6,#+4
   \   000001FA   1206               LSLS     R2,R2,#+24       ;; ZeroExtS R2,R2,#+24,#+24
   \   000001FC   120E               LSRS     R2,R2,#+24
   \   000001FE   2D06               LSLS     R5,R5,#+24       ;; ZeroExtS R5,R5,#+24,#+24
   \   00000200   2D0E               LSRS     R5,R5,#+24
   \   00000202   2900               MOVS     R1,R5
   \   00000204   891C               ADDS     R1,R1,#+2
   \   00000206   2000               MOVS     R0,R4
   \   00000208   401C               ADDS     R0,R0,#+1
   \   0000020A   0006               LSLS     R0,R0,#+24       ;; ZeroExtS R0,R0,#+24,#+24
   \   0000020C   000E               LSRS     R0,R0,#+24
   \   0000020E   ........           BL       V_line
   2923                  V_line(poz_X+width-2,poz_Y+2,height-4,0); // (char X, int Y, char lenght, char typ)   
   \   00000212   0023               MOVS     R3,#+0
   \   00000214   321F               SUBS     R2,R6,#+4
   \   00000216   1206               LSLS     R2,R2,#+24       ;; ZeroExtS R2,R2,#+24,#+24
   \   00000218   120E               LSRS     R2,R2,#+24
   \   0000021A   2D06               LSLS     R5,R5,#+24       ;; ZeroExtS R5,R5,#+24,#+24
   \   0000021C   2D0E               LSRS     R5,R5,#+24
   \   0000021E   2900               MOVS     R1,R5
   \   00000220   891C               ADDS     R1,R1,#+2
   \   00000222   6846               MOV      R0,SP
   \   00000224   007A               LDRB     R0,[R0, #+8]
   \   00000226   2018               ADDS     R0,R4,R0
   \   00000228   801E               SUBS     R0,R0,#+2
   \   0000022A   0006               LSLS     R0,R0,#+24       ;; ZeroExtS R0,R0,#+24,#+24
   \   0000022C   000E               LSRS     R0,R0,#+24
   \   0000022E   ........           BL       V_line
   2924                 
   2925                  H_line(poz_X+1,poz_Y,width-2,1); // (char X, int Y, char lenght, char typ) 
   \   00000232   0123               MOVS     R3,#+1
   \   00000234   6846               MOV      R0,SP
   \   00000236   007A               LDRB     R0,[R0, #+8]
   \   00000238   821E               SUBS     R2,R0,#+2
   \   0000023A   1206               LSLS     R2,R2,#+24       ;; ZeroExtS R2,R2,#+24,#+24
   \   0000023C   120E               LSRS     R2,R2,#+24
   \   0000023E   2D06               LSLS     R5,R5,#+24       ;; ZeroExtS R5,R5,#+24,#+24
   \   00000240   2D0E               LSRS     R5,R5,#+24
   \   00000242   2900               MOVS     R1,R5
   \   00000244   2000               MOVS     R0,R4
   \   00000246   401C               ADDS     R0,R0,#+1
   \   00000248   0006               LSLS     R0,R0,#+24       ;; ZeroExtS R0,R0,#+24,#+24
   \   0000024A   000E               LSRS     R0,R0,#+24
   \   0000024C   ........           BL       H_line
   2926                  H_line(poz_X+1,poz_Y+height-1,width-2,1); // (char X, int Y, char lenght, char typ) 
   \   00000250   0123               MOVS     R3,#+1
   \   00000252   6846               MOV      R0,SP
   \   00000254   007A               LDRB     R0,[R0, #+8]
   \   00000256   821E               SUBS     R2,R0,#+2
   \   00000258   1206               LSLS     R2,R2,#+24       ;; ZeroExtS R2,R2,#+24,#+24
   \   0000025A   120E               LSRS     R2,R2,#+24
   \   0000025C   2D06               LSLS     R5,R5,#+24       ;; ZeroExtS R5,R5,#+24,#+24
   \   0000025E   2D0E               LSRS     R5,R5,#+24
   \   00000260   3606               LSLS     R6,R6,#+24       ;; ZeroExtS R6,R6,#+24,#+24
   \   00000262   360E               LSRS     R6,R6,#+24
   \   00000264   A919               ADDS     R1,R5,R6
   \   00000266   491E               SUBS     R1,R1,#+1
   \   00000268   2000               MOVS     R0,R4
   \   0000026A   401C               ADDS     R0,R0,#+1
   \   0000026C   0006               LSLS     R0,R0,#+24       ;; ZeroExtS R0,R0,#+24,#+24
   \   0000026E   000E               LSRS     R0,R0,#+24
   \   00000270   ........           BL       H_line
   2927                  V_line(poz_X,poz_Y+1,height-2,1); // (char X, int Y, char lenght, char typ) 
   \   00000274   0123               MOVS     R3,#+1
   \   00000276   B21E               SUBS     R2,R6,#+2
   \   00000278   1206               LSLS     R2,R2,#+24       ;; ZeroExtS R2,R2,#+24,#+24
   \   0000027A   120E               LSRS     R2,R2,#+24
   \   0000027C   2D06               LSLS     R5,R5,#+24       ;; ZeroExtS R5,R5,#+24,#+24
   \   0000027E   2D0E               LSRS     R5,R5,#+24
   \   00000280   2900               MOVS     R1,R5
   \   00000282   491C               ADDS     R1,R1,#+1
   \   00000284   2000               MOVS     R0,R4
   \   00000286   0006               LSLS     R0,R0,#+24       ;; ZeroExtS R0,R0,#+24,#+24
   \   00000288   000E               LSRS     R0,R0,#+24
   \   0000028A   ........           BL       V_line
   2928                  V_line(poz_X+width-1,poz_Y+1,height-2,1); // (char X, int Y, char lenght, char typ) 
   \   0000028E   0123               MOVS     R3,#+1
   \   00000290   B21E               SUBS     R2,R6,#+2
   \   00000292   1206               LSLS     R2,R2,#+24       ;; ZeroExtS R2,R2,#+24,#+24
   \   00000294   120E               LSRS     R2,R2,#+24
   \   00000296   2D06               LSLS     R5,R5,#+24       ;; ZeroExtS R5,R5,#+24,#+24
   \   00000298   2D0E               LSRS     R5,R5,#+24
   \   0000029A   2900               MOVS     R1,R5
   \   0000029C   491C               ADDS     R1,R1,#+1
   \   0000029E   6846               MOV      R0,SP
   \   000002A0   007A               LDRB     R0,[R0, #+8]
   \   000002A2   2018               ADDS     R0,R4,R0
   \   000002A4   401E               SUBS     R0,R0,#+1
   \   000002A6   0006               LSLS     R0,R0,#+24       ;; ZeroExtS R0,R0,#+24,#+24
   \   000002A8   000E               LSRS     R0,R0,#+24
   \   000002AA   ........           BL       V_line
   2929              
   2930                  CanvasPixel(poz_X+1, poz_Y+1,1);   //(char X, char Y, char Colour)
   \   000002AE   0122               MOVS     R2,#+1
   \   000002B0   2900               MOVS     R1,R5
   \   000002B2   491C               ADDS     R1,R1,#+1
   \   000002B4   0906               LSLS     R1,R1,#+24       ;; ZeroExtS R1,R1,#+24,#+24
   \   000002B6   090E               LSRS     R1,R1,#+24
   \   000002B8   2000               MOVS     R0,R4
   \   000002BA   401C               ADDS     R0,R0,#+1
   \   000002BC   0006               LSLS     R0,R0,#+24       ;; ZeroExtS R0,R0,#+24,#+24
   \   000002BE   000E               LSRS     R0,R0,#+24
   \   000002C0   ........           BL       CanvasPixel
   2931                  CanvasPixel(poz_X+width-2, poz_Y+1,1);   //(char X, char Y, char Colour)
   \   000002C4   0122               MOVS     R2,#+1
   \   000002C6   2900               MOVS     R1,R5
   \   000002C8   491C               ADDS     R1,R1,#+1
   \   000002CA   0906               LSLS     R1,R1,#+24       ;; ZeroExtS R1,R1,#+24,#+24
   \   000002CC   090E               LSRS     R1,R1,#+24
   \   000002CE   6846               MOV      R0,SP
   \   000002D0   007A               LDRB     R0,[R0, #+8]
   \   000002D2   2018               ADDS     R0,R4,R0
   \   000002D4   801E               SUBS     R0,R0,#+2
   \   000002D6   0006               LSLS     R0,R0,#+24       ;; ZeroExtS R0,R0,#+24,#+24
   \   000002D8   000E               LSRS     R0,R0,#+24
   \   000002DA   ........           BL       CanvasPixel
   2932                  CanvasPixel(poz_X+1, poz_Y+height-2,1);   //(char X, char Y, char Colour)
   \   000002DE   0122               MOVS     R2,#+1
   \   000002E0   A819               ADDS     R0,R5,R6
   \   000002E2   811E               SUBS     R1,R0,#+2
   \   000002E4   0906               LSLS     R1,R1,#+24       ;; ZeroExtS R1,R1,#+24,#+24
   \   000002E6   090E               LSRS     R1,R1,#+24
   \   000002E8   2000               MOVS     R0,R4
   \   000002EA   401C               ADDS     R0,R0,#+1
   \   000002EC   0006               LSLS     R0,R0,#+24       ;; ZeroExtS R0,R0,#+24,#+24
   \   000002EE   000E               LSRS     R0,R0,#+24
   \   000002F0   ........           BL       CanvasPixel
   2933                  CanvasPixel(poz_X+width-2, poz_Y+height-2 ,1);   //(char X, char Y, char Colour)
   \   000002F4   0122               MOVS     R2,#+1
   \   000002F6   A819               ADDS     R0,R5,R6
   \   000002F8   811E               SUBS     R1,R0,#+2
   \   000002FA   0906               LSLS     R1,R1,#+24       ;; ZeroExtS R1,R1,#+24,#+24
   \   000002FC   090E               LSRS     R1,R1,#+24
   \   000002FE   6846               MOV      R0,SP
   \   00000300   007A               LDRB     R0,[R0, #+8]
   \   00000302   2018               ADDS     R0,R4,R0
   \   00000304   801E               SUBS     R0,R0,#+2
   \   00000306   0006               LSLS     R0,R0,#+24       ;; ZeroExtS R0,R0,#+24,#+24
   \   00000308   000E               LSRS     R0,R0,#+24
   \   0000030A   ........           BL       CanvasPixel
   2934                  
   2935                  
   2936                  if ( (X_up>poz_X) && (X_up<poz_X+width) && (Y_up>poz_Y+2) && (Y_up<poz_Y+height))
   \   0000030E   2000               MOVS     R0,R4
   \   00000310   0006               LSLS     R0,R0,#+24       ;; ZeroExtS R0,R0,#+24,#+24
   \   00000312   000E               LSRS     R0,R0,#+24
   \   00000314   2149               LDR      R1,??Button_3+0x1C  ;; X_up
   \   00000316   0022               MOVS     R2,#+0
   \   00000318   895E               LDRSH    R1,[R1, R2]
   \   0000031A   0004               LSLS     R0,R0,#+16       ;; SignExtS R0,R0,#+16,#+16
   \   0000031C   0014               ASRS     R0,R0,#+16
   \   0000031E   8842               CMP      R0,R1
   \   00000320   22DA               BGE      ??Button_6
   \   00000322   1E48               LDR      R0,??Button_3+0x1C  ;; X_up
   \   00000324   0021               MOVS     R1,#+0
   \   00000326   405E               LDRSH    R0,[R0, R1]
   \   00000328   2406               LSLS     R4,R4,#+24       ;; ZeroExtS R4,R4,#+24,#+24
   \   0000032A   240E               LSRS     R4,R4,#+24
   \   0000032C   6946               MOV      R1,SP
   \   0000032E   097A               LDRB     R1,[R1, #+8]
   \   00000330   6118               ADDS     R1,R4,R1
   \   00000332   8842               CMP      R0,R1
   \   00000334   18DA               BGE      ??Button_6
   \   00000336   2D06               LSLS     R5,R5,#+24       ;; ZeroExtS R5,R5,#+24,#+24
   \   00000338   2D0E               LSRS     R5,R5,#+24
   \   0000033A   2800               MOVS     R0,R5
   \   0000033C   801C               ADDS     R0,R0,#+2
   \   0000033E   1849               LDR      R1,??Button_3+0x20  ;; Y_up
   \   00000340   0022               MOVS     R2,#+0
   \   00000342   895E               LDRSH    R1,[R1, R2]
   \   00000344   8842               CMP      R0,R1
   \   00000346   0FDA               BGE      ??Button_6
   \   00000348   1548               LDR      R0,??Button_3+0x20  ;; Y_up
   \   0000034A   0021               MOVS     R1,#+0
   \   0000034C   405E               LDRSH    R0,[R0, R1]
   \   0000034E   2D06               LSLS     R5,R5,#+24       ;; ZeroExtS R5,R5,#+24,#+24
   \   00000350   2D0E               LSRS     R5,R5,#+24
   \   00000352   3606               LSLS     R6,R6,#+24       ;; ZeroExtS R6,R6,#+24,#+24
   \   00000354   360E               LSRS     R6,R6,#+24
   \   00000356   A919               ADDS     R1,R5,R6
   \   00000358   8842               CMP      R0,R1
   \   0000035A   05DA               BGE      ??Button_6
   2937                  {    
   2938                    odp =1;
   \   0000035C   6846               MOV      R0,SP
   \   0000035E   0121               MOVS     R1,#+1
   \   00000360   0170               STRB     R1,[R0, #+0]
   2939                    ButtonDown=0;
   \   00000362   0948               LDR      R0,??Button_3+0x8  ;; ??ButtonDown
   \   00000364   0021               MOVS     R1,#+0
   \   00000366   0170               STRB     R1,[R0, #+0]
   2940                  } 
   2941                    
   2942                    
   2943              }
   2944              
   2945          
   2946                 
   2947                ButtonEventTime=g_counter;
   \                     ??Button_6:
   \   00000368   0E4A               LDR      R2,??Button_3+0x24  ;; ButtonEventTime
   \   0000036A   0B48               LDR      R0,??Button_3+0x18  ;; g_counter
   \   0000036C   03C8               LDM      R0!,{R0,R1}
   \   0000036E   03C2               STM      R2!,{R0,R1}
   \   00000370   083A               SUBS     R2,R2,#+8
   2948              
   2949              return odp;
   \   00000372   6846               MOV      R0,SP
   \   00000374   0078               LDRB     R0,[R0, #+0]
   \   00000376   03B0               ADD      SP,SP,#+12
   \   00000378   F0BC               POP      {R4-R7}
   \   0000037A   02BC               POP      {R1}
   \   0000037C   0847               BX       R1               ;; return
   \   0000037E   C046               Nop      
   \                     ??Button_3:
   \   00000380   ........           DC32     X_down
   \   00000384   ........           DC32     Y_down
   \   00000388   ........           DC32     ??ButtonDown
   \   0000038C   E9D71300           DC32     0x13d7e9
   \   00000390   30F4FFFF           DC32     0xfffff430
   \   00000394   ........           DC32     ButtonBipCounter
   \   00000398   ........           DC32     g_counter
   \   0000039C   ........           DC32     X_up
   \   000003A0   ........           DC32     Y_up
   \   000003A4   ........           DC32     ButtonEventTime
   2950              
   2951          }

   \                                 In section .bss, align 1
   \                     ??ButtonDown:
   \   00000000                      DS8 1
   2952          
   2953          
   2954          
   2955          
   2956          
   2957          
   2958          //*-----------------------------------------------------------------------------
   2959          //* Nazwa funkcji :    Zone
   2960          //* Uniwersalna funkcja przycisku strefy (przycisk bia³y)
   2961          //*-----------------------------------------------------------------------------
   2962          //*  Label        - etykieta
   2963          //*  poz_X   - pozycja lewy róg
   2964          //*  poz_Y   - pozycja dolny róg
   2965          //*  width -   szerokoœæ
   2966          //*  height -  wysokoœæ
   2967          //*  LineType- typ lini 0-bia³a 1=ci¹gla, 2=kropkowana, 3=kreskowana
   2968          //*-----------------------------------------------------------------------------

   \                                 In section Debug.txt, align 4, keep-with-next
   2969          char Zone (char _Label[15], char poz_X , char poz_Y ,char width, char height, char LineType) 
   2970          { 
   \                     Zone:
   \   00000000   F1B5               PUSH     {R0,R4-R7,LR}
   \   00000002   82B0               SUB      SP,SP,#+8
   \   00000004   0C00               MOVS     R4,R1
   \   00000006   1500               MOVS     R5,R2
   \   00000008   1E00               MOVS     R6,R3
   \   0000000A   08A8               ADD      R0,SP,#+32
   \   0000000C   0778               LDRB     R7,[R0, #+0]
   2971              char odp =0;
   \   0000000E   6846               MOV      R0,SP
   \   00000010   0021               MOVS     R1,#+0
   \   00000012   0170               STRB     R1,[R0, #+0]
   2972              char tmpI=0;
   \   00000014   0022               MOVS     R2,#+0
   2973              char tmpF=0;
   \   00000016   0020               MOVS     R0,#+0
   \   00000018   00E0               B        ??Zone_0
   2974              while ((tmpI<=15) && (tmpF==0))
   2975              {
   2976                if (_Label[tmpI]==0)
   2977                {
   2978                  tmpF=1;
   \                     ??Zone_1:
   \   0000001A   0120               MOVS     R0,#+1
   2979                }else{
   \                     ??Zone_0:
   \   0000001C   1206               LSLS     R2,R2,#+24       ;; ZeroExtS R2,R2,#+24,#+24
   \   0000001E   120E               LSRS     R2,R2,#+24
   \   00000020   102A               CMP      R2,#+16
   \   00000022   0BD2               BCS      ??Zone_2
   \   00000024   0006               LSLS     R0,R0,#+24       ;; ZeroExtS R0,R0,#+24,#+24
   \   00000026   000E               LSRS     R0,R0,#+24
   \   00000028   0028               CMP      R0,#+0
   \   0000002A   07D1               BNE      ??Zone_2
   \   0000002C   1206               LSLS     R2,R2,#+24       ;; ZeroExtS R2,R2,#+24,#+24
   \   0000002E   120E               LSRS     R2,R2,#+24
   \   00000030   0299               LDR      R1,[SP, #+8]
   \   00000032   895C               LDRB     R1,[R1, R2]
   \   00000034   0029               CMP      R1,#+0
   \   00000036   F0D0               BEQ      ??Zone_1
   2980                  tmpI++;
   \   00000038   521C               ADDS     R2,R2,#+1
   \   0000003A   EFE7               B        ??Zone_0
   2981                }
   2982              }
   2983              
   2984              //CleanCanvasArea(poz_X+2, poz_Y+2, width-4, height-4,0);  //(char X, char Y, char X_Lenght, char Y_Lenght, char Type);   
   2985              if (_Label!=0) Label(_Label,2,poz_X+3,poz_Y+(height/2)-4,tmpI,width-7,1,127,0);  //(char *Vstring, char alig, char X, int Y, char maxChar, char clean, char minY, char maxY, negatyw) 
   \                     ??Zone_2:
   \   0000003C   0298               LDR      R0,[SP, #+8]
   \   0000003E   0028               CMP      R0,#+0
   \   00000040   1FD0               BEQ      ??Zone_3
   \   00000042   82B0               SUB      SP,SP,#+8
   \   00000044   0020               MOVS     R0,#+0
   \   00000046   0090               STR      R0,[SP, #+0]
   \   00000048   7F21               MOVS     R1,#+127
   \   0000004A   0120               MOVS     R0,#+1
   \   0000004C   03B4               PUSH     {R0,R1}
   \   0000004E   F11F               SUBS     R1,R6,#+7
   \   00000050   1000               MOVS     R0,R2
   \   00000052   0006               LSLS     R0,R0,#+24       ;; ZeroExtS R0,R0,#+24,#+24
   \   00000054   000E               LSRS     R0,R0,#+24
   \   00000056   0906               LSLS     R1,R1,#+24       ;; ZeroExtS R1,R1,#+24,#+24
   \   00000058   090E               LSRS     R1,R1,#+24
   \   0000005A   03B4               PUSH     {R0,R1}
   \   0000005C   2D06               LSLS     R5,R5,#+24       ;; ZeroExtS R5,R5,#+24,#+24
   \   0000005E   2D0E               LSRS     R5,R5,#+24
   \   00000060   3F06               LSLS     R7,R7,#+24       ;; ZeroExtS R7,R7,#+24,#+24
   \   00000062   3F0E               LSRS     R7,R7,#+24
   \   00000064   3800               MOVS     R0,R7
   \   00000066   0221               MOVS     R1,#+2
   \   00000068   ........           BL       __aeabi_idivmod
   \   0000006C   2B18               ADDS     R3,R5,R0
   \   0000006E   1B1F               SUBS     R3,R3,#+4
   \   00000070   2200               MOVS     R2,R4
   \   00000072   D21C               ADDS     R2,R2,#+3
   \   00000074   1206               LSLS     R2,R2,#+24       ;; ZeroExtS R2,R2,#+24,#+24
   \   00000076   120E               LSRS     R2,R2,#+24
   \   00000078   0221               MOVS     R1,#+2
   \   0000007A   0898               LDR      R0,[SP, #+32]
   \   0000007C   ........           BL       Label
   \   00000080   06B0               ADD      SP,SP,#+24
   2986           
   2987          
   2988          
   2989              if ( (X_down>poz_X) && (X_down<poz_X+width) && (Y_down>poz_Y+2) && (Y_down<poz_Y+height))
   \                     ??Zone_3:
   \   00000082   2000               MOVS     R0,R4
   \   00000084   0006               LSLS     R0,R0,#+24       ;; ZeroExtS R0,R0,#+24,#+24
   \   00000086   000E               LSRS     R0,R0,#+24
   \   00000088   6949               LDR      R1,??Zone_4      ;; X_down
   \   0000008A   0022               MOVS     R2,#+0
   \   0000008C   895E               LDRSH    R1,[R1, R2]
   \   0000008E   0004               LSLS     R0,R0,#+16       ;; SignExtS R0,R0,#+16,#+16
   \   00000090   0014               ASRS     R0,R0,#+16
   \   00000092   8842               CMP      R0,R1
   \   00000094   5ADA               BGE      ??Zone_5
   \   00000096   6648               LDR      R0,??Zone_4      ;; X_down
   \   00000098   0021               MOVS     R1,#+0
   \   0000009A   405E               LDRSH    R0,[R0, R1]
   \   0000009C   2406               LSLS     R4,R4,#+24       ;; ZeroExtS R4,R4,#+24,#+24
   \   0000009E   240E               LSRS     R4,R4,#+24
   \   000000A0   3606               LSLS     R6,R6,#+24       ;; ZeroExtS R6,R6,#+24,#+24
   \   000000A2   360E               LSRS     R6,R6,#+24
   \   000000A4   A119               ADDS     R1,R4,R6
   \   000000A6   8842               CMP      R0,R1
   \   000000A8   50DA               BGE      ??Zone_5
   \   000000AA   2D06               LSLS     R5,R5,#+24       ;; ZeroExtS R5,R5,#+24,#+24
   \   000000AC   2D0E               LSRS     R5,R5,#+24
   \   000000AE   2800               MOVS     R0,R5
   \   000000B0   801C               ADDS     R0,R0,#+2
   \   000000B2   6049               LDR      R1,??Zone_4+0x4  ;; Y_down
   \   000000B4   0022               MOVS     R2,#+0
   \   000000B6   895E               LDRSH    R1,[R1, R2]
   \   000000B8   8842               CMP      R0,R1
   \   000000BA   47DA               BGE      ??Zone_5
   \   000000BC   5D48               LDR      R0,??Zone_4+0x4  ;; Y_down
   \   000000BE   0021               MOVS     R1,#+0
   \   000000C0   405E               LDRSH    R0,[R0, R1]
   \   000000C2   2D06               LSLS     R5,R5,#+24       ;; ZeroExtS R5,R5,#+24,#+24
   \   000000C4   2D0E               LSRS     R5,R5,#+24
   \   000000C6   3F06               LSLS     R7,R7,#+24       ;; ZeroExtS R7,R7,#+24,#+24
   \   000000C8   3F0E               LSRS     R7,R7,#+24
   \   000000CA   E919               ADDS     R1,R5,R7
   \   000000CC   8842               CMP      R0,R1
   \   000000CE   3DDA               BGE      ??Zone_5
   2990              {    
   2991                  H_line(poz_X+2,poz_Y+1,width-4,1); // (char X, int Y, char lenght, char typ) 
   \   000000D0   0123               MOVS     R3,#+1
   \   000000D2   321F               SUBS     R2,R6,#+4
   \   000000D4   1206               LSLS     R2,R2,#+24       ;; ZeroExtS R2,R2,#+24,#+24
   \   000000D6   120E               LSRS     R2,R2,#+24
   \   000000D8   2D06               LSLS     R5,R5,#+24       ;; ZeroExtS R5,R5,#+24,#+24
   \   000000DA   2D0E               LSRS     R5,R5,#+24
   \   000000DC   2900               MOVS     R1,R5
   \   000000DE   491C               ADDS     R1,R1,#+1
   \   000000E0   2000               MOVS     R0,R4
   \   000000E2   801C               ADDS     R0,R0,#+2
   \   000000E4   0006               LSLS     R0,R0,#+24       ;; ZeroExtS R0,R0,#+24,#+24
   \   000000E6   000E               LSRS     R0,R0,#+24
   \   000000E8   ........           BL       H_line
   2992                  H_line(poz_X+2,poz_Y+height-2,width-4,1); // (char X, int Y, char lenght, char typ) 
   \   000000EC   0123               MOVS     R3,#+1
   \   000000EE   321F               SUBS     R2,R6,#+4
   \   000000F0   1206               LSLS     R2,R2,#+24       ;; ZeroExtS R2,R2,#+24,#+24
   \   000000F2   120E               LSRS     R2,R2,#+24
   \   000000F4   2D06               LSLS     R5,R5,#+24       ;; ZeroExtS R5,R5,#+24,#+24
   \   000000F6   2D0E               LSRS     R5,R5,#+24
   \   000000F8   3F06               LSLS     R7,R7,#+24       ;; ZeroExtS R7,R7,#+24,#+24
   \   000000FA   3F0E               LSRS     R7,R7,#+24
   \   000000FC   E919               ADDS     R1,R5,R7
   \   000000FE   891E               SUBS     R1,R1,#+2
   \   00000100   2000               MOVS     R0,R4
   \   00000102   801C               ADDS     R0,R0,#+2
   \   00000104   0006               LSLS     R0,R0,#+24       ;; ZeroExtS R0,R0,#+24,#+24
   \   00000106   000E               LSRS     R0,R0,#+24
   \   00000108   ........           BL       H_line
   2993                  V_line(poz_X+1,poz_Y+2,height-4,1); // (char X, int Y, char lenght, char typ) 
   \   0000010C   0123               MOVS     R3,#+1
   \   0000010E   3A1F               SUBS     R2,R7,#+4
   \   00000110   1206               LSLS     R2,R2,#+24       ;; ZeroExtS R2,R2,#+24,#+24
   \   00000112   120E               LSRS     R2,R2,#+24
   \   00000114   2D06               LSLS     R5,R5,#+24       ;; ZeroExtS R5,R5,#+24,#+24
   \   00000116   2D0E               LSRS     R5,R5,#+24
   \   00000118   2900               MOVS     R1,R5
   \   0000011A   891C               ADDS     R1,R1,#+2
   \   0000011C   2000               MOVS     R0,R4
   \   0000011E   401C               ADDS     R0,R0,#+1
   \   00000120   0006               LSLS     R0,R0,#+24       ;; ZeroExtS R0,R0,#+24,#+24
   \   00000122   000E               LSRS     R0,R0,#+24
   \   00000124   ........           BL       V_line
   2994                  V_line(poz_X+width-2,poz_Y+2,height-4,1); // (char X, int Y, char lenght, char typ) 
   \   00000128   0123               MOVS     R3,#+1
   \   0000012A   3A1F               SUBS     R2,R7,#+4
   \   0000012C   1206               LSLS     R2,R2,#+24       ;; ZeroExtS R2,R2,#+24,#+24
   \   0000012E   120E               LSRS     R2,R2,#+24
   \   00000130   2D06               LSLS     R5,R5,#+24       ;; ZeroExtS R5,R5,#+24,#+24
   \   00000132   2D0E               LSRS     R5,R5,#+24
   \   00000134   AD1C               ADDS     R5,R5,#+2
   \   00000136   2900               MOVS     R1,R5
   \   00000138   A019               ADDS     R0,R4,R6
   \   0000013A   801E               SUBS     R0,R0,#+2
   \   0000013C   0006               LSLS     R0,R0,#+24       ;; ZeroExtS R0,R0,#+24,#+24
   \   0000013E   000E               LSRS     R0,R0,#+24
   \   00000140   ........           BL       V_line
   2995                  odp=2;
   \   00000144   6846               MOV      R0,SP
   \   00000146   0221               MOVS     R1,#+2
   \   00000148   0170               STRB     R1,[R0, #+0]
   \   0000014A   65E0               B        ??Zone_6
   2996              }
   2997              else 
   2998              {
   2999                  
   3000              
   3001                  H_line(poz_X+1,poz_Y,width-2,LineType); // (char X, int Y, char lenght, char typ) 
   \                     ??Zone_5:
   \   0000014C   09A8               ADD      R0,SP,#+36
   \   0000014E   0378               LDRB     R3,[R0, #+0]
   \   00000150   B21E               SUBS     R2,R6,#+2
   \   00000152   1206               LSLS     R2,R2,#+24       ;; ZeroExtS R2,R2,#+24,#+24
   \   00000154   120E               LSRS     R2,R2,#+24
   \   00000156   2D06               LSLS     R5,R5,#+24       ;; ZeroExtS R5,R5,#+24,#+24
   \   00000158   2D0E               LSRS     R5,R5,#+24
   \   0000015A   2900               MOVS     R1,R5
   \   0000015C   2000               MOVS     R0,R4
   \   0000015E   401C               ADDS     R0,R0,#+1
   \   00000160   0006               LSLS     R0,R0,#+24       ;; ZeroExtS R0,R0,#+24,#+24
   \   00000162   000E               LSRS     R0,R0,#+24
   \   00000164   ........           BL       H_line
   3002                  H_line(poz_X+1,poz_Y+height-1,width-2,LineType); // (char X, int Y, char lenght, char typ) 
   \   00000168   09A8               ADD      R0,SP,#+36
   \   0000016A   0378               LDRB     R3,[R0, #+0]
   \   0000016C   B21E               SUBS     R2,R6,#+2
   \   0000016E   1206               LSLS     R2,R2,#+24       ;; ZeroExtS R2,R2,#+24,#+24
   \   00000170   120E               LSRS     R2,R2,#+24
   \   00000172   2D06               LSLS     R5,R5,#+24       ;; ZeroExtS R5,R5,#+24,#+24
   \   00000174   2D0E               LSRS     R5,R5,#+24
   \   00000176   3F06               LSLS     R7,R7,#+24       ;; ZeroExtS R7,R7,#+24,#+24
   \   00000178   3F0E               LSRS     R7,R7,#+24
   \   0000017A   E919               ADDS     R1,R5,R7
   \   0000017C   491E               SUBS     R1,R1,#+1
   \   0000017E   2000               MOVS     R0,R4
   \   00000180   401C               ADDS     R0,R0,#+1
   \   00000182   0006               LSLS     R0,R0,#+24       ;; ZeroExtS R0,R0,#+24,#+24
   \   00000184   000E               LSRS     R0,R0,#+24
   \   00000186   ........           BL       H_line
   3003                  V_line(poz_X,poz_Y+1,height-2,LineType); // (char X, int Y, char lenght, char typ) 
   \   0000018A   09A8               ADD      R0,SP,#+36
   \   0000018C   0378               LDRB     R3,[R0, #+0]
   \   0000018E   BA1E               SUBS     R2,R7,#+2
   \   00000190   1206               LSLS     R2,R2,#+24       ;; ZeroExtS R2,R2,#+24,#+24
   \   00000192   120E               LSRS     R2,R2,#+24
   \   00000194   2D06               LSLS     R5,R5,#+24       ;; ZeroExtS R5,R5,#+24,#+24
   \   00000196   2D0E               LSRS     R5,R5,#+24
   \   00000198   2900               MOVS     R1,R5
   \   0000019A   491C               ADDS     R1,R1,#+1
   \   0000019C   2000               MOVS     R0,R4
   \   0000019E   0006               LSLS     R0,R0,#+24       ;; ZeroExtS R0,R0,#+24,#+24
   \   000001A0   000E               LSRS     R0,R0,#+24
   \   000001A2   ........           BL       V_line
   3004                  V_line(poz_X+width-1,poz_Y+1,height-2,LineType); // (char X, int Y, char lenght, char typ) 
   \   000001A6   09A8               ADD      R0,SP,#+36
   \   000001A8   0378               LDRB     R3,[R0, #+0]
   \   000001AA   BA1E               SUBS     R2,R7,#+2
   \   000001AC   1206               LSLS     R2,R2,#+24       ;; ZeroExtS R2,R2,#+24,#+24
   \   000001AE   120E               LSRS     R2,R2,#+24
   \   000001B0   2D06               LSLS     R5,R5,#+24       ;; ZeroExtS R5,R5,#+24,#+24
   \   000001B2   2D0E               LSRS     R5,R5,#+24
   \   000001B4   2900               MOVS     R1,R5
   \   000001B6   491C               ADDS     R1,R1,#+1
   \   000001B8   A019               ADDS     R0,R4,R6
   \   000001BA   401E               SUBS     R0,R0,#+1
   \   000001BC   0006               LSLS     R0,R0,#+24       ;; ZeroExtS R0,R0,#+24,#+24
   \   000001BE   000E               LSRS     R0,R0,#+24
   \   000001C0   ........           BL       V_line
   3005              
   3006          
   3007                  
   3008                  if ( (X_up>poz_X) && (X_up<poz_X+width) && (Y_up>poz_Y+2) && (Y_up<poz_Y+height))
   \   000001C4   2000               MOVS     R0,R4
   \   000001C6   0006               LSLS     R0,R0,#+24       ;; ZeroExtS R0,R0,#+24,#+24
   \   000001C8   000E               LSRS     R0,R0,#+24
   \   000001CA   1B49               LDR      R1,??Zone_4+0x8  ;; X_up
   \   000001CC   0022               MOVS     R2,#+0
   \   000001CE   895E               LDRSH    R1,[R1, R2]
   \   000001D0   0004               LSLS     R0,R0,#+16       ;; SignExtS R0,R0,#+16,#+16
   \   000001D2   0014               ASRS     R0,R0,#+16
   \   000001D4   8842               CMP      R0,R1
   \   000001D6   1FDA               BGE      ??Zone_6
   \   000001D8   1748               LDR      R0,??Zone_4+0x8  ;; X_up
   \   000001DA   0021               MOVS     R1,#+0
   \   000001DC   405E               LDRSH    R0,[R0, R1]
   \   000001DE   2406               LSLS     R4,R4,#+24       ;; ZeroExtS R4,R4,#+24,#+24
   \   000001E0   240E               LSRS     R4,R4,#+24
   \   000001E2   3606               LSLS     R6,R6,#+24       ;; ZeroExtS R6,R6,#+24,#+24
   \   000001E4   360E               LSRS     R6,R6,#+24
   \   000001E6   A119               ADDS     R1,R4,R6
   \   000001E8   8842               CMP      R0,R1
   \   000001EA   15DA               BGE      ??Zone_6
   \   000001EC   2D06               LSLS     R5,R5,#+24       ;; ZeroExtS R5,R5,#+24,#+24
   \   000001EE   2D0E               LSRS     R5,R5,#+24
   \   000001F0   2800               MOVS     R0,R5
   \   000001F2   801C               ADDS     R0,R0,#+2
   \   000001F4   1149               LDR      R1,??Zone_4+0xC  ;; Y_up
   \   000001F6   0022               MOVS     R2,#+0
   \   000001F8   895E               LDRSH    R1,[R1, R2]
   \   000001FA   8842               CMP      R0,R1
   \   000001FC   0CDA               BGE      ??Zone_6
   \   000001FE   0F48               LDR      R0,??Zone_4+0xC  ;; Y_up
   \   00000200   0021               MOVS     R1,#+0
   \   00000202   405E               LDRSH    R0,[R0, R1]
   \   00000204   2D06               LSLS     R5,R5,#+24       ;; ZeroExtS R5,R5,#+24,#+24
   \   00000206   2D0E               LSRS     R5,R5,#+24
   \   00000208   3F06               LSLS     R7,R7,#+24       ;; ZeroExtS R7,R7,#+24,#+24
   \   0000020A   3F0E               LSRS     R7,R7,#+24
   \   0000020C   E919               ADDS     R1,R5,R7
   \   0000020E   8842               CMP      R0,R1
   \   00000210   02DA               BGE      ??Zone_6
   3009                  {    
   3010                    odp =1;
   \   00000212   6846               MOV      R0,SP
   \   00000214   0121               MOVS     R1,#+1
   \   00000216   0170               STRB     R1,[R0, #+0]
   3011                  }
   3012              }
   3013              
   3014          
   3015                 
   3016                ButtonEventTime=g_counter;
   \                     ??Zone_6:
   \   00000218   094A               LDR      R2,??Zone_4+0x10  ;; ButtonEventTime
   \   0000021A   0A48               LDR      R0,??Zone_4+0x14  ;; g_counter
   \   0000021C   03C8               LDM      R0!,{R0,R1}
   \   0000021E   03C2               STM      R2!,{R0,R1}
   \   00000220   083A               SUBS     R2,R2,#+8
   3017              
   3018              return odp;
   \   00000222   6846               MOV      R0,SP
   \   00000224   0078               LDRB     R0,[R0, #+0]
   \   00000226   03B0               ADD      SP,SP,#+12
   \   00000228   F0BC               POP      {R4-R7}
   \   0000022A   02BC               POP      {R1}
   \   0000022C   0847               BX       R1               ;; return
   \   0000022E   C046               Nop      
   \                     ??Zone_4:
   \   00000230   ........           DC32     X_down
   \   00000234   ........           DC32     Y_down
   \   00000238   ........           DC32     X_up
   \   0000023C   ........           DC32     Y_up
   \   00000240   ........           DC32     ButtonEventTime
   \   00000244   ........           DC32     g_counter
   3019              
   3020          }
   3021          
   3022          
   3023           
   3024          
   3025          
   3026          //*-----------------------------------------------------------------------------
   3027          //* Nazwa funkcji :    List_Paint
   3028          //* Funkcja rysowania listy
   3029          //*-----------------------------------------------------------------------------
   3030          //* X1
   3031          //* Y1
   3032          //* X2
   3033          //* Y2
   3034          //* p - solid
   3035          //*-----------------------------------------------------------------------------
   3036          
   3037          

   \                                 In section Debug.txt, align 4, keep-with-next
   3038          void Rectangle(char X1,char Y1,char Width,char Height,...)
   3039          {
   \                     Rectangle:
   \   00000000   F1B5               PUSH     {R0,R4-R7,LR}
   \   00000002   0700               MOVS     R7,R0
   \   00000004   0C00               MOVS     R4,R1
   \   00000006   1500               MOVS     R5,R2
   \   00000008   1E00               MOVS     R6,R3
   3040            
   3041           va_list parg; 
   3042           va_start( parg, Height);// pocz¹tek pracy ze zmienn¹ list¹ parametrów 
   \   0000000A   06A8               ADD      R0,SP,#+24
   3043           char SO;
                       ^
Warning[Pe550]: variable "SO" was set but never used
   3044           SO = va_arg( parg, char);
   \   0000000C   001D               ADDS     R0,R0,#+4
   \   0000000E   6946               MOV      R1,SP
   \   00000010   001F               SUBS     R0,R0,#+4
   \   00000012   0078               LDRB     R0,[R0, #+0]
   \   00000014   0870               STRB     R0,[R1, #+0]
   3045           va_end(parg); 
   3046            
   3047          
   3048          
   3049             H_line(X1,Y1,Width,1);
   \   00000016   0123               MOVS     R3,#+1
   \   00000018   2A00               MOVS     R2,R5
   \   0000001A   1206               LSLS     R2,R2,#+24       ;; ZeroExtS R2,R2,#+24,#+24
   \   0000001C   120E               LSRS     R2,R2,#+24
   \   0000001E   2406               LSLS     R4,R4,#+24       ;; ZeroExtS R4,R4,#+24,#+24
   \   00000020   240E               LSRS     R4,R4,#+24
   \   00000022   2100               MOVS     R1,R4
   \   00000024   3800               MOVS     R0,R7
   \   00000026   0006               LSLS     R0,R0,#+24       ;; ZeroExtS R0,R0,#+24,#+24
   \   00000028   000E               LSRS     R0,R0,#+24
   \   0000002A   ........           BL       H_line
   3050             H_line(X1,Y1+Height-1,Width,1);
   \   0000002E   0123               MOVS     R3,#+1
   \   00000030   2A00               MOVS     R2,R5
   \   00000032   1206               LSLS     R2,R2,#+24       ;; ZeroExtS R2,R2,#+24,#+24
   \   00000034   120E               LSRS     R2,R2,#+24
   \   00000036   2406               LSLS     R4,R4,#+24       ;; ZeroExtS R4,R4,#+24,#+24
   \   00000038   240E               LSRS     R4,R4,#+24
   \   0000003A   3606               LSLS     R6,R6,#+24       ;; ZeroExtS R6,R6,#+24,#+24
   \   0000003C   360E               LSRS     R6,R6,#+24
   \   0000003E   A119               ADDS     R1,R4,R6
   \   00000040   491E               SUBS     R1,R1,#+1
   \   00000042   3800               MOVS     R0,R7
   \   00000044   0006               LSLS     R0,R0,#+24       ;; ZeroExtS R0,R0,#+24,#+24
   \   00000046   000E               LSRS     R0,R0,#+24
   \   00000048   ........           BL       H_line
   3051             V_line(X1,Y1,Height,1);
   \   0000004C   0123               MOVS     R3,#+1
   \   0000004E   3200               MOVS     R2,R6
   \   00000050   1206               LSLS     R2,R2,#+24       ;; ZeroExtS R2,R2,#+24,#+24
   \   00000052   120E               LSRS     R2,R2,#+24
   \   00000054   2406               LSLS     R4,R4,#+24       ;; ZeroExtS R4,R4,#+24,#+24
   \   00000056   240E               LSRS     R4,R4,#+24
   \   00000058   2100               MOVS     R1,R4
   \   0000005A   3800               MOVS     R0,R7
   \   0000005C   0006               LSLS     R0,R0,#+24       ;; ZeroExtS R0,R0,#+24,#+24
   \   0000005E   000E               LSRS     R0,R0,#+24
   \   00000060   ........           BL       V_line
   3052             V_line(X1+Width-1,Y1,Height,1);
   \   00000064   0123               MOVS     R3,#+1
   \   00000066   3200               MOVS     R2,R6
   \   00000068   1206               LSLS     R2,R2,#+24       ;; ZeroExtS R2,R2,#+24,#+24
   \   0000006A   120E               LSRS     R2,R2,#+24
   \   0000006C   2406               LSLS     R4,R4,#+24       ;; ZeroExtS R4,R4,#+24,#+24
   \   0000006E   240E               LSRS     R4,R4,#+24
   \   00000070   2100               MOVS     R1,R4
   \   00000072   7819               ADDS     R0,R7,R5
   \   00000074   401E               SUBS     R0,R0,#+1
   \   00000076   0006               LSLS     R0,R0,#+24       ;; ZeroExtS R0,R0,#+24,#+24
   \   00000078   000E               LSRS     R0,R0,#+24
   \   0000007A   ........           BL       V_line
   3053                        
   3054             //if (SO==1) CleanCanvasArea(X1,Y1,Width,Height,1);
   3055             
   3056          }
   \   0000007E   01B0               ADD      SP,SP,#+4
   \   00000080   F0BC               POP      {R4-R7}
   \   00000082   01BC               POP      {R0}
   \   00000084   0047               BX       R0               ;; return
   3057           
   3058           
   3059          //*-----------------------------------------------------------------------------
   3060          //* Nazwa funkcji :    CheckLCD
   3061          //* Funkcja sprawdza kolejne porty LCD
   3062          //*-----------------------------------------------------------------------------
   3063          //*-----------------------------------------------------------------------------
   3064          

   \                                 In section Debug.txt, align 4, keep-with-next
   3065          void CheckLCD(void)
   3066           {
   3067             m_pPio->PIO_SODR =  LCD_BUS_MASK;                         // zeruje piny
   \                     CheckLCD:
   \   00000000   3348               LDR      R0,??CheckLCD_0  ;; m_pPio
   \   00000002   0068               LDR      R0,[R0, #+0]
   \   00000004   3349               LDR      R1,??CheckLCD_0+0x4  ;; 0x7e00811c
   \   00000006   0163               STR      R1,[R0, #+48]
   3068           
   3069             
   3070             AT91C_BASE_PIOA->PIO_CODR = DI; AT91C_BASE_PIOA->PIO_SODR = DI; 
   \   00000008   3348               LDR      R0,??CheckLCD_0+0x8  ;; 0xfffff434
   \   0000000A   0421               MOVS     R1,#+4
   \   0000000C   0160               STR      R1,[R0, #+0]
   \   0000000E   3348               LDR      R0,??CheckLCD_0+0xC  ;; 0xfffff430
   \   00000010   0421               MOVS     R1,#+4
   \   00000012   0160               STR      R1,[R0, #+0]
   3071             AT91C_BASE_PIOA->PIO_CODR = ENABLE; AT91C_BASE_PIOA->PIO_SODR = ENABLE; 
   \   00000014   3048               LDR      R0,??CheckLCD_0+0x8  ;; 0xfffff434
   \   00000016   8021               MOVS     R1,#+128
   \   00000018   C905               LSLS     R1,R1,#+23       ;; #+1073741824
   \   0000001A   0160               STR      R1,[R0, #+0]
   \   0000001C   2F48               LDR      R0,??CheckLCD_0+0xC  ;; 0xfffff430
   \   0000001E   8021               MOVS     R1,#+128
   \   00000020   C905               LSLS     R1,R1,#+23       ;; #+1073741824
   \   00000022   0160               STR      R1,[R0, #+0]
   3072             AT91C_BASE_PIOA->PIO_CODR = DB0; AT91C_BASE_PIOA->PIO_SODR = DB0; 
   \   00000024   2C48               LDR      R0,??CheckLCD_0+0x8  ;; 0xfffff434
   \   00000026   8021               MOVS     R1,#+128
   \   00000028   8905               LSLS     R1,R1,#+22       ;; #+536870912
   \   0000002A   0160               STR      R1,[R0, #+0]
   \   0000002C   2B48               LDR      R0,??CheckLCD_0+0xC  ;; 0xfffff430
   \   0000002E   8021               MOVS     R1,#+128
   \   00000030   8905               LSLS     R1,R1,#+22       ;; #+536870912
   \   00000032   0160               STR      R1,[R0, #+0]
   3073             AT91C_BASE_PIOA->PIO_CODR = DB1; AT91C_BASE_PIOA->PIO_SODR = DB1; 
   \   00000034   2848               LDR      R0,??CheckLCD_0+0x8  ;; 0xfffff434
   \   00000036   8021               MOVS     R1,#+128
   \   00000038   4905               LSLS     R1,R1,#+21       ;; #+268435456
   \   0000003A   0160               STR      R1,[R0, #+0]
   \   0000003C   2748               LDR      R0,??CheckLCD_0+0xC  ;; 0xfffff430
   \   0000003E   8021               MOVS     R1,#+128
   \   00000040   4905               LSLS     R1,R1,#+21       ;; #+268435456
   \   00000042   0160               STR      R1,[R0, #+0]
   3074             AT91C_BASE_PIOA->PIO_CODR = DB2; AT91C_BASE_PIOA->PIO_SODR = DB2; 
   \   00000044   2448               LDR      R0,??CheckLCD_0+0x8  ;; 0xfffff434
   \   00000046   8021               MOVS     R1,#+128
   \   00000048   0905               LSLS     R1,R1,#+20       ;; #+134217728
   \   0000004A   0160               STR      R1,[R0, #+0]
   \   0000004C   2348               LDR      R0,??CheckLCD_0+0xC  ;; 0xfffff430
   \   0000004E   8021               MOVS     R1,#+128
   \   00000050   0905               LSLS     R1,R1,#+20       ;; #+134217728
   \   00000052   0160               STR      R1,[R0, #+0]
   3075             AT91C_BASE_PIOA->PIO_CODR = DB3; AT91C_BASE_PIOA->PIO_SODR = DB3; 
   \   00000054   2048               LDR      R0,??CheckLCD_0+0x8  ;; 0xfffff434
   \   00000056   1021               MOVS     R1,#+16
   \   00000058   0160               STR      R1,[R0, #+0]
   \   0000005A   2048               LDR      R0,??CheckLCD_0+0xC  ;; 0xfffff430
   \   0000005C   1021               MOVS     R1,#+16
   \   0000005E   0160               STR      R1,[R0, #+0]
   3076             AT91C_BASE_PIOA->PIO_CODR = DB4; AT91C_BASE_PIOA->PIO_SODR = DB4; 
   \   00000060   1D48               LDR      R0,??CheckLCD_0+0x8  ;; 0xfffff434
   \   00000062   8021               MOVS     R1,#+128
   \   00000064   4900               LSLS     R1,R1,#+1        ;; #+256
   \   00000066   0160               STR      R1,[R0, #+0]
   \   00000068   1C48               LDR      R0,??CheckLCD_0+0xC  ;; 0xfffff430
   \   0000006A   8021               MOVS     R1,#+128
   \   0000006C   4900               LSLS     R1,R1,#+1        ;; #+256
   \   0000006E   0160               STR      R1,[R0, #+0]
   3077             AT91C_BASE_PIOA->PIO_CODR = DB5; AT91C_BASE_PIOA->PIO_SODR = DB5; 
   \   00000070   1948               LDR      R0,??CheckLCD_0+0x8  ;; 0xfffff434
   \   00000072   8021               MOVS     R1,#+128
   \   00000074   C904               LSLS     R1,R1,#+19       ;; #+67108864
   \   00000076   0160               STR      R1,[R0, #+0]
   \   00000078   1848               LDR      R0,??CheckLCD_0+0xC  ;; 0xfffff430
   \   0000007A   8021               MOVS     R1,#+128
   \   0000007C   C904               LSLS     R1,R1,#+19       ;; #+67108864
   \   0000007E   0160               STR      R1,[R0, #+0]
   3078             AT91C_BASE_PIOA->PIO_CODR = DB6; AT91C_BASE_PIOA->PIO_SODR = DB6; 
   \   00000080   1548               LDR      R0,??CheckLCD_0+0x8  ;; 0xfffff434
   \   00000082   8021               MOVS     R1,#+128
   \   00000084   8904               LSLS     R1,R1,#+18       ;; #+33554432
   \   00000086   0160               STR      R1,[R0, #+0]
   \   00000088   1448               LDR      R0,??CheckLCD_0+0xC  ;; 0xfffff430
   \   0000008A   8021               MOVS     R1,#+128
   \   0000008C   8904               LSLS     R1,R1,#+18       ;; #+33554432
   \   0000008E   0160               STR      R1,[R0, #+0]
   3079             AT91C_BASE_PIOA->PIO_CODR = DB7; AT91C_BASE_PIOA->PIO_SODR = DB7; 
   \   00000090   1148               LDR      R0,??CheckLCD_0+0x8  ;; 0xfffff434
   \   00000092   8021               MOVS     R1,#+128
   \   00000094   0902               LSLS     R1,R1,#+8        ;; #+32768
   \   00000096   0160               STR      R1,[R0, #+0]
   \   00000098   1048               LDR      R0,??CheckLCD_0+0xC  ;; 0xfffff430
   \   0000009A   8021               MOVS     R1,#+128
   \   0000009C   0902               LSLS     R1,R1,#+8        ;; #+32768
   \   0000009E   0160               STR      R1,[R0, #+0]
   3080             AT91C_BASE_PIOA->PIO_CODR = CS1; AT91C_BASE_PIOA->PIO_SODR = CS1; 
   \   000000A0   0D48               LDR      R0,??CheckLCD_0+0x8  ;; 0xfffff434
   \   000000A2   8021               MOVS     R1,#+128
   \   000000A4   4902               LSLS     R1,R1,#+9        ;; #+65536
   \   000000A6   0160               STR      R1,[R0, #+0]
   \   000000A8   0C48               LDR      R0,??CheckLCD_0+0xC  ;; 0xfffff430
   \   000000AA   8021               MOVS     R1,#+128
   \   000000AC   4902               LSLS     R1,R1,#+9        ;; #+65536
   \   000000AE   0160               STR      R1,[R0, #+0]
   3081             AT91C_BASE_PIOA->PIO_CODR = CS2; AT91C_BASE_PIOA->PIO_SODR = CS2; 
   \   000000B0   0948               LDR      R0,??CheckLCD_0+0x8  ;; 0xfffff434
   \   000000B2   8021               MOVS     R1,#+128
   \   000000B4   0904               LSLS     R1,R1,#+16       ;; #+8388608
   \   000000B6   0160               STR      R1,[R0, #+0]
   \   000000B8   0848               LDR      R0,??CheckLCD_0+0xC  ;; 0xfffff430
   \   000000BA   8021               MOVS     R1,#+128
   \   000000BC   0904               LSLS     R1,R1,#+16       ;; #+8388608
   \   000000BE   0160               STR      R1,[R0, #+0]
   3082             AT91C_BASE_PIOA->PIO_CODR = (unsigned long)LightLCD; AT91C_BASE_PIOA->PIO_SODR = (unsigned long)LightLCD; 
   \   000000C0   0548               LDR      R0,??CheckLCD_0+0x8  ;; 0xfffff434
   \   000000C2   0121               MOVS     R1,#+1
   \   000000C4   0160               STR      R1,[R0, #+0]
   \   000000C6   0548               LDR      R0,??CheckLCD_0+0xC  ;; 0xfffff430
   \   000000C8   0121               MOVS     R1,#+1
   \   000000CA   0160               STR      R1,[R0, #+0]
   3083          
   3084            
   3085          
   3086          }//_______________________ Koniec funkcji CheckLCD __________________________
   \   000000CC   7047               BX       LR               ;; return
   \   000000CE   C046               Nop      
   \                     ??CheckLCD_0:
   \   000000D0   ........           DC32     m_pPio
   \   000000D4   1C81007E           DC32     0x7e00811c
   \   000000D8   34F4FFFF           DC32     0xfffff434
   \   000000DC   30F4FFFF           DC32     0xfffff430
   3087          
   3088           

   \                                 In section .bss, align 4
   3089            _TPoint Up, Down;   
   \                     Up:
   \   00000000                      DS8 4

   \                                 In section .bss, align 4
   \                     Down:
   \   00000000                      DS8 4
   3090          
   3091          #define TouchAmount 4       //iloœæ pamiêtanych punktów dotyku   

   \                                 In section Debug.txt, align 4, keep-with-next
   3092          void GetTouchPoint(signed short *Xd,signed short  *Yd, signed short *Xu, signed short  *Yu)
   3093          {
   \                     GetTouchPoint:
   \   00000000   F1B5               PUSH     {R0,R4-R7,LR}
   \   00000002   0400               MOVS     R4,R0
   \   00000004   0D00               MOVS     R5,R1
   \   00000006   1600               MOVS     R6,R2
   \   00000008   1F00               MOVS     R7,R3
   3094          
   3095            static _TPoint TouchList[TouchAmount];                                        //lista FIFO wspó³¿êdnych
   3096          
   3097          
   3098            for (char i=1; i<TouchAmount; i++)
   \   0000000A   0120               MOVS     R0,#+1
   \   0000000C   20E0               B        ??GetTouchPoint_0
   3099            {
   3100               TouchList[TouchAmount-i].x=TouchList[TouchAmount-i-1].x;
   \                     ??GetTouchPoint_1:
   \   0000000E   0006               LSLS     R0,R0,#+24       ;; ZeroExtS R0,R0,#+24,#+24
   \   00000010   000E               LSRS     R0,R0,#+24
   \   00000012   4142               RSBS     R1,R0,#+0
   \   00000014   0422               MOVS     R2,#+4
   \   00000016   5143               MULS     R1,R2,R1
   \   00000018   994A               LDR      R2,??GetTouchPoint_2  ;; ??TouchList
   \   0000001A   5118               ADDS     R1,R2,R1
   \   0000001C   0006               LSLS     R0,R0,#+24       ;; ZeroExtS R0,R0,#+24,#+24
   \   0000001E   000E               LSRS     R0,R0,#+24
   \   00000020   4242               RSBS     R2,R0,#+0
   \   00000022   0423               MOVS     R3,#+4
   \   00000024   5A43               MULS     R2,R3,R2
   \   00000026   964B               LDR      R3,??GetTouchPoint_2  ;; ??TouchList
   \   00000028   9A18               ADDS     R2,R3,R2
   \   0000002A   9289               LDRH     R2,[R2, #+12]
   \   0000002C   0A82               STRH     R2,[R1, #+16]
   3101               TouchList[TouchAmount-i].y=TouchList[TouchAmount-i-1].y;
   \   0000002E   0006               LSLS     R0,R0,#+24       ;; ZeroExtS R0,R0,#+24,#+24
   \   00000030   000E               LSRS     R0,R0,#+24
   \   00000032   4142               RSBS     R1,R0,#+0
   \   00000034   0422               MOVS     R2,#+4
   \   00000036   5143               MULS     R1,R2,R1
   \   00000038   914A               LDR      R2,??GetTouchPoint_2  ;; ??TouchList
   \   0000003A   5118               ADDS     R1,R2,R1
   \   0000003C   0006               LSLS     R0,R0,#+24       ;; ZeroExtS R0,R0,#+24,#+24
   \   0000003E   000E               LSRS     R0,R0,#+24
   \   00000040   4242               RSBS     R2,R0,#+0
   \   00000042   0423               MOVS     R3,#+4
   \   00000044   5A43               MULS     R2,R3,R2
   \   00000046   8E4B               LDR      R3,??GetTouchPoint_2  ;; ??TouchList
   \   00000048   9A18               ADDS     R2,R3,R2
   \   0000004A   D289               LDRH     R2,[R2, #+14]
   \   0000004C   4A82               STRH     R2,[R1, #+18]
   3102            }
   \   0000004E   401C               ADDS     R0,R0,#+1
   \                     ??GetTouchPoint_0:
   \   00000050   0006               LSLS     R0,R0,#+24       ;; ZeroExtS R0,R0,#+24,#+24
   \   00000052   000E               LSRS     R0,R0,#+24
   \   00000054   0428               CMP      R0,#+4
   \   00000056   DAD3               BCC      ??GetTouchPoint_1
   3103          
   3104            Down.x=-1;
                          ^
Warning[Pe068]: integer conversion resulted in a change of sign
   \   00000058   8A48               LDR      R0,??GetTouchPoint_2+0x4  ;; Down
   \   0000005A   8B49               LDR      R1,??GetTouchPoint_2+0x8  ;; 0xffff
   \   0000005C   0180               STRH     R1,[R0, #+0]
   3105            Down.y=-1;
                          ^
Warning[Pe068]: integer conversion resulted in a change of sign
   \   0000005E   8B48               LDR      R0,??GetTouchPoint_2+0xC  ;; Down + 2
   \   00000060   8949               LDR      R1,??GetTouchPoint_2+0x8  ;; 0xffff
   \   00000062   0180               STRH     R1,[R0, #+0]
   3106            Up.x=-1;
                        ^
Warning[Pe068]: integer conversion resulted in a change of sign
   \   00000064   8A48               LDR      R0,??GetTouchPoint_2+0x10  ;; Up
   \   00000066   8849               LDR      R1,??GetTouchPoint_2+0x8  ;; 0xffff
   \   00000068   0180               STRH     R1,[R0, #+0]
   3107            Up.y=-1;
                        ^
Warning[Pe068]: integer conversion resulted in a change of sign
   \   0000006A   8A48               LDR      R0,??GetTouchPoint_2+0x14  ;; Up + 2
   \   0000006C   8649               LDR      R1,??GetTouchPoint_2+0x8  ;; 0xffff
   \   0000006E   0180               STRH     R1,[R0, #+0]
   3108              
   3109            ReadTP(TouchList); 
   \   00000070   8348               LDR      R0,??GetTouchPoint_2  ;; ??TouchList
   \   00000072   ........           BL       ReadTP
   3110            
   3111            //je¿eli pomiar ci¹g³y dotkniêtego ekranu 
   3112            if ((TouchList[0].x>0) && (TouchList[1].x>0) && (TouchList[2].x>0) &&(TouchList[3].x>0))  
   \   00000076   8248               LDR      R0,??GetTouchPoint_2  ;; ??TouchList
   \   00000078   0088               LDRH     R0,[R0, #+0]
   \   0000007A   0128               CMP      R0,#+1
   \   0000007C   1FD3               BCC      ??GetTouchPoint_3
   \   0000007E   8648               LDR      R0,??GetTouchPoint_2+0x18  ;; ??TouchList + 4
   \   00000080   0088               LDRH     R0,[R0, #+0]
   \   00000082   0128               CMP      R0,#+1
   \   00000084   1BD3               BCC      ??GetTouchPoint_3
   \   00000086   8548               LDR      R0,??GetTouchPoint_2+0x1C  ;; ??TouchList + 8
   \   00000088   0088               LDRH     R0,[R0, #+0]
   \   0000008A   0128               CMP      R0,#+1
   \   0000008C   17D3               BCC      ??GetTouchPoint_3
   \   0000008E   8448               LDR      R0,??GetTouchPoint_2+0x20  ;; ??TouchList + 12
   \   00000090   0088               LDRH     R0,[R0, #+0]
   \   00000092   0128               CMP      R0,#+1
   \   00000094   13D3               BCC      ??GetTouchPoint_3
   3113            {
   3114              Down.x=((TouchList[1].x) + (TouchList[2].x))/2;
   \   00000096   8048               LDR      R0,??GetTouchPoint_2+0x18  ;; ??TouchList + 4
   \   00000098   0088               LDRH     R0,[R0, #+0]
   \   0000009A   8049               LDR      R1,??GetTouchPoint_2+0x1C  ;; ??TouchList + 8
   \   0000009C   0988               LDRH     R1,[R1, #+0]
   \   0000009E   4018               ADDS     R0,R0,R1
   \   000000A0   0221               MOVS     R1,#+2
   \   000000A2   ........           BL       __aeabi_idivmod
   \   000000A6   7749               LDR      R1,??GetTouchPoint_2+0x4  ;; Down
   \   000000A8   0880               STRH     R0,[R1, #+0]
   3115          
   3116              Down.y=((TouchList[1].y) + (TouchList[2].y))/2;
   \   000000AA   7E48               LDR      R0,??GetTouchPoint_2+0x24  ;; ??TouchList + 6
   \   000000AC   0088               LDRH     R0,[R0, #+0]
   \   000000AE   7E49               LDR      R1,??GetTouchPoint_2+0x28  ;; ??TouchList + 10
   \   000000B0   0988               LDRH     R1,[R1, #+0]
   \   000000B2   4018               ADDS     R0,R0,R1
   \   000000B4   0221               MOVS     R1,#+2
   \   000000B6   ........           BL       __aeabi_idivmod
   \   000000BA   7449               LDR      R1,??GetTouchPoint_2+0xC  ;; Down + 2
   \   000000BC   0880               STRH     R0,[R1, #+0]
   3117            }
   3118            
   3119            //je¿eli dotkniêto ekran
   3120            if ((TouchList[0].x>0) && (TouchList[1].x>0) && (TouchList[2].x>0) &&(TouchList[3].x<=0))  
   \                     ??GetTouchPoint_3:
   \   000000BE   7048               LDR      R0,??GetTouchPoint_2  ;; ??TouchList
   \   000000C0   0088               LDRH     R0,[R0, #+0]
   \   000000C2   0128               CMP      R0,#+1
   \   000000C4   27D3               BCC      ??GetTouchPoint_4
   \   000000C6   7448               LDR      R0,??GetTouchPoint_2+0x18  ;; ??TouchList + 4
   \   000000C8   0088               LDRH     R0,[R0, #+0]
   \   000000CA   0128               CMP      R0,#+1
   \   000000CC   23D3               BCC      ??GetTouchPoint_4
   \   000000CE   7348               LDR      R0,??GetTouchPoint_2+0x1C  ;; ??TouchList + 8
   \   000000D0   0088               LDRH     R0,[R0, #+0]
   \   000000D2   0128               CMP      R0,#+1
   \   000000D4   1FD3               BCC      ??GetTouchPoint_4
   \   000000D6   7248               LDR      R0,??GetTouchPoint_2+0x20  ;; ??TouchList + 12
   \   000000D8   0088               LDRH     R0,[R0, #+0]
   \   000000DA   0128               CMP      R0,#+1
   \   000000DC   1BD2               BCS      ??GetTouchPoint_4
   3121            {
   3122              Down.x=((TouchList[0].x) + (TouchList[1].x))/2;
   \   000000DE   6848               LDR      R0,??GetTouchPoint_2  ;; ??TouchList
   \   000000E0   0088               LDRH     R0,[R0, #+0]
   \   000000E2   6D49               LDR      R1,??GetTouchPoint_2+0x18  ;; ??TouchList + 4
   \   000000E4   0988               LDRH     R1,[R1, #+0]
   \   000000E6   4018               ADDS     R0,R0,R1
   \   000000E8   0221               MOVS     R1,#+2
   \   000000EA   ........           BL       __aeabi_idivmod
   \   000000EE   6549               LDR      R1,??GetTouchPoint_2+0x4  ;; Down
   \   000000F0   0880               STRH     R0,[R1, #+0]
   3123          
   3124              Down.y=((TouchList[0].y) + (TouchList[1].y))/2;
   \   000000F2   6E48               LDR      R0,??GetTouchPoint_2+0x2C  ;; ??TouchList + 2
   \   000000F4   0088               LDRH     R0,[R0, #+0]
   \   000000F6   6B49               LDR      R1,??GetTouchPoint_2+0x24  ;; ??TouchList + 6
   \   000000F8   0988               LDRH     R1,[R1, #+0]
   \   000000FA   4018               ADDS     R0,R0,R1
   \   000000FC   0221               MOVS     R1,#+2
   \   000000FE   ........           BL       __aeabi_idivmod
   \   00000102   6249               LDR      R1,??GetTouchPoint_2+0xC  ;; Down + 2
   \   00000104   0880               STRH     R0,[R1, #+0]
   3125              TouchList[2].x=Down.x;
   \   00000106   6548               LDR      R0,??GetTouchPoint_2+0x1C  ;; ??TouchList + 8
   \   00000108   5E49               LDR      R1,??GetTouchPoint_2+0x4  ;; Down
   \   0000010A   0988               LDRH     R1,[R1, #+0]
   \   0000010C   0180               STRH     R1,[R0, #+0]
   3126              TouchList[2].x=Down.x;
   \   0000010E   6348               LDR      R0,??GetTouchPoint_2+0x1C  ;; ??TouchList + 8
   \   00000110   5C49               LDR      R1,??GetTouchPoint_2+0x4  ;; Down
   \   00000112   0988               LDRH     R1,[R1, #+0]
   \   00000114   0180               STRH     R1,[R0, #+0]
   3127            }
   3128          
   3129            //je¿eli puszczono ekran
   3130            if ((TouchList[0].x<=0) && (TouchList[1].x>0) && (TouchList[2].x>0) &&(TouchList[3].x>0))  
   \                     ??GetTouchPoint_4:
   \   00000116   5A48               LDR      R0,??GetTouchPoint_2  ;; ??TouchList
   \   00000118   0088               LDRH     R0,[R0, #+0]
   \   0000011A   0128               CMP      R0,#+1
   \   0000011C   1FD2               BCS      ??GetTouchPoint_5
   \   0000011E   5E48               LDR      R0,??GetTouchPoint_2+0x18  ;; ??TouchList + 4
   \   00000120   0088               LDRH     R0,[R0, #+0]
   \   00000122   0128               CMP      R0,#+1
   \   00000124   1BD3               BCC      ??GetTouchPoint_5
   \   00000126   5D48               LDR      R0,??GetTouchPoint_2+0x1C  ;; ??TouchList + 8
   \   00000128   0088               LDRH     R0,[R0, #+0]
   \   0000012A   0128               CMP      R0,#+1
   \   0000012C   17D3               BCC      ??GetTouchPoint_5
   \   0000012E   5C48               LDR      R0,??GetTouchPoint_2+0x20  ;; ??TouchList + 12
   \   00000130   0088               LDRH     R0,[R0, #+0]
   \   00000132   0128               CMP      R0,#+1
   \   00000134   13D3               BCC      ??GetTouchPoint_5
   3131            {
   3132              Up.x=((TouchList[2].x) + (TouchList[3].x))/2;
   \   00000136   5948               LDR      R0,??GetTouchPoint_2+0x1C  ;; ??TouchList + 8
   \   00000138   0088               LDRH     R0,[R0, #+0]
   \   0000013A   5949               LDR      R1,??GetTouchPoint_2+0x20  ;; ??TouchList + 12
   \   0000013C   0988               LDRH     R1,[R1, #+0]
   \   0000013E   4018               ADDS     R0,R0,R1
   \   00000140   0221               MOVS     R1,#+2
   \   00000142   ........           BL       __aeabi_idivmod
   \   00000146   5249               LDR      R1,??GetTouchPoint_2+0x10  ;; Up
   \   00000148   0880               STRH     R0,[R1, #+0]
   3133          
   3134              Up.y=((TouchList[2].y) + (TouchList[3].y))/2;
   \   0000014A   5748               LDR      R0,??GetTouchPoint_2+0x28  ;; ??TouchList + 10
   \   0000014C   0088               LDRH     R0,[R0, #+0]
   \   0000014E   5849               LDR      R1,??GetTouchPoint_2+0x30  ;; ??TouchList + 14
   \   00000150   0988               LDRH     R1,[R1, #+0]
   \   00000152   4018               ADDS     R0,R0,R1
   \   00000154   0221               MOVS     R1,#+2
   \   00000156   ........           BL       __aeabi_idivmod
   \   0000015A   4E49               LDR      R1,??GetTouchPoint_2+0x14  ;; Up + 2
   \   0000015C   0880               STRH     R0,[R1, #+0]
   3135            }  
   3136            
   3137            if ((Down.x>0) && (Down.y>0))
   \                     ??GetTouchPoint_5:
   \   0000015E   4948               LDR      R0,??GetTouchPoint_2+0x4  ;; Down
   \   00000160   0088               LDRH     R0,[R0, #+0]
   \   00000162   0128               CMP      R0,#+1
   \   00000164   27D3               BCC      ??GetTouchPoint_6
   \   00000166   4948               LDR      R0,??GetTouchPoint_2+0xC  ;; Down + 2
   \   00000168   0088               LDRH     R0,[R0, #+0]
   \   0000016A   0128               CMP      R0,#+1
   \   0000016C   23D3               BCC      ??GetTouchPoint_6
   3138            {
   3139              Down.x=korekta_X.A*Down.x+korekta_X.B;
   \   0000016E   4548               LDR      R0,??GetTouchPoint_2+0x4  ;; Down
   \   00000170   0088               LDRH     R0,[R0, #+0]
   \   00000172   ........           BL       __aeabi_ui2f
   \   00000176   0100               MOVS     R1,R0
   \   00000178   4E48               LDR      R0,??GetTouchPoint_2+0x34  ;; korekta_X
   \   0000017A   0068               LDR      R0,[R0, #+0]
   \   0000017C   ........           BL       __aeabi_fmul
   \   00000180   0100               MOVS     R1,R0
   \   00000182   4D48               LDR      R0,??GetTouchPoint_2+0x38  ;; korekta_X + 4
   \   00000184   0068               LDR      R0,[R0, #+0]
   \   00000186   ........           BL       __aeabi_fadd
   \   0000018A   ........           BL       __aeabi_f2iz
   \   0000018E   3D49               LDR      R1,??GetTouchPoint_2+0x4  ;; Down
   \   00000190   0880               STRH     R0,[R1, #+0]
   3140              Down.y=korekta_Y.A*Down.y+korekta_Y.B;
   \   00000192   3E48               LDR      R0,??GetTouchPoint_2+0xC  ;; Down + 2
   \   00000194   0088               LDRH     R0,[R0, #+0]
   \   00000196   ........           BL       __aeabi_ui2f
   \   0000019A   0100               MOVS     R1,R0
   \   0000019C   4748               LDR      R0,??GetTouchPoint_2+0x3C  ;; korekta_Y
   \   0000019E   0068               LDR      R0,[R0, #+0]
   \   000001A0   ........           BL       __aeabi_fmul
   \   000001A4   0100               MOVS     R1,R0
   \   000001A6   4648               LDR      R0,??GetTouchPoint_2+0x40  ;; korekta_Y + 4
   \   000001A8   0068               LDR      R0,[R0, #+0]
   \   000001AA   ........           BL       __aeabi_fadd
   \   000001AE   ........           BL       __aeabi_f2iz
   \   000001B2   3649               LDR      R1,??GetTouchPoint_2+0xC  ;; Down + 2
   \   000001B4   0880               STRH     R0,[R1, #+0]
   3141            }
   3142            
   3143            if ((Up.x>0) && (Up.y>0))
   \                     ??GetTouchPoint_6:
   \   000001B6   3648               LDR      R0,??GetTouchPoint_2+0x10  ;; Up
   \   000001B8   0088               LDRH     R0,[R0, #+0]
   \   000001BA   0128               CMP      R0,#+1
   \   000001BC   27D3               BCC      ??GetTouchPoint_7
   \   000001BE   3548               LDR      R0,??GetTouchPoint_2+0x14  ;; Up + 2
   \   000001C0   0088               LDRH     R0,[R0, #+0]
   \   000001C2   0128               CMP      R0,#+1
   \   000001C4   23D3               BCC      ??GetTouchPoint_7
   3144            { 
   3145              Up.x=korekta_X.A*Up.x+korekta_X.B;
   \   000001C6   3248               LDR      R0,??GetTouchPoint_2+0x10  ;; Up
   \   000001C8   0088               LDRH     R0,[R0, #+0]
   \   000001CA   ........           BL       __aeabi_ui2f
   \   000001CE   0100               MOVS     R1,R0
   \   000001D0   3848               LDR      R0,??GetTouchPoint_2+0x34  ;; korekta_X
   \   000001D2   0068               LDR      R0,[R0, #+0]
   \   000001D4   ........           BL       __aeabi_fmul
   \   000001D8   0100               MOVS     R1,R0
   \   000001DA   3748               LDR      R0,??GetTouchPoint_2+0x38  ;; korekta_X + 4
   \   000001DC   0068               LDR      R0,[R0, #+0]
   \   000001DE   ........           BL       __aeabi_fadd
   \   000001E2   ........           BL       __aeabi_f2iz
   \   000001E6   2A49               LDR      R1,??GetTouchPoint_2+0x10  ;; Up
   \   000001E8   0880               STRH     R0,[R1, #+0]
   3146              Up.y=korekta_Y.A*Up.y+korekta_Y.B;
   \   000001EA   2A48               LDR      R0,??GetTouchPoint_2+0x14  ;; Up + 2
   \   000001EC   0088               LDRH     R0,[R0, #+0]
   \   000001EE   ........           BL       __aeabi_ui2f
   \   000001F2   0100               MOVS     R1,R0
   \   000001F4   3148               LDR      R0,??GetTouchPoint_2+0x3C  ;; korekta_Y
   \   000001F6   0068               LDR      R0,[R0, #+0]
   \   000001F8   ........           BL       __aeabi_fmul
   \   000001FC   0100               MOVS     R1,R0
   \   000001FE   3048               LDR      R0,??GetTouchPoint_2+0x40  ;; korekta_Y + 4
   \   00000200   0068               LDR      R0,[R0, #+0]
   \   00000202   ........           BL       __aeabi_fadd
   \   00000206   ........           BL       __aeabi_f2iz
   \   0000020A   2249               LDR      R1,??GetTouchPoint_2+0x14  ;; Up + 2
   \   0000020C   0880               STRH     R0,[R1, #+0]
   3147              /*
   3148              for (char i=0; i<TouchAmount; i++)
   3149                {
   3150                   TouchList[TouchAmount-i].x=0;
   3151                   TouchList[TouchAmount-i].y=0;
   3152                   
   3153                }
   3154                   Down.x=0;
   3155                   Down.y=0;
   3156                   */
   3157                   
   3158            }
   3159            if ((korekta_X.B!=0) && (korekta_Y.B!=0))
   \                     ??GetTouchPoint_7:
   \   0000020E   2A48               LDR      R0,??GetTouchPoint_2+0x38  ;; korekta_X + 4
   \   00000210   0068               LDR      R0,[R0, #+0]
   \   00000212   0021               MOVS     R1,#+0
   \   00000214   ........           BL       __aeabi_cfcmpeq
   \   00000218   21D0               BEQ      ??GetTouchPoint_8
   \   0000021A   2948               LDR      R0,??GetTouchPoint_2+0x40  ;; korekta_Y + 4
   \   0000021C   0068               LDR      R0,[R0, #+0]
   \   0000021E   0021               MOVS     R1,#+0
   \   00000220   ........           BL       __aeabi_cfcmpeq
   \   00000224   1BD0               BEQ      ??GetTouchPoint_8
   3160            {
   3161              if ((Down.x>64) || (Down.y>128)) {Down.x=-1; Down.y=-1;} 
                                                              ^
Warning[Pe068]: integer conversion resulted in a change of sign

      if ((Down.x>64) || (Down.y>128)) {Down.x=-1; Down.y=-1;} 
                                                          ^
"D:\Zeuron\Projekty\S300\S300-program v1.4 - 12.06.2013\Framework\Lcd_Negativ_Old.c",3161  Warning[Pe068]: 
          integer conversion resulted in a change of sign
   \   00000226   1748               LDR      R0,??GetTouchPoint_2+0x4  ;; Down
   \   00000228   0088               LDRH     R0,[R0, #+0]
   \   0000022A   4128               CMP      R0,#+65
   \   0000022C   03D2               BCS      ??GetTouchPoint_9
   \   0000022E   1748               LDR      R0,??GetTouchPoint_2+0xC  ;; Down + 2
   \   00000230   0088               LDRH     R0,[R0, #+0]
   \   00000232   8128               CMP      R0,#+129
   \   00000234   05D3               BCC      ??GetTouchPoint_10
   \                     ??GetTouchPoint_9:
   \   00000236   1348               LDR      R0,??GetTouchPoint_2+0x4  ;; Down
   \   00000238   1349               LDR      R1,??GetTouchPoint_2+0x8  ;; 0xffff
   \   0000023A   0180               STRH     R1,[R0, #+0]
   \   0000023C   1348               LDR      R0,??GetTouchPoint_2+0xC  ;; Down + 2
   \   0000023E   1249               LDR      R1,??GetTouchPoint_2+0x8  ;; 0xffff
   \   00000240   0180               STRH     R1,[R0, #+0]
   3162              if ((Up.x>64) || (Up.y>128)) {Up.x=-1; Up.y=-1;} 
                                                        ^
Warning[Pe068]: integer conversion resulted in a change of sign

      if ((Up.x>64) || (Up.y>128)) {Up.x=-1; Up.y=-1;} 
                                                  ^
"D:\Zeuron\Projekty\S300\S300-program v1.4 - 12.06.2013\Framework\Lcd_Negativ_Old.c",3162  Warning[Pe068]: 
          integer conversion resulted in a change of sign
   \                     ??GetTouchPoint_10:
   \   00000242   1348               LDR      R0,??GetTouchPoint_2+0x10  ;; Up
   \   00000244   0088               LDRH     R0,[R0, #+0]
   \   00000246   4128               CMP      R0,#+65
   \   00000248   03D2               BCS      ??GetTouchPoint_11
   \   0000024A   1248               LDR      R0,??GetTouchPoint_2+0x14  ;; Up + 2
   \   0000024C   0088               LDRH     R0,[R0, #+0]
   \   0000024E   8128               CMP      R0,#+129
   \   00000250   05D3               BCC      ??GetTouchPoint_8
   \                     ??GetTouchPoint_11:
   \   00000252   0F48               LDR      R0,??GetTouchPoint_2+0x10  ;; Up
   \   00000254   0C49               LDR      R1,??GetTouchPoint_2+0x8  ;; 0xffff
   \   00000256   0180               STRH     R1,[R0, #+0]
   \   00000258   0E48               LDR      R0,??GetTouchPoint_2+0x14  ;; Up + 2
   \   0000025A   0B49               LDR      R1,??GetTouchPoint_2+0x8  ;; 0xffff
   \   0000025C   0180               STRH     R1,[R0, #+0]
   3163            }
   3164            *Xd=Down.x;
   \                     ??GetTouchPoint_8:
   \   0000025E   0948               LDR      R0,??GetTouchPoint_2+0x4  ;; Down
   \   00000260   0088               LDRH     R0,[R0, #+0]
   \   00000262   2080               STRH     R0,[R4, #+0]
   3165            *Yd=Down.y;
   \   00000264   0948               LDR      R0,??GetTouchPoint_2+0xC  ;; Down + 2
   \   00000266   0088               LDRH     R0,[R0, #+0]
   \   00000268   2880               STRH     R0,[R5, #+0]
   3166            *Xu=Up.x;
   \   0000026A   0948               LDR      R0,??GetTouchPoint_2+0x10  ;; Up
   \   0000026C   0088               LDRH     R0,[R0, #+0]
   \   0000026E   3080               STRH     R0,[R6, #+0]
   3167            *Yu=Up.y;
   \   00000270   0848               LDR      R0,??GetTouchPoint_2+0x14  ;; Up + 2
   \   00000272   0088               LDRH     R0,[R0, #+0]
   \   00000274   3880               STRH     R0,[R7, #+0]
   3168          
   3169          }
   \   00000276   01B0               ADD      SP,SP,#+4
   \   00000278   F0BC               POP      {R4-R7}
   \   0000027A   01BC               POP      {R0}
   \   0000027C   0047               BX       R0               ;; return
   \   0000027E   C046               Nop      
   \                     ??GetTouchPoint_2:
   \   00000280   ........           DC32     ??TouchList
   \   00000284   ........           DC32     Down
   \   00000288   FFFF0000           DC32     0xffff
   \   0000028C   ........           DC32     Down + 2
   \   00000290   ........           DC32     Up
   \   00000294   ........           DC32     Up + 2
   \   00000298   ........           DC32     ??TouchList + 4
   \   0000029C   ........           DC32     ??TouchList + 8
   \   000002A0   ........           DC32     ??TouchList + 12
   \   000002A4   ........           DC32     ??TouchList + 6
   \   000002A8   ........           DC32     ??TouchList + 10
   \   000002AC   ........           DC32     ??TouchList + 2
   \   000002B0   ........           DC32     ??TouchList + 14
   \   000002B4   ........           DC32     korekta_X
   \   000002B8   ........           DC32     korekta_X + 4
   \   000002BC   ........           DC32     korekta_Y
   \   000002C0   ........           DC32     korekta_Y + 4

   \                                 In section .bss, align 4
   \                     ??TouchList:
   \   00000000                      DS8 16

   \                                 In section Debug.txt, align 4, keep-with-next
   \                     ??DataTable14:
   \   00000000   ........           DC32     LCD_Canvas

   \                                 In section .rodata, align 4
   \                     `?<Constant {{255, 1, 255, 255, 255, 255, 255, `:
   \   00000000   FF01FFFFFFFF       DC8 255, 1, 255, 255, 255, 255, 255, 255, 255, 255, 255, 255, 255, 255
   \              FFFFFFFFFFFF
   \              FFFF        
   \   0000000E   FFFFFEFCFF00       DC8 255, 255, 254, 252, 255, 0, 255, 255, 255, 255, 255, 255, 255, 255
   \              FFFFFFFFFFFF
   \              FFFF        
   \   0000001C   FFFFFFFFFFFF       DC8 255, 255, 255, 255, 255, 255, 255, 255, 255, 0, 255, 255, 255, 255
   \              FFFFFF00FFFF
   \              FFFF        
   \   0000002A   FFFFFFFFFFFF       DC8 255, 255, 255, 255, 255, 255, 255, 255, 255, 255, 255, 255, 255, 0
   \              FFFFFFFFFFFF
   \              FF00        
   \   00000038   FFFFFFFFFFFF       DC8 255, 255, 255, 255, 255, 255, 255, 255, 255, 255, 255, 255, 255
   \              FFFFFFFFFFFF
   \              FF          
   \   00000045   FFFFFFFF00FF       DC8 255, 255, 255, 255, 0, 255, 255, 255, 255, 255, 255, 255, 255, 255
   \              FFFFFFFFFFFF
   \              FFFF        
   \   00000053   FFFFFFFFFFFF       DC8 255, 255, 255, 255, 255, 255, 255, 255, 0, 255, 255, 127, 127, 127
   \              FFFF00FFFF7F
   \              7F7F        
   \   00000061   7F7F7F7F7F7F       DC8 127, 127, 127, 127, 127, 127, 127, 127, 127, 255, 255, 255, 0, 255
   \              7F7F7FFFFFFF
   \              00FF        
   \   0000006F   00FEFFFBF76F       DC8 0, 254, 255, 251, 247, 111, 159, 159, 111, 247, 251, 255, 254, 0
   \              9F9F6FF7FBFF
   \              FE00        
   \   0000007D   FFFF80FFF0E7       DC8 255, 255, 128, 255, 240, 231, 239, 237, 238, 239, 239, 239, 239
   \              EFEDEEEFEFEF
   \              EF          
   \   0000008A   EEED6F67301F       DC8 238, 237, 111, 103, 48, 31

   \                                 In section .rodata, align 4
   \                     `?<Constant {{254, 1, 1, 1, 1, 1, 1, 1, 1, 1, 1`:
   \   00000000   FE0101010101       DC8 254, 1, 1, 1, 1, 1, 1, 1, 1, 1, 1, 1, 1, 1, 1, 1, 1, 1, 1, 1, 1, 1
   \              010101010101
   \              010101010101
   \              01010101    
   \   00000016   010101010101       DC8 1, 1, 1, 1, 1, 1, 1, 1, 1, 1, 1, 1, 1, 1, 1, 1, 1, 1, 1, 1, 1, 1, 1
   \              010101010101
   \              010101010101
   \              0101010101  
   \   0000002D   010101010101       DC8 1, 1, 1, 1, 1, 1, 1, 1, 1, 1, 1, 1, 1, 1, 1, 1, 1, 1, 1, 1, 1, 1, 1
   \              010101010101
   \              010101010101
   \              0101010101  
   \   00000044   010101010101       DC8 1, 1, 1, 1, 1, 1, 1, 1, 1, 1, 1, 1, 1, 1, 1, 1, 1, 1, 1, 1, 1, 1, 1
   \              010101010101
   \              010101010101
   \              0101010101  
   \   0000005B   010101010101       DC8 1, 1, 1, 1, 1, 1, 1, 1, 1, 1, 1, 1, 1, 1, 1, 1, 1, 1, 1, 1, 1, 1, 1
   \              010101010101
   \              010101010101
   \              0101010101  
   \   00000072   FF03FDF5EDDD       DC8 255, 3, 253, 245, 237, 221, 61, 61, 221, 237, 245, 253, 3, 254, 255
   \              3D3DDDEDF5FD
   \              03FEFF      
   \   00000081   000000000000       DC8 0, 0, 0, 0, 0, 0, 0, 0, 0, 0, 0, 0, 0, 0, 0, 0, 0, 0, 0, 0, 0, 0, 0
   \              000000000000
   \              000000000000
   \              0000000000  
   \   00000098   000000000000       DC8 0, 0, 0, 0, 0, 0, 0, 0, 0, 0, 0, 0, 0, 0, 0, 0, 0, 0, 0, 0, 0, 0, 0
   \              000000000000
   \              000000000000
   \              0000000000  
   \   000000AF   000000000000       DC8 0, 0, 0, 0, 0, 0, 0, 0, 0, 0, 0, 0, 0, 0, 0, 0, 0, 0, 0, 0, 0, 0, 0
   \              000000000000
   \              000000000000
   \              0000000000  
   \   000000C6   000000000000       DC8 0, 0, 0, 0, 0, 0, 0, 0, 0, 0, 0, 0, 0, 0, 0, 0, 0, 0, 0, 0, 0, 0, 0
   \              000000000000
   \              000000000000
   \              0000000000  
   \   000000DD   000000000000       DC8 0, 0, 0, 0, 0, 0, 0, 0, 0, 0, 0, 0, 0, 0, 0, 0, 0, 0, 0, 0, 0, 255
   \              000000000000
   \              000000000000
   \              000000FF    
   \   000000F3   F0EFEBEDEEEF       DC8 240, 239, 235, 237, 238, 239, 239, 238, 237, 235, 239, 240, 255
   \              EFEEEDEBEFF0
   \              FF          
   \   00000100   FF0000000000       DC8 255, 0, 0, 0, 0, 0, 0, 0, 0, 0, 0, 0, 0, 0, 0, 0, 0, 0, 0, 0, 0, 0
   \              000000000000
   \              000000000000
   \              00000000    
   \   00000116   000000000000       DC8 0, 0, 0, 0, 0, 0, 0, 0, 0, 0, 0, 0, 0, 0, 0, 0, 0, 0, 0, 0, 0, 0, 0
   \              000000000000
   \              000000000000
   \              0000000000  
   \   0000012D   000000000000       DC8 0, 0, 0, 0, 0, 0, 0, 0, 0, 0, 0, 0, 0, 0, 0, 0, 0, 0, 0, 0, 0, 0, 0
   \              000000000000
   \              000000000000
   \              0000000000  
   \   00000144   000000000000       DC8 0, 0, 0, 0, 0, 0, 0, 0, 0, 0, 0, 0, 0, 0, 0, 0, 0, 0, 0, 0, 0, 0, 0
   \              000000000000
   \              000000000000
   \              0000000000  
   \   0000015B   000000000000       DC8 0, 0, 0, 0, 0, 0, 0, 0, 0, 0, 0, 0, 0, 0, 0, 0, 0, 0, 0, 0, 0, 0, 0
   \              000000000000
   \              000000000000
   \              0000000000  
   \   00000172   FFFFFFFFFFFF       DC8 255, 255, 255, 255, 255, 255, 255, 255, 255, 255, 255, 255, 255
   \              FFFFFFFFFFFF
   \              FF          
   \   0000017F   FFFF00000000       DC8 255, 255, 0, 0, 0, 0, 0, 0, 0, 0, 0, 0, 0, 0, 0, 0, 0, 0, 0, 0, 0
   \              000000000000
   \              000000000000
   \              000000      
   \   00000194   000000000000       DC8 0, 0, 0, 0, 0, 0, 0, 0, 0, 0, 0, 0, 0, 0, 0, 0, 0, 0, 0, 0, 0, 0, 0
   \              000000000000
   \              000000000000
   \              0000000000  
   \   000001AB   000000000000       DC8 0, 0, 0, 0, 0, 0, 0, 0, 0, 0, 0, 0, 0, 0, 0, 0, 0, 0, 0, 0, 0, 0, 0
   \              000000000000
   \              000000000000
   \              0000000000  
   \   000001C2   000000000000       DC8 0, 0, 0, 0, 0, 0, 0, 0, 0, 0, 0, 0, 0, 0, 0, 0, 0, 0, 0, 0, 0, 0, 0
   \              000000000000
   \              000000000000
   \              0000000000  
   \   000001D9   000000000000       DC8 0, 0, 0, 0, 0, 0, 0, 0, 0, 0, 0, 0, 0, 0, 0, 0, 0, 0, 0, 0, 0, 0, 0
   \              000000000000
   \              000000000000
   \              0000000000  
   \   000001F0   0000FFFFFFFF       DC8 0, 0, 255, 255, 255, 255, 255, 255, 255, 255, 255, 255, 255, 255
   \              FFFFFFFFFFFF
   \              FFFF        
   \   000001FE   FFFFFF000000       DC8 255, 255, 255, 0, 0, 0, 0, 0, 0, 0, 0, 0, 0, 0, 0, 0, 0, 0, 0, 0, 0
   \              000000000000
   \              000000000000
   \              000000      
   \   00000213   000000000000       DC8 0, 0, 0, 0, 0, 0, 0, 0, 0, 0, 0, 0, 0, 0, 0, 0, 0, 0, 0, 0, 0, 0, 0
   \              000000000000
   \              000000000000
   \              0000000000  
   \   0000022A   000000000000       DC8 0, 0, 0, 0, 0, 0, 0, 0, 0, 0, 0, 0, 0, 0, 0, 0, 0, 0, 0, 0, 0, 0, 0
   \              000000000000
   \              000000000000
   \              0000000000  
   \   00000241   000000000000       DC8 0, 0, 0, 0, 0, 0, 0, 0, 0, 0, 0, 0, 0, 0, 0, 0, 0, 0, 0, 0, 0, 0, 0
   \              000000000000
   \              000000000000
   \              0000000000  
   \   00000258   000000000000       DC8 0, 0, 0, 0, 0, 0, 0, 0, 0, 0, 0, 0, 0, 0, 0, 0, 0, 0, 0, 0, 0, 0, 0
   \              000000000000
   \              000000000000
   \              0000000000  
   \   0000026F   000000FFFFFF       DC8 0, 0, 0, 255, 255, 255, 255, 255, 255, 255, 255, 255, 255, 255, 255
   \              FFFFFFFFFFFF
   \              FFFFFF      
   \   0000027E   FFFFFF000000       DC8 255, 255, 255, 0, 0, 0, 0, 0, 0, 0, 0, 0, 0, 0, 0, 0, 0, 0, 0, 0, 0
   \              000000000000
   \              000000000000
   \              000000      
   \   00000293   000000000000       DC8 0, 0, 0, 0, 0, 0, 0, 0, 0, 0, 0, 0, 0, 0, 0, 0, 0, 0, 0, 0, 0, 0, 0
   \              000000000000
   \              000000000000
   \              0000000000  
   \   000002AA   000000000000       DC8 0, 0, 0, 0, 0, 0, 0, 0, 0, 0, 0, 0, 0, 0, 0, 0, 0, 0, 0, 0, 0, 0, 0
   \              000000000000
   \              000000000000
   \              0000000000  
   \   000002C1   000000000000       DC8 0, 0, 0, 0, 0, 0, 0, 0, 0, 0, 0, 0, 0, 0, 0, 0, 0, 0, 0, 0, 0, 0, 0
   \              000000000000
   \              000000000000
   \              0000000000  
   \   000002D8   000000000000       DC8 0, 0, 0, 0, 0, 0, 0, 0, 0, 0, 0, 0, 0, 0, 0, 0, 0, 0, 0, 0, 0, 0, 0
   \              000000000000
   \              000000000000
   \              0000000000  
   \   000002EF   000000FFFFFF       DC8 0, 0, 0, 255, 255, 255, 255, 255, 255, 255, 255, 255, 255, 255, 255
   \              FFFFFFFFFFFF
   \              FFFFFF      
   \   000002FE   FFFFFF602020       DC8 255, 255, 255, 96, 32, 32, 32, 32, 32, 32, 32, 32, 32, 32, 32, 32
   \              202020202020
   \              20202020    
   \   0000030E   2020E060A060       DC8 32, 32, 224, 96, 160, 96, 160, 96, 160, 96, 160, 96, 160, 96, 160
   \              A060A060A060
   \              A060A0      
   \   0000031D   60A060A060A0       DC8 96, 160, 96, 160, 96, 160, 96, 160, 96, 160, 96, 160, 96, 160, 96
   \              60A060A060A0
   \              60A060      
   \   0000032C   A060A060A060       DC8 160, 96, 160, 96, 160, 96, 160, 96, 160, 96, 160, 96, 160, 96, 160
   \              A060A060A060
   \              A060A0      
   \   0000033B   60A060A060A0       DC8 96, 160, 96, 160, 96, 160, 96, 160, 96, 160, 96, 160, 96, 160, 96
   \              60A060A060A0
   \              60A060      
   \   0000034A   A060A060A060       DC8 160, 96, 160, 96, 160, 96, 160, 96, 160, 96, 160, 96, 160, 96, 160
   \              A060A060A060
   \              A060A0      
   \   00000359   60A060A060A0       DC8 96, 160, 96, 160, 96, 160, 96, 160, 96, 224, 32, 32, 32, 32, 32, 32
   \              60A060E02020
   \              20202020    
   \   00000369   202020202020       DC8 32, 32, 32, 32, 32, 32, 32, 32, 96, 255, 255, 255, 255, 255, 255
   \              202060FFFFFF
   \              FFFFFF      
   \   00000378   FFFFFFFFFFFF       DC8 255, 255, 255, 255, 255, 255, 255, 255, 127, 192, 128, 128, 128
   \              FFFF7FC08080
   \              80          
   \   00000385   80848E9F9B80       DC8 128, 132, 142, 159, 155, 128, 128, 128, 128, 128, 128, 255, 213
   \              8080808080FF
   \              D5          
   \   00000392   AAD5AAD5AAD5       DC8 170, 213, 170, 213, 170, 213, 170, 213, 170, 213, 170, 213, 170
   \              AAD5AAD5AAD5
   \              AA          
   \   0000039F   D5AAD5AAD5AA       DC8 213, 170, 213, 170, 213, 170, 213, 170, 213, 170, 213, 170, 213
   \              D5AAD5AAD5AA
   \              D5          
   \   000003AC   AAD5AAD5AAD5       DC8 170, 213, 170, 213, 170, 213, 170, 213, 170, 213, 170, 213, 170
   \              AAD5AAD5AAD5
   \              AA          
   \   000003B9   D5AAD5AAD5AA       DC8 213, 170, 213, 170, 213, 170, 213, 170, 213, 170, 213, 170, 213
   \              D5AAD5AAD5AA
   \              D5          
   \   000003C6   AAD5AAD5AAD5       DC8 170, 213, 170, 213, 170, 213, 170, 213, 170, 213, 170, 213, 170
   \              AAD5AAD5AAD5
   \              AA          
   \   000003D3   D5AAD5AAD5AA       DC8 213, 170, 213, 170, 213, 170, 213, 170, 213, 170, 213, 170, 213
   \              D5AAD5AAD5AA
   \              D5          
   \   000003E0   AAD5FF808080       DC8 170, 213, 255, 128, 128, 128, 128, 155, 159, 142, 132, 128, 128
   \              809B9F8E8480
   \              80          
   \   000003ED   80808080C0FF       DC8 128, 128, 128, 128, 192, 255, 255, 255, 255, 255, 255, 255, 255
   \              FFFFFFFFFFFF
   \              FF          
   \   000003FA   FFFFFFFF7F3F       DC8 255, 255, 255, 255, 127, 63

   \                                 In section .rodata, align 4
   \                     `?<Constant {128, 255, 255, 255, 255, 224, 238,`:
   \   00000000   80FFFFFFFFE0       DC8 128, 255, 255, 255, 255, 224, 238, 238, 224, 255, 255, 255, 255
   \              EEEEE0FFFFFF
   \              FF          
   \   0000000D   800000             DC8 128, 0, 0

   \                                 In section .rodata, align 4
   \   00000000   2000               DC8 " "
   \   00000002   0000               DC8 0, 0

   \                                 In section .rodata, align 4
   \   00000000   00                 DC8 ""
   \   00000001   000000             DC8 0, 0, 0

   \                                 In section .rodata, align 4
   \                     `?<Constant {{249, 13, 245, 245, 245, 245, 245,`:
   \   00000000   F90DF5F5F5F5       DC8 249, 13, 245, 245, 245, 245, 245, 245, 245, 245, 245, 245, 245, 13
   \              F5F5F5F5F5F5
   \              F50D        
   \   0000000E   F9FF00FFFF77       DC8 249, 255, 0, 255, 255, 119, 55, 55, 87, 103, 103, 119, 255, 255, 0
   \              373757676777
   \              FFFF00      
   \   0000001D   FFFF00FFFFC7       DC8 255, 255, 0, 255, 255, 199, 187, 187, 187, 187, 187, 199, 255, 255
   \              BBBBBBBBBBC7
   \              FFFF        
   \   0000002B   00FF3F605F5F       DC8 0, 255, 63, 96, 95, 95, 95, 95, 95, 95, 95, 95, 95, 95, 95, 96, 63
   \              5F5F5F5F5F5F
   \              5F5F5F603F  
   \   0000003C   FE03FDFDFDFD       DC8 254, 3, 253, 253, 253, 253, 253, 253, 253, 253, 253, 253, 253, 3
   \              FDFDFDFDFDFD
   \              FD03        
   \   0000004A   FEFF00FFFFE3       DC8 254, 255, 0, 255, 255, 227, 221, 221, 221, 221, 221, 227, 255, 255
   \              DDDDDDDDDDE3
   \              FFFF        
   \   00000058   00FFFF00FFFF       DC8 0, 255, 255, 0, 255, 255, 238, 246, 250, 252, 250, 246, 238, 255
   \              EEF6FAFCFAF6
   \              EEFF        
   \   00000066   FF00FFCFD8D7       DC8 255, 0, 255, 207, 216, 215, 215, 215, 215, 215, 215, 215, 215, 215
   \              D7D7D7D7D7D7
   \              D7D7        
   \   00000074   D7D7D8CF           DC8 215, 215, 216, 207

   \                                 In section .rodata, align 4
   \                     `?<Constant "Info ">`:
   \   00000000   496E666F2000       DC8 "Info "
   \   00000006   0000               DC8 0, 0

   \                                 In section .rodata, align 4
   \   00000000   4F6B2000           DC8 "Ok "

   \                                 In section .rodata, align 4
   \                     `?<Constant {{254, 255, 3, 249, 5, 245, 245, 24`:
   \   00000000   FEFF03F905F5       DC8 254, 255, 3, 249, 5, 245, 245, 245, 245, 245, 245, 245, 245, 245
   \              F5F5F5F5F5F5
   \              F5F5        
   \   0000000E   F5F5F5F5F505       DC8 245, 245, 245, 245, 245, 5, 249, 1, 1, 249, 5, 245, 245, 245, 245
   \              F90101F905F5
   \              F5F5F5      
   \   0000001D   F5F5F5F5F5F5       DC8 245, 245, 245, 245, 245, 245, 245, 245, 245, 245, 5, 249, 1, 1, 249
   \              F5F5F5F505F9
   \              0101F9      
   \   0000002C   05F5F5F5F5F5       DC8 5, 245, 245, 245, 245, 245, 245, 245, 245, 245, 245, 245, 245, 245
   \              F5F5F5F5F5F5
   \              F5F5        
   \   0000003A   F505F90101F9       DC8 245, 5, 249, 1, 1, 249, 5, 245, 245, 245, 245, 245, 245, 245, 245
   \              05F5F5F5F5F5
   \              F5F5F5      
   \   00000049   F5F5F5F5F5F5       DC8 245, 245, 245, 245, 245, 245, 5, 249, 3, 255, 255, 255, 3, 3, 3, 3
   \              05F903FFFFFF
   \              03030303    
   \   00000059   030303030303       DC8 3, 3, 3, 3, 3, 3, 3, 3, 3, 3, 3, 3, 3, 3, 3, 3, 3, 3, 3, 3, 3, 3, 3
   \              030303030303
   \              030303030303
   \              0303030303  
   \   00000070   FF03FFFFFFFF       DC8 255, 3, 255, 255, 255, 255, 255, 255, 255, 255, 255, 255, 255, 254
   \              FFFFFFFFFFFF
   \              FFFE        
   \   0000007E   FCF8FFFF00FF       DC8 252, 248, 255, 255, 0, 255, 0, 255, 255, 255, 255, 255, 255, 255
   \              00FFFFFFFFFF
   \              FFFF        
   \   0000008C   FFFFFFFFFFFF       DC8 255, 255, 255, 255, 255, 255, 255, 0, 255, 0, 0, 255, 0, 255, 255
   \              FF00FF0000FF
   \              00FFFF      
   \   0000009B   F9F9F9F3F3F3       DC8 249, 249, 249, 243, 243, 243, 231, 231, 207, 192, 255, 255, 0, 255
   \              E7E7CFC0FFFF
   \              00FF        
   \   000000A9   0000FF00FFFF       DC8 0, 0, 255, 0, 255, 255, 231, 231, 192, 230, 229, 229, 227, 227, 231
   \              E7E7C0E6E5E5
   \              E3E3E7      
   \   000000B8   E7FFFF00FF00       DC8 231, 255, 255, 0, 255, 0, 0, 255, 0, 255, 255, 231, 231, 231, 231
   \              00FF00FFFFE7
   \              E7E7E7      
   \   000000C7   E7E7E5E1E3E7       DC8 231, 231, 229, 225, 227, 231, 255, 255, 0, 255, 0, 255, 255, 255, 0
   \              FFFF00FF00FF
   \              FFFF00      
   \   000000D6   000000000000       DC8 0, 0, 0, 0, 0, 0, 0, 0, 0, 0, 0, 0, 0, 0, 0, 0, 0, 0, 0, 0, 0, 0, 0
   \              000000000000
   \              000000000000
   \              0000000000  
   \   000000ED   000000FF00FF       DC8 0, 0, 0, 255, 0, 255, 255, 255, 255, 255, 255, 255, 255, 255, 255
   \              FFFFFFFFFFFF
   \              FFFFFF      
   \   000000FC   FFFFFFFFFFFF       DC8 255, 255, 255, 255, 255, 255, 0, 7, 136, 139, 139, 139, 139, 139
   \              0007888B8B8B
   \              8B8B        
   \   0000010A   8B8B8B8B8B8B       DC8 139, 139, 139, 139, 139, 139, 139, 139, 139, 136, 7, 0, 0, 7, 136
   \              8B8B8B880700
   \              000788      
   \   00000119   8B8B8B8B8B8B       DC8 139, 139, 139, 139, 139, 139, 139, 139, 139, 139, 139, 139, 139
   \              8B8B8B8B8B8B
   \              8B          
   \   00000126   8B8807000007       DC8 139, 136, 7, 0, 0, 7, 136, 139, 139, 139, 139, 139, 139, 139, 139
   \              888B8B8B8B8B
   \              8B8B8B      
   \   00000135   8B8B8B8B8B8B       DC8 139, 139, 139, 139, 139, 139, 136, 7, 0, 0, 7, 136, 139, 139, 139
   \              880700000788
   \              8B8B8B      
   \   00000144   8B8B8B8B8B8B       DC8 139, 139, 139, 139, 139, 139, 139, 139, 139, 139, 139, 136, 7, 0
   \              8B8B8B8B8B88
   \              0700        
   \   00000152   FFFFFF000000       DC8 255, 255, 255, 0, 0, 0, 0, 0, 0, 0, 0, 0, 0, 0, 0, 0, 0, 0, 0, 0, 0
   \              000000000000
   \              000000000000
   \              000000      
   \   00000167   000000000000       DC8 0, 0, 0, 0, 0, 0, 0, 0, 0, 255, 0, 255, 255, 255, 255, 255, 255
   \              000000FF00FF
   \              FFFFFFFFFF  
   \   00000178   FFFFFFFFFFFF       DC8 255, 255, 255, 255, 255, 255, 255, 255, 255, 255, 0, 255, 0, 254
   \              FFFFFFFF00FF
   \              00FE        
   \   00000186   FE3E9E9E9E9E       DC8 254, 62, 158, 158, 158, 158, 158, 158, 158, 158, 62, 254, 254, 0
   \              9E9E9E9E3EFE
   \              FE00        
   \   00000194   FF0000FF00FE       DC8 255, 0, 0, 255, 0, 254, 254, 62, 158, 158, 158, 158, 62, 158, 158
   \              FE3E9E9E9E9E
   \              3E9E9E      
   \   000001A3   9E3EFEFE00FF       DC8 158, 62, 254, 254, 0, 255, 0, 0, 255, 0, 254, 254, 62, 158, 254
   \              0000FF00FEFE
   \              3E9EFE      
   \   000001B2   FEFE9E1E9E3E       DC8 254, 254, 158, 30, 158, 62, 62, 254, 254, 0, 255, 0, 0, 255, 0, 254
   \              3EFEFE00FF00
   \              00FF00FE    
   \   000001C2   FE1E9E3E7E7E       DC8 254, 30, 158, 62, 126, 126, 254, 254, 254, 158, 62, 254, 254, 0
   \              FEFEFE9E3EFE
   \              FE00        
   \   000001D0   FF00FFFFFF00       DC8 255, 0, 255, 255, 255, 0, 0, 0, 0, 0, 0, 0, 0, 0, 0, 0, 0, 0, 0, 0
   \              000000000000
   \              000000000000
   \              0000        
   \   000001E4   000000000000       DC8 0, 0, 0, 0, 0, 0, 0, 0, 0, 0, 0, 0, 255, 0, 255, 255, 255, 255, 255
   \              000000000000
   \              FF00FFFFFFFF
   \              FF          
   \   000001F7   FFFFFFFFFFFF       DC8 255, 255, 255, 255, 255, 255, 255, 255, 255, 255, 255, 0, 255, 0
   \              FFFFFFFFFF00
   \              FF00        
   \   00000205   7F7F7C797979       DC8 127, 127, 124, 121, 121, 121, 121, 121, 121, 121, 121, 124, 127
   \              79797979797C
   \              7F          
   \   00000212   7F00FF0000FF       DC8 127, 0, 255, 0, 0, 255, 0, 127, 127, 124, 121, 121, 121, 121, 124
   \              007F7F7C7979
   \              79797C      
   \   00000221   7979797C7F7F       DC8 121, 121, 121, 124, 127, 127, 0, 255, 0, 0, 255, 0, 127, 127, 124
   \              00FF0000FF00
   \              7F7F7C      
   \   00000230   79797979797C       DC8 121, 121, 121, 121, 121, 124, 127, 127, 120, 127, 127, 0, 255, 0, 0
   \              7F7F787F7F00
   \              FF0000      
   \   0000023F   FF007F7F787F       DC8 255, 0, 127, 127, 120, 127, 127, 126, 124, 124, 121, 121, 121, 124
   \              7F7E7C7C7979
   \              797C        
   \   0000024D   7F7F00FF00FF       DC8 127, 127, 0, 255, 0, 255, 255, 255, 0, 0, 0, 0, 0, 0, 0, 0, 0, 0, 0
   \              FFFF00000000
   \              000000000000
   \              00          
   \   00000260   000000000000       DC8 0, 0, 0, 0, 0, 0, 0, 0, 0, 0, 0, 0, 0, 0, 0, 0, 255, 0, 255, 255
   \              000000000000
   \              00000000FF00
   \              FFFF        
   \   00000274   FFFFFFFFFFFF       DC8 255, 255, 255, 255, 255, 255, 255, 255, 255, 255, 255, 255, 255
   \              FFFFFFFFFFFF
   \              FF          
   \   00000281   FF00E011D1D1       DC8 255, 0, 224, 17, 209, 209, 209, 209, 209, 209, 209, 209, 209, 209
   \              D1D1D1D1D1D1
   \              D1D1        
   \   0000028F   D1D1D1D111E0       DC8 209, 209, 209, 209, 17, 224, 0, 0, 224, 17, 209, 209, 209, 209, 209
   \              0000E011D1D1
   \              D1D1D1      
   \   0000029E   D1D1D1D1D1D1       DC8 209, 209, 209, 209, 209, 209, 209, 209, 209, 17, 224, 0, 0, 224, 17
   \              D1D1D111E000
   \              00E011      
   \   000002AD   D1D1D1D1D1D1       DC8 209, 209, 209, 209, 209, 209, 209, 209, 209, 209, 209, 209, 209
   \              D1D1D1D1D1D1
   \              D1          
   \   000002BA   D111E00000E0       DC8 209, 17, 224, 0, 0, 224, 17, 209, 209, 209, 209, 209, 209, 209, 209
   \              11D1D1D1D1D1
   \              D1D1D1      
   \   000002C9   D1D1D1D1D1D1       DC8 209, 209, 209, 209, 209, 209, 17, 224, 0, 255, 255, 255, 0, 0, 0, 0
   \              11E000FFFFFF
   \              00000000    
   \   000002D9   000000000000       DC8 0, 0, 0, 0, 0, 0, 0, 0, 0, 0, 0, 0, 0, 0, 0, 0, 0, 0, 0, 0, 0, 0, 0
   \              000000000000
   \              000000000000
   \              0000000000  
   \   000002F0   FFC07F7F7F7F       DC8 255, 192, 127, 127, 127, 127, 127, 127, 127, 127, 127, 127, 127
   \              7F7F7F7F7F7F
   \              7F          
   \   000002FD   7FFFFFFFFF00       DC8 127, 255, 255, 255, 255, 0, 255, 0, 255, 255, 255, 255, 255, 255
   \              FF00FFFFFFFF
   \              FFFF        
   \   0000030B   FFFFFFFFFFFF       DC8 255, 255, 255, 255, 255, 255, 255, 255, 0, 255, 0, 0, 255, 0, 255
   \              FFFF00FF0000
   \              FF00FF      
   \   0000031A   FFC7B33F3F07       DC8 255, 199, 179, 63, 63, 7, 51, 51, 51, 51, 135, 255, 255, 0, 255, 0
   \              3333333387FF
   \              FF00FF00    
   \   0000032A   00FF00FFFF87       DC8 0, 255, 0, 255, 255, 135, 51, 51, 49, 49, 129, 241, 243, 55, 143
   \              3333313181F1
   \              F3378F      
   \   00000339   FFFF00FF0000       DC8 255, 255, 0, 255, 0, 0, 255, 0, 255, 255, 135, 51, 63, 63, 63, 143
   \              FF00FFFF8733
   \              3F3F3F8F    
   \   00000349   3F3F3387FFFF       DC8 63, 63, 51, 135, 255, 255, 0, 255, 0, 255, 255, 255, 0, 0, 0, 0, 0
   \              00FF00FFFFFF
   \              0000000000  
   \   0000035A   000000000000       DC8 0, 0, 0, 0, 0, 0, 0, 0, 0, 0, 0, 0, 0, 0, 0, 0, 0, 0, 0, 0, 0, 0
   \              000000000000
   \              000000000000
   \              00000000    
   \   00000370   FF00FEFFFBF7       DC8 255, 0, 254, 255, 251, 247, 111, 159, 159, 111, 247, 251, 255, 254
   \              6F9F9F6FF7FB
   \              FFFE        
   \   0000037E   00FF7FFFC09F       DC8 0, 255, 127, 255, 192, 159, 160, 175, 175, 175, 175, 175, 175, 175
   \              A0AFAFAFAFAF
   \              AFAF        
   \   0000038C   AFAFAFAFAFAF       DC8 175, 175, 175, 175, 175, 175, 175, 160, 159, 128, 128, 159, 160
   \              AFA09F80809F
   \              A0          
   \   00000399   AFAFAFAFAFAF       DC8 175, 175, 175, 175, 175, 175, 175, 175, 175, 175, 175, 175, 175
   \              AFAFAFAFAFAF
   \              AF          
   \   000003A6   AFA09F80809F       DC8 175, 160, 159, 128, 128, 159, 160, 175, 175, 175, 175, 175, 175
   \              A0AFAFAFAFAF
   \              AF          
   \   000003B3   AFAFAFAFAFAF       DC8 175, 175, 175, 175, 175, 175, 175, 175, 160, 159, 128, 128, 159
   \              AFAFA09F8080
   \              9F          
   \   000003C0   A0AFAFAFAFAF       DC8 160, 175, 175, 175, 175, 175, 175, 175, 175, 175, 175, 175, 175
   \              AFAFAFAFAFAF
   \              AF          
   \   000003CD   AFAFA09FC0FF       DC8 175, 175, 160, 159, 192, 255, 255, 255, 192, 192, 192, 192, 192
   \              FFFFC0C0C0C0
   \              C0          
   \   000003DA   C0C0C0C0C0C0       DC8 192, 192, 192, 192, 192, 192, 192, 192, 192, 192, 192, 192, 192
   \              C0C0C0C0C0C0
   \              C0          
   \   000003E7   C0C0C0C0C0C0       DC8 192, 192, 192, 192, 192, 192, 192, 192, 192, 255, 240, 231, 239
   \              C0C0C0FFF0E7
   \              EF          
   \   000003F4   EDEEEFEFEFEF       DC8 237, 238, 239, 239, 239, 239, 238, 237, 239, 103, 48, 31
   \              EEEDEF67301F

   \                                 In section .rodata, align 4
   \                     `?<Constant {{0, 0, 0, 0, 0, 0, 0, 0, 0, 0, 0, `:
   \   00000000   000000000000       DC8 0, 0, 0, 0, 0, 0, 0, 0, 0, 0, 0, 0, 0, 0, 0, 0, 0, 0, 0, 0, 0, 0, 0
   \              000000000000
   \              000000000000
   \              0000000000  
   \   00000017   000000000000       DC8 0, 0, 0, 0, 0, 0, 0, 0, 255, 1, 253, 5, 5, 5, 5, 5, 5, 5, 5, 5, 5
   \              0000FF01FD05
   \              050505050505
   \              050505      
   \   0000002C   050505050505       DC8 5, 5, 5, 5, 5, 5, 5, 5, 229, 5, 5, 5, 5, 5, 5, 5, 5, 5, 5, 5, 5, 5
   \              0505E5050505
   \              050505050505
   \              05050505    
   \   00000042   050505050505       DC8 5, 5, 5, 5, 5, 5, 5, 5, 5, 5, 5, 5, 5, 5, 5, 5, 5, 5, 5, 5, 5, 5, 5
   \              050505050505
   \              050505050505
   \              0505050505  
   \   00000059   050505050505       DC8 5, 5, 5, 5, 5, 5, 5, 5, 5, 5, 5, 253, 1, 255, 0, 0, 0, 0, 0, 0, 0
   \              0505050505FD
   \              01FF00000000
   \              000000      
   \   0000006E   000000000000       DC8 0, 0, 0, 0, 0, 0, 0, 0, 0, 0, 0, 0, 0, 0, 0, 0, 0, 0, 0, 0, 0, 0, 0
   \              000000000000
   \              000000000000
   \              0000000000  
   \   00000085   000000000000       DC8 0, 0, 0, 0, 0, 0, 0, 0, 0, 0, 0, 0, 0, 0, 0, 0, 0, 0, 0, 0, 0, 0, 0
   \              000000000000
   \              000000000000
   \              0000000000  
   \   0000009C   000000FF00FF       DC8 0, 0, 0, 255, 0, 255, 0, 0, 248, 12, 244, 244, 244, 244, 244, 244
   \              0000F80CF4F4
   \              F4F4F4F4    
   \   000000AC   F4F4F4F40CF8       DC8 244, 244, 244, 244, 12, 248, 0, 0, 255, 0, 0, 0, 0, 0, 0, 0, 0, 0
   \              0000FF000000
   \              000000000000
   \   000000BE   000000000000       DC8 0, 0, 0, 0, 0, 0, 0, 0, 0, 0, 0, 0, 0, 0, 0, 0, 0, 0, 0, 0, 0, 0, 0
   \              000000000000
   \              000000000000
   \              0000000000  
   \   000000D5   000000000000       DC8 0, 0, 0, 0, 0, 0, 0, 0, 0, 0, 0, 0, 0, 0, 0, 255, 0, 255, 0, 0, 0
   \              000000000000
   \              000000FF00FF
   \              000000      
   \   000000EA   000000000000       DC8 0, 0, 0, 0, 0, 0, 0, 0, 0, 0, 0, 0, 0, 0, 0, 0, 0, 0, 0, 0, 0, 0, 0
   \              000000000000
   \              000000000000
   \              0000000000  
   \   00000101   000000000000       DC8 0, 0, 0, 0, 0, 0, 0, 0, 0, 0, 0, 0, 0, 0, 0, 0, 0, 0, 0, 0, 0, 0, 0
   \              000000000000
   \              000000000000
   \              0000000000  
   \   00000118   000000000000       DC8 0, 0, 0, 0, 0, 0, 0, 255, 0, 255, 0, 0, 255, 0, 255, 255, 255, 255
   \              00FF00FF0000
   \              FF00FFFFFFFF
   \   0000012A   FFFFFFFFFFFF       DC8 255, 255, 255, 255, 255, 255, 0, 255, 0, 0, 255, 0, 0, 0, 0, 0, 0
   \              00FF0000FF00
   \              0000000000  
   \   0000013B   000000000000       DC8 0, 0, 0, 0, 0, 0, 0, 0, 0, 0, 0, 0, 0, 0, 0, 0, 0, 0, 0, 0, 0, 0, 0
   \              000000000000
   \              000000000000
   \              0000000000  
   \   00000152   000000000000       DC8 0, 0, 0, 0, 0, 0, 0, 0, 0, 0, 0, 0, 0, 0, 0, 0, 0, 0, 255, 0, 255
   \              000000000000
   \              000000000000
   \              FF00FF      
   \   00000167   000000000000       DC8 0, 0, 0, 0, 0, 0, 0, 0, 0, 0, 0, 0, 0, 0, 0, 0, 0, 0, 0, 0, 0, 0, 0
   \              000000000000
   \              000000000000
   \              0000000000  
   \   0000017E   000000000000       DC8 0, 0, 0, 0, 0, 0, 0, 0, 0, 0, 0, 0, 0, 0, 0, 0, 0, 0, 0, 0, 0, 0, 0
   \              000000000000
   \              000000000000
   \              0000000000  
   \   00000195   000000000000       DC8 0, 0, 0, 0, 0, 0, 0, 0, 0, 0, 255, 0, 255, 0, 0, 255, 0, 255, 255
   \              00000000FF00
   \              FF0000FF00FF
   \              FF          
   \   000001A8   C7BBBBBBBBBB       DC8 199, 187, 187, 187, 187, 187, 199, 255, 0, 255, 0, 0, 255, 0, 0, 0
   \              C7FF00FF0000
   \              FF000000    
   \   000001B8   000000000000       DC8 0, 0, 0, 0, 0, 0, 0, 0, 0, 0, 0, 0, 0, 0, 0, 0, 0, 0, 0, 0, 0, 0, 0
   \              000000000000
   \              000000000000
   \              0000000000  
   \   000001CF   000000000000       DC8 0, 0, 0, 0, 0, 0, 0, 0, 0, 0, 0, 0, 0, 0, 0, 0, 0, 0, 0, 0, 0, 255
   \              000000000000
   \              000000000000
   \              000000FF    
   \   000001E5   00FF00000000       DC8 0, 255, 0, 0, 0, 0, 0, 0, 0, 0, 0, 0, 0, 0, 0, 0, 0, 0, 0, 0, 0, 0
   \              000000000000
   \              000000000000
   \              00000000    
   \   000001FB   000000000000       DC8 0, 0, 0, 0, 0, 0, 0, 0, 0, 0, 0, 0, 0, 0, 0, 0, 0, 0, 0, 0, 0, 0, 0
   \              000000000000
   \              000000000000
   \              0000000000  
   \   00000212   000000000000       DC8 0, 0, 0, 0, 0, 0, 0, 0, 0, 0, 0, 0, 0, 255, 0, 255, 0, 0, 255, 0
   \              000000000000
   \              00FF00FF0000
   \              FF00        
   \   00000226   FFFFDDEDF5F9       DC8 255, 255, 221, 237, 245, 249, 245, 237, 221, 255, 0, 255, 0, 0, 255
   \              F5EDDDFF00FF
   \              0000FF      
   \   00000235   000000000000       DC8 0, 0, 0, 0, 0, 0, 0, 0, 0, 0, 0, 0, 0, 0, 0, 0, 0, 0, 0, 0, 0, 0, 0
   \              000000000000
   \              000000000000
   \              0000000000  
   \   0000024C   000000000000       DC8 0, 0, 0, 0, 0, 0, 0, 0, 0, 0, 0, 0, 0, 0, 0, 0, 0, 0, 0, 0, 0, 0, 0
   \              000000000000
   \              000000000000
   \              0000000000  
   \   00000263   00FF00FF0000       DC8 0, 255, 0, 255, 0, 0, 0, 0, 0, 0, 0, 0, 0, 0, 0, 0, 0, 0, 0, 0, 0
   \              000000000000
   \              000000000000
   \              000000      
   \   00000278   000000000000       DC8 0, 0, 0, 0, 0, 0, 0, 0, 0, 0, 0, 0, 0, 0, 0, 0, 0, 0, 0, 0, 0, 0, 0
   \              000000000000
   \              000000000000
   \              0000000000  
   \   0000028F   000000000000       DC8 0, 0, 0, 0, 0, 0, 0, 0, 0, 0, 0, 0, 0, 0, 0, 0, 255, 0, 255, 0, 0
   \              000000000000
   \              00000000FF00
   \              FF0000      
   \   000002A4   FF00FFFFFFFF       DC8 255, 0, 255, 255, 255, 255, 255, 255, 255, 255, 255, 255, 0, 255, 0
   \              FFFFFFFFFFFF
   \              00FF00      
   \   000002B3   00FF00000000       DC8 0, 255, 0, 0, 0, 0, 0, 0, 0, 0, 0, 0, 0, 0, 0, 0, 0, 0, 0, 0, 0, 0
   \              000000000000
   \              000000000000
   \              00000000    
   \   000002C9   000000000000       DC8 0, 0, 0, 0, 0, 0, 0, 0, 0, 0, 0, 0, 0, 0, 0, 0, 0, 0, 0, 0, 0, 0, 0
   \              000000000000
   \              000000000000
   \              0000000000  
   \   000002E0   00000000FF00       DC8 0, 0, 0, 0, 255, 0, 255, 0, 0, 0, 0, 0, 0, 0, 0, 0, 0, 0, 0, 0, 0
   \              FF0000000000
   \              000000000000
   \              000000      
   \   000002F5   000000000000       DC8 0, 0, 0, 0, 0, 0, 0, 0, 0, 0, 0, 0, 0, 0, 0, 0, 0, 0, 0, 0, 0, 0, 0
   \              000000000000
   \              000000000000
   \              0000000000  
   \   0000030C   000000000000       DC8 0, 0, 0, 0, 0, 0, 0, 0, 0, 0, 0, 0, 0, 0, 0, 0, 0, 0, 0, 255, 0
   \              000000000000
   \              000000000000
   \              00FF00      
   \   00000321   FF00003F605F       DC8 255, 0, 0, 63, 96, 95, 95, 95, 95, 95, 95, 95, 95, 95, 95, 96, 63
   \              5F5F5F5F5F5F
   \              5F5F5F603F  
   \   00000332   0000FF000000       DC8 0, 0, 255, 0, 0, 0, 0, 0, 0, 0, 0, 0, 0, 0, 0, 0, 0, 0, 0, 0, 0, 0
   \              000000000000
   \              000000000000
   \              00000000    
   \   00000348   000000000000       DC8 0, 0, 0, 0, 0, 0, 0, 0, 0, 0, 0, 0, 0, 0, 0, 0, 0, 0, 0, 0, 0, 0, 0
   \              000000000000
   \              000000000000
   \              0000000000  
   \   0000035F   0000000000FF       DC8 0, 0, 0, 0, 0, 255, 0, 255, 0, 0, 0, 0, 0, 0, 0, 0, 0, 0, 0, 0, 0
   \              00FF00000000
   \              000000000000
   \              000000      
   \   00000374   000000000000       DC8 0, 0, 0, 0, 0, 0, 0, 0, 0, 0, 0, 0, 0, 0, 0, 0, 0, 0, 0, 0, 0, 0, 0
   \              000000000000
   \              000000000000
   \              0000000000  
   \   0000038B   000000000000       DC8 0, 0, 0, 0, 0, 0, 0, 0, 0, 0, 0, 0, 0, 0, 0, 0, 0, 0, 0, 0, 255
   \              000000000000
   \              000000000000
   \              0000FF      
   \   000003A0   80BFA0A0A0A0       DC8 128, 191, 160, 160, 160, 160, 160, 160, 160, 160, 160, 160, 160
   \              A0A0A0A0A0A0
   \              A0          
   \   000003AD   A0A0A0A0A0A0       DC8 160, 160, 160, 160, 160, 160, 160, 167, 160, 160, 160, 160, 160
   \              A0A7A0A0A0A0
   \              A0          
   \   000003BA   A0A0A0A0A0A0       DC8 160, 160, 160, 160, 160, 160, 160, 160, 160, 160, 160, 160, 160
   \              A0A0A0A0A0A0
   \              A0          
   \   000003C7   A0A0A0A0A0A0       DC8 160, 160, 160, 160, 160, 160, 160, 160, 160, 160, 160, 160, 160
   \              A0A0A0A0A0A0
   \              A0          
   \   000003D4   A0A0A0A0A0A0       DC8 160, 160, 160, 160, 160, 160, 160, 160, 160, 160, 160, 160, 160
   \              A0A0A0A0A0A0
   \              A0          
   \   000003E1   A0A0A0BF80FF       DC8 160, 160, 160, 191, 128, 255, 0, 0, 0, 0, 0, 0, 0, 0, 0, 0, 0, 0, 0
   \              000000000000
   \              000000000000
   \              00          
   \   000003F4   000000000000       DC8 0, 0, 0, 0, 0, 0, 0, 0, 0, 0, 0, 0
   \              000000000000

   \                                 In section .rodata, align 4
   \   00000000   000000000000       DC32 0H, 0H, 0H, 0H, 0H, 0H, 0H, 0H, 0H, 0H, 0H, 0H, 0H, 0H, 0H
   \              000000000000
   \              000000000000
   \              000000000000
   \              000000000000
   \              000000000000
   \              000000000000
   \              000000000000
   \              000000000000
   \              000000000000
   3170          
   3171          #endif
                       ^
Warning[Pe001]: last line of file ends without a newline

   Maximum stack usage in bytes:

     Function              .cstack
     --------              -------
     AT91F_PIO_CfgInput         0
     AT91F_PIO_CfgOutput        0
     AT91F_PIO_ClearOutput      0
     Ask_Event                 32
     Ask_Paint                160
     Button                    56
     CanvasPixel               24
     CharToStr                 24
     CharToStr2                24
     CharToStrData             16
     CheckLCD                   0
     CleanCanvas                8
     CleanCanvasArea           32
     CopyToCanvas               8
     CopyToCanvasPoint         40
     DateToStr                 24
     FloToStr                 120
     GetTouchPoint             24
     H_line                    32
     HalfCleanCanvas           16
     HexToStr                  16
     Init_LCD_TS                8
     Label                     56
     Label20                   56
     LabelLength               24
     List_Event                72
     List_Paint               288
     Message                   56
     Message_Paint           1080
     Number_Event              40
     Number_Paint            1064
     ReadADC                    8
     ReadTP                    16
     Rectangle                 24
     RepaintLCD                16
     ScrollList_Paint        1088
     TimeToStr                 24
     V_line                    40
     Zone                      56
     at91ChipSelect             8
     at91DisplayData           16
     at91DisplayOnOff           8
     at91DisplayStartLine       8
     at91DisplayStartPage       8
     at91DisplayYAdress        16
     sIntToStr                 32


   Section sizes:

     Function/Label                 Bytes
     --------------                 -----
     AT91F_PIO_CfgOutput               6
     AT91F_PIO_CfgInput                6
     AT91F_PIO_ClearOutput             4
     korekta_Y                         8
     korekta_X                         8
     m_pPio                            4
     TS_pPio                           4
     LCD_Canvas                     1024
     chipSelect                        1
     RepaintLCD                      152
     CleanCanvas                      40
     HalfCleanCanvas                  92
     CleanCanvasArea                 256
     CanvasPixel                     140
     CopyToCanvas                     46
     CopyToCanvasPoint               248
     at91DisplayOnOff                100
     at91DisplayStartLine             80
     at91DisplayStartPage            124
     at91DisplayYAdress              268
     at91DisplayData                 316
     at91ChipSelect                   76
     ReadTP                          192
     odp                               2
     ReadADC                         216
     Init_LCD_TS                     120
     Arial_7                        1012
     Arial_18                       5200
     Label                          1024
     LabelLength                     116
     Label20                        1008
     TimeToStr                       176
     DateToStr                       176
     CharToStr                       178
     CharToStr2                       92
     CharToStrData                    60
     sIntToStr                       412
     HexToStr                         96
     RealRows                          1
     RowsPoz                           1
     List_Paint                     1684
     List_Event                     1732
     SelectRow                         1
     DownAction                        1
     Xdown                             1
     LastAnsD                          1
     LastAns                           1
     ScrollList_Paint                216
     Ask_Paint                       208
     Ask_Event                       364
     Message                         232
     Number_Paint                    152
     Number_Event                    488
     Message_Paint                   304
     FloToStr                       3492
     H_line                          284
     V_line                          388
     ButtonEventTime                   8
     ButtonBipCounter                  8
     Button                          936
     ButtonDown                        1
     Zone                            584
     Rectangle                       134
     CheckLCD                        224
     Up                                4
     Down                              4
     GetTouchPoint                   708
     TouchList                        16
     ??DataTable14                     4
     ?<Constant {{255, 1, 255, 255, 255, 255, 255,
                                     144
     ?<Constant {{254, 1, 1, 1, 1, 1, 1, 1, 1, 1, 1
                                    1024
     ?<Constant {128, 255, 255, 255, 255, 224, 238,
                                      16
     ?<Constant " ">                   4
     ?<Constant "">                    4
     ?<Constant {{249, 13, 245, 245, 245, 245, 245,
                                     120
     ?<Constant "Info ">               8
     ?<Constant "Ok ">                 4
     ?<Constant {{254, 255, 3, 249, 5, 245, 245, 24
                                    1024
     ?<Constant {{0, 0, 0, 0, 0, 0, 0, 0, 0, 0, 0,
                                    1024
     ?<Constant {(0.0F), (0.0F), (0.0F), (0.0F), (0
                                      60

 
     48 bytes in section .bss
  1 051 bytes in section .data
  9 644 bytes in section .rodata
 17 954 bytes in section Debug.txt
 
 17 622 bytes of CODE  memory (+ 332 bytes shared)
  9 644 bytes of CONST memory
  1 099 bytes of DATA  memory

Errors: none
Warnings: 35
