###############################################################################
#                                                                             #
# IAR ARM ANSI C/C++ Compiler V5.10.5.372/W32           11/Sep/2013  19:44:44 #
# Copyright 1999-2007 IAR Systems. All rights reserved.                       #
#                                                                             #
#    Cpu mode     =  thumb                                                    #
#    Endian       =  little                                                   #
#    Source file  =  D:\Zeuron\Projekty\S300\S300-program v1.4 -              #
#                    12.06.2013\Framework\RF.c                                #
#    Command line =  "D:\Zeuron\Projekty\S300\S300-program v1.4 -             #
#                    12.06.2013\Framework\RF.c" -D AT91SAM7S256 -D            #
#                    AT91SAM7SEK -D iH -D _LCD_NEGATIV_OLD_ -D __ALARM -D     #
#                    __WIFI_MODULE -D _DEBUG_ -D S300iOld -D _ADMINISTRATOR_  #
#                    -lC "D:\Zeuron\Projekty\S300\S300-program v1.4 -         #
#                    12.06.2013\S300X (Old)\List\" --diag_suppress Pa082 -o   #
#                    "D:\Zeuron\Projekty\S300\S300-program v1.4 -             #
#                    12.06.2013\S300X (Old)\Obj\" --no_cse --no_unroll        #
#                    --no_inline --no_code_motion --no_tbaa --no_clustering   #
#                    --no_scheduling --debug --endian little --cpu ARM7TDMI   #
#                    -e --fpu None --dlib_config "C:\Program Files (x86)\IAR  #
#                    Systems\Embedded Workbench 5.0\ARM\INC\DLib_Config_Norma #
#                    l.h" -I "D:\Zeuron\Projekty\S300\S300-program v1.4 -     #
#                    12.06.2013\lib\AT91SAM7S256\" -I                         #
#                    "D:\Zeuron\Projekty\S300\S300-program v1.4 -             #
#                    12.06.2013\lib\AT91SAM7S64\" -I                          #
#                    "D:\Zeuron\Projekty\S300\S300-program v1.4 -             #
#                    12.06.2013\" -I "D:\Zeuron\Projekty\S300\S300-program    #
#                    v1.4 - 12.06.2013\cdc\" -I "D:\Zeuron\Projekty\S300\S300 #
#                    -program v1.4 - 12.06.2013\core\" -I                     #
#                    "D:\Zeuron\Projekty\S300\S300-program v1.4 -             #
#                    12.06.2013\startup\" -I "D:\Zeuron\Projekty\S300\S300-pr #
#                    ogram v1.4 - 12.06.2013\Framework\" -I                   #
#                    "D:\Zeuron\Projekty\S300\S300-program v1.4 -             #
#                    12.06.2013\Framework\Configuration\" -I "C:\Program      #
#                    Files (x86)\IAR Systems\Embedded Workbench               #
#                    5.0\ARM\INC\" --section .text=Debug.txt --interwork      #
#                    --cpu_mode thumb -Ol                                     #
#    List file    =  D:\Zeuron\Projekty\S300\S300-program v1.4 -              #
#                    12.06.2013\S300X (Old)\List\RF.lst                       #
#    Object file  =  D:\Zeuron\Projekty\S300\S300-program v1.4 -              #
#                    12.06.2013\S300X (Old)\Obj\RF.o                          #
#                                                                             #
#                                                                             #
###############################################################################

D:\Zeuron\Projekty\S300\S300-program v1.4 - 12.06.2013\Framework\RF.c
      1          //****************************************************************************//
      2          //*--------------------------------------------------------------------------*//
      3          //*                  Microcontroller Software Support                        *//                       
      4          //*--------------------------------------------------------------------------*//
      5          //*--------------------------------------------------------------------------*//
      6          //*  Nazwa pliku                  : RF.c                                     *//
      7          //*  Opis                         : Plik obs³ugi sprzêtowej komunikacji radiowej *//
      8          //*  Autor                        : Pawe³ Narwojsz                           *//
      9          //*  Data utrzorzenia             : 31.06.2010                               *//
     10          //*  Data ostatniej modyfikacji   : --.--.----                               *//
     11          //*--------------------------------------------------------------------------*//
     12          //*                                                                          *//
     13          //*--------------------------------------------------------------------------*//
     14          //* Rejestr zmian  (data - opis):                                            *//
     15          //*                                                                          *//
     16          //*                               Brak zmian                                 *//
     17          //*                                                                          *//
     18          //*__________________________________________________________________________*// 
     19          //****************************************************************************//
     20          //****************************************************************************//
     21          
     22          
     23          
     24                #include "RF.h"   
     25                #include "RF_Exe.h"

   \                                 In section Debug.txt, align 4
   \   __??Code16?? __code __interwork void AT91F_AIC_EnableIt(AT91PS_AIC, unsigned int)
   \                     AT91F_AIC_EnableIt:
   \   00000000   9022               MOVS     R2,#+144
   \   00000002   5200               LSLS     R2,R2,#+1        ;; #+288
   \   00000004   0123               MOVS     R3,#+1
   \   00000006   8B40               LSLS     R3,R3,R1
   \   00000008   8350               STR      R3,[R0, R2]
   \   0000000A   7047               BX       LR               ;; return

   \                                 In section Debug.txt, align 4
   \   __??Code16?? __code __interwork void AT91F_PIO_CfgInput(AT91PS_PIO, unsigned int)
   \                     AT91F_PIO_CfgInput:
   \   00000000   4161               STR      R1,[R0, #+20]
   \   00000002   0160               STR      R1,[R0, #+0]
   \   00000004   7047               BX       LR               ;; return

   \                                 In section Debug.txt, align 4
   \   __??Code16?? __code __interwork void AT91F_PIO_InterruptEnable(AT91PS_PIO, unsigned int)
   \                     AT91F_PIO_InterruptEnable:
   \   00000000   0164               STR      R1,[R0, #+64]
   \   00000002   7047               BX       LR               ;; return

   \                                 In section Debug.txt, align 4
   \   __??Code16?? __code __interwork void AT91F_PMC_EnablePeriphClock(AT91PS_PMC, unsigned int)
   \                     AT91F_PMC_EnablePeriphClock:
   \   00000000   0161               STR      R1,[R0, #+16]
   \   00000002   7047               BX       LR               ;; return
     26                #include <intrinsics.h>
     27                #include "Framework.h"
     28                #include "core/device.h"   
     29                #include "board.h"   
     30                #include "spi_main.h"
     31                #include "core/trace.h"
     32                #include "InterruptPriority.h"

                                          
                                          ^
"D:\Zeuron\Projekty\S300\S300-program v1.4 - 12.06.2013\Framework\Configuration\InterruptPriority.h",59  Warning[Pe001]: 
          last line of file ends without a newline
     33          
     34          
     35          
     36          
     37          

   \                                 In section .bss, align 4
     38          _RF_Rx RF_Rx;
   \                     RF_Rx:
   \   00000000                      DS8 24

   \                                 In section .bss, align 4
     39          _RF_Tx RF_Tx;
   \                     RF_Tx:
   \   00000000                      DS8 24
     40          

   \                                 In section .bss, align 1
     41          char SPI_RFM12_Read=0;
   \                     SPI_RFM12_Read:
   \   00000000                      DS8 1
     42          

   \                                 In section .rodata, align 4
     43          const char Preambu[]={0xAA, 0xAA, 0xAA};  //Preambu³a
   \                     Preambu:
   \   00000000   AAAAAA00           DC8 170, 170, 170, 0

   \                                 In section .rodata, align 4
     44          const char SynKay[]= {0x2D, 0xD4};        //s³owo synchronizacyjne
   \                     SynKay:
   \   00000000   2DD40000           DC8 45, 212, 0, 0
     45          
     46          
     47          
     48          
     49          
     50          
     51          
     52          
     53          
     54          
     55          
     56          //Zmienne globalne -------------------------------------------------------------

   \                                 In section .bss, align 4
     57            _RF_Status RF_Status;
   \                     RF_Status:
   \   00000000                      DS8 44
     58          //___________________________Koniec zmiennych globalnych________________________
     59          
     60          
     61            extern unsigned long long  g_counter;
     62            extern char g_RF_TimeOutCounter;
     63            extern volatile char SlaveMode;
     64            

   \                                 In section .bss, align 1
     65           char tmp_int=0;
   \                     tmp_int:
   \   00000000                      DS8 1
     66            
     67          //Tworzenie pse³do-klasy RF_Status --------------------------------------------
     68              
     69            //Uruchomienie trybu Nadajnika

   \                                 In section Debug.txt, align 4, keep-with-next
     70            void _RF_EnableTX(void)
     71            {
   \                     _RF_EnableTX:
   \   00000000   01B5               PUSH     {R0,LR}
     72               
     73              RF_Status.EnRx=0;
   \   00000002   ....               LDR      R0,??DataTable48  ;; RF_Status + 1
   \   00000004   0021               MOVS     R1,#+0
   \   00000006   0170               STRB     R1,[R0, #+0]
     74              RF_Status.EnTx=0;
   \   00000008   ....               LDR      R0,??DataTable49  ;; RF_Status + 2
   \   0000000A   0021               MOVS     R1,#+0
   \   0000000C   0170               STRB     R1,[R0, #+0]
     75              RF_Status.Transmit=0;
   \   0000000E   ....               LDR      R0,??DataTable42  ;; RF_Status + 8
   \   00000010   0021               MOVS     R1,#+0
   \   00000012   0170               STRB     R1,[R0, #+0]
     76              RF_Tx.BytesToSend=0;
   \   00000014   ....               LDR      R0,??DataTable43  ;; RF_Tx + 20
   \   00000016   0021               MOVS     R1,#+0
   \   00000018   0170               STRB     R1,[R0, #+0]
     77              RF_Status.EnRxWait=0;
   \   0000001A   ....               LDR      R0,??DataTable44  ;; RF_Status + 10
   \   0000001C   0021               MOVS     R1,#+0
   \   0000001E   0170               STRB     R1,[R0, #+0]
     78              RF_Status.RxStarting=0;
   \   00000020   ....               LDR      R0,??DataTable45  ;; RF_Status + 6
   \   00000022   0021               MOVS     R1,#+0
   \   00000024   0170               STRB     R1,[R0, #+0]
     79              RF_Status.TxStarting=1;
   \   00000026   ....               LDR      R0,??DataTable46  ;; RF_Status + 5
   \   00000028   0121               MOVS     R1,#+1
   \   0000002A   0170               STRB     R1,[R0, #+0]
     80          
     81              SPI_SendWord(0x8219,Cs_RF);                          //wy³¹cz odbiornik/nadajnik
                     ^
Warning[Pe223]: function "SPI_SendWord" declared implicitly
   \   0000002C   0221               MOVS     R1,#+2
   \   0000002E   ....               LDR      R0,??DataTable7  ;; 0x8219
   \   00000030   ........           BL       SPI_SendWord
     82              RF_Status.InitTx=1;
   \   00000034   ....               LDR      R0,??DataTable8  ;; RF_Status + 3
   \   00000036   0121               MOVS     R1,#+1
   \   00000038   0170               STRB     R1,[R0, #+0]
     83          
     84          #ifdef __MaxRf
     85              AT91C_BASE_PIOA->PIO_SODR =TxPin; 
     86          #endif    
     87            }
   \   0000003A   01B0               ADD      SP,SP,#+4
   \   0000003C   01BC               POP      {R0}
   \   0000003E   0047               BX       R0               ;; return
     88          
     89          
     90            
     91            
     92            
     93            
     94           //Uruchomienie trybu odbiornika

   \                                 In section Debug.txt, align 4, keep-with-next
     95           void _RF_EnableRX(void)
     96            {
   \                     _RF_EnableRX:
   \   00000000   01B5               PUSH     {R0,LR}
     97              //Je¿eli przy prubie prze³¹czenia wysy³ane s¹ dane to poczekaj na zakoñczenie wysy³ki
     98              if ((RF_Tx.BytesToSend>0)) 
   \   00000002   ....               LDR      R0,??DataTable43  ;; RF_Tx + 20
   \   00000004   0078               LDRB     R0,[R0, #+0]
   \   00000006   0128               CMP      R0,#+1
   \   00000008   03D3               BCC      ??_RF_EnableRX_0
     99              {
    100                RF_Status.EnRxWait=1; 
   \   0000000A   ....               LDR      R0,??DataTable44  ;; RF_Status + 10
   \   0000000C   0121               MOVS     R1,#+1
   \   0000000E   0170               STRB     R1,[R0, #+0]
   \   00000010   19E0               B        ??_RF_EnableRX_1
    101              }else{
    102          
    103                SPI_SendWord(0x8067,Cs_RF); 
                       ^
Warning[Pe223]: function "SPI_SendWord" declared implicitly
   \                     ??_RF_EnableRX_0:
   \   00000012   0221               MOVS     R1,#+2
   \   00000014   ....               LDR      R0,??DataTable52  ;; 0x8067
   \   00000016   ........           BL       SPI_SendWord
    104                
    105                RF_Status.EnTx=0;
   \   0000001A   ....               LDR      R0,??DataTable49  ;; RF_Status + 2
   \   0000001C   0021               MOVS     R1,#+0
   \   0000001E   0170               STRB     R1,[R0, #+0]
    106                RF_Status.EnRx=0;
   \   00000020   ....               LDR      R0,??DataTable48  ;; RF_Status + 1
   \   00000022   0021               MOVS     R1,#+0
   \   00000024   0170               STRB     R1,[R0, #+0]
    107                RF_Tx.BytesToSend=0;
   \   00000026   ....               LDR      R0,??DataTable43  ;; RF_Tx + 20
   \   00000028   0021               MOVS     R1,#+0
   \   0000002A   0170               STRB     R1,[R0, #+0]
    108                RF_Status.Transmit=0;
   \   0000002C   ....               LDR      R0,??DataTable42  ;; RF_Status + 8
   \   0000002E   0021               MOVS     R1,#+0
   \   00000030   0170               STRB     R1,[R0, #+0]
    109                RF_Status.TxStarting=0;
   \   00000032   ....               LDR      R0,??DataTable46  ;; RF_Status + 5
   \   00000034   0021               MOVS     R1,#+0
   \   00000036   0170               STRB     R1,[R0, #+0]
    110                RF_Status.RxStarting=1;
   \   00000038   ....               LDR      R0,??DataTable45  ;; RF_Status + 6
   \   0000003A   0121               MOVS     R1,#+1
   \   0000003C   0170               STRB     R1,[R0, #+0]
    111                
    112                SPI_SendWord(0x8299,Cs_RF);
   \   0000003E   0221               MOVS     R1,#+2
   \   00000040   ....               LDR      R0,??DataTable18  ;; 0x8299
   \   00000042   ........           BL       SPI_SendWord
    113          
    114          
    115          
    116              }
    117            }
   \                     ??_RF_EnableRX_1:
   \   00000046   01B0               ADD      SP,SP,#+4
   \   00000048   01BC               POP      {R0}
   \   0000004A   0047               BX       R0               ;; return
    118          
    119            //Konstruktor RF_Status

   \                                 In section Debug.txt, align 4, keep-with-next
    120            void _pRF_Status(void)
    121            {
    122              RF_Status.EnableTX = _RF_EnableTX;
   \                     _pRF_Status:
   \   00000000   ....               LDR      R0,??DataTable19  ;; RF_Status + 36
   \   00000002   0349               LDR      R1,??_pRF_Status_0  ;; _RF_EnableTX
   \   00000004   0160               STR      R1,[R0, #+0]
    123              RF_Status.EnableRX = _RF_EnableRX; 
   \   00000006   ....               LDR      R0,??DataTable31  ;; RF_Status + 40
   \   00000008   0249               LDR      R1,??_pRF_Status_0+0x4  ;; _RF_EnableRX
   \   0000000A   0160               STR      R1,[R0, #+0]
    124            }
   \   0000000C   7047               BX       LR               ;; return
   \   0000000E   C046               Nop      
   \                     ??_pRF_Status_0:
   \   00000010   ........           DC32     _RF_EnableTX
   \   00000014   ........           DC32     _RF_EnableRX
    125          
    126          //________koniec tworzenia pse³do-klasy RF_Status _______________________________
    127          
    128          
    129          
    130          
    131          
    132          

   \                                 In section Debug.txt, align 4, keep-with-next
    133          void InitRF_Interrupt(void)
    134          {
   \                     InitRF_Interrupt:
   \   00000000   01B5               PUSH     {R0,LR}
    135              AT91F_PIO_CfgInput(IR_PIO_BUS, RfIntBUS);
   \   00000002   8021               MOVS     R1,#+128
   \   00000004   C900               LSLS     R1,R1,#+3        ;; #+1024
   \   00000006   ....               LDR      R0,??DataTable33  ;; 0xfffff400
   \   00000008   ........           BL       AT91F_PIO_CfgInput
    136              AT91F_PIO_InterruptEnable(PIO_RfIntBUS, RfIntBUS);
   \   0000000C   8021               MOVS     R1,#+128
   \   0000000E   C900               LSLS     R1,R1,#+3        ;; #+1024
   \   00000010   ....               LDR      R0,??DataTable33  ;; 0xfffff400
   \   00000012   ........           BL       AT91F_PIO_InterruptEnable
    137              AT91F_AIC_EnableIt(AT91C_BASE_AIC, ID_RfIntBUS);
   \   00000016   0221               MOVS     R1,#+2
   \   00000018   0248               LDR      R0,??InitRF_Interrupt_0  ;; 0xfffff000
   \   0000001A   ........           BL       AT91F_AIC_EnableIt
    138          }
   \   0000001E   01B0               ADD      SP,SP,#+4
   \   00000020   01BC               POP      {R0}
   \   00000022   0047               BX       R0               ;; return
   \                     ??InitRF_Interrupt_0:
   \   00000024   00F0FFFF           DC32     0xfffff000
    139          
    140            
    141            
    142          
    143          

   \                                 In section Debug.txt, align 4, keep-with-next
    144          void RF_Int(void)
    145          {
   \                     RF_Int:
   \   00000000   01B5               PUSH     {R0,LR}
    146            
    147              
    148              //je¿eli uka³d dzia³a jako odbiornik
    149              if (RF_Status.EnRx) 
   \   00000002   ....               LDR      R0,??DataTable48  ;; RF_Status + 1
   \   00000004   0078               LDRB     R0,[R0, #+0]
   \   00000006   0028               CMP      R0,#+0
   \   00000008   08D0               BEQ      ??RF_Int_0
    150              {
    151                if (RF_Status.Init==0) 
   \   0000000A   ....               LDR      R0,??DataTable51  ;; RF_Status
   \   0000000C   0078               LDRB     R0,[R0, #+0]
   \   0000000E   0028               CMP      R0,#+0
   \   00000010   25D1               BNE      ??RF_Int_1
    152                {
    153                  SPI_SendWord(0x0000,Cs_RF);
                         ^
Warning[Pe223]: function "SPI_SendWord" declared implicitly
   \   00000012   0221               MOVS     R1,#+2
   \   00000014   0020               MOVS     R0,#+0
   \   00000016   ........           BL       SPI_SendWord
   \   0000001A   20E0               B        ??RF_Int_1
    154                }
    155              }
    156              //je¿eli uka³d dzia³a jako nadajnik
    157              else if ((RF_Status.EnTx) && (RF_Status.Transmit==1))  
   \                     ??RF_Int_0:
   \   0000001C   ....               LDR      R0,??DataTable49  ;; RF_Status + 2
   \   0000001E   0078               LDRB     R0,[R0, #+0]
   \   00000020   0028               CMP      R0,#+0
   \   00000022   1CD0               BEQ      ??RF_Int_1
   \   00000024   ....               LDR      R0,??DataTable42  ;; RF_Status + 8
   \   00000026   0078               LDRB     R0,[R0, #+0]
   \   00000028   0128               CMP      R0,#+1
   \   0000002A   18D1               BNE      ??RF_Int_1
    158              {
    159          
    160                
    161                if (RF_Tx.BytesToSend>0) 
   \   0000002C   ....               LDR      R0,??DataTable43  ;; RF_Tx + 20
   \   0000002E   0078               LDRB     R0,[R0, #+0]
   \   00000030   0128               CMP      R0,#+1
   \   00000032   02D3               BCC      ??RF_Int_2
    162                {    
    163                  RF_transmit();
   \   00000034   ........           BL       RF_transmit
   \   00000038   11E0               B        ??RF_Int_1
    164                }
    165                else if (RF_Status.EnRxWait)
   \                     ??RF_Int_2:
   \   0000003A   ....               LDR      R0,??DataTable44  ;; RF_Status + 10
   \   0000003C   0078               LDRB     R0,[R0, #+0]
   \   0000003E   0028               CMP      R0,#+0
   \   00000040   0AD0               BEQ      ??RF_Int_3
    166                {
    167                  RF_Status.Transmit=0;
   \   00000042   ....               LDR      R0,??DataTable42  ;; RF_Status + 8
   \   00000044   0021               MOVS     R1,#+0
   \   00000046   0170               STRB     R1,[R0, #+0]
    168                  RF_Status.EnRxWait=0;
   \   00000048   ....               LDR      R0,??DataTable44  ;; RF_Status + 10
   \   0000004A   0021               MOVS     R1,#+0
   \   0000004C   0170               STRB     R1,[R0, #+0]
    169                  RF_Status.EnableRX();
   \   0000004E   ....               LDR      R0,??DataTable31  ;; RF_Status + 40
   \   00000050   0068               LDR      R0,[R0, #+0]
   \   00000052   ........           BL       __iar_via_R0
   \   00000056   02E0               B        ??RF_Int_1
    170                }
    171                else
    172                {
    173                   RF_Status.Transmit=0; 
   \                     ??RF_Int_3:
   \   00000058   ....               LDR      R0,??DataTable42  ;; RF_Status + 8
   \   0000005A   0021               MOVS     R1,#+0
   \   0000005C   0170               STRB     R1,[R0, #+0]
    174                }
    175              }
    176           
    177          
    178          }//_____________________________________________________________________________
   \                     ??RF_Int_1:
   \   0000005E   01B0               ADD      SP,SP,#+4
   \   00000060   01BC               POP      {R0}
   \   00000062   0047               BX       R0               ;; return
    179          //
    180          
    181          
    182          
    183          
    184          
    185          
    186          

   \                                 In section Debug.txt, align 4, keep-with-next
    187          void ConfigureRFBus(void)
    188          {
   \                     ConfigureRFBus:
   \   00000000   01B5               PUSH     {R0,LR}
    189          #if !defined(IR_RF_DEF)
    190              AT91F_PMC_EnablePeriphClock(AT91C_BASE_PMC, 1 << ID_RfIntBUS);
   \   00000002   0421               MOVS     R1,#+4
   \   00000004   0548               LDR      R0,??ConfigureRFBus_0  ;; 0xfffffc00
   \   00000006   ........           BL       AT91F_PMC_EnablePeriphClock
    191              AT91F_PIO_CfgInput(IR_PIO_BUS, RfIntBUS);
   \   0000000A   8021               MOVS     R1,#+128
   \   0000000C   C900               LSLS     R1,R1,#+3        ;; #+1024
   \   0000000E   ....               LDR      R0,??DataTable33  ;; 0xfffff400
   \   00000010   ........           BL       AT91F_PIO_CfgInput
    192              
    193          #endif
    194          }
   \   00000014   01B0               ADD      SP,SP,#+4
   \   00000016   01BC               POP      {R0}
   \   00000018   0047               BX       R0               ;; return
   \   0000001A   C046               Nop      
   \                     ??ConfigureRFBus_0:
   \   0000001C   00FCFFFF           DC32     0xfffffc00
    195          
    196          
    197          
    198          

   \                                 In section .bss, align 1
    199          char IntCA81Flag=0;
   \                     IntCA81Flag:
   \   00000000                      DS8 1
    200          

   \                                 In section Debug.txt, align 4, keep-with-next
    201          void RF_Init(void)
    202          { 
   \                     RF_Init:
   \   00000000   01B5               PUSH     {R0,LR}
    203            #ifndef RF_Int_Init_DEF
    204            
    205            TRACE_INFO("RF_Init \n\r"); 
    206            
    207                //ustawienia pocz¹tkowe uk³adu
    208                RF_Status.RF_Status = _pRF_Status;
   \   00000002   2248               LDR      R0,??RF_Init_0   ;; RF_Status + 32
   \   00000004   2249               LDR      R1,??RF_Init_0+0x4  ;; _pRF_Status
   \   00000006   0160               STR      R1,[R0, #+0]
    209                RF_Status.RF_Status();  //konstruktor pse³do-klasy RF_Status
   \   00000008   2048               LDR      R0,??RF_Init_0   ;; RF_Status + 32
   \   0000000A   0068               LDR      R0,[R0, #+0]
   \   0000000C   ........           BL       __iar_via_R0
    210                  
    211                
    212                
    213                      RF_Status.EnTx=0;
   \   00000010   ....               LDR      R0,??DataTable49  ;; RF_Status + 2
   \   00000012   0021               MOVS     R1,#+0
   \   00000014   0170               STRB     R1,[R0, #+0]
    214                RF_Status.EnRx=0;
   \   00000016   ....               LDR      R0,??DataTable48  ;; RF_Status + 1
   \   00000018   0021               MOVS     R1,#+0
   \   0000001A   0170               STRB     R1,[R0, #+0]
    215                RF_Tx.BytesToSend=0;
   \   0000001C   ....               LDR      R0,??DataTable43  ;; RF_Tx + 20
   \   0000001E   0021               MOVS     R1,#+0
   \   00000020   0170               STRB     R1,[R0, #+0]
    216                RF_Status.Transmit=0;
   \   00000022   ....               LDR      R0,??DataTable42  ;; RF_Status + 8
   \   00000024   0021               MOVS     R1,#+0
   \   00000026   0170               STRB     R1,[R0, #+0]
    217                RF_Status.TxStarting=0;
   \   00000028   ....               LDR      R0,??DataTable46  ;; RF_Status + 5
   \   0000002A   0021               MOVS     R1,#+0
   \   0000002C   0170               STRB     R1,[R0, #+0]
    218                RF_Status.RxStarting=0;
   \   0000002E   ....               LDR      R0,??DataTable45  ;; RF_Status + 6
   \   00000030   0021               MOVS     R1,#+0
   \   00000032   0170               STRB     R1,[R0, #+0]
    219                    RF_Status.EnRx=0;
   \   00000034   ....               LDR      R0,??DataTable48  ;; RF_Status + 1
   \   00000036   0021               MOVS     R1,#+0
   \   00000038   0170               STRB     R1,[R0, #+0]
    220              RF_Status.EnTx=0;
   \   0000003A   ....               LDR      R0,??DataTable49  ;; RF_Status + 2
   \   0000003C   0021               MOVS     R1,#+0
   \   0000003E   0170               STRB     R1,[R0, #+0]
    221              RF_Status.Transmit=0;
   \   00000040   ....               LDR      R0,??DataTable42  ;; RF_Status + 8
   \   00000042   0021               MOVS     R1,#+0
   \   00000044   0170               STRB     R1,[R0, #+0]
    222              RF_Tx.BytesToSend=0;
   \   00000046   ....               LDR      R0,??DataTable43  ;; RF_Tx + 20
   \   00000048   0021               MOVS     R1,#+0
   \   0000004A   0170               STRB     R1,[R0, #+0]
    223              RF_Status.EnRxWait=0;
   \   0000004C   ....               LDR      R0,??DataTable44  ;; RF_Status + 10
   \   0000004E   0021               MOVS     R1,#+0
   \   00000050   0170               STRB     R1,[R0, #+0]
    224              RF_Status.RxStarting=0;
   \   00000052   ....               LDR      R0,??DataTable45  ;; RF_Status + 6
   \   00000054   0021               MOVS     R1,#+0
   \   00000056   0170               STRB     R1,[R0, #+0]
    225              RF_Status.TxStarting=0;
   \   00000058   ....               LDR      R0,??DataTable46  ;; RF_Status + 5
   \   0000005A   0021               MOVS     R1,#+0
   \   0000005C   0170               STRB     R1,[R0, #+0]
    226              RF_Status.RfFuse=0;
   \   0000005E   ....               LDR      R0,??DataTable47  ;; RF_Status + 17
   \   00000060   0021               MOVS     R1,#+0
   \   00000062   0170               STRB     R1,[R0, #+0]
    227                
    228                  
    229              //Konfiguracja wstêpna
    230                  #ifdef RF_Master 
    231                        RF_Status.EnTx=1; 
    232                        RF_Status.EnRx=0; 
    233                  #else   
    234                        RF_Status.EnRx=1;
   \   00000064   ....               LDR      R0,??DataTable48  ;; RF_Status + 1
   \   00000066   0121               MOVS     R1,#+1
   \   00000068   0170               STRB     R1,[R0, #+0]
    235                        RF_Status.EnTx=0; 
   \   0000006A   ....               LDR      R0,??DataTable49  ;; RF_Status + 2
   \   0000006C   0021               MOVS     R1,#+0
   \   0000006E   0170               STRB     R1,[R0, #+0]
    236                  #endif
    237                
    238             
    239                        
    240                  
    241                  IntCA81Flag=0;
   \   00000070   ....               LDR      R0,??DataTable50  ;; IntCA81Flag
   \   00000072   0021               MOVS     R1,#+0
   \   00000074   0170               STRB     R1,[R0, #+0]
    242                  RF_Status.Init=1;
   \   00000076   ....               LDR      R0,??DataTable51  ;; RF_Status
   \   00000078   0121               MOVS     R1,#+1
   \   0000007A   0170               STRB     R1,[R0, #+0]
    243                  SPI_SendWord(0x8067,Cs_RF); //EL,EF,868band,12.0pF   - pierwszy rozkaz konfiguracji
                         ^
Warning[Pe223]: function "SPI_SendWord" declared implicitly
   \   0000007C   0221               MOVS     R1,#+2
   \   0000007E   ....               LDR      R0,??DataTable52  ;; 0x8067
   \   00000080   ........           BL       SPI_SendWord
    244          
    245              
    246                 // AT91C_BASE_PIOA->PIO_SODR =SpeakerPin;  
    247                 //ButtonBipCounter=g_counter+1;
    248            
    249                  
    250             #endif
    251          }//_____________________________________________________________________________
   \   00000084   01B0               ADD      SP,SP,#+4
   \   00000086   01BC               POP      {R0}
   \   00000088   0047               BX       R0               ;; return
   \   0000008A   C046               Nop      
   \                     ??RF_Init_0:
   \   0000008C   ........           DC32     RF_Status + 32
   \   00000090   ........           DC32     _pRF_Status
    252          
    253          
    254          
    255          
    256          
    257          
    258          
    259          
    260          
    261          
    262          
    263          
    264          
    265          
    266          

   \                                 In section .data, align 1
    267          char CountVal=16;
   \                     CountVal:
   \   00000000   10                 DC8 16

   \                                 In section Debug.txt, align 4, keep-with-next
    268          void SPI_RFM12_Execute(char *Buffer_Tx, char *Buffer_Rx)                                       
    269          {
   \                     SPI_RFM12_Execute:
   \   00000000   31B5               PUSH     {R0,R4,R5,LR}
   \   00000002   0D00               MOVS     R5,R1
    270              int Order=  Buffer_Tx[0] | Buffer_Tx[1]<<8;
   \   00000004   0178               LDRB     R1,[R0, #+0]
   \   00000006   4078               LDRB     R0,[R0, #+1]
   \   00000008   0402               LSLS     R4,R0,#+8
   \   0000000A   0C43               ORRS     R4,R4,R1
    271          
    272              
    273              //Je¿eli uk³ad RF12 w trakcie inicjalizacji pierwotnej---------------------
    274              
    275          
    276          
    277              
    278              
    279              if (RF_Status.Init)
   \   0000000C   B748               LDR      R0,??SPI_RFM12_Execute_0  ;; RF_Status
   \   0000000E   0078               LDRB     R0,[R0, #+0]
   \   00000010   0028               CMP      R0,#+0
   \   00000012   00D1               BNE      .+4
   \   00000014   D7E0               B        ??SPI_RFM12_Execute_1
    280              {
    281                         
    282                if (Order==0x8067) 
   \   00000016   B648               LDR      R0,??SPI_RFM12_Execute_0+0x4  ;; 0x8067
   \   00000018   8442               CMP      R4,R0
   \   0000001A   10D1               BNE      ??SPI_RFM12_Execute_2
    283                //{ if (RF_Status.EnRx)  RF_Status.EnableRX(); else RF_Status.EnableTX(); } //Rozkaz: 0x80E7 - EL,EF,868band,12.0pF 
    284                { SPI_SendWord(0x8219,Cs_RF); 
                         ^
Warning[Pe223]: function "SPI_SendWord" declared implicitly
   \   0000001C   0221               MOVS     R1,#+2
   \   0000001E   B548               LDR      R0,??SPI_RFM12_Execute_0+0x8  ;; 0x8219
   \   00000020   ........           BL       SPI_SendWord
    285                 if (RF_Status.EnRx)  SPI_SendWord(0x8299,Cs_RF); else SPI_SendWord(0x8239,Cs_RF); 
   \   00000024   B448               LDR      R0,??SPI_RFM12_Execute_0+0xC  ;; RF_Status + 1
   \   00000026   0078               LDRB     R0,[R0, #+0]
   \   00000028   0028               CMP      R0,#+0
   \   0000002A   04D0               BEQ      ??SPI_RFM12_Execute_3
   \   0000002C   0221               MOVS     R1,#+2
   \   0000002E   B348               LDR      R0,??SPI_RFM12_Execute_0+0x10  ;; 0x8299
   \   00000030   ........           BL       SPI_SendWord
   \   00000034   03E0               B        ??SPI_RFM12_Execute_2
   \                     ??SPI_RFM12_Execute_3:
   \   00000036   0221               MOVS     R1,#+2
   \   00000038   B148               LDR      R0,??SPI_RFM12_Execute_0+0x14  ;; 0x8239
   \   0000003A   ........           BL       SPI_SendWord
    286                } //Rozkaz: 0x80E7 - EL,EF,868band,12.0pF 
    287               
    288          
    289                if ((Order==0x8299) || (Order==0x8239) || (Order==0x8219))
   \                     ??SPI_RFM12_Execute_2:
   \   0000003E   AF48               LDR      R0,??SPI_RFM12_Execute_0+0x10  ;; 0x8299
   \   00000040   8442               CMP      R4,R0
   \   00000042   05D0               BEQ      ??SPI_RFM12_Execute_4
   \   00000044   AE48               LDR      R0,??SPI_RFM12_Execute_0+0x14  ;; 0x8239
   \   00000046   8442               CMP      R4,R0
   \   00000048   02D0               BEQ      ??SPI_RFM12_Execute_4
   \   0000004A   AA48               LDR      R0,??SPI_RFM12_Execute_0+0x8  ;; 0x8219
   \   0000004C   8442               CMP      R4,R0
   \   0000004E   28D1               BNE      ??SPI_RFM12_Execute_5
    290                                 { SPI_SendWord(0xA000 | RF_SetFreqReg(RF_Status.Ch),Cs_RF); }       //Rozkaz: 0xA6xx Czêstotliwoœæ bazowa (Kana³ 0)  - oryginalnie by³o 0xA640 - 868,0Mhz
                                          ^
Warning[Pe223]: function "SPI_SendWord" declared implicitly
   \                     ??SPI_RFM12_Execute_4:
   \   00000050   0221               MOVS     R1,#+2
   \   00000052   0D00               MOVS     R5,R1
   \   00000054   AB48               LDR      R0,??SPI_RFM12_Execute_0+0x18  ;; RF_Status + 14
   \   00000056   0078               LDRB     R0,[R0, #+0]
   \   00000058   ........           BL       __aeabi_ui2d
   \   0000005C   0200               MOVS     R2,R0
   \   0000005E   0B00               MOVS     R3,R1
   \   00000060   A948               LDR      R0,??SPI_RFM12_Execute_0+0x1C  ;; 0x33333333
   \   00000062   AA49               LDR      R1,??SPI_RFM12_Execute_0+0x20  ;; 0x3fd33333
   \   00000064   ........           BL       __aeabi_dmul
   \   00000068   0200               MOVS     R2,R0
   \   0000006A   0B00               MOVS     R3,R1
   \   0000006C   A848               LDR      R0,??SPI_RFM12_Execute_0+0x24  ;; 0x5c28f5c3
   \   0000006E   A949               LDR      R1,??SPI_RFM12_Execute_0+0x28  ;; 0x408ae28f
   \   00000070   ........           BL       __aeabi_dadd
   \   00000074   0200               MOVS     R2,R0
   \   00000076   0B00               MOVS     R3,R1
   \   00000078   0020               MOVS     R0,#+0
   \   0000007A   A749               LDR      R1,??SPI_RFM12_Execute_0+0x2C  ;; 0x40690000
   \   0000007C   ........           BL       __aeabi_dmul
   \   00000080   0200               MOVS     R2,R0
   \   00000082   0B00               MOVS     R3,R1
   \   00000084   0020               MOVS     R0,#+0
   \   00000086   A549               LDR      R1,??SPI_RFM12_Execute_0+0x30  ;; 0xc104ff00
   \   00000088   ........           BL       __aeabi_dadd
   \   0000008C   ........           BL       __aeabi_d2iz
   \   00000090   0004               LSLS     R0,R0,#+16       ;; SignExtS R0,R0,#+16,#+16
   \   00000092   0014               ASRS     R0,R0,#+16
   \   00000094   A021               MOVS     R1,#+160
   \   00000096   0902               LSLS     R1,R1,#+8        ;; #+40960
   \   00000098   0143               ORRS     R1,R1,R0
   \   0000009A   0800               MOVS     R0,R1
   \   0000009C   2900               MOVS     R1,R5
   \   0000009E   ........           BL       SPI_SendWord
    291                if (Order==(0xA000 | RF_SetFreqReg(RF_Status.Ch)))  
   \                     ??SPI_RFM12_Execute_5:
   \   000000A2   9848               LDR      R0,??SPI_RFM12_Execute_0+0x18  ;; RF_Status + 14
   \   000000A4   0078               LDRB     R0,[R0, #+0]
   \   000000A6   ........           BL       __aeabi_ui2d
   \   000000AA   974A               LDR      R2,??SPI_RFM12_Execute_0+0x1C  ;; 0x33333333
   \   000000AC   974B               LDR      R3,??SPI_RFM12_Execute_0+0x20  ;; 0x3fd33333
   \   000000AE   ........           BL       __aeabi_dmul
   \   000000B2   974A               LDR      R2,??SPI_RFM12_Execute_0+0x24  ;; 0x5c28f5c3
   \   000000B4   974B               LDR      R3,??SPI_RFM12_Execute_0+0x28  ;; 0x408ae28f
   \   000000B6   ........           BL       __aeabi_dadd
   \   000000BA   0022               MOVS     R2,#+0
   \   000000BC   964B               LDR      R3,??SPI_RFM12_Execute_0+0x2C  ;; 0x40690000
   \   000000BE   ........           BL       __aeabi_dmul
   \   000000C2   0022               MOVS     R2,#+0
   \   000000C4   954B               LDR      R3,??SPI_RFM12_Execute_0+0x30  ;; 0xc104ff00
   \   000000C6   ........           BL       __aeabi_dadd
   \   000000CA   ........           BL       __aeabi_d2iz
   \   000000CE   0004               LSLS     R0,R0,#+16       ;; SignExtS R0,R0,#+16,#+16
   \   000000D0   0014               ASRS     R0,R0,#+16
   \   000000D2   A021               MOVS     R1,#+160
   \   000000D4   0902               LSLS     R1,R1,#+8        ;; #+40960
   \   000000D6   0143               ORRS     R1,R1,R0
   \   000000D8   8C42               CMP      R4,R1
   \   000000DA   03D1               BNE      ??SPI_RFM12_Execute_6
    292                  
    293                                 { SPI_SendWord(0xC607,Cs_RF); }                          //Rozkaz: 0xC607 Szybkoœæ transmisji 43kb/s         - oryginalnie by³o 0xC647 - 4,8kb/s
                                          ^
Warning[Pe223]: function "SPI_SendWord" declared implicitly
   \   000000DC   0221               MOVS     R1,#+2
   \   000000DE   9048               LDR      R0,??SPI_RFM12_Execute_0+0x34  ;; 0xc607
   \   000000E0   ........           BL       SPI_SendWord
    294                if (Order==0xC607)  
   \                     ??SPI_RFM12_Execute_6:
   \   000000E4   8E48               LDR      R0,??SPI_RFM12_Execute_0+0x34  ;; 0xc607
   \   000000E6   8442               CMP      R4,R0
   \   000000E8   03D1               BNE      ??SPI_RFM12_Execute_7
    295                                 { SPI_SendWord(0x94A0,Cs_RF); }                          //Rozkaz: 0x94A0 VDI,FAST,134kHz,0dBm,-103dBm 
                                          ^
Warning[Pe223]: function "SPI_SendWord" declared implicitly
   \   000000EA   0221               MOVS     R1,#+2
   \   000000EC   8D48               LDR      R0,??SPI_RFM12_Execute_0+0x38  ;; 0x94a0
   \   000000EE   ........           BL       SPI_SendWord
    296                if (Order==0x94A0)  
   \                     ??SPI_RFM12_Execute_7:
   \   000000F2   8C48               LDR      R0,??SPI_RFM12_Execute_0+0x38  ;; 0x94a0
   \   000000F4   8442               CMP      R4,R0
   \   000000F6   03D1               BNE      ??SPI_RFM12_Execute_8
    297                                 { SPI_SendWord(0xC2AC,Cs_RF); }                          //Rozkaz: 0xC2AC AL,!ml,DIG,DQD4 
                                          ^
Warning[Pe223]: function "SPI_SendWord" declared implicitly
   \   000000F8   0221               MOVS     R1,#+2
   \   000000FA   8B48               LDR      R0,??SPI_RFM12_Execute_0+0x3C  ;; 0xc2ac
   \   000000FC   ........           BL       SPI_SendWord
    298                if (Order==0xC2AC)  
   \                     ??SPI_RFM12_Execute_8:
   \   00000100   8948               LDR      R0,??SPI_RFM12_Execute_0+0x3C  ;; 0xc2ac
   \   00000102   8442               CMP      R4,R0
   \   00000104   03D1               BNE      ??SPI_RFM12_Execute_9
    299                                 { SPI_SendWord(0xCA81,Cs_RF); }                          //Rozkaz: 0xCA81 FIFO8,SYNC,!ff,DR 
                                          ^
Warning[Pe223]: function "SPI_SendWord" declared implicitly
   \   00000106   0221               MOVS     R1,#+2
   \   00000108   8848               LDR      R0,??SPI_RFM12_Execute_0+0x40  ;; 0xca81
   \   0000010A   ........           BL       SPI_SendWord
    300                if ((Order==0xCA81) && (IntCA81Flag==0))  
   \                     ??SPI_RFM12_Execute_9:
   \   0000010E   8748               LDR      R0,??SPI_RFM12_Execute_0+0x40  ;; 0xca81
   \   00000110   8442               CMP      R4,R0
   \   00000112   0BD1               BNE      ??SPI_RFM12_Execute_10
   \   00000114   8648               LDR      R0,??SPI_RFM12_Execute_0+0x44  ;; IntCA81Flag
   \   00000116   0078               LDRB     R0,[R0, #+0]
   \   00000118   0028               CMP      R0,#+0
   \   0000011A   07D1               BNE      ??SPI_RFM12_Execute_10
    301                                 { SPI_SendWord(0xCED4,Cs_RF); IntCA81Flag=1; Order=0xFFFF;}   //Rozkaz: 0xCED4 ustawienie s³owa synchronizacyjnego na 0x2DD4 
                                          ^
Warning[Pe223]: function "SPI_SendWord" declared implicitly
   \   0000011C   0221               MOVS     R1,#+2
   \   0000011E   8548               LDR      R0,??SPI_RFM12_Execute_0+0x48  ;; 0xced4
   \   00000120   ........           BL       SPI_SendWord
   \   00000124   8248               LDR      R0,??SPI_RFM12_Execute_0+0x44  ;; IntCA81Flag
   \   00000126   0121               MOVS     R1,#+1
   \   00000128   0170               STRB     R1,[R0, #+0]
   \   0000012A   834C               LDR      R4,??SPI_RFM12_Execute_0+0x4C  ;; 0xffff
    302                if (Order==0xCED4)  
   \                     ??SPI_RFM12_Execute_10:
   \   0000012C   8148               LDR      R0,??SPI_RFM12_Execute_0+0x48  ;; 0xced4
   \   0000012E   8442               CMP      R4,R0
   \   00000130   03D1               BNE      ??SPI_RFM12_Execute_11
    303                                 { SPI_SendWord(0xC493,Cs_RF); }                          //Rozkaz: 0xC493 @PWR, AFC:-80+75Khz ,!st,!fi,OE,EN       - oryginalnie 0xC483 @PWR,AFC - NO RSTRIC,!st,!fi,OE,EN 
                                          ^
Warning[Pe223]: function "SPI_SendWord" declared implicitly
   \   00000132   0221               MOVS     R1,#+2
   \   00000134   8148               LDR      R0,??SPI_RFM12_Execute_0+0x50  ;; 0xc493
   \   00000136   ........           BL       SPI_SendWord
    304                if (Order==0xC493)  
   \                     ??SPI_RFM12_Execute_11:
   \   0000013A   8048               LDR      R0,??SPI_RFM12_Execute_0+0x50  ;; 0xc493
   \   0000013C   8442               CMP      R4,R0
   \   0000013E   03D1               BNE      ??SPI_RFM12_Execute_12
    305                                 { SPI_SendWord(0x9850,Cs_RF); }                          //Rozkaz: 0x9850 !mp,dewiacja +-90kHz ,MAX OUT   
                                          ^
Warning[Pe223]: function "SPI_SendWord" declared implicitly
   \   00000140   0221               MOVS     R1,#+2
   \   00000142   7F48               LDR      R0,??SPI_RFM12_Execute_0+0x54  ;; 0x9850
   \   00000144   ........           BL       SPI_SendWord
    306                if (Order==0x9850)  
   \                     ??SPI_RFM12_Execute_12:
   \   00000148   7D48               LDR      R0,??SPI_RFM12_Execute_0+0x54  ;; 0x9850
   \   0000014A   8442               CMP      R4,R0
   \   0000014C   03D1               BNE      ??SPI_RFM12_Execute_13
    307                                 { SPI_SendWord(0xCC17,Cs_RF); }                          //Rozkaz: 0xCC17 OB1COB0, LPX,IddyCDDITC
                                          ^
Warning[Pe223]: function "SPI_SendWord" declared implicitly
   \   0000014E   0221               MOVS     R1,#+2
   \   00000150   7C48               LDR      R0,??SPI_RFM12_Execute_0+0x58  ;; 0xcc17
   \   00000152   ........           BL       SPI_SendWord
    308                if (Order==0xCC17)  
   \                     ??SPI_RFM12_Execute_13:
   \   00000156   7B48               LDR      R0,??SPI_RFM12_Execute_0+0x58  ;; 0xcc17
   \   00000158   8442               CMP      R4,R0
   \   0000015A   04D1               BNE      ??SPI_RFM12_Execute_14
    309                                 { SPI_SendWord(0xE000,Cs_RF); }                          //Rozkaz: 0xE000
                                          ^
Warning[Pe223]: function "SPI_SendWord" declared implicitly
   \   0000015C   0221               MOVS     R1,#+2
   \   0000015E   E020               MOVS     R0,#+224
   \   00000160   0002               LSLS     R0,R0,#+8        ;; #+57344
   \   00000162   ........           BL       SPI_SendWord
    310                if (Order==0xE000)  
   \                     ??SPI_RFM12_Execute_14:
   \   00000166   E020               MOVS     R0,#+224
   \   00000168   0002               LSLS     R0,R0,#+8        ;; #+57344
   \   0000016A   8442               CMP      R4,R0
   \   0000016C   04D1               BNE      ??SPI_RFM12_Execute_15
    311                                 { SPI_SendWord(0xC800,Cs_RF); }                          //Rozkaz: 0xC800
                                          ^
Warning[Pe223]: function "SPI_SendWord" declared implicitly
   \   0000016E   0221               MOVS     R1,#+2
   \   00000170   C820               MOVS     R0,#+200
   \   00000172   0002               LSLS     R0,R0,#+8        ;; #+51200
   \   00000174   ........           BL       SPI_SendWord
    312                if (Order==0xC800)  
   \                     ??SPI_RFM12_Execute_15:
   \   00000178   C820               MOVS     R0,#+200
   \   0000017A   0002               LSLS     R0,R0,#+8        ;; #+51200
   \   0000017C   8442               CMP      R4,R0
   \   0000017E   03D1               BNE      ??SPI_RFM12_Execute_16
    313                                 { SPI_SendWord(0xC040,Cs_RF); }                          //Rozkaz: 0xC040 1.66MHz,2.2V 
                                          ^
Warning[Pe223]: function "SPI_SendWord" declared implicitly
   \   00000180   0221               MOVS     R1,#+2
   \   00000182   7148               LDR      R0,??SPI_RFM12_Execute_0+0x5C  ;; 0xc040
   \   00000184   ........           BL       SPI_SendWord
    314                if (Order==0xC040)  
   \                     ??SPI_RFM12_Execute_16:
   \   00000188   6F48               LDR      R0,??SPI_RFM12_Execute_0+0x5C  ;; 0xc040
   \   0000018A   8442               CMP      R4,R0
   \   0000018C   03D1               BNE      ??SPI_RFM12_Execute_17
    315                                 { SPI_SendWord(0xCA81,Cs_RF); }                          //Rozkaz: 0xCA81 Start fifo RX
                                          ^
Warning[Pe223]: function "SPI_SendWord" declared implicitly
   \   0000018E   0221               MOVS     R1,#+2
   \   00000190   6648               LDR      R0,??SPI_RFM12_Execute_0+0x40  ;; 0xca81
   \   00000192   ........           BL       SPI_SendWord
    316                if ((Order==0xCA81) && (IntCA81Flag==1))  
   \                     ??SPI_RFM12_Execute_17:
   \   00000196   6548               LDR      R0,??SPI_RFM12_Execute_0+0x40  ;; 0xca81
   \   00000198   8442               CMP      R4,R0
   \   0000019A   07D1               BNE      ??SPI_RFM12_Execute_18
   \   0000019C   6448               LDR      R0,??SPI_RFM12_Execute_0+0x44  ;; IntCA81Flag
   \   0000019E   0078               LDRB     R0,[R0, #+0]
   \   000001A0   0128               CMP      R0,#+1
   \   000001A2   03D1               BNE      ??SPI_RFM12_Execute_18
    317                                 { SPI_SendWord(0xCA83,Cs_RF); }                          //Rozkaz: 0xCA83 Restart fifo RX
                                          ^
Warning[Pe223]: function "SPI_SendWord" declared implicitly
   \   000001A4   0221               MOVS     R1,#+2
   \   000001A6   6948               LDR      R0,??SPI_RFM12_Execute_0+0x60  ;; 0xca83
   \   000001A8   ........           BL       SPI_SendWord
    318                if (Order==0xCA83)  
   \                     ??SPI_RFM12_Execute_18:
   \   000001AC   6748               LDR      R0,??SPI_RFM12_Execute_0+0x60  ;; 0xca83
   \   000001AE   8442               CMP      R4,R0
   \   000001B0   00D0               BEQ      .+4
   \   000001B2   96E0               B        ??SPI_RFM12_Execute_19
    319                                 { 
    320                
    321          
    322          
    323                  
    324                       
    325                
    326                  RF_Status.EnRx=1;
   \   000001B4   5048               LDR      R0,??SPI_RFM12_Execute_0+0xC  ;; RF_Status + 1
   \   000001B6   0121               MOVS     R1,#+1
   \   000001B8   0170               STRB     R1,[R0, #+0]
    327                  RF_Status.Init=0; 
   \   000001BA   4C48               LDR      R0,??SPI_RFM12_Execute_0  ;; RF_Status
   \   000001BC   0021               MOVS     R1,#+0
   \   000001BE   0170               STRB     R1,[R0, #+0]
    328                  
    329                    TRACE_INFO("Enable RX\n\r"); 
    330                    
    331                    InitRF_Interrupt();
   \   000001C0   ........           BL       InitRF_Interrupt
   \   000001C4   8DE0               B        ??SPI_RFM12_Execute_19
    332                    
    333                  
    334                  
    335                  
    336                }
    337               
    338                
    339              }//Aktywny RX ---------------------------------------------------------------
    340              else if ((RF_Status.EnRx) && (RF_Status.Init==0))
   \                     ??SPI_RFM12_Execute_1:
   \   000001C6   4C48               LDR      R0,??SPI_RFM12_Execute_0+0xC  ;; RF_Status + 1
   \   000001C8   0078               LDRB     R0,[R0, #+0]
   \   000001CA   0028               CMP      R0,#+0
   \   000001CC   24D0               BEQ      ??SPI_RFM12_Execute_20
   \   000001CE   4748               LDR      R0,??SPI_RFM12_Execute_0  ;; RF_Status
   \   000001D0   0078               LDRB     R0,[R0, #+0]
   \   000001D2   0028               CMP      R0,#+0
   \   000001D4   20D1               BNE      ??SPI_RFM12_Execute_20
    341              {
    342                /*
    343                if  (((Order==0x0000) && (Buffer_Rx[1]&0x80)) 
    344                     ||((Order==0x0000) && ((Buffer_Rx[1]&0x02)==0)))  //zmiana przy v0.8d
    345                */
    346                 if  ((Order==0x0000) && (Buffer_Rx[1]&0x81))                        //zmiana przy v0.8e by³o (Buffer_Rx[1]&0x81) 
   \   000001D6   002C               CMP      R4,#+0
   \   000001D8   08D1               BNE      ??SPI_RFM12_Execute_21
   \   000001DA   6878               LDRB     R0,[R5, #+1]
   \   000001DC   8121               MOVS     R1,#+129
   \   000001DE   0842               TST      R0,R1
   \   000001E0   04D0               BEQ      ??SPI_RFM12_Execute_21
    347                     { 
    348                       SPI_SendWord(0xB000,Cs_RF);
                              ^
Warning[Pe223]: function "SPI_SendWord" declared implicitly
   \   000001E2   0221               MOVS     R1,#+2
   \   000001E4   B020               MOVS     R0,#+176
   \   000001E6   0002               LSLS     R0,R0,#+8        ;; #+45056
   \   000001E8   ........           BL       SPI_SendWord
    349                     }
    350                
    351                if  (Order==0xCA81)   { SPI_SendWord(0xCA83,Cs_RF); }
                                               ^
Warning[Pe223]: function "SPI_SendWord" declared implicitly
   \                     ??SPI_RFM12_Execute_21:
   \   000001EC   4F48               LDR      R0,??SPI_RFM12_Execute_0+0x40  ;; 0xca81
   \   000001EE   8442               CMP      R4,R0
   \   000001F0   03D1               BNE      ??SPI_RFM12_Execute_22
   \   000001F2   0221               MOVS     R1,#+2
   \   000001F4   5548               LDR      R0,??SPI_RFM12_Execute_0+0x60  ;; 0xca83
   \   000001F6   ........           BL       SPI_SendWord
    352                if  (Order==0xCA83)   { SPI_SendWord(0x0000,Cs_RF); }
                                               ^
Warning[Pe223]: function "SPI_SendWord" declared implicitly
   \                     ??SPI_RFM12_Execute_22:
   \   000001FA   5448               LDR      R0,??SPI_RFM12_Execute_0+0x60  ;; 0xca83
   \   000001FC   8442               CMP      R4,R0
   \   000001FE   03D1               BNE      ??SPI_RFM12_Execute_23
   \   00000200   0221               MOVS     R1,#+2
   \   00000202   0020               MOVS     R0,#+0
   \   00000204   ........           BL       SPI_SendWord
    353                if  (Order==0xB000)  { RF_ReciveByte(Buffer_Rx[0]); }
   \                     ??SPI_RFM12_Execute_23:
   \   00000208   B020               MOVS     R0,#+176
   \   0000020A   0002               LSLS     R0,R0,#+8        ;; #+45056
   \   0000020C   8442               CMP      R4,R0
   \   0000020E   68D1               BNE      ??SPI_RFM12_Execute_19
   \   00000210   2878               LDRB     R0,[R5, #+0]
   \   00000212   ........           BL       RF_ReciveByte
   \   00000216   64E0               B        ??SPI_RFM12_Execute_19
    354               
    355                
    356          
    357              
    358              
    359              
    360              }//Trzb oczekiwania na prze³¹czenie na TX ---------------------------------------------------------------
    361              else if ((RF_Status.InitTx) && (Order!=0x0000))
   \                     ??SPI_RFM12_Execute_20:
   \   00000218   4D48               LDR      R0,??SPI_RFM12_Execute_0+0x64  ;; RF_Status + 3
   \   0000021A   0078               LDRB     R0,[R0, #+0]
   \   0000021C   0028               CMP      R0,#+0
   \   0000021E   19D0               BEQ      ??SPI_RFM12_Execute_24
   \   00000220   002C               CMP      R4,#+0
   \   00000222   17D0               BEQ      ??SPI_RFM12_Execute_24
    362                  {
    363                          
    364                    if (Order==0x8219)
   \   00000224   3348               LDR      R0,??SPI_RFM12_Execute_0+0x8  ;; 0x8219
   \   00000226   8442               CMP      R4,R0
   \   00000228   04D1               BNE      ??SPI_RFM12_Execute_25
    365                    {
    366                      SPI_SendWord(0x80E7,Cs_RF);
                             ^
Warning[Pe223]: function "SPI_SendWord" declared implicitly
   \   0000022A   0221               MOVS     R1,#+2
   \   0000022C   4948               LDR      R0,??SPI_RFM12_Execute_0+0x68  ;; 0x80e7
   \   0000022E   ........           BL       SPI_SendWord
   \   00000232   56E0               B        ??SPI_RFM12_Execute_19
    367                    }
    368                    else if (Order==0x80E7)
   \                     ??SPI_RFM12_Execute_25:
   \   00000234   4748               LDR      R0,??SPI_RFM12_Execute_0+0x68  ;; 0x80e7
   \   00000236   8442               CMP      R4,R0
   \   00000238   04D1               BNE      ??SPI_RFM12_Execute_26
    369                    {                                     
    370                      SPI_SendWord(0x8239,Cs_RF);
                             ^
Warning[Pe223]: function "SPI_SendWord" declared implicitly
   \   0000023A   0221               MOVS     R1,#+2
   \   0000023C   3048               LDR      R0,??SPI_RFM12_Execute_0+0x14  ;; 0x8239
   \   0000023E   ........           BL       SPI_SendWord
   \   00000242   4EE0               B        ??SPI_RFM12_Execute_19
    371                    }
    372                    else if (Order==0x8239)
   \                     ??SPI_RFM12_Execute_26:
   \   00000244   2E48               LDR      R0,??SPI_RFM12_Execute_0+0x14  ;; 0x8239
   \   00000246   8442               CMP      R4,R0
   \   00000248   4BD1               BNE      ??SPI_RFM12_Execute_19
    373                    {
    374                      SPI_SendWord(0x0000,Cs_RF);
                             ^
Warning[Pe223]: function "SPI_SendWord" declared implicitly
   \   0000024A   0221               MOVS     R1,#+2
   \   0000024C   0020               MOVS     R0,#+0
   \   0000024E   ........           BL       SPI_SendWord
   \   00000252   46E0               B        ??SPI_RFM12_Execute_19
    375                    }
    376                  }  
    377                else if ((RF_Status.InitTx) && (Order==0x0000))
   \                     ??SPI_RFM12_Execute_24:
   \   00000254   3E48               LDR      R0,??SPI_RFM12_Execute_0+0x64  ;; RF_Status + 3
   \   00000256   0078               LDRB     R0,[R0, #+0]
   \   00000258   0028               CMP      R0,#+0
   \   0000025A   15D0               BEQ      ??SPI_RFM12_Execute_27
   \   0000025C   002C               CMP      R4,#+0
   \   0000025E   13D1               BNE      ??SPI_RFM12_Execute_27
    378                  {    
    379          
    380                    if (Buffer_Rx[1]&0x20)
   \   00000260   6878               LDRB     R0,[R5, #+1]
   \   00000262   8006               LSLS     R0,R0,#+26
   \   00000264   04D5               BPL      ??SPI_RFM12_Execute_28
    381                    {
    382                      SPI_SendWord(0x0000,Cs_RF);
                             ^
Warning[Pe223]: function "SPI_SendWord" declared implicitly
   \   00000266   0221               MOVS     R1,#+2
   \   00000268   0020               MOVS     R0,#+0
   \   0000026A   ........           BL       SPI_SendWord
   \   0000026E   38E0               B        ??SPI_RFM12_Execute_19
    383                    }
    384                    //w³¹czenie nadawania danych
    385                    else
    386                    {
    387                      RF_Status.InitTx=0;
   \                     ??SPI_RFM12_Execute_28:
   \   00000270   3748               LDR      R0,??SPI_RFM12_Execute_0+0x64  ;; RF_Status + 3
   \   00000272   0021               MOVS     R1,#+0
   \   00000274   0170               STRB     R1,[R0, #+0]
    388                      RF_Status.EnTx=1;
   \   00000276   3848               LDR      R0,??SPI_RFM12_Execute_0+0x6C  ;; RF_Status + 2
   \   00000278   0121               MOVS     R1,#+1
   \   0000027A   0170               STRB     R1,[R0, #+0]
    389                      RF_Status.Transmit=1;
   \   0000027C   3748               LDR      R0,??SPI_RFM12_Execute_0+0x70  ;; RF_Status + 8
   \   0000027E   0121               MOVS     R1,#+1
   \   00000280   0170               STRB     R1,[R0, #+0]
    390                      RF_transmit();
   \   00000282   ........           BL       RF_transmit
   \   00000286   2CE0               B        ??SPI_RFM12_Execute_19
    391                    }
    392                    
    393                   
    394          
    395              }//Aktywny TX ---------------------------------------------------------------
    396              else if (RF_Status.EnTx)
   \                     ??SPI_RFM12_Execute_27:
   \   00000288   3348               LDR      R0,??SPI_RFM12_Execute_0+0x6C  ;; RF_Status + 2
   \   0000028A   0078               LDRB     R0,[R0, #+0]
   \   0000028C   0028               CMP      R0,#+0
   \   0000028E   28D1               BNE      ??SPI_RFM12_Execute_19
    397              {
    398          
    399          
    400              
    401              }
    402          
    403          
    404              //W³¹czenie odbiornika
    405              else if ((RF_Status.EnRx==0) && (RF_Status.EnTx==0) && (Order==0x8299))
   \   00000290   1948               LDR      R0,??SPI_RFM12_Execute_0+0xC  ;; RF_Status + 1
   \   00000292   0078               LDRB     R0,[R0, #+0]
   \   00000294   0028               CMP      R0,#+0
   \   00000296   0ED1               BNE      ??SPI_RFM12_Execute_29
   \   00000298   2F48               LDR      R0,??SPI_RFM12_Execute_0+0x6C  ;; RF_Status + 2
   \   0000029A   0078               LDRB     R0,[R0, #+0]
   \   0000029C   0028               CMP      R0,#+0
   \   0000029E   0AD1               BNE      ??SPI_RFM12_Execute_29
   \   000002A0   1648               LDR      R0,??SPI_RFM12_Execute_0+0x10  ;; 0x8299
   \   000002A2   8442               CMP      R4,R0
   \   000002A4   07D1               BNE      ??SPI_RFM12_Execute_29
    406              {
    407                 RF_Status.EnRx=1;
   \   000002A6   1448               LDR      R0,??SPI_RFM12_Execute_0+0xC  ;; RF_Status + 1
   \   000002A8   0121               MOVS     R1,#+1
   \   000002AA   0170               STRB     R1,[R0, #+0]
    408                 SPI_SendWord(0x0000,Cs_RF);
                        ^
Warning[Pe223]: function "SPI_SendWord" declared implicitly
   \   000002AC   0221               MOVS     R1,#+2
   \   000002AE   0020               MOVS     R0,#+0
   \   000002B0   ........           BL       SPI_SendWord
   \   000002B4   15E0               B        ??SPI_RFM12_Execute_19
    409                 
    410                 #ifdef __MaxRf
    411                      AT91C_BASE_PIOA->PIO_CODR =TxPin; 
    412                 #endif
    413              }
    414          
    415              
    416           
    417              else if ((RF_Status.InitTx==0) && (RF_Status.EnRx==0) && (RF_Status.EnTx==0) && (Order==0x8239))
   \                     ??SPI_RFM12_Execute_29:
   \   000002B6   2648               LDR      R0,??SPI_RFM12_Execute_0+0x64  ;; RF_Status + 3
   \   000002B8   0078               LDRB     R0,[R0, #+0]
   \   000002BA   0028               CMP      R0,#+0
   \   000002BC   11D1               BNE      ??SPI_RFM12_Execute_19
   \   000002BE   0E48               LDR      R0,??SPI_RFM12_Execute_0+0xC  ;; RF_Status + 1
   \   000002C0   0078               LDRB     R0,[R0, #+0]
   \   000002C2   0028               CMP      R0,#+0
   \   000002C4   0DD1               BNE      ??SPI_RFM12_Execute_19
   \   000002C6   2448               LDR      R0,??SPI_RFM12_Execute_0+0x6C  ;; RF_Status + 2
   \   000002C8   0078               LDRB     R0,[R0, #+0]
   \   000002CA   0028               CMP      R0,#+0
   \   000002CC   09D1               BNE      ??SPI_RFM12_Execute_19
   \   000002CE   0C48               LDR      R0,??SPI_RFM12_Execute_0+0x14  ;; 0x8239
   \   000002D0   8442               CMP      R4,R0
   \   000002D2   06D1               BNE      ??SPI_RFM12_Execute_19
    418              {
    419                RF_Status.InitTx=1;
   \   000002D4   1E48               LDR      R0,??SPI_RFM12_Execute_0+0x64  ;; RF_Status + 3
   \   000002D6   0121               MOVS     R1,#+1
   \   000002D8   0170               STRB     R1,[R0, #+0]
    420               
    421                SPI_SendWord(0x0000,Cs_RF);    
                       ^
Warning[Pe223]: function "SPI_SendWord" declared implicitly
   \   000002DA   0221               MOVS     R1,#+2
   \   000002DC   0020               MOVS     R0,#+0
   \   000002DE   ........           BL       SPI_SendWord
    422              }
    423           
    424              
    425            
    426           
    427          }  
   \                     ??SPI_RFM12_Execute_19:
   \   000002E2   01B0               ADD      SP,SP,#+4
   \   000002E4   30BC               POP      {R4,R5}
   \   000002E6   01BC               POP      {R0}
   \   000002E8   0047               BX       R0               ;; return
   \   000002EA   C046               Nop      
   \                     ??SPI_RFM12_Execute_0:
   \   000002EC   ........           DC32     RF_Status
   \   000002F0   67800000           DC32     0x8067
   \   000002F4   19820000           DC32     0x8219
   \   000002F8   ........           DC32     RF_Status + 1
   \   000002FC   99820000           DC32     0x8299
   \   00000300   39820000           DC32     0x8239
   \   00000304   ........           DC32     RF_Status + 14
   \   00000308   33333333           DC32     0x33333333
   \   0000030C   3333D33F           DC32     0x3fd33333
   \   00000310   C3F5285C           DC32     0x5c28f5c3
   \   00000314   8FE28A40           DC32     0x408ae28f
   \   00000318   00006940           DC32     0x40690000
   \   0000031C   00FF04C1           DC32     0xc104ff00
   \   00000320   07C60000           DC32     0xc607
   \   00000324   A0940000           DC32     0x94a0
   \   00000328   ACC20000           DC32     0xc2ac
   \   0000032C   81CA0000           DC32     0xca81
   \   00000330   ........           DC32     IntCA81Flag
   \   00000334   D4CE0000           DC32     0xced4
   \   00000338   FFFF0000           DC32     0xffff
   \   0000033C   93C40000           DC32     0xc493
   \   00000340   50980000           DC32     0x9850
   \   00000344   17CC0000           DC32     0xcc17
   \   00000348   40C00000           DC32     0xc040
   \   0000034C   83CA0000           DC32     0xca83
   \   00000350   ........           DC32     RF_Status + 3
   \   00000354   E7800000           DC32     0x80e7
   \   00000358   ........           DC32     RF_Status + 2
   \   0000035C   ........           DC32     RF_Status + 8
    428          
    429          
    430          
    431          
    432          
    433          
    434          
    435          //-----------------------------------------------------------------------------
    436          //!  Nazwa funkcji :    RF_ReciveByte
    437          //!  Funkcja interpretacji otrzymanego bajtu
    438          //-----------------------------------------------------------------------------

   \                                 In section Debug.txt, align 4, keep-with-next
    439          void RF_ReciveByte(char Res)
    440          {
   \                     RF_ReciveByte:
   \   00000000   01B5               PUSH     {R0,LR}
    441               
    442            
    443                    for (char i=0; i<RF_BuffSizeRX-1; i++) {RF_Rx.Buff[i]=RF_Rx.Buff[i+1];}
   \   00000002   0021               MOVS     R1,#+0
   \   00000004   09E0               B        ??RF_ReciveByte_0
   \                     ??RF_ReciveByte_1:
   \   00000006   0906               LSLS     R1,R1,#+24       ;; ZeroExtS R1,R1,#+24,#+24
   \   00000008   090E               LSRS     R1,R1,#+24
   \   0000000A   2C4A               LDR      R2,??RF_ReciveByte_2  ;; RF_Rx
   \   0000000C   0906               LSLS     R1,R1,#+24       ;; ZeroExtS R1,R1,#+24,#+24
   \   0000000E   090E               LSRS     R1,R1,#+24
   \   00000010   2A4B               LDR      R3,??RF_ReciveByte_2  ;; RF_Rx
   \   00000012   5B18               ADDS     R3,R3,R1
   \   00000014   5B78               LDRB     R3,[R3, #+1]
   \   00000016   5354               STRB     R3,[R2, R1]
   \   00000018   491C               ADDS     R1,R1,#+1
   \                     ??RF_ReciveByte_0:
   \   0000001A   0906               LSLS     R1,R1,#+24       ;; ZeroExtS R1,R1,#+24,#+24
   \   0000001C   090E               LSRS     R1,R1,#+24
   \   0000001E   1329               CMP      R1,#+19
   \   00000020   F1D3               BCC      ??RF_ReciveByte_1
    444                    RF_Rx.Buff[RF_BuffSizeRX-1]=Res;
   \   00000022   2749               LDR      R1,??RF_ReciveByte_2+0x4  ;; RF_Rx + 19
   \   00000024   0870               STRB     R0,[R1, #+0]
    445          
    446                    if (RF_Rx.ReciveBytes<=RF_BuffSizeRX) RF_Rx.ReciveBytes++;
   \   00000026   2748               LDR      R0,??RF_ReciveByte_2+0x8  ;; RF_Rx + 20
   \   00000028   0078               LDRB     R0,[R0, #+0]
   \   0000002A   1528               CMP      R0,#+21
   \   0000002C   04D2               BCS      ??RF_ReciveByte_3
   \   0000002E   2548               LDR      R0,??RF_ReciveByte_2+0x8  ;; RF_Rx + 20
   \   00000030   2449               LDR      R1,??RF_ReciveByte_2+0x8  ;; RF_Rx + 20
   \   00000032   0978               LDRB     R1,[R1, #+0]
   \   00000034   491C               ADDS     R1,R1,#+1
   \   00000036   0170               STRB     R1,[R0, #+0]
    447          
    448                    //sprawdzenie koñca
    449                    if (
    450                    (RF_Rx.Buff[RF_BuffSizeRX-3]==Preambu[0]) &&
    451                      (RF_Rx.Buff[RF_BuffSizeRX-2]==Preambu[1]) &&
    452                    (RF_Rx.Buff[RF_BuffSizeRX-1]==Preambu[2]) 
    453                    /*  && 
    454                    ((RF_Rx.ReciveBytes%2)!=0)
    455                      */)  
   \                     ??RF_ReciveByte_3:
   \   00000038   2348               LDR      R0,??RF_ReciveByte_2+0xC  ;; RF_Rx + 17
   \   0000003A   0078               LDRB     R0,[R0, #+0]
   \   0000003C   2349               LDR      R1,??RF_ReciveByte_2+0x10  ;; Preambu
   \   0000003E   0978               LDRB     R1,[R1, #+0]
   \   00000040   8842               CMP      R0,R1
   \   00000042   37D1               BNE      ??RF_ReciveByte_4
   \   00000044   2248               LDR      R0,??RF_ReciveByte_2+0x14  ;; RF_Rx + 18
   \   00000046   0078               LDRB     R0,[R0, #+0]
   \   00000048   2249               LDR      R1,??RF_ReciveByte_2+0x18  ;; Preambu + 1
   \   0000004A   0978               LDRB     R1,[R1, #+0]
   \   0000004C   8842               CMP      R0,R1
   \   0000004E   31D1               BNE      ??RF_ReciveByte_4
   \   00000050   1B48               LDR      R0,??RF_ReciveByte_2+0x4  ;; RF_Rx + 19
   \   00000052   0078               LDRB     R0,[R0, #+0]
   \   00000054   2049               LDR      R1,??RF_ReciveByte_2+0x1C  ;; Preambu + 2
   \   00000056   0978               LDRB     R1,[R1, #+0]
   \   00000058   8842               CMP      R0,R1
   \   0000005A   2BD1               BNE      ??RF_ReciveByte_4
    456                    {           
    457                      if ((SlaveMode==0) && (RF_Status.ConfResive==0)) RF_Status.ConfResive=1;  //znacznik odebrania danych (dla kontroli kana³u)
   \   0000005C   1F48               LDR      R0,??RF_ReciveByte_2+0x20  ;; SlaveMode
   \   0000005E   0078               LDRB     R0,[R0, #+0]
   \   00000060   0028               CMP      R0,#+0
   \   00000062   06D1               BNE      ??RF_ReciveByte_5
   \   00000064   1E48               LDR      R0,??RF_ReciveByte_2+0x24  ;; RF_Status + 11
   \   00000066   0078               LDRB     R0,[R0, #+0]
   \   00000068   0028               CMP      R0,#+0
   \   0000006A   02D1               BNE      ??RF_ReciveByte_5
   \   0000006C   1C48               LDR      R0,??RF_ReciveByte_2+0x24  ;; RF_Status + 11
   \   0000006E   0121               MOVS     R1,#+1
   \   00000070   0170               STRB     R1,[R0, #+0]
    458                      if ((SlaveMode==1) && (RF_Status.ConfResiveSlave==0)) RF_Status.ConfResiveSlave=1;  //znacznik odebrania danych (dla kontroli kana³u)
   \                     ??RF_ReciveByte_5:
   \   00000072   1A48               LDR      R0,??RF_ReciveByte_2+0x20  ;; SlaveMode
   \   00000074   0078               LDRB     R0,[R0, #+0]
   \   00000076   0128               CMP      R0,#+1
   \   00000078   06D1               BNE      ??RF_ReciveByte_6
   \   0000007A   1A48               LDR      R0,??RF_ReciveByte_2+0x28  ;; RF_Status + 12
   \   0000007C   0078               LDRB     R0,[R0, #+0]
   \   0000007E   0028               CMP      R0,#+0
   \   00000080   02D1               BNE      ??RF_ReciveByte_6
   \   00000082   1848               LDR      R0,??RF_ReciveByte_2+0x28  ;; RF_Status + 12
   \   00000084   0121               MOVS     R1,#+1
   \   00000086   0170               STRB     R1,[R0, #+0]
    459                      
    460                      RF_Status.RfFuse=1;
   \                     ??RF_ReciveByte_6:
   \   00000088   1748               LDR      R0,??RF_ReciveByte_2+0x2C  ;; RF_Status + 17
   \   0000008A   0121               MOVS     R1,#+1
   \   0000008C   0170               STRB     R1,[R0, #+0]
    461                      RF_ReciveFarm(&RF_Rx.Buff[RF_BuffSizeRX-4], RF_Rx.ReciveBytes-3);  //funkcja interpretacji otrzymanej ramki
   \   0000008E   0D48               LDR      R0,??RF_ReciveByte_2+0x8  ;; RF_Rx + 20
   \   00000090   0078               LDRB     R0,[R0, #+0]
   \   00000092   C11E               SUBS     R1,R0,#+3
   \   00000094   0906               LSLS     R1,R1,#+24       ;; ZeroExtS R1,R1,#+24,#+24
   \   00000096   090E               LSRS     R1,R1,#+24
   \   00000098   1448               LDR      R0,??RF_ReciveByte_2+0x30  ;; RF_Rx + 16
   \   0000009A   ........           BL       RF_ReciveFarm
    462                    
    463                       RF_Rx.ReciveBytes=0; 
   \   0000009E   0948               LDR      R0,??RF_ReciveByte_2+0x8  ;; RF_Rx + 20
   \   000000A0   0021               MOVS     R1,#+0
   \   000000A2   0170               STRB     R1,[R0, #+0]
    464                     
    465                      
    466                      //RF_ReciveFarm(&RF_Rx.Buff[RF_BuffSizeRX-RF_Rx.ReciveBytes], RF_Rx.ReciveBytes-3);  //funkcja interpretacji otrzymanej ramki
    467          
    468                      //RF_Rx.ReciveBytes=0;
    469          
    470                      if (!RF_Tx.BytesToSend) SPI_SendWord(0xCA81,Cs_RF); 
                                                     ^
Warning[Pe223]: function "SPI_SendWord" declared implicitly
   \   000000A4   1248               LDR      R0,??RF_ReciveByte_2+0x34  ;; RF_Tx + 20
   \   000000A6   0078               LDRB     R0,[R0, #+0]
   \   000000A8   0028               CMP      R0,#+0
   \   000000AA   03D1               BNE      ??RF_ReciveByte_4
   \   000000AC   0221               MOVS     R1,#+2
   \   000000AE   1148               LDR      R0,??RF_ReciveByte_2+0x38  ;; 0xca81
   \   000000B0   ........           BL       SPI_SendWord
    471                    }
    472          }
   \                     ??RF_ReciveByte_4:
   \   000000B4   01B0               ADD      SP,SP,#+4
   \   000000B6   01BC               POP      {R0}
   \   000000B8   0047               BX       R0               ;; return
   \   000000BA   C046               Nop      
   \                     ??RF_ReciveByte_2:
   \   000000BC   ........           DC32     RF_Rx
   \   000000C0   ........           DC32     RF_Rx + 19
   \   000000C4   ........           DC32     RF_Rx + 20
   \   000000C8   ........           DC32     RF_Rx + 17
   \   000000CC   ........           DC32     Preambu
   \   000000D0   ........           DC32     RF_Rx + 18
   \   000000D4   ........           DC32     Preambu + 1
   \   000000D8   ........           DC32     Preambu + 2
   \   000000DC   ........           DC32     SlaveMode
   \   000000E0   ........           DC32     RF_Status + 11
   \   000000E4   ........           DC32     RF_Status + 12
   \   000000E8   ........           DC32     RF_Status + 17
   \   000000EC   ........           DC32     RF_Rx + 16
   \   000000F0   ........           DC32     RF_Tx + 20
   \   000000F4   81CA0000           DC32     0xca81
    473          
    474          
    475          
    476          
    477          
    478          //-----------------------------------------------------------------------------
    479          //!  Nazwa funkcji :    RF_SendFarm
    480          //!  Funkcja przygotowuje dane do wys³ania przez RF12. Opakowuje dane w ramkê
    481          //-----------------------------------------------------------------------------
    482          //  *data - wska¿nik na pierwszy bajt
    483          //  *size - iloœæ bajtów do wys³ania
    484          //-----------------------------------------------------------------------------

   \                                 In section Debug.txt, align 4, keep-with-next
    485          void RF_SendFarm(unsigned char *data, char size)
    486          { 
   \                     RF_SendFarm:
   \   00000000   31B5               PUSH     {R0,R4,R5,LR}
   \   00000002   0400               MOVS     R4,R0
   \   00000004   0D00               MOVS     R5,R1
    487              RF_Status.EnableTX();
   \   00000006   4148               LDR      R0,??RF_SendFarm_0  ;; RF_Status + 36
   \   00000008   0068               LDR      R0,[R0, #+0]
   \   0000000A   ........           BL       __iar_via_R0
    488              char BTS;
    489              //char DTS[20];
    490              BTS=RF_Tx.BytesToSend;
   \   0000000E   4048               LDR      R0,??RF_SendFarm_0+0x4  ;; RF_Tx + 20
   \   00000010   0078               LDRB     R0,[R0, #+0]
    491              
    492               //Wpisanie preambu³y otwieraj¹cej
    493               RF_Tx.Buff[BTS++]=Preambu[0];
   \   00000012   0006               LSLS     R0,R0,#+24       ;; ZeroExtS R0,R0,#+24,#+24
   \   00000014   000E               LSRS     R0,R0,#+24
   \   00000016   3F49               LDR      R1,??RF_SendFarm_0+0x8  ;; RF_Tx
   \   00000018   3F4A               LDR      R2,??RF_SendFarm_0+0xC  ;; Preambu
   \   0000001A   1278               LDRB     R2,[R2, #+0]
   \   0000001C   0A54               STRB     R2,[R1, R0]
   \   0000001E   401C               ADDS     R0,R0,#+1
    494               RF_Tx.Buff[BTS++]=Preambu[1];
   \   00000020   0006               LSLS     R0,R0,#+24       ;; ZeroExtS R0,R0,#+24,#+24
   \   00000022   000E               LSRS     R0,R0,#+24
   \   00000024   3B49               LDR      R1,??RF_SendFarm_0+0x8  ;; RF_Tx
   \   00000026   3D4A               LDR      R2,??RF_SendFarm_0+0x10  ;; Preambu + 1
   \   00000028   1278               LDRB     R2,[R2, #+0]
   \   0000002A   0A54               STRB     R2,[R1, R0]
   \   0000002C   401C               ADDS     R0,R0,#+1
    495               RF_Tx.Buff[BTS++]=Preambu[2];
   \   0000002E   0006               LSLS     R0,R0,#+24       ;; ZeroExtS R0,R0,#+24,#+24
   \   00000030   000E               LSRS     R0,R0,#+24
   \   00000032   3849               LDR      R1,??RF_SendFarm_0+0x8  ;; RF_Tx
   \   00000034   3A4A               LDR      R2,??RF_SendFarm_0+0x14  ;; Preambu + 2
   \   00000036   1278               LDRB     R2,[R2, #+0]
   \   00000038   0A54               STRB     R2,[R1, R0]
   \   0000003A   401C               ADDS     R0,R0,#+1
    496               
    497               //Wpisanie s³owa synchronizuj¹cego
    498               RF_Tx.Buff[BTS++]=SynKay[0];
   \   0000003C   0006               LSLS     R0,R0,#+24       ;; ZeroExtS R0,R0,#+24,#+24
   \   0000003E   000E               LSRS     R0,R0,#+24
   \   00000040   3449               LDR      R1,??RF_SendFarm_0+0x8  ;; RF_Tx
   \   00000042   384A               LDR      R2,??RF_SendFarm_0+0x18  ;; SynKay
   \   00000044   1278               LDRB     R2,[R2, #+0]
   \   00000046   0A54               STRB     R2,[R1, R0]
   \   00000048   401C               ADDS     R0,R0,#+1
    499               RF_Tx.Buff[BTS++]=SynKay[1];
   \   0000004A   0006               LSLS     R0,R0,#+24       ;; ZeroExtS R0,R0,#+24,#+24
   \   0000004C   000E               LSRS     R0,R0,#+24
   \   0000004E   3149               LDR      R1,??RF_SendFarm_0+0x8  ;; RF_Tx
   \   00000050   354A               LDR      R2,??RF_SendFarm_0+0x1C  ;; SynKay + 1
   \   00000052   1278               LDRB     R2,[R2, #+0]
   \   00000054   0A54               STRB     R2,[R1, R0]
   \   00000056   401C               ADDS     R0,R0,#+1
    500               
    501               //Wpisanie danych do kolejki
    502               for (char i=0; i<size; i++)
   \   00000058   0021               MOVS     R1,#+0
   \   0000005A   0CE0               B        ??RF_SendFarm_1
    503               {
    504                  if (BTS<=RF_BuffSizeTX-3)
   \                     ??RF_SendFarm_2:
   \   0000005C   0006               LSLS     R0,R0,#+24       ;; ZeroExtS R0,R0,#+24,#+24
   \   0000005E   000E               LSRS     R0,R0,#+24
   \   00000060   1228               CMP      R0,#+18
   \   00000062   07D2               BCS      ??RF_SendFarm_3
    505                  {
    506                    RF_Tx.Buff[BTS]=data[i]; 
   \   00000064   0006               LSLS     R0,R0,#+24       ;; ZeroExtS R0,R0,#+24,#+24
   \   00000066   000E               LSRS     R0,R0,#+24
   \   00000068   2A4A               LDR      R2,??RF_SendFarm_0+0x8  ;; RF_Tx
   \   0000006A   0906               LSLS     R1,R1,#+24       ;; ZeroExtS R1,R1,#+24,#+24
   \   0000006C   090E               LSRS     R1,R1,#+24
   \   0000006E   635C               LDRB     R3,[R4, R1]
   \   00000070   1354               STRB     R3,[R2, R0]
    507                    BTS++;
   \   00000072   401C               ADDS     R0,R0,#+1
    508                  }
    509               }
   \                     ??RF_SendFarm_3:
   \   00000074   491C               ADDS     R1,R1,#+1
   \                     ??RF_SendFarm_1:
   \   00000076   0906               LSLS     R1,R1,#+24       ;; ZeroExtS R1,R1,#+24,#+24
   \   00000078   090E               LSRS     R1,R1,#+24
   \   0000007A   2D06               LSLS     R5,R5,#+24       ;; ZeroExtS R5,R5,#+24,#+24
   \   0000007C   2D0E               LSRS     R5,R5,#+24
   \   0000007E   A942               CMP      R1,R5
   \   00000080   ECD3               BCC      ??RF_SendFarm_2
    510               
    511               //Wpisanie preambu³y zamykaj¹cej
    512               RF_Tx.Buff[BTS++]=Preambu[0];
   \   00000082   0006               LSLS     R0,R0,#+24       ;; ZeroExtS R0,R0,#+24,#+24
   \   00000084   000E               LSRS     R0,R0,#+24
   \   00000086   2349               LDR      R1,??RF_SendFarm_0+0x8  ;; RF_Tx
   \   00000088   234A               LDR      R2,??RF_SendFarm_0+0xC  ;; Preambu
   \   0000008A   1278               LDRB     R2,[R2, #+0]
   \   0000008C   0A54               STRB     R2,[R1, R0]
   \   0000008E   401C               ADDS     R0,R0,#+1
    513               RF_Tx.Buff[BTS++]=Preambu[1];
   \   00000090   0006               LSLS     R0,R0,#+24       ;; ZeroExtS R0,R0,#+24,#+24
   \   00000092   000E               LSRS     R0,R0,#+24
   \   00000094   1F49               LDR      R1,??RF_SendFarm_0+0x8  ;; RF_Tx
   \   00000096   214A               LDR      R2,??RF_SendFarm_0+0x10  ;; Preambu + 1
   \   00000098   1278               LDRB     R2,[R2, #+0]
   \   0000009A   0A54               STRB     R2,[R1, R0]
   \   0000009C   401C               ADDS     R0,R0,#+1
    514               RF_Tx.Buff[BTS++]=Preambu[2];
   \   0000009E   0006               LSLS     R0,R0,#+24       ;; ZeroExtS R0,R0,#+24,#+24
   \   000000A0   000E               LSRS     R0,R0,#+24
   \   000000A2   1C49               LDR      R1,??RF_SendFarm_0+0x8  ;; RF_Tx
   \   000000A4   1E4A               LDR      R2,??RF_SendFarm_0+0x14  ;; Preambu + 2
   \   000000A6   1278               LDRB     R2,[R2, #+0]
   \   000000A8   0A54               STRB     R2,[R1, R0]
   \   000000AA   401C               ADDS     R0,R0,#+1
    515               RF_Tx.Buff[BTS++]=0x00;
   \   000000AC   0006               LSLS     R0,R0,#+24       ;; ZeroExtS R0,R0,#+24,#+24
   \   000000AE   000E               LSRS     R0,R0,#+24
   \   000000B0   1849               LDR      R1,??RF_SendFarm_0+0x8  ;; RF_Tx
   \   000000B2   0022               MOVS     R2,#+0
   \   000000B4   0A54               STRB     R2,[R1, R0]
   \   000000B6   401C               ADDS     R0,R0,#+1
    516               RF_Tx.Buff[BTS]=0x00;
   \   000000B8   0006               LSLS     R0,R0,#+24       ;; ZeroExtS R0,R0,#+24,#+24
   \   000000BA   000E               LSRS     R0,R0,#+24
   \   000000BC   1549               LDR      R1,??RF_SendFarm_0+0x8  ;; RF_Tx
   \   000000BE   0022               MOVS     R2,#+0
   \   000000C0   0A54               STRB     R2,[R1, R0]
    517               
    518               
    519               //for (char i=0; i<BTS; i++) RF_Tx.Buff[i]=DTS[i];
    520               RF_Tx.BytesToSend=BTS;
   \   000000C2   1349               LDR      R1,??RF_SendFarm_0+0x4  ;; RF_Tx + 20
   \   000000C4   0870               STRB     R0,[R1, #+0]
    521               if ((RF_Status.Transmit==0) && (RF_Status.EnTx) && (RF_Status.InitTx==0))  RF_transmit();
   \   000000C6   1948               LDR      R0,??RF_SendFarm_0+0x20  ;; RF_Status + 8
   \   000000C8   0078               LDRB     R0,[R0, #+0]
   \   000000CA   0028               CMP      R0,#+0
   \   000000CC   09D1               BNE      ??RF_SendFarm_4
   \   000000CE   1848               LDR      R0,??RF_SendFarm_0+0x24  ;; RF_Status + 2
   \   000000D0   0078               LDRB     R0,[R0, #+0]
   \   000000D2   0028               CMP      R0,#+0
   \   000000D4   05D0               BEQ      ??RF_SendFarm_4
   \   000000D6   1748               LDR      R0,??RF_SendFarm_0+0x28  ;; RF_Status + 3
   \   000000D8   0078               LDRB     R0,[R0, #+0]
   \   000000DA   0028               CMP      R0,#+0
   \   000000DC   01D1               BNE      ??RF_SendFarm_4
   \   000000DE   ........           BL       RF_transmit
    522          
    523               if ((SlaveMode) && (RF_Status.TimeInSlaveMode>MAX_TIME_FOR_SLAVE_ASK))
   \                     ??RF_SendFarm_4:
   \   000000E2   1548               LDR      R0,??RF_SendFarm_0+0x2C  ;; SlaveMode
   \   000000E4   0078               LDRB     R0,[R0, #+0]
   \   000000E6   0028               CMP      R0,#+0
   \   000000E8   08D0               BEQ      ??RF_SendFarm_5
   \   000000EA   1448               LDR      R0,??RF_SendFarm_0+0x30  ;; RF_Status + 22
   \   000000EC   0088               LDRH     R0,[R0, #+0]
   \   000000EE   FF21               MOVS     R1,#+255
   \   000000F0   6031               ADDS     R1,R1,#+96       ;; #+351
   \   000000F2   8842               CMP      R0,R1
   \   000000F4   02D3               BCC      ??RF_SendFarm_5
    524                                {
    525                                 RF_Status.SlaveModeTimeout=4;
   \   000000F6   1248               LDR      R0,??RF_SendFarm_0+0x34  ;; RF_Status + 19
   \   000000F8   0421               MOVS     R1,#+4
   \   000000FA   0170               STRB     R1,[R0, #+0]
    526                                }
    527               
    528               RF_Status.EnableRX();
   \                     ??RF_SendFarm_5:
   \   000000FC   1148               LDR      R0,??RF_SendFarm_0+0x38  ;; RF_Status + 40
   \   000000FE   0068               LDR      R0,[R0, #+0]
   \   00000100   ........           BL       __iar_via_R0
    529          } 
   \   00000104   01B0               ADD      SP,SP,#+4
   \   00000106   30BC               POP      {R4,R5}
   \   00000108   01BC               POP      {R0}
   \   0000010A   0047               BX       R0               ;; return
   \                     ??RF_SendFarm_0:
   \   0000010C   ........           DC32     RF_Status + 36
   \   00000110   ........           DC32     RF_Tx + 20
   \   00000114   ........           DC32     RF_Tx
   \   00000118   ........           DC32     Preambu
   \   0000011C   ........           DC32     Preambu + 1
   \   00000120   ........           DC32     Preambu + 2
   \   00000124   ........           DC32     SynKay
   \   00000128   ........           DC32     SynKay + 1
   \   0000012C   ........           DC32     RF_Status + 8
   \   00000130   ........           DC32     RF_Status + 2
   \   00000134   ........           DC32     RF_Status + 3
   \   00000138   ........           DC32     SlaveMode
   \   0000013C   ........           DC32     RF_Status + 22
   \   00000140   ........           DC32     RF_Status + 19
   \   00000144   ........           DC32     RF_Status + 40
    530          //-----------------------------------------------------------------------------
    531          
    532          
    533          
    534          
    535          
    536          
    537          //-----------------------------------------------------------------------------
    538          //!  Nazwa funkcji :    RF_transmit
    539          //!  Funkcja wysy³a dane przez RF12
    540          //-----------------------------------------------------------------------------

   \                                 In section Debug.txt, align 4, keep-with-next
    541          void RF_transmit(void)
    542          {
   \                     RF_transmit:
   \   00000000   01B5               PUSH     {R0,LR}
    543             if ((RF_Tx.BytesToSend==0) || (AT91C_BASE_PIOA->PIO_PDSR & RfIntBUS)) return;
   \   00000002   1848               LDR      R0,??RF_transmit_0  ;; RF_Tx + 20
   \   00000004   0078               LDRB     R0,[R0, #+0]
   \   00000006   0028               CMP      R0,#+0
   \   00000008   28D0               BEQ      ??RF_transmit_1
   \   0000000A   1748               LDR      R0,??RF_transmit_0+0x4  ;; 0xfffff43c
   \   0000000C   0068               LDR      R0,[R0, #+0]
   \   0000000E   4005               LSLS     R0,R0,#+21
   \   00000010   24D4               BMI      ??RF_transmit_1
    544             
    545             if (RF_Status.Transmit) 
   \   00000012   1648               LDR      R0,??RF_transmit_0+0x8  ;; RF_Status + 8
   \   00000014   0078               LDRB     R0,[R0, #+0]
   \   00000016   0028               CMP      R0,#+0
   \   00000018   20D0               BEQ      ??RF_transmit_1
    546             {
    547                char BTS=RF_Tx.Buff[0];
   \   0000001A   1548               LDR      R0,??RF_transmit_0+0xC  ;; RF_Tx
   \   0000001C   0278               LDRB     R2,[R0, #+0]
    548                RF_Tx.BytesToSend--;
   \   0000001E   1148               LDR      R0,??RF_transmit_0  ;; RF_Tx + 20
   \   00000020   1049               LDR      R1,??RF_transmit_0  ;; RF_Tx + 20
   \   00000022   0978               LDRB     R1,[R1, #+0]
   \   00000024   491E               SUBS     R1,R1,#+1
   \   00000026   0170               STRB     R1,[R0, #+0]
    549                for (char i=0; i<RF_Tx.BytesToSend; i++)  RF_Tx.Buff[i]=RF_Tx.Buff[i+1]; //przesuñ kolejke
   \   00000028   0020               MOVS     R0,#+0
   \   0000002A   09E0               B        ??RF_transmit_2
   \                     ??RF_transmit_3:
   \   0000002C   0006               LSLS     R0,R0,#+24       ;; ZeroExtS R0,R0,#+24,#+24
   \   0000002E   000E               LSRS     R0,R0,#+24
   \   00000030   0F49               LDR      R1,??RF_transmit_0+0xC  ;; RF_Tx
   \   00000032   0006               LSLS     R0,R0,#+24       ;; ZeroExtS R0,R0,#+24,#+24
   \   00000034   000E               LSRS     R0,R0,#+24
   \   00000036   0E4B               LDR      R3,??RF_transmit_0+0xC  ;; RF_Tx
   \   00000038   1B18               ADDS     R3,R3,R0
   \   0000003A   5B78               LDRB     R3,[R3, #+1]
   \   0000003C   0B54               STRB     R3,[R1, R0]
   \   0000003E   401C               ADDS     R0,R0,#+1
   \                     ??RF_transmit_2:
   \   00000040   0849               LDR      R1,??RF_transmit_0  ;; RF_Tx + 20
   \   00000042   0978               LDRB     R1,[R1, #+0]
   \   00000044   0006               LSLS     R0,R0,#+24       ;; ZeroExtS R0,R0,#+24,#+24
   \   00000046   000E               LSRS     R0,R0,#+24
   \   00000048   8842               CMP      R0,R1
   \   0000004A   EFD3               BCC      ??RF_transmit_3
    550                SPI_SendWord((0xB800 | BTS),Cs_RF); //wyœlij bajt
                       ^
Warning[Pe223]: function "SPI_SendWord" declared implicitly
   \   0000004C   0221               MOVS     R1,#+2
   \   0000004E   1206               LSLS     R2,R2,#+24       ;; ZeroExtS R2,R2,#+24,#+24
   \   00000050   120E               LSRS     R2,R2,#+24
   \   00000052   B820               MOVS     R0,#+184
   \   00000054   0002               LSLS     R0,R0,#+8        ;; #+47104
   \   00000056   1043               ORRS     R0,R0,R2
   \   00000058   ........           BL       SPI_SendWord
   \                     ??RF_transmit_1:
   \   0000005C   01B0               ADD      SP,SP,#+4
   \   0000005E   01BC               POP      {R0}
   \   00000060   0047               BX       R0               ;; return
   \   00000062   C046               Nop      
   \                     ??RF_transmit_0:
   \   00000064   ........           DC32     RF_Tx + 20
   \   00000068   3CF4FFFF           DC32     0xfffff43c
   \   0000006C   ........           DC32     RF_Status + 8
   \   00000070   ........           DC32     RF_Tx
    551             }
    552          }
    553          
    554          
    555          
    556          //-----------------------------------------------------------------------------
    557          //!  Nazwa funkcji :    RF_CheckChannel
    558          //!  Funkcja sprawdza czy kana³ jest wolny
    559          //-----------------------------------------------------------------------------
    560          extern int MenuLevel;
    561          

   \                                 In section Debug.txt, align 4, keep-with-next
    562          char RF_CheckChannel(void)
    563          {
   \                     RF_CheckChannel:
   \   00000000   10B5               PUSH     {R4,LR}
    564               int MenuLevel_Member=MenuLevel;
   \   00000002   0B48               LDR      R0,??RF_CheckChannel_0  ;; MenuLevel
   \   00000004   0468               LDR      R4,[R0, #+0]
    565               MenuLevel=3;
   \   00000006   0A48               LDR      R0,??RF_CheckChannel_0  ;; MenuLevel
   \   00000008   0321               MOVS     R1,#+3
   \   0000000A   0160               STR      R1,[R0, #+0]
    566               MenuPaint();
   \   0000000C   ........           BL       MenuPaint
    567               
    568               RF_Status.ConfResive=0; 
   \   00000010   0848               LDR      R0,??RF_CheckChannel_0+0x4  ;; RF_Status + 11
   \   00000012   0021               MOVS     R1,#+0
   \   00000014   0170               STRB     R1,[R0, #+0]
    569               
    570          
    571               
    572               Delay(0x100000);
                      ^
Warning[Pe223]: function "Delay" declared implicitly
   \   00000016   8020               MOVS     R0,#+128
   \   00000018   4003               LSLS     R0,R0,#+13       ;; #+1048576
   \   0000001A   ........           BL       Delay
    573          
    574               
    575               
    576               MenuLevel=MenuLevel_Member;  
   \   0000001E   0448               LDR      R0,??RF_CheckChannel_0  ;; MenuLevel
   \   00000020   0460               STR      R4,[R0, #+0]
    577               MenuPaint();
   \   00000022   ........           BL       MenuPaint
    578               return RF_Status.ConfResive;
   \   00000026   0348               LDR      R0,??RF_CheckChannel_0+0x4  ;; RF_Status + 11
   \   00000028   0078               LDRB     R0,[R0, #+0]
   \   0000002A   10BC               POP      {R4}
   \   0000002C   02BC               POP      {R1}
   \   0000002E   0847               BX       R1               ;; return
   \                     ??RF_CheckChannel_0:
   \   00000030   ........           DC32     MenuLevel
   \   00000034   ........           DC32     RF_Status + 11
    579          
    580          }

   \                                 In section Debug.txt, align 4, keep-with-next
   \                     ??DataTable7:
   \   00000000   19820000           DC32     0x8219

   \                                 In section Debug.txt, align 4, keep-with-next
   \                     ??DataTable8:
   \   00000000   ........           DC32     RF_Status + 3

   \                                 In section Debug.txt, align 4, keep-with-next
   \                     ??DataTable18:
   \   00000000   99820000           DC32     0x8299

   \                                 In section Debug.txt, align 4, keep-with-next
   \                     ??DataTable19:
   \   00000000   ........           DC32     RF_Status + 36

   \                                 In section Debug.txt, align 4, keep-with-next
   \                     ??DataTable31:
   \   00000000   ........           DC32     RF_Status + 40

   \                                 In section Debug.txt, align 4, keep-with-next
   \                     ??DataTable33:
   \   00000000   00F4FFFF           DC32     0xfffff400

   \                                 In section Debug.txt, align 4, keep-with-next
   \                     ??DataTable42:
   \   00000000   ........           DC32     RF_Status + 8

   \                                 In section Debug.txt, align 4, keep-with-next
   \                     ??DataTable43:
   \   00000000   ........           DC32     RF_Tx + 20

   \                                 In section Debug.txt, align 4, keep-with-next
   \                     ??DataTable44:
   \   00000000   ........           DC32     RF_Status + 10

   \                                 In section Debug.txt, align 4, keep-with-next
   \                     ??DataTable45:
   \   00000000   ........           DC32     RF_Status + 6

   \                                 In section Debug.txt, align 4, keep-with-next
   \                     ??DataTable46:
   \   00000000   ........           DC32     RF_Status + 5

   \                                 In section Debug.txt, align 4, keep-with-next
   \                     ??DataTable47:
   \   00000000   ........           DC32     RF_Status + 17

   \                                 In section Debug.txt, align 4, keep-with-next
   \                     ??DataTable48:
   \   00000000   ........           DC32     RF_Status + 1

   \                                 In section Debug.txt, align 4, keep-with-next
   \                     ??DataTable49:
   \   00000000   ........           DC32     RF_Status + 2

   \                                 In section Debug.txt, align 4, keep-with-next
   \                     ??DataTable50:
   \   00000000   ........           DC32     IntCA81Flag

   \                                 In section Debug.txt, align 4, keep-with-next
   \                     ??DataTable51:
   \   00000000   ........           DC32     RF_Status

   \                                 In section Debug.txt, align 4, keep-with-next
   \                     ??DataTable52:
   \   00000000   67800000           DC32     0x8067

   Maximum stack usage in bytes:

     Function                    .cstack
     --------                    -------
     AT91F_AIC_EnableIt               0
     AT91F_PIO_CfgInput               0
     AT91F_PIO_InterruptEnable        0
     AT91F_PMC_EnablePeriphClock      0
     ConfigureRFBus                   8
     InitRF_Interrupt                 8
     RF_CheckChannel                  8
     RF_Init                          8
     RF_Int                           8
     RF_ReciveByte                    8
     RF_SendFarm                     16
     RF_transmit                      8
     SPI_RFM12_Execute               16
     _RF_EnableRX                     8
     _RF_EnableTX                     8
     _pRF_Status                      0


   Section sizes:

     Function/Label              Bytes
     --------------              -----
     AT91F_AIC_EnableIt            12
     AT91F_PIO_CfgInput             6
     AT91F_PIO_InterruptEnable      4
     AT91F_PMC_EnablePeriphClock    4
     RF_Rx                         24
     RF_Tx                         24
     SPI_RFM12_Read                 1
     Preambu                        4
     SynKay                         4
     RF_Status                     44
     tmp_int                        1
     _RF_EnableTX                  64
     _RF_EnableRX                  76
     _pRF_Status                   24
     InitRF_Interrupt              40
     RF_Int                       100
     ConfigureRFBus                32
     IntCA81Flag                    1
     RF_Init                      148
     CountVal                       1
     SPI_RFM12_Execute            864
     RF_ReciveByte                248
     RF_SendFarm                  328
     RF_transmit                  116
     RF_CheckChannel               56
     ??DataTable7                   4
     ??DataTable8                   4
     ??DataTable18                  4
     ??DataTable19                  4
     ??DataTable31                  4
     ??DataTable33                  4
     ??DataTable42                  4
     ??DataTable43                  4
     ??DataTable44                  4
     ??DataTable45                  4
     ??DataTable46                  4
     ??DataTable47                  4
     ??DataTable48                  4
     ??DataTable49                  4
     ??DataTable50                  4
     ??DataTable51                  4
     ??DataTable52                  4
      Others                        2

 
    95 bytes in section .bss
     1 byte  in section .data
     8 bytes in section .rodata
 2 192 bytes in section Debug.txt
 
 2 164 bytes of CODE  memory (+ 28 bytes shared)
     8 bytes of CONST memory
    96 bytes of DATA  memory

Errors: none
Warnings: 32
