###############################################################################
#                                                                             #
# IAR ARM ANSI C/C++ Compiler V5.10.5.372/W32           04/Sep/2013  21:25:44 #
# Copyright 1999-2007 IAR Systems. All rights reserved.                       #
#                                                                             #
#    Cpu mode     =  thumb                                                    #
#    Endian       =  little                                                   #
#    Source file  =  D:\Zeuron\Projekty\S300\S300-program v1.4 -              #
#                    12.06.2013\Framework\WizFiCommand.c                      #
#    Command line =  "D:\Zeuron\Projekty\S300\S300-program v1.4 -             #
#                    12.06.2013\Framework\WizFiCommand.c" -D AT91SAM7S256 -D  #
#                    AT91SAM7SEK -D iH -D __ALARM -D __WIFI_MODULE -D         #
#                    __MaxRf -D S300iMax -lC "D:\Zeuron\Projekty\S300\S300-pr #
#                    ogram v1.4 - 12.06.2013\S300iMax\List\" --diag_suppress  #
#                    Pa082 -o "D:\Zeuron\Projekty\S300\S300-program v1.4 -    #
#                    12.06.2013\S300iMax\Obj\" --no_unroll --no_inline        #
#                    --no_tbaa --no_scheduling --debug --endian little --cpu  #
#                    ARM7TDMI -e --fpu None --dlib_config "C:\Program Files   #
#                    (x86)\IAR Systems\Embedded Workbench                     #
#                    5.0\ARM\INC\DLib_Config_Normal.h" -I                     #
#                    "D:\Zeuron\Projekty\S300\S300-program v1.4 -             #
#                    12.06.2013\lib\AT91SAM7S256\" -I                         #
#                    "D:\Zeuron\Projekty\S300\S300-program v1.4 -             #
#                    12.06.2013\lib\AT91SAM7S64\" -I                          #
#                    "D:\Zeuron\Projekty\S300\S300-program v1.4 -             #
#                    12.06.2013\" -I "D:\Zeuron\Projekty\S300\S300-program    #
#                    v1.4 - 12.06.2013\cdc\" -I "D:\Zeuron\Projekty\S300\S300 #
#                    -program v1.4 - 12.06.2013\core\" -I                     #
#                    "D:\Zeuron\Projekty\S300\S300-program v1.4 -             #
#                    12.06.2013\startup\" -I "D:\Zeuron\Projekty\S300\S300-pr #
#                    ogram v1.4 - 12.06.2013\Framework\" -I                   #
#                    "D:\Zeuron\Projekty\S300\S300-program v1.4 -             #
#                    12.06.2013\Framework\Configuration\" -I "C:\Program      #
#                    Files (x86)\IAR Systems\Embedded Workbench               #
#                    5.0\ARM\INC\" --section .text=Debug.txt --interwork      #
#                    --cpu_mode thumb -Om                                     #
#    List file    =  D:\Zeuron\Projekty\S300\S300-program v1.4 -              #
#                    12.06.2013\S300iMax\List\WizFiCommand.lst                #
#    Object file  =  D:\Zeuron\Projekty\S300\S300-program v1.4 -              #
#                    12.06.2013\S300iMax\Obj\WizFiCommand.o                   #
#                                                                             #
#                                                                             #
###############################################################################

D:\Zeuron\Projekty\S300\S300-program v1.4 - 12.06.2013\Framework\WizFiCommand.c
      1          //****************************************************************************//
      2          //*--------------------------------------------------------------------------*//
      3          //*                 CEURON                                                   *//
      4          //*--------------------------------------------------------------------------*//
      5          //*--------------------------------------------------------------------------*//
      6          //*  Nazwa pliku                  : WizFiCommacd.c                           *//
      7          //*  Opis                         : Obs³uga komend modu³u WizFi              *//
      8          //*  Autor                        : Pawe³ Narwojsz                           *//
      9          //*  Data utrzorzenia             : 11.04.2012                               *//
     10          //*  Data ostatniej modyfikacji   : --.--.----                               *//
     11          //*--------------------------------------------------------------------------*//
     12          //*                                                                          *//
     13          //*--------------------------------------------------------------------------*//
     14          //* Rejestr zmian  (data - opis):                                            *//
     15          //*                                                                          *//
     16          //*                               Brak zmian                                 *//
     17          //*                                                                          *//
     18          //*__________________________________________________________________________*//
     19          //****************************************************************************//
     20          
     21          
     22          
     23          #include "WizFi.h"

   \                                 In section Debug.txt, align 4
   \   __??Code16?? __code __interwork void AT91F_PDC_SetNextTx(AT91PS_PDC, char *, unsigned int)
   \                     AT91F_PDC_SetNextTx:
   \   00000000   8161               STR      R1,[R0, #+24]
   \   00000002   C261               STR      R2,[R0, #+28]
   \   00000004   7047               BX       LR               ;; return

   \                                 In section Debug.txt, align 4
   \   __??Code16?? __code __interwork void AT91F_PDC_SetTx(AT91PS_PDC, char *, unsigned int)
   \                     AT91F_PDC_SetTx:
   \   00000000   8160               STR      R1,[R0, #+8]
   \   00000002   C260               STR      R2,[R0, #+12]
   \   00000004   7047               BX       LR               ;; return

   \                                 In section Debug.txt, align 4
   \   __??Code16?? __code __interwork int AT91F_PDC_IsTxEmpty(AT91PS_PDC)
   \                     AT91F_PDC_IsTxEmpty:
   \   00000000   C068               LDR      R0,[R0, #+12]
   \   00000002   401E               SUBS     R0,R0,#+1
   \   00000004   8041               SBCS     R0,R0,R0
   \   00000006   C00F               LSRS     R0,R0,#+31
   \   00000008   7047               BX       LR               ;; return

   \                                 In section Debug.txt, align 4
   \   __??Code16?? __code __interwork int AT91F_PDC_IsNextTxEmpty(AT91PS_PDC)
   \                     AT91F_PDC_IsNextTxEmpty:
   \   00000000   C069               LDR      R0,[R0, #+28]
   \   00000002   401E               SUBS     R0,R0,#+1
   \   00000004   8041               SBCS     R0,R0,R0
   \   00000006   C00F               LSRS     R0,R0,#+31
   \   00000008   7047               BX       LR               ;; return

   \                                 In section Debug.txt, align 4
   \   __??Code16?? __code __interwork unsigned int AT91F_PDC_SendFrame(AT91PS_PDC, char *, unsigned int, char *, unsigned int)
   \                     AT91F_PDC_SendFrame:
   \   00000000   F8B5               PUSH     {R3-R7,LR}
   \   00000002   0400               MOVS     R4,R0
   \   00000004   0D00               MOVS     R5,R1
   \   00000006   1600               MOVS     R6,R2
   \   00000008   069F               LDR      R7,[SP, #+24]
   \   0000000A   ........           BL       AT91F_PDC_IsTxEmpty
   \   0000000E   0028               CMP      R0,#+0
   \   00000010   0BD0               BEQ      ??AT91F_PDC_SendFrame_0
   \   00000012   3200               MOVS     R2,R6
   \   00000014   2900               MOVS     R1,R5
   \   00000016   2000               MOVS     R0,R4
   \   00000018   ........           BL       AT91F_PDC_SetTx
   \   0000001C   3A00               MOVS     R2,R7
   \   0000001E   0099               LDR      R1,[SP, #+0]
   \   00000020   2000               MOVS     R0,R4
   \   00000022   ........           BL       AT91F_PDC_SetNextTx
   \   00000026   0220               MOVS     R0,#+2
   \   00000028   0AE0               B        ??AT91F_PDC_SendFrame_1
   \                     ??AT91F_PDC_SendFrame_0:
   \   0000002A   2000               MOVS     R0,R4
   \   0000002C   ........           BL       AT91F_PDC_IsNextTxEmpty
   \   00000030   0028               CMP      R0,#+0
   \   00000032   05D0               BEQ      ??AT91F_PDC_SendFrame_1
   \   00000034   3200               MOVS     R2,R6
   \   00000036   2900               MOVS     R1,R5
   \   00000038   2000               MOVS     R0,R4
   \   0000003A   ........           BL       AT91F_PDC_SetNextTx
   \   0000003E   0120               MOVS     R0,#+1
   \                     ??AT91F_PDC_SendFrame_1:
   \   00000040   F8BC               POP      {R3-R7}
   \   00000042   02BC               POP      {R1}
   \   00000044   0847               BX       R1               ;; return

   \                                 In section Debug.txt, align 4
   \   __??Code16?? __code __interwork unsigned int AT91F_US_SendFrame(AT91PS_USART, unsigned char *, unsigned int, unsigned char *, unsigned int)
   \                     AT91F_US_SendFrame:
   \   00000000   10B5               PUSH     {R4,LR}
   \   00000002   029C               LDR      R4,[SP, #+8]
   \   00000004   82B0               SUB      SP,SP,#+8
   \   00000006   0094               STR      R4,[SP, #+0]
   \   00000008   8024               MOVS     R4,#+128
   \   0000000A   6400               LSLS     R4,R4,#+1        ;; #+256
   \   0000000C   0019               ADDS     R0,R0,R4
   \   0000000E   ........           BL       AT91F_PDC_SendFrame
   \   00000012   02B0               ADD      SP,SP,#+8
   \   00000014   10BC               POP      {R4}
   \   00000016   02BC               POP      {R1}
   \   00000018   0847               BX       R1               ;; return

                                          
                                          ^
"D:\Zeuron\Projekty\S300\S300-program v1.4 - 12.06.2013\Framework\Configuration\InterruptPriority.h",59  Warning[Pe001]: 
          last line of file ends without a newline

   
   ^
"D:\Zeuron\Projekty\S300\S300-program v1.4 - 12.06.2013\Framework\WizFi.h",172  Warning[Pe001]: 
          last line of file ends without a newline
     24          //#include "Framework.h"
     25          //#include "core/device.h"                                                        //aduje bibliotreki dla odpowiedniego procesora
     26          //#include "main_H.h" 
     27          #include "string.h"

   \                                 In section Debug.txt, align 4
   \   __??Code16?? __intrinsic __code __interwork char *strstr(char const *, char const *)
   \                     strstr:
   \   00000000   01B5               PUSH     {R0,LR}
   \   00000002   ........           BL       __iar_Strstr
   \   00000006   08BC               POP      {R3}
   \   00000008   02BC               POP      {R1}
   \   0000000A   0847               BX       R1               ;; return
     28          #include "WizFi.h"
     29          
     30          
     31          //Sta³e ------------------------------------------------------------------------

   \                                 In section .rodata, align 4
     32              const char AT[]="AT\r";                                                     //komenda WizFi 
   \                     AT:
   \   00000000   41540D00           DC8 "AT\015"

   \                                 In section .rodata, align 4
     33              const char ATI2[]="ATI2\r";                                                     //komenda WizFi 
   \                     ATI2:
   \   00000000   415449320D00       DC8 "ATI2\015"
   \   00000006   0000               DC8 0, 0

   \                                 In section .rodata, align 4
     34              const char AT_VER[]="AT+VER=?\r";
   \                     AT_VER:
   \   00000000   41542B564552       DC8 "AT+VER=?\015"
   \              3D3F0D00    
   \   0000000A   0000               DC8 0, 0

   \                                 In section .rodata, align 4
     35              const char AT_XDUM0[]="AT+XDUM=0\r";                                                //komenda WizFi 
   \                     AT_XDUM0:
   \   00000000   41542B584455       DC8 "AT+XDUM=0\015"
   \              4D3D300D00  
   \   0000000B   00                 DC8 0

   \                                 In section .rodata, align 4
     36              const char AT_WD[]="AT+WD\r";                                               //komenda WizFi 
   \                     AT_WD:
   \   00000000   41542B57440D       DC8 "AT+WD\015"
   \              00          
   \   00000007   00                 DC8 0

   \                                 In section .rodata, align 4
     37              const char AT_NDHCP_0[]="AT+NDHCP=0\r";                                     //komenda WizFi   
   \                     AT_NDHCP_0:
   \   00000000   41542B4E4448       DC8 "AT+NDHCP=0\015"
   \              43503D300D00
     38              const char AT_NDHCP_1[]="AT+NDHCP=1\r";                                     //komenda WizFi 
   \                     AT_NDHCP_1:
   \   0000000C   41542B4E4448       DC8 "AT+NDHCP=1\015"
   \              43503D310D00

   \                                 In section .rodata, align 4
     39              const char AT_NSET[]="AT+NSET=";                                          //komenda WizFi  
   \                     AT_NSET:
   \   00000000   41542B4E5345       DC8 "AT+NSET="
   \              543D00      
   \   00000009   000000             DC8 0, 0, 0

   \                                 In section .rodata, align 4
     40              const char AT_WAUTH_1[]="AT+WAUTH=1\r";                                          //komenda WizFi  
   \                     AT_WAUTH_1:
   \   00000000   41542B574155       DC8 "AT+WAUTH=1\015"
   \              54483D310D00

   \                                 In section .rodata, align 4
     41              const char AT_WWEP1[]="AT+WWEP1=";                                          //komenda WizFi  
   \                     AT_WWEP1:
   \   00000000   41542B575745       DC8 "AT+WWEP1="
   \              50313D00    
   \   0000000A   0000               DC8 0, 0

   \                                 In section .rodata, align 4
     42              const char AT_WWPA[]="AT+WWPA=";                                            //komenda WizFi  
   \                     AT_WWPA:
   \   00000000   41542B575750       DC8 "AT+WWPA="
   \              413D00      
   \   00000009   000000             DC8 0, 0, 0

   \                                 In section .rodata, align 4
     43              const char AT_WA[]="AT+WA=";                                              //komenda WizFi  
   \                     AT_WA:
   \   00000000   41542B57413D       DC8 "AT+WA="
   \              00          
   \   00000007   00                 DC8 0

   \                                 In section .rodata, align 4
     44              const char AT_DNSLOOKUP[]="AT+DNSLOOKUP=";                                              //komenda WizFi  
   \                     AT_DNSLOOKUP:
   \   00000000   41542B444E53       DC8 "AT+DNSLOOKUP="
   \              4C4F4F4B5550
   \              3D00        
   \   0000000E   0000               DC8 0, 0

   \                                 In section .rodata, align 4
     45              const char AT_NCTCP[]="AT+NCTCP=";                                              //komenda WizFi  
   \                     AT_NCTCP:
   \   00000000   41542B4E4354       DC8 "AT+NCTCP="
   \              43503D00    
   \   0000000A   0000               DC8 0, 0

   \                                 In section .rodata, align 4
     46              const char AT_NCLOSE[]="AT+NCLOSE=";                                              //komenda WizFi  
   \                     AT_NCLOSE:
   \   00000000   41542B4E434C       DC8 "AT+NCLOSE="
   \              4F53453D00  
   \   0000000B   00                 DC8 0
   \   0000000C   5B434F4E4E45       DC8 "[CONNECT"
   \              435400      
   \   00000015   000000             DC8 0, 0, 0
   \   00000018   4E4F20434944       DC8 "NO CID]"
   \              5D00        
   \   00000020   5B4552524F52       DC8 "[ERROR"
   \              00          
   \   00000027   00                 DC8 0
   \   00000028   4E6F2076616C       DC8 "No valid Cids"
   \              696420436964
   \              7300        
   \   00000036   0000               DC8 0, 0
     47              const char AT_NCLOSEALL[]="AT+NCLOSEALL\r";                                              //komenda WizFi  
     48              const char AT_WS[]="AT+WS\r";
     49              const char AT_CID[]="AT+CID=?\r";
     50              const char AT_XRESET[]="AT+XRESET\r";
   \                     AT_XRESET:
   \   00000038   41542B585245       DC8 "AT+XRESET\015"
   \              5345540D00  
   \   00000043   00                 DC8 0

   \                                 In section .rodata, align 4
   \                     AT_NCLOSEALL:
   \   00000000   41542B4E434C       DC8 "AT+NCLOSEALL\015"
   \              4F5345414C4C
   \              0D00        
   \   0000000E   0000               DC8 0, 0

   \                                 In section .rodata, align 4
   \                     AT_WS:
   \   00000000   41542B57530D       DC8 "AT+WS\015"
   \              00          
   \   00000007   00                 DC8 0

   \                                 In section .rodata, align 4
   \                     AT_CID:
   \   00000000   41542B434944       DC8 "AT+CID=?\015"
   \              3D3F0D00    
   \   0000000A   0000               DC8 0, 0
     51           //____________________________Koniec sta³ych ___________________________________
     52           
     53          
     54              extern unsigned long long  g_counter;                                              //globalny licznik milisekundowy od w³¹czenia/restartu sterownika
     55              
     56              
     57              
     58              extern char Variables[];    //zmienne
     59              extern char VariablesImpulse[];
     60              extern char VariablesNetTmp[];
     61              extern short int VariablesAnal[];    //zmienne
     62              extern _ProgramTab gProg;
     63              extern _MainStage  MainStage; 
     64              extern _DateTime DateTime;    
     65              extern _TransQuality TransQuality;
     66              extern unsigned char ChangeStageFlag;
     67              extern _RF_Status RF_Status;
     68              extern char WiFiDebug;
     69          
     70          //------------------------------------------------------------------------------

   \                                 In section Debug.txt, align 4, keep-with-next
     71          void WizFiCommand_AT(char *Buff_RX, char *Buff_TX,  AT91PS_USART USART, _Net *Net)
     72          {
   \                     WizFiCommand_AT:
   \   00000000   70B5               PUSH     {R4-R6,LR}
   \   00000002   0C00               MOVS     R4,R1
   \   00000004   1600               MOVS     R6,R2
   \   00000006   1D00               MOVS     R5,R3
     73             if (Net->WiFi.SSID[0]==0)
   \   00000008   AE21               MOVS     R1,#+174
   \   0000000A   695C               LDRB     R1,[R5, R1]
   \   0000000C   0029               CMP      R1,#+0
   \   0000000E   11D1               BNE      ??WizFiCommand_AT_0
     74             {
     75               Net->Status.Timeout=g_counter + CRYTICAL_TIMEOUT;    //przed³u¿enie /restart timeoutu
   \   00000010   3835               ADDS     R5,R5,#+56
   \   00000012   ....               LDR      R4,??DataTable21  ;; g_counter
   \   00000014   0CCC               LDM      R4!,{R2,R3}
   \   00000016   083C               SUBS     R4,R4,#+8
   \   00000018   ....               LDR      R0,??DataTable22  ;; 0x2710
   \   0000001A   8018               ADDS     R0,R0,R2
   \   0000001C   5941               ADCS     R1,R1,R3
   \   0000001E   03C5               STM      R5!,{R0,R1}
   \   00000020   083D               SUBS     R5,R5,#+8
     76               Net->Status.FreezTime=g_counter+1000;
   \   00000022   0835               ADDS     R5,R5,#+8
   \   00000024   0CCC               LDM      R4!,{R2,R3}
   \   00000026   FA20               MOVS     R0,#+250
   \   00000028   8000               LSLS     R0,R0,#+2        ;; #+1000
   \   0000002A   0021               MOVS     R1,#+0
   \   0000002C   8018               ADDS     R0,R0,R2
   \   0000002E   5941               ADCS     R1,R1,R3
   \   00000030   03C5               STM      R5!,{R0,R1}
   \   00000032   2FE0               B        ??WizFiCommand_AT_1
     77             }else{
     78               for (short i=0; i<US1_BUFFER_Rx_SIZE; i++) Buff_RX[i]=0; 
   \                     ??WizFiCommand_AT_0:
   \   00000034   0021               MOVS     R1,#+0
   \   00000036   0A00               MOVS     R2,R1
   \   00000038   04E0               B        ??WizFiCommand_AT_2
   \                     ??WizFiCommand_AT_3:
   \   0000003A   0B00               MOVS     R3,R1
   \   0000003C   8354               STRB     R3,[R0, R2]
   \   0000003E   521C               ADDS     R2,R2,#+1
   \   00000040   1204               LSLS     R2,R2,#+16
   \   00000042   1214               ASRS     R2,R2,#+16
   \                     ??WizFiCommand_AT_2:
   \   00000044   9123               MOVS     R3,#+145
   \   00000046   9B00               LSLS     R3,R3,#+2        ;; #+580
   \   00000048   9A42               CMP      R2,R3
   \   0000004A   F6DB               BLT      ??WizFiCommand_AT_3
     79               Buff_TX[0]='A';
   \   0000004C   4120               MOVS     R0,#+65
   \   0000004E   2070               STRB     R0,[R4, #+0]
     80               Buff_TX[1]='T';
   \   00000050   5420               MOVS     R0,#+84
   \   00000052   6070               STRB     R0,[R4, #+1]
     81               Buff_TX[2]=0x0d;
   \   00000054   0D20               MOVS     R0,#+13
   \   00000056   A070               STRB     R0,[R4, #+2]
     82               Buff_TX[3]=0x0A;
   \   00000058   0A20               MOVS     R0,#+10
   \   0000005A   E070               STRB     R0,[R4, #+3]
     83               
     84               Net->Status.CurrentOrder=WizFi_AT;
   \   0000005C   0120               MOVS     R0,#+1
   \   0000005E   A870               STRB     R0,[R5, #+2]
     85          
     86               AT91F_US_SendFrame(USART,Buff_TX,4,0, 0);                        //Wysyla ramke 
                                               ^
Warning[Pe167]: argument of type "char *" is incompatible with parameter of
          type "unsigned char *"
   \   00000060   82B0               SUB      SP,SP,#+8
   \   00000062   0800               MOVS     R0,R1
   \   00000064   0090               STR      R0,[SP, #+0]
   \   00000066   0300               MOVS     R3,R0
   \   00000068   0422               MOVS     R2,#+4
   \   0000006A   2100               MOVS     R1,R4
   \   0000006C   3000               MOVS     R0,R6
   \   0000006E   ........           BL       AT91F_US_SendFrame
   \   00000072   02B0               ADD      SP,SP,#+8
     87               Net->Status.Timeout=g_counter + CRYTICAL_TIMEOUT;    //przed³u¿enie /restart timeoutu
   \   00000074   3835               ADDS     R5,R5,#+56
   \   00000076   ....               LDR      R0,??DataTable21  ;; g_counter
   \   00000078   0CC8               LDM      R0!,{R2,R3}
   \   0000007A   ....               LDR      R0,??DataTable22  ;; 0x2710
   \   0000007C   0021               MOVS     R1,#+0
   \   0000007E   8018               ADDS     R0,R0,R2
   \   00000080   5941               ADCS     R1,R1,R3
   \   00000082   03C5               STM      R5!,{R0,R1}
     88               
     89               if (WiFiDebug) SendViaUSB(Buff_TX, 4);
                                                ^
Warning[Pe167]: argument of type "char *" is incompatible with parameter of
          type "unsigned char *"
   \   00000084   ....               LDR      R0,??DataTable20  ;; WiFiDebug
   \   00000086   0078               LDRB     R0,[R0, #+0]
   \   00000088   0028               CMP      R0,#+0
   \   0000008A   03D0               BEQ      ??WizFiCommand_AT_1
   \   0000008C   0421               MOVS     R1,#+4
   \   0000008E   2000               MOVS     R0,R4
   \   00000090   ........           BL       SendViaUSB
     90             }
     91          }
   \                     ??WizFiCommand_AT_1:
   \   00000094   70BC               POP      {R4-R6}
   \   00000096   01BC               POP      {R0}
   \   00000098   0047               BX       R0               ;; return
     92          
     93          
     94          
     95          

   \                                 In section Debug.txt, align 4, keep-with-next
     96          char WizFiResponseCommand_AT(char *Buff_RX, char *Buff_TX, AT91PS_USART USART, _Net *Net)
     97          {
   \                     WizFiResponseCommand_AT:
   \   00000000   F1B5               PUSH     {R0,R4-R7,LR}
   \   00000002   0700               MOVS     R7,R0
   \   00000004   1C00               MOVS     R4,R3
     98             if (WiFiDebug) SendViaUSB(Buff_RX, strlen(Buff_RX));
                                              ^
Warning[Pe167]: argument of type "char *" is incompatible with parameter of
          type "unsigned char *"
   \   00000006   ....               LDR      R0,??DataTable20  ;; WiFiDebug
   \   00000008   0078               LDRB     R0,[R0, #+0]
   \   0000000A   0028               CMP      R0,#+0
   \   0000000C   08D0               BEQ      ??WizFiResponseCommand_AT_0
   \   0000000E   3800               MOVS     R0,R7
   \   00000010   ........           BL       strlen
   \   00000014   0100               MOVS     R1,R0
   \   00000016   0904               LSLS     R1,R1,#+16
   \   00000018   090C               LSRS     R1,R1,#+16
   \   0000001A   3800               MOVS     R0,R7
   \   0000001C   ........           BL       SendViaUSB
     99             char odp=0;
   \                     ??WizFiResponseCommand_AT_0:
   \   00000020   0025               MOVS     R5,#+0
   \   00000022   2E00               MOVS     R6,R5
    100             if(strstr(Buff_RX, "OK")!=NULL)
   \   00000024   10A1               ADR      R1,??WizFiResponseCommand_AT_1  ;; 0x4F, 0x4B, 0x00, 0x00
   \   00000026   3800               MOVS     R0,R7
   \   00000028   ........           BL       strstr
   \   0000002C   0028               CMP      R0,#+0
   \   0000002E   16D0               BEQ      ??WizFiResponseCommand_AT_2
    101                  {
    102                    odp=1;  //ok 
   \   00000030   0126               MOVS     R6,#+1
    103                    for (char i=0; i<50; i++) Buff_RX[i]=0;
   \   00000032   2800               MOVS     R0,R5
   \   00000034   2A00               MOVS     R2,R5
   \   00000036   03E0               B        ??WizFiResponseCommand_AT_3
   \                     ??WizFiResponseCommand_AT_4:
   \   00000038   7A54               STRB     R2,[R7, R1]
   \   0000003A   401C               ADDS     R0,R0,#+1
   \   0000003C   0006               LSLS     R0,R0,#+24
   \   0000003E   000E               LSRS     R0,R0,#+24
   \                     ??WizFiResponseCommand_AT_3:
   \   00000040   0100               MOVS     R1,R0
   \   00000042   3229               CMP      R1,#+50
   \   00000044   F8D3               BCC      ??WizFiResponseCommand_AT_4
    104                    Net->Status.Timeout=g_counter + CRYTICAL_TIMEOUT;    //przed³u¿enie /restart timeoutu
   \   00000046   2700               MOVS     R7,R4
   \   00000048   3837               ADDS     R7,R7,#+56
   \   0000004A   ....               LDR      R0,??DataTable21  ;; g_counter
   \   0000004C   03C8               LDM      R0!,{R0,R1}
   \   0000004E   0200               MOVS     R2,R0
   \   00000050   0B00               MOVS     R3,R1
   \   00000052   ....               LDR      R0,??DataTable22  ;; 0x2710
   \   00000054   2900               MOVS     R1,R5
   \   00000056   8018               ADDS     R0,R0,R2
   \   00000058   5941               ADCS     R1,R1,R3
   \   0000005A   03C7               STM      R7!,{R0,R1}
    105                    Net->Status.Error=0;
   \   0000005C   6575               STRB     R5,[R4, #+21]
    106                  }
    107          
    108             return odp;
   \                     ??WizFiResponseCommand_AT_2:
   \   0000005E   3000               MOVS     R0,R6
   \   00000060   F8BC               POP      {R3-R7}
   \   00000062   02BC               POP      {R1}
   \   00000064   0847               BX       R1               ;; return
   \   00000066   C046               Nop      
   \                     ??WizFiResponseCommand_AT_1:
   \   00000068   4F4B0000           DC8      0x4F, 0x4B, 0x00, 0x00
    109          }
    110          
    111          
    112          
    113          
    114          
    115          
    116          //------------------------------------------------------------------------------

   \                                 In section Debug.txt, align 4, keep-with-next
    117          void WizFiCommand_AT_VER(char *Buff_RX, char *Buff_TX,  AT91PS_USART USART, _Net *Net)
    118          {
   \                     WizFiCommand_AT_VER:
   \   00000000   70B5               PUSH     {R4-R6,LR}
   \   00000002   0500               MOVS     R5,R0
   \   00000004   1600               MOVS     R6,R2
   \   00000006   1C00               MOVS     R4,R3
    119             if (WiFiDebug) SendViaUSB((char*)AT_VER, sizeof(AT_VER)-1);
                                              ^
Warning[Pe167]: argument of type "char *" is incompatible with parameter of
          type "unsigned char *"
   \   00000008   ....               LDR      R0,??DataTable20  ;; WiFiDebug
   \   0000000A   0078               LDRB     R0,[R0, #+0]
   \   0000000C   0028               CMP      R0,#+0
   \   0000000E   03D0               BEQ      ??WizFiCommand_AT_VER_0
   \   00000010   0921               MOVS     R1,#+9
   \   00000012   1348               LDR      R0,??WizFiCommand_AT_VER_1  ;; AT_VER
   \   00000014   ........           BL       SendViaUSB
    120             for (short i=0; i<US1_BUFFER_Rx_SIZE; i++) Buff_RX[i]=0;
   \                     ??WizFiCommand_AT_VER_0:
   \   00000018   0020               MOVS     R0,#+0
   \   0000001A   0100               MOVS     R1,R0
   \   0000001C   04E0               B        ??WizFiCommand_AT_VER_2
   \                     ??WizFiCommand_AT_VER_3:
   \   0000001E   0200               MOVS     R2,R0
   \   00000020   6A54               STRB     R2,[R5, R1]
   \   00000022   491C               ADDS     R1,R1,#+1
   \   00000024   0904               LSLS     R1,R1,#+16
   \   00000026   0914               ASRS     R1,R1,#+16
   \                     ??WizFiCommand_AT_VER_2:
   \   00000028   9122               MOVS     R2,#+145
   \   0000002A   9200               LSLS     R2,R2,#+2        ;; #+580
   \   0000002C   9142               CMP      R1,R2
   \   0000002E   F6DB               BLT      ??WizFiCommand_AT_VER_3
    121             Net->Status.CurrentOrder=WizFi_AT_VER;     
   \   00000030   0220               MOVS     R0,#+2
   \   00000032   A070               STRB     R0,[R4, #+2]
    122             AT91F_US_SendFrame(USART,(char*)AT_VER,sizeof(AT_VER)-1,0, 0);                        //Wysyla ramke  
                                             ^
Warning[Pe167]: argument of type "char *" is incompatible with parameter of
          type "unsigned char *"
   \   00000034   82B0               SUB      SP,SP,#+8
   \   00000036   0020               MOVS     R0,#+0
   \   00000038   0090               STR      R0,[SP, #+0]
   \   0000003A   0300               MOVS     R3,R0
   \   0000003C   0922               MOVS     R2,#+9
   \   0000003E   0849               LDR      R1,??WizFiCommand_AT_VER_1  ;; AT_VER
   \   00000040   3000               MOVS     R0,R6
   \   00000042   ........           BL       AT91F_US_SendFrame
   \   00000046   02B0               ADD      SP,SP,#+8
    123             Net->Status.Timeout=g_counter + CRYTICAL_TIMEOUT;    //przed³u¿enie /restart timeoutu
   \   00000048   3834               ADDS     R4,R4,#+56
   \   0000004A   ....               LDR      R0,??DataTable21  ;; g_counter
   \   0000004C   0CC8               LDM      R0!,{R2,R3}
   \   0000004E   ....               LDR      R0,??DataTable22  ;; 0x2710
   \   00000050   0021               MOVS     R1,#+0
   \   00000052   8018               ADDS     R0,R0,R2
   \   00000054   5941               ADCS     R1,R1,R3
   \   00000056   03C4               STM      R4!,{R0,R1}
    124             
    125             
    126          }
   \   00000058   70BC               POP      {R4-R6}
   \   0000005A   01BC               POP      {R0}
   \   0000005C   0047               BX       R0               ;; return
   \   0000005E   C046               Nop      
   \                     ??WizFiCommand_AT_VER_1:
   \   00000060   ........           DC32     AT_VER
    127          
    128          
    129          
    130          

   \                                 In section Debug.txt, align 4, keep-with-next
    131          char WizFiResponseCommand_AT_VER(char *Buff_RX, char *Buff_TX, AT91PS_USART USART, _Net *Net)
    132          {
   \                     WizFiResponseCommand_AT_VER:
   \   00000000   F1B5               PUSH     {R0,R4-R7,LR}
   \   00000002   0700               MOVS     R7,R0
   \   00000004   1C00               MOVS     R4,R3
    133             if (WiFiDebug) SendViaUSB(Buff_RX, strlen(Buff_RX));
                                              ^
Warning[Pe167]: argument of type "char *" is incompatible with parameter of
          type "unsigned char *"
   \   00000006   ....               LDR      R0,??DataTable20  ;; WiFiDebug
   \   00000008   0078               LDRB     R0,[R0, #+0]
   \   0000000A   0028               CMP      R0,#+0
   \   0000000C   08D0               BEQ      ??WizFiResponseCommand_AT_VER_0
   \   0000000E   3800               MOVS     R0,R7
   \   00000010   ........           BL       strlen
   \   00000014   0100               MOVS     R1,R0
   \   00000016   0904               LSLS     R1,R1,#+16
   \   00000018   090C               LSRS     R1,R1,#+16
   \   0000001A   3800               MOVS     R0,R7
   \   0000001C   ........           BL       SendViaUSB
    134             char odp=0;
   \                     ??WizFiResponseCommand_AT_VER_0:
   \   00000020   0025               MOVS     R5,#+0
   \   00000022   2E00               MOVS     R6,R5
    135             if(strstr(Buff_RX, "OK")!=NULL)
   \   00000024   10A1               ADR      R1,??WizFiResponseCommand_AT_VER_1  ;; 0x4F, 0x4B, 0x00, 0x00
   \   00000026   3800               MOVS     R0,R7
   \   00000028   ........           BL       strstr
   \   0000002C   0028               CMP      R0,#+0
   \   0000002E   16D0               BEQ      ??WizFiResponseCommand_AT_VER_2
    136                  {
    137                    odp=1;  //ok 
   \   00000030   0126               MOVS     R6,#+1
    138                    for (char i=0; i<50; i++) Buff_RX[i]=0;
   \   00000032   2800               MOVS     R0,R5
   \   00000034   2A00               MOVS     R2,R5
   \   00000036   03E0               B        ??WizFiResponseCommand_AT_VER_3
   \                     ??WizFiResponseCommand_AT_VER_4:
   \   00000038   7A54               STRB     R2,[R7, R1]
   \   0000003A   401C               ADDS     R0,R0,#+1
   \   0000003C   0006               LSLS     R0,R0,#+24
   \   0000003E   000E               LSRS     R0,R0,#+24
   \                     ??WizFiResponseCommand_AT_VER_3:
   \   00000040   0100               MOVS     R1,R0
   \   00000042   3229               CMP      R1,#+50
   \   00000044   F8D3               BCC      ??WizFiResponseCommand_AT_VER_4
    139                    Net->Status.Timeout=g_counter + CRYTICAL_TIMEOUT;    //przed³u¿enie /restart timeoutu
   \   00000046   2700               MOVS     R7,R4
   \   00000048   3837               ADDS     R7,R7,#+56
   \   0000004A   ....               LDR      R0,??DataTable21  ;; g_counter
   \   0000004C   03C8               LDM      R0!,{R0,R1}
   \   0000004E   0200               MOVS     R2,R0
   \   00000050   0B00               MOVS     R3,R1
   \   00000052   ....               LDR      R0,??DataTable22  ;; 0x2710
   \   00000054   2900               MOVS     R1,R5
   \   00000056   8018               ADDS     R0,R0,R2
   \   00000058   5941               ADCS     R1,R1,R3
   \   0000005A   03C7               STM      R7!,{R0,R1}
    140                    Net->Status.Error=0;
   \   0000005C   6575               STRB     R5,[R4, #+21]
    141                  }
    142             
    143             return odp;
   \                     ??WizFiResponseCommand_AT_VER_2:
   \   0000005E   3000               MOVS     R0,R6
   \   00000060   F8BC               POP      {R3-R7}
   \   00000062   02BC               POP      {R1}
   \   00000064   0847               BX       R1               ;; return
   \   00000066   C046               Nop      
   \                     ??WizFiResponseCommand_AT_VER_1:
   \   00000068   4F4B0000           DC8      0x4F, 0x4B, 0x00, 0x00
    144          }
    145          
    146          
    147          
    148          //------------------------------------------------------------------------------

   \                                 In section Debug.txt, align 4, keep-with-next
    149          void WizFiCommand_ATI2(char *Buff_RX, char *Buff_TX,  AT91PS_USART USART, _Net *Net)
    150          {
   \                     WizFiCommand_ATI2:
   \   00000000   31B5               PUSH     {R0,R4,R5,LR}
   \   00000002   1500               MOVS     R5,R2
   \   00000004   1C00               MOVS     R4,R3
    151             for (short i=0; i<US1_BUFFER_Rx_SIZE; i++) Buff_RX[i]=0;
   \   00000006   0021               MOVS     R1,#+0
   \   00000008   0A00               MOVS     R2,R1
   \   0000000A   04E0               B        ??WizFiCommand_ATI2_0
   \                     ??WizFiCommand_ATI2_1:
   \   0000000C   0B00               MOVS     R3,R1
   \   0000000E   8354               STRB     R3,[R0, R2]
   \   00000010   521C               ADDS     R2,R2,#+1
   \   00000012   1204               LSLS     R2,R2,#+16
   \   00000014   1214               ASRS     R2,R2,#+16
   \                     ??WizFiCommand_ATI2_0:
   \   00000016   9123               MOVS     R3,#+145
   \   00000018   9B00               LSLS     R3,R3,#+2        ;; #+580
   \   0000001A   9A42               CMP      R2,R3
   \   0000001C   F6DB               BLT      ??WizFiCommand_ATI2_1
    152             Net->Status.CurrentOrder=WizFi_ATI2;
   \   0000001E   0320               MOVS     R0,#+3
   \   00000020   A070               STRB     R0,[R4, #+2]
    153             if (WiFiDebug) SendViaUSB((char*)ATI2, sizeof(ATI2)-1);
                                              ^
Warning[Pe167]: argument of type "char *" is incompatible with parameter of
          type "unsigned char *"
   \   00000022   ....               LDR      R0,??DataTable20  ;; WiFiDebug
   \   00000024   0078               LDRB     R0,[R0, #+0]
   \   00000026   0028               CMP      R0,#+0
   \   00000028   03D0               BEQ      ??WizFiCommand_ATI2_2
   \   0000002A   0521               MOVS     R1,#+5
   \   0000002C   0B48               LDR      R0,??WizFiCommand_ATI2_3  ;; ATI2
   \   0000002E   ........           BL       SendViaUSB
    154             AT91F_US_SendFrame(USART,(char*)ATI2,sizeof(ATI2)-1,0, 0);                        //Wysyla ramke  
                                             ^
Warning[Pe167]: argument of type "char *" is incompatible with parameter of
          type "unsigned char *"
   \                     ??WizFiCommand_ATI2_2:
   \   00000032   82B0               SUB      SP,SP,#+8
   \   00000034   0020               MOVS     R0,#+0
   \   00000036   0090               STR      R0,[SP, #+0]
   \   00000038   0300               MOVS     R3,R0
   \   0000003A   0522               MOVS     R2,#+5
   \   0000003C   0749               LDR      R1,??WizFiCommand_ATI2_3  ;; ATI2
   \   0000003E   2800               MOVS     R0,R5
   \   00000040   ........           BL       AT91F_US_SendFrame
   \   00000044   02B0               ADD      SP,SP,#+8
    155             Net->Status.Timeout=g_counter + CRYTICAL_TIMEOUT;    //przed³u¿enie /restart timeoutu
   \   00000046   3834               ADDS     R4,R4,#+56
   \   00000048   ....               LDR      R0,??DataTable21  ;; g_counter
   \   0000004A   0CC8               LDM      R0!,{R2,R3}
   \   0000004C   ....               LDR      R0,??DataTable22  ;; 0x2710
   \   0000004E   0021               MOVS     R1,#+0
   \   00000050   8018               ADDS     R0,R0,R2
   \   00000052   5941               ADCS     R1,R1,R3
   \   00000054   03C4               STM      R4!,{R0,R1}
    156             
    157             
    158          }
   \   00000056   38BC               POP      {R3-R5}
   \   00000058   01BC               POP      {R0}
   \   0000005A   0047               BX       R0               ;; return
   \                     ??WizFiCommand_ATI2_3:
   \   0000005C   ........           DC32     ATI2
    159          
    160          
    161          
    162          

   \                                 In section Debug.txt, align 4, keep-with-next
    163          char WizFiResponseCommand_ATI2(char *Buff_RX, char *Buff_TX, AT91PS_USART USART, _Net *Net)
    164          {
   \                     WizFiResponseCommand_ATI2:
   \   00000000   F1B5               PUSH     {R0,R4-R7,LR}
   \   00000002   0700               MOVS     R7,R0
   \   00000004   1C00               MOVS     R4,R3
    165             char odp=0;
   \   00000006   0025               MOVS     R5,#+0
   \   00000008   2E00               MOVS     R6,R5
    166             if (WiFiDebug) SendViaUSB(Buff_RX, strlen(Buff_RX));
                                              ^
Warning[Pe167]: argument of type "char *" is incompatible with parameter of
          type "unsigned char *"
   \   0000000A   ....               LDR      R0,??DataTable20  ;; WiFiDebug
   \   0000000C   0078               LDRB     R0,[R0, #+0]
   \   0000000E   0028               CMP      R0,#+0
   \   00000010   08D0               BEQ      ??WizFiResponseCommand_ATI2_0
   \   00000012   3800               MOVS     R0,R7
   \   00000014   ........           BL       strlen
   \   00000018   0100               MOVS     R1,R0
   \   0000001A   0904               LSLS     R1,R1,#+16
   \   0000001C   090C               LSRS     R1,R1,#+16
   \   0000001E   3800               MOVS     R0,R7
   \   00000020   ........           BL       SendViaUSB
    167             if(strstr(Buff_RX, "OK")!=NULL)
   \                     ??WizFiResponseCommand_ATI2_0:
   \   00000024   10A1               ADR      R1,??WizFiResponseCommand_ATI2_1  ;; 0x4F, 0x4B, 0x00, 0x00
   \   00000026   3800               MOVS     R0,R7
   \   00000028   ........           BL       strstr
   \   0000002C   0028               CMP      R0,#+0
   \   0000002E   16D0               BEQ      ??WizFiResponseCommand_ATI2_2
    168                  {
    169                    odp=1;  //ok 
   \   00000030   0126               MOVS     R6,#+1
    170                    for (char i=0; i<50; i++) Buff_RX[i]=0;
   \   00000032   2800               MOVS     R0,R5
   \   00000034   2A00               MOVS     R2,R5
   \   00000036   03E0               B        ??WizFiResponseCommand_ATI2_3
   \                     ??WizFiResponseCommand_ATI2_4:
   \   00000038   7A54               STRB     R2,[R7, R1]
   \   0000003A   401C               ADDS     R0,R0,#+1
   \   0000003C   0006               LSLS     R0,R0,#+24
   \   0000003E   000E               LSRS     R0,R0,#+24
   \                     ??WizFiResponseCommand_ATI2_3:
   \   00000040   0100               MOVS     R1,R0
   \   00000042   3229               CMP      R1,#+50
   \   00000044   F8D3               BCC      ??WizFiResponseCommand_ATI2_4
    171                    Net->Status.Timeout=g_counter + CRYTICAL_TIMEOUT;    //przed³u¿enie /restart timeoutu
   \   00000046   2700               MOVS     R7,R4
   \   00000048   3837               ADDS     R7,R7,#+56
   \   0000004A   ....               LDR      R0,??DataTable21  ;; g_counter
   \   0000004C   03C8               LDM      R0!,{R0,R1}
   \   0000004E   0200               MOVS     R2,R0
   \   00000050   0B00               MOVS     R3,R1
   \   00000052   ....               LDR      R0,??DataTable22  ;; 0x2710
   \   00000054   2900               MOVS     R1,R5
   \   00000056   8018               ADDS     R0,R0,R2
   \   00000058   5941               ADCS     R1,R1,R3
   \   0000005A   03C7               STM      R7!,{R0,R1}
    172                    Net->Status.Error=0;
   \   0000005C   6575               STRB     R5,[R4, #+21]
    173                  }
    174             
    175             return odp;
   \                     ??WizFiResponseCommand_ATI2_2:
   \   0000005E   3000               MOVS     R0,R6
   \   00000060   F8BC               POP      {R3-R7}
   \   00000062   02BC               POP      {R1}
   \   00000064   0847               BX       R1               ;; return
   \   00000066   C046               Nop      
   \                     ??WizFiResponseCommand_ATI2_1:
   \   00000068   4F4B0000           DC8      0x4F, 0x4B, 0x00, 0x00
    176          }
    177          
    178          
    179          
    180          
    181          //------------------------------------------------------------------------------

   \                                 In section Debug.txt, align 4, keep-with-next
    182          void WizFiCommand_AT_XDUM0(char *Buff_RX, char *Buff_TX,  AT91PS_USART USART, _Net *Net)
    183          {
   \                     WizFiCommand_AT_XDUM0:
   \   00000000   31B5               PUSH     {R0,R4,R5,LR}
   \   00000002   1500               MOVS     R5,R2
   \   00000004   1C00               MOVS     R4,R3
    184             for (short i=0; i<US1_BUFFER_Rx_SIZE; i++) Buff_RX[i]=0;
   \   00000006   0021               MOVS     R1,#+0
   \   00000008   0A00               MOVS     R2,R1
   \   0000000A   04E0               B        ??WizFiCommand_AT_XDUM0_0
   \                     ??WizFiCommand_AT_XDUM0_1:
   \   0000000C   0B00               MOVS     R3,R1
   \   0000000E   8354               STRB     R3,[R0, R2]
   \   00000010   521C               ADDS     R2,R2,#+1
   \   00000012   1204               LSLS     R2,R2,#+16
   \   00000014   1214               ASRS     R2,R2,#+16
   \                     ??WizFiCommand_AT_XDUM0_0:
   \   00000016   9123               MOVS     R3,#+145
   \   00000018   9B00               LSLS     R3,R3,#+2        ;; #+580
   \   0000001A   9A42               CMP      R2,R3
   \   0000001C   F6DB               BLT      ??WizFiCommand_AT_XDUM0_1
    185             Net->Status.CurrentOrder=WizFi_AT_XDUM0;    
   \   0000001E   0420               MOVS     R0,#+4
   \   00000020   A070               STRB     R0,[R4, #+2]
    186             if (WiFiDebug) SendViaUSB((char*)AT_XDUM0, sizeof(AT_XDUM0)-1);
                                              ^
Warning[Pe167]: argument of type "char *" is incompatible with parameter of
          type "unsigned char *"
   \   00000022   ....               LDR      R0,??DataTable20  ;; WiFiDebug
   \   00000024   0078               LDRB     R0,[R0, #+0]
   \   00000026   0028               CMP      R0,#+0
   \   00000028   03D0               BEQ      ??WizFiCommand_AT_XDUM0_2
   \   0000002A   0A21               MOVS     R1,#+10
   \   0000002C   0B48               LDR      R0,??WizFiCommand_AT_XDUM0_3  ;; AT_XDUM0
   \   0000002E   ........           BL       SendViaUSB
    187             AT91F_US_SendFrame(USART,(char*)AT_XDUM0,sizeof(AT_XDUM0)-1,0, 0);                        //Wysyla ramke  
                                             ^
Warning[Pe167]: argument of type "char *" is incompatible with parameter of
          type "unsigned char *"
   \                     ??WizFiCommand_AT_XDUM0_2:
   \   00000032   82B0               SUB      SP,SP,#+8
   \   00000034   0020               MOVS     R0,#+0
   \   00000036   0090               STR      R0,[SP, #+0]
   \   00000038   0300               MOVS     R3,R0
   \   0000003A   0A22               MOVS     R2,#+10
   \   0000003C   0749               LDR      R1,??WizFiCommand_AT_XDUM0_3  ;; AT_XDUM0
   \   0000003E   2800               MOVS     R0,R5
   \   00000040   ........           BL       AT91F_US_SendFrame
   \   00000044   02B0               ADD      SP,SP,#+8
    188             Net->Status.Timeout=g_counter + CRYTICAL_TIMEOUT;    //przed³u¿enie /restart timeoutu
   \   00000046   3834               ADDS     R4,R4,#+56
   \   00000048   ....               LDR      R0,??DataTable21  ;; g_counter
   \   0000004A   0CC8               LDM      R0!,{R2,R3}
   \   0000004C   ....               LDR      R0,??DataTable22  ;; 0x2710
   \   0000004E   0021               MOVS     R1,#+0
   \   00000050   8018               ADDS     R0,R0,R2
   \   00000052   5941               ADCS     R1,R1,R3
   \   00000054   03C4               STM      R4!,{R0,R1}
    189             
    190             
    191             
    192          }
   \   00000056   38BC               POP      {R3-R5}
   \   00000058   01BC               POP      {R0}
   \   0000005A   0047               BX       R0               ;; return
   \                     ??WizFiCommand_AT_XDUM0_3:
   \   0000005C   ........           DC32     AT_XDUM0
    193          

   \                                 In section Debug.txt, align 4, keep-with-next
    194          char WizFiResponseCommand_AT_XDUM0(char *Buff_RX, char *Buff_TX, AT91PS_USART USART, _Net *Net)
    195          {
   \                     WizFiResponseCommand_AT_XDUM0:
   \   00000000   F1B5               PUSH     {R0,R4-R7,LR}
   \   00000002   0700               MOVS     R7,R0
   \   00000004   1C00               MOVS     R4,R3
    196             char odp=0;
   \   00000006   0025               MOVS     R5,#+0
   \   00000008   2E00               MOVS     R6,R5
    197             if (WiFiDebug) SendViaUSB(Buff_RX, strlen(Buff_RX));
                                              ^
Warning[Pe167]: argument of type "char *" is incompatible with parameter of
          type "unsigned char *"
   \   0000000A   1748               LDR      R0,??WizFiResponseCommand_AT_XDUM0_0  ;; WiFiDebug
   \   0000000C   0078               LDRB     R0,[R0, #+0]
   \   0000000E   0028               CMP      R0,#+0
   \   00000010   08D0               BEQ      ??WizFiResponseCommand_AT_XDUM0_1
   \   00000012   3800               MOVS     R0,R7
   \   00000014   ........           BL       strlen
   \   00000018   0100               MOVS     R1,R0
   \   0000001A   0904               LSLS     R1,R1,#+16
   \   0000001C   090C               LSRS     R1,R1,#+16
   \   0000001E   3800               MOVS     R0,R7
   \   00000020   ........           BL       SendViaUSB
    198             if(strstr(Buff_RX, "OK")!=NULL)
   \                     ??WizFiResponseCommand_AT_XDUM0_1:
   \   00000024   11A1               ADR      R1,??WizFiResponseCommand_AT_XDUM0_0+0x4  ;; 0x4F, 0x4B, 0x00, 0x00
   \   00000026   3800               MOVS     R0,R7
   \   00000028   ........           BL       strstr
   \   0000002C   0028               CMP      R0,#+0
   \   0000002E   16D0               BEQ      ??WizFiResponseCommand_AT_XDUM0_2
    199                  {
    200                    odp=1;  //ok 
   \   00000030   0126               MOVS     R6,#+1
    201                    for (char i=0; i<50; i++) Buff_RX[i]=0;
   \   00000032   2800               MOVS     R0,R5
   \   00000034   2A00               MOVS     R2,R5
   \   00000036   03E0               B        ??WizFiResponseCommand_AT_XDUM0_3
   \                     ??WizFiResponseCommand_AT_XDUM0_4:
   \   00000038   7A54               STRB     R2,[R7, R1]
   \   0000003A   401C               ADDS     R0,R0,#+1
   \   0000003C   0006               LSLS     R0,R0,#+24
   \   0000003E   000E               LSRS     R0,R0,#+24
   \                     ??WizFiResponseCommand_AT_XDUM0_3:
   \   00000040   0100               MOVS     R1,R0
   \   00000042   3229               CMP      R1,#+50
   \   00000044   F8D3               BCC      ??WizFiResponseCommand_AT_XDUM0_4
    202                    Net->Status.Timeout=g_counter + CRYTICAL_TIMEOUT;    //przed³u¿enie /restart timeoutu
   \   00000046   2700               MOVS     R7,R4
   \   00000048   3837               ADDS     R7,R7,#+56
   \   0000004A   0948               LDR      R0,??WizFiResponseCommand_AT_XDUM0_0+0x8  ;; g_counter
   \   0000004C   03C8               LDM      R0!,{R0,R1}
   \   0000004E   0200               MOVS     R2,R0
   \   00000050   0B00               MOVS     R3,R1
   \   00000052   0848               LDR      R0,??WizFiResponseCommand_AT_XDUM0_0+0xC  ;; 0x2710
   \   00000054   2900               MOVS     R1,R5
   \   00000056   8018               ADDS     R0,R0,R2
   \   00000058   5941               ADCS     R1,R1,R3
   \   0000005A   03C7               STM      R7!,{R0,R1}
    203                    Net->Status.Error=0;
   \   0000005C   6575               STRB     R5,[R4, #+21]
    204                  }
    205             
    206             return odp;
   \                     ??WizFiResponseCommand_AT_XDUM0_2:
   \   0000005E   3000               MOVS     R0,R6
   \   00000060   F8BC               POP      {R3-R7}
   \   00000062   02BC               POP      {R1}
   \   00000064   0847               BX       R1               ;; return
   \   00000066   C046               Nop      
   \                     ??WizFiResponseCommand_AT_XDUM0_0:
   \   00000068   ........           DC32     WiFiDebug
   \   0000006C   4F4B0000           DC8      0x4F, 0x4B, 0x00, 0x00
   \   00000070   ........           DC32     g_counter
   \   00000074   10270000           DC32     0x2710
    207          }
    208          
    209          
    210          
    211          
    212          
    213          
    214          //------------------------------------------------------------------------------

   \                                 In section Debug.txt, align 4, keep-with-next
    215          void WizFiCommand_AT_NCLOSEALL(char *Buff_RX, char *Buff_TX,  AT91PS_USART USART, _Net *Net)
    216          {
   \                     WizFiCommand_AT_NCLOSEALL:
   \   00000000   70B5               PUSH     {R4-R6,LR}
   \   00000002   1400               MOVS     R4,R2
   \   00000004   1D00               MOVS     R5,R3
    217             for (short i=0; i<US1_BUFFER_Rx_SIZE; i++) Buff_RX[i]=0;
   \   00000006   0026               MOVS     R6,#+0
   \   00000008   3100               MOVS     R1,R6
   \   0000000A   04E0               B        ??WizFiCommand_AT_NCLOSEALL_0
   \                     ??WizFiCommand_AT_NCLOSEALL_1:
   \   0000000C   3200               MOVS     R2,R6
   \   0000000E   4254               STRB     R2,[R0, R1]
   \   00000010   491C               ADDS     R1,R1,#+1
   \   00000012   0904               LSLS     R1,R1,#+16
   \   00000014   0914               ASRS     R1,R1,#+16
   \                     ??WizFiCommand_AT_NCLOSEALL_0:
   \   00000016   9122               MOVS     R2,#+145
   \   00000018   9200               LSLS     R2,R2,#+2        ;; #+580
   \   0000001A   9142               CMP      R1,R2
   \   0000001C   F6DB               BLT      ??WizFiCommand_AT_NCLOSEALL_1
    218             Net->Status.CurrentOrder=WizFi_AT_NCLOSEALL;  
   \   0000001E   0F20               MOVS     R0,#+15
   \   00000020   A870               STRB     R0,[R5, #+2]
    219             if (WiFiDebug) SendViaUSB((char*)AT_NCLOSEALL, sizeof(AT_NCLOSEALL)-1);   
                                              ^
Warning[Pe167]: argument of type "char *" is incompatible with parameter of
          type "unsigned char *"
   \   00000022   0B48               LDR      R0,??WizFiCommand_AT_NCLOSEALL_2  ;; WiFiDebug
   \   00000024   0078               LDRB     R0,[R0, #+0]
   \   00000026   0028               CMP      R0,#+0
   \   00000028   03D0               BEQ      ??WizFiCommand_AT_NCLOSEALL_3
   \   0000002A   0D21               MOVS     R1,#+13
   \   0000002C   0948               LDR      R0,??WizFiCommand_AT_NCLOSEALL_2+0x4  ;; AT_NCLOSEALL
   \   0000002E   ........           BL       SendViaUSB
    220             AT91F_US_SendFrame(USART,(char*)AT_NCLOSEALL,sizeof(AT_NCLOSEALL)-1,0, 0);                        //Wysyla ramke  
                                             ^
Warning[Pe167]: argument of type "char *" is incompatible with parameter of
          type "unsigned char *"
   \                     ??WizFiCommand_AT_NCLOSEALL_3:
   \   00000032   82B0               SUB      SP,SP,#+8
   \   00000034   3000               MOVS     R0,R6
   \   00000036   0090               STR      R0,[SP, #+0]
   \   00000038   0300               MOVS     R3,R0
   \   0000003A   0D22               MOVS     R2,#+13
   \   0000003C   0549               LDR      R1,??WizFiCommand_AT_NCLOSEALL_2+0x4  ;; AT_NCLOSEALL
   \   0000003E   2000               MOVS     R0,R4
   \   00000040   ........           BL       AT91F_US_SendFrame
   \   00000044   02B0               ADD      SP,SP,#+8
    221             //Net->Status.Timeout=g_counter + CRYTICAL_TIMEOUT;    //przed³u¿enie /restart timeoutu
    222             Net->Status.HostLink=DISCONNECTED; 
   \   00000046   6E70               STRB     R6,[R5, #+1]
    223             
    224             
    225          }
   \   00000048   70BC               POP      {R4-R6}
   \   0000004A   01BC               POP      {R0}
   \   0000004C   0047               BX       R0               ;; return
   \   0000004E   C046               Nop      
   \                     ??WizFiCommand_AT_NCLOSEALL_2:
   \   00000050   ........           DC32     WiFiDebug
   \   00000054   ........           DC32     AT_NCLOSEALL
    226          

   \                                 In section Debug.txt, align 4, keep-with-next
    227          char WizFiResponseCommand_AT_NCLOSEALL0(char *Buff_RX, char *Buff_TX, AT91PS_USART USART, _Net *Net)
    228          {
   \                     WizFiResponseCommand_AT_NCLOSEALL0:
   \   00000000   F1B5               PUSH     {R0,R4-R7,LR}
   \   00000002   0700               MOVS     R7,R0
   \   00000004   1C00               MOVS     R4,R3
    229             char odp=0;
   \   00000006   0025               MOVS     R5,#+0
   \   00000008   2E00               MOVS     R6,R5
    230             if (WiFiDebug) SendViaUSB(Buff_RX, strlen(Buff_RX));
                                              ^
Warning[Pe167]: argument of type "char *" is incompatible with parameter of
          type "unsigned char *"
   \   0000000A   1548               LDR      R0,??WizFiResponseCommand_AT_NCLOSEALL0_0  ;; WiFiDebug
   \   0000000C   0078               LDRB     R0,[R0, #+0]
   \   0000000E   0028               CMP      R0,#+0
   \   00000010   08D0               BEQ      ??WizFiResponseCommand_AT_NCLOSEALL0_1
   \   00000012   3800               MOVS     R0,R7
   \   00000014   ........           BL       strlen
   \   00000018   0100               MOVS     R1,R0
   \   0000001A   0904               LSLS     R1,R1,#+16
   \   0000001C   090C               LSRS     R1,R1,#+16
   \   0000001E   3800               MOVS     R0,R7
   \   00000020   ........           BL       SendViaUSB
    231             if(strstr(Buff_RX, "OK")!=NULL)
   \                     ??WizFiResponseCommand_AT_NCLOSEALL0_1:
   \   00000024   0FA1               ADR      R1,??WizFiResponseCommand_AT_NCLOSEALL0_0+0x4  ;; 0x4F, 0x4B, 0x00, 0x00
   \   00000026   3800               MOVS     R0,R7
   \   00000028   ........           BL       strstr
   \   0000002C   0028               CMP      R0,#+0
   \   0000002E   13D0               BEQ      ??WizFiResponseCommand_AT_NCLOSEALL0_2
    232                  {
    233                    odp=1;  //ok 
   \   00000030   0126               MOVS     R6,#+1
    234                    for (char i=0; i<50; i++) Buff_RX[i]=0;
   \   00000032   2800               MOVS     R0,R5
   \   00000034   2A00               MOVS     R2,R5
   \   00000036   03E0               B        ??WizFiResponseCommand_AT_NCLOSEALL0_3
   \                     ??WizFiResponseCommand_AT_NCLOSEALL0_4:
   \   00000038   7A54               STRB     R2,[R7, R1]
   \   0000003A   401C               ADDS     R0,R0,#+1
   \   0000003C   0006               LSLS     R0,R0,#+24
   \   0000003E   000E               LSRS     R0,R0,#+24
   \                     ??WizFiResponseCommand_AT_NCLOSEALL0_3:
   \   00000040   0100               MOVS     R1,R0
   \   00000042   3229               CMP      R1,#+50
   \   00000044   F8D3               BCC      ??WizFiResponseCommand_AT_NCLOSEALL0_4
    235                    Net->Status.Timeout=g_counter + FREEZ_TIME;    //przed³u¿enie /restart timeoutu
   \   00000046   2200               MOVS     R2,R4
   \   00000048   3832               ADDS     R2,R2,#+56
   \   0000004A   0748               LDR      R0,??WizFiResponseCommand_AT_NCLOSEALL0_0+0x8  ;; g_counter
   \   0000004C   03C8               LDM      R0!,{R0,R1}
   \   0000004E   0023               MOVS     R3,#+0
   \   00000050   3230               ADDS     R0,R0,#+50
   \   00000052   5941               ADCS     R1,R1,R3
   \   00000054   03C2               STM      R2!,{R0,R1}
    236                     Net->Status.HostLink=DISCONNECTED;
   \   00000056   6570               STRB     R5,[R4, #+1]
    237                  }
    238             
    239             return odp;
   \                     ??WizFiResponseCommand_AT_NCLOSEALL0_2:
   \   00000058   3000               MOVS     R0,R6
   \   0000005A   F8BC               POP      {R3-R7}
   \   0000005C   02BC               POP      {R1}
   \   0000005E   0847               BX       R1               ;; return
   \                     ??WizFiResponseCommand_AT_NCLOSEALL0_0:
   \   00000060   ........           DC32     WiFiDebug
   \   00000064   4F4B0000           DC8      0x4F, 0x4B, 0x00, 0x00
   \   00000068   ........           DC32     g_counter
    240          }
    241          
    242          
    243           
    244          
    245          
    246          //------------------------------------------------------------------------------

   \                                 In section Debug.txt, align 4, keep-with-next
    247          void WizFiCommand_AT_WD(char *Buff_RX, char *Buff_TX,  AT91PS_USART USART, _Net *Net)
    248          {
   \                     WizFiCommand_AT_WD:
   \   00000000   31B5               PUSH     {R0,R4,R5,LR}
   \   00000002   1500               MOVS     R5,R2
   \   00000004   1C00               MOVS     R4,R3
    249             for (short i=0; i<US1_BUFFER_Rx_SIZE; i++) Buff_RX[i]=0;
   \   00000006   0021               MOVS     R1,#+0
   \   00000008   0A00               MOVS     R2,R1
   \   0000000A   04E0               B        ??WizFiCommand_AT_WD_0
   \                     ??WizFiCommand_AT_WD_1:
   \   0000000C   0B00               MOVS     R3,R1
   \   0000000E   8354               STRB     R3,[R0, R2]
   \   00000010   521C               ADDS     R2,R2,#+1
   \   00000012   1204               LSLS     R2,R2,#+16
   \   00000014   1214               ASRS     R2,R2,#+16
   \                     ??WizFiCommand_AT_WD_0:
   \   00000016   9123               MOVS     R3,#+145
   \   00000018   9B00               LSLS     R3,R3,#+2        ;; #+580
   \   0000001A   9A42               CMP      R2,R3
   \   0000001C   F6DB               BLT      ??WizFiCommand_AT_WD_1
    250             Net->Status.CurrentOrder=WizFi_AT_WD;    
   \   0000001E   0520               MOVS     R0,#+5
   \   00000020   A070               STRB     R0,[R4, #+2]
    251             if (WiFiDebug) SendViaUSB((char*)AT_WD, sizeof(AT_WD)-1);
                                              ^
Warning[Pe167]: argument of type "char *" is incompatible with parameter of
          type "unsigned char *"
   \   00000022   0E48               LDR      R0,??WizFiCommand_AT_WD_2  ;; WiFiDebug
   \   00000024   0078               LDRB     R0,[R0, #+0]
   \   00000026   0028               CMP      R0,#+0
   \   00000028   03D0               BEQ      ??WizFiCommand_AT_WD_3
   \   0000002A   0621               MOVS     R1,#+6
   \   0000002C   0C48               LDR      R0,??WizFiCommand_AT_WD_2+0x4  ;; AT_WD
   \   0000002E   ........           BL       SendViaUSB
    252             AT91F_US_SendFrame(USART,(char*)AT_WD,sizeof(AT_WD)-1,0, 0);                        //Wysyla ramke  
                                             ^
Warning[Pe167]: argument of type "char *" is incompatible with parameter of
          type "unsigned char *"
   \                     ??WizFiCommand_AT_WD_3:
   \   00000032   82B0               SUB      SP,SP,#+8
   \   00000034   0020               MOVS     R0,#+0
   \   00000036   0090               STR      R0,[SP, #+0]
   \   00000038   0300               MOVS     R3,R0
   \   0000003A   0622               MOVS     R2,#+6
   \   0000003C   0849               LDR      R1,??WizFiCommand_AT_WD_2+0x4  ;; AT_WD
   \   0000003E   2800               MOVS     R0,R5
   \   00000040   ........           BL       AT91F_US_SendFrame
   \   00000044   02B0               ADD      SP,SP,#+8
    253             Net->Status.Timeout=g_counter + CRYTICAL_TIMEOUT;    //przed³u¿enie /restart timeoutu
   \   00000046   3834               ADDS     R4,R4,#+56
   \   00000048   0648               LDR      R0,??WizFiCommand_AT_WD_2+0x8  ;; g_counter
   \   0000004A   0CC8               LDM      R0!,{R2,R3}
   \   0000004C   0648               LDR      R0,??WizFiCommand_AT_WD_2+0xC  ;; 0x2710
   \   0000004E   0021               MOVS     R1,#+0
   \   00000050   8018               ADDS     R0,R0,R2
   \   00000052   5941               ADCS     R1,R1,R3
   \   00000054   03C4               STM      R4!,{R0,R1}
    254             
    255             
    256          }
   \   00000056   38BC               POP      {R3-R5}
   \   00000058   01BC               POP      {R0}
   \   0000005A   0047               BX       R0               ;; return
   \                     ??WizFiCommand_AT_WD_2:
   \   0000005C   ........           DC32     WiFiDebug
   \   00000060   ........           DC32     AT_WD
   \   00000064   ........           DC32     g_counter
   \   00000068   10270000           DC32     0x2710
    257          

   \                                 In section Debug.txt, align 4, keep-with-next
    258          char WizFiResponseCommand_AT_WD(char *Buff_RX, char *Buff_TX, AT91PS_USART USART, _Net *Net)
    259          {
   \                     WizFiResponseCommand_AT_WD:
   \   00000000   F1B5               PUSH     {R0,R4-R7,LR}
   \   00000002   0700               MOVS     R7,R0
   \   00000004   1C00               MOVS     R4,R3
    260             char odp=0;
   \   00000006   0025               MOVS     R5,#+0
   \   00000008   2E00               MOVS     R6,R5
    261             if (WiFiDebug) SendViaUSB(Buff_RX, strlen(Buff_RX));
                                              ^
Warning[Pe167]: argument of type "char *" is incompatible with parameter of
          type "unsigned char *"
   \   0000000A   1748               LDR      R0,??WizFiResponseCommand_AT_WD_0  ;; WiFiDebug
   \   0000000C   0078               LDRB     R0,[R0, #+0]
   \   0000000E   0028               CMP      R0,#+0
   \   00000010   08D0               BEQ      ??WizFiResponseCommand_AT_WD_1
   \   00000012   3800               MOVS     R0,R7
   \   00000014   ........           BL       strlen
   \   00000018   0100               MOVS     R1,R0
   \   0000001A   0904               LSLS     R1,R1,#+16
   \   0000001C   090C               LSRS     R1,R1,#+16
   \   0000001E   3800               MOVS     R0,R7
   \   00000020   ........           BL       SendViaUSB
    262             if(strstr(Buff_RX, "OK")!=NULL)
   \                     ??WizFiResponseCommand_AT_WD_1:
   \   00000024   11A1               ADR      R1,??WizFiResponseCommand_AT_WD_0+0x4  ;; 0x4F, 0x4B, 0x00, 0x00
   \   00000026   3800               MOVS     R0,R7
   \   00000028   ........           BL       strstr
   \   0000002C   0028               CMP      R0,#+0
   \   0000002E   16D0               BEQ      ??WizFiResponseCommand_AT_WD_2
    263                  {
    264                    odp=1;  //ok 
   \   00000030   0126               MOVS     R6,#+1
    265                    for (char i=0; i<50; i++) Buff_RX[i]=0;
   \   00000032   2800               MOVS     R0,R5
   \   00000034   2A00               MOVS     R2,R5
   \   00000036   03E0               B        ??WizFiResponseCommand_AT_WD_3
   \                     ??WizFiResponseCommand_AT_WD_4:
   \   00000038   7A54               STRB     R2,[R7, R1]
   \   0000003A   401C               ADDS     R0,R0,#+1
   \   0000003C   0006               LSLS     R0,R0,#+24
   \   0000003E   000E               LSRS     R0,R0,#+24
   \                     ??WizFiResponseCommand_AT_WD_3:
   \   00000040   0100               MOVS     R1,R0
   \   00000042   3229               CMP      R1,#+50
   \   00000044   F8D3               BCC      ??WizFiResponseCommand_AT_WD_4
    266                    Net->Status.Timeout=g_counter + CRYTICAL_TIMEOUT;    //przed³u¿enie /restart timeoutu
   \   00000046   2700               MOVS     R7,R4
   \   00000048   3837               ADDS     R7,R7,#+56
   \   0000004A   0948               LDR      R0,??WizFiResponseCommand_AT_WD_0+0x8  ;; g_counter
   \   0000004C   03C8               LDM      R0!,{R0,R1}
   \   0000004E   0200               MOVS     R2,R0
   \   00000050   0B00               MOVS     R3,R1
   \   00000052   0848               LDR      R0,??WizFiResponseCommand_AT_WD_0+0xC  ;; 0x2710
   \   00000054   2900               MOVS     R1,R5
   \   00000056   8018               ADDS     R0,R0,R2
   \   00000058   5941               ADCS     R1,R1,R3
   \   0000005A   03C7               STM      R7!,{R0,R1}
    267                    Net->Status.Error=0;
   \   0000005C   6575               STRB     R5,[R4, #+21]
    268                  }
    269             
    270             return odp;
   \                     ??WizFiResponseCommand_AT_WD_2:
   \   0000005E   3000               MOVS     R0,R6
   \   00000060   F8BC               POP      {R3-R7}
   \   00000062   02BC               POP      {R1}
   \   00000064   0847               BX       R1               ;; return
   \   00000066   C046               Nop      
   \                     ??WizFiResponseCommand_AT_WD_0:
   \   00000068   ........           DC32     WiFiDebug
   \   0000006C   4F4B0000           DC8      0x4F, 0x4B, 0x00, 0x00
   \   00000070   ........           DC32     g_counter
   \   00000074   10270000           DC32     0x2710
    271          }
    272          
    273          
    274          
    275          
    276          //------------------------------------------------------------------------------

   \                                 In section Debug.txt, align 4, keep-with-next
    277          void WizFiCommand_AT_NDHCP(char *Buff_RX, char *Buff_TX,  AT91PS_USART USART, _Net *Net)
    278          {      
   \                     WizFiCommand_AT_NDHCP:
   \   00000000   31B5               PUSH     {R0,R4,R5,LR}
   \   00000002   1500               MOVS     R5,R2
   \   00000004   1C00               MOVS     R4,R3
    279             for (short i=0; i<US1_BUFFER_Rx_SIZE; i++) Buff_RX[i]=0;
   \   00000006   0021               MOVS     R1,#+0
   \   00000008   0A00               MOVS     R2,R1
   \   0000000A   04E0               B        ??WizFiCommand_AT_NDHCP_0
   \                     ??WizFiCommand_AT_NDHCP_1:
   \   0000000C   0B00               MOVS     R3,R1
   \   0000000E   8354               STRB     R3,[R0, R2]
   \   00000010   521C               ADDS     R2,R2,#+1
   \   00000012   1204               LSLS     R2,R2,#+16
   \   00000014   1214               ASRS     R2,R2,#+16
   \                     ??WizFiCommand_AT_NDHCP_0:
   \   00000016   9123               MOVS     R3,#+145
   \   00000018   9B00               LSLS     R3,R3,#+2        ;; #+580
   \   0000001A   9A42               CMP      R2,R3
   \   0000001C   F6DB               BLT      ??WizFiCommand_AT_NDHCP_1
    280             Net->Status.CurrentOrder=WizFi_AT_NDHCP;  
   \   0000001E   0720               MOVS     R0,#+7
   \   00000020   A070               STRB     R0,[R4, #+2]
    281             if (Net->WiFi.IpNotAuto)
   \   00000022   3834               ADDS     R4,R4,#+56
   \   00000024   1748               LDR      R0,??WizFiCommand_AT_NDHCP_2  ;; WiFiDebug
   \   00000026   0078               LDRB     R0,[R0, #+0]
   \   00000028   617E               LDRB     R1,[R4, #+25]
   \   0000002A   0029               CMP      R1,#+0
   \   0000002C   10D0               BEQ      ??WizFiCommand_AT_NDHCP_3
    282             {  
    283                 if (WiFiDebug) SendViaUSB((char*)AT_NDHCP_0, sizeof(AT_NDHCP_0)-1);
                                                  ^
Warning[Pe167]: argument of type "char *" is incompatible with parameter of
          type "unsigned char *"
   \   0000002E   0028               CMP      R0,#+0
   \   00000030   03D0               BEQ      ??WizFiCommand_AT_NDHCP_4
   \   00000032   0B21               MOVS     R1,#+11
   \   00000034   1448               LDR      R0,??WizFiCommand_AT_NDHCP_2+0x4  ;; AT_NDHCP_0
   \   00000036   ........           BL       SendViaUSB
    284                 AT91F_US_SendFrame(USART,(char*)AT_NDHCP_0,sizeof(AT_NDHCP_0)-1,0, 0);                        //Wysyla ramke  
                                                 ^
Warning[Pe167]: argument of type "char *" is incompatible with parameter of
          type "unsigned char *"
   \                     ??WizFiCommand_AT_NDHCP_4:
   \   0000003A   82B0               SUB      SP,SP,#+8
   \   0000003C   0020               MOVS     R0,#+0
   \   0000003E   0090               STR      R0,[SP, #+0]
   \   00000040   0300               MOVS     R3,R0
   \   00000042   0B22               MOVS     R2,#+11
   \   00000044   1049               LDR      R1,??WizFiCommand_AT_NDHCP_2+0x4  ;; AT_NDHCP_0
   \   00000046   2800               MOVS     R0,R5
   \   00000048   ........           BL       AT91F_US_SendFrame
   \   0000004C   02B0               ADD      SP,SP,#+8
   \   0000004E   0FE0               B        ??WizFiCommand_AT_NDHCP_5
    285                 
    286             }else{ 
    287                 if (WiFiDebug) SendViaUSB((char*)AT_NDHCP_1, sizeof(AT_NDHCP_1)-1);
                                                  ^
Warning[Pe167]: argument of type "char *" is incompatible with parameter of
          type "unsigned char *"
   \                     ??WizFiCommand_AT_NDHCP_3:
   \   00000050   0028               CMP      R0,#+0
   \   00000052   03D0               BEQ      ??WizFiCommand_AT_NDHCP_6
   \   00000054   0B21               MOVS     R1,#+11
   \   00000056   0D48               LDR      R0,??WizFiCommand_AT_NDHCP_2+0x8  ;; AT_NDHCP_0 + 12
   \   00000058   ........           BL       SendViaUSB
    288                 AT91F_US_SendFrame(USART,(char*)AT_NDHCP_1,sizeof(AT_NDHCP_1)-1,0, 0);                        //Wysyla ramke  
                                                 ^
Warning[Pe167]: argument of type "char *" is incompatible with parameter of
          type "unsigned char *"
   \                     ??WizFiCommand_AT_NDHCP_6:
   \   0000005C   82B0               SUB      SP,SP,#+8
   \   0000005E   0020               MOVS     R0,#+0
   \   00000060   0090               STR      R0,[SP, #+0]
   \   00000062   0300               MOVS     R3,R0
   \   00000064   0B22               MOVS     R2,#+11
   \   00000066   0949               LDR      R1,??WizFiCommand_AT_NDHCP_2+0x8  ;; AT_NDHCP_0 + 12
   \   00000068   2800               MOVS     R0,R5
   \   0000006A   ........           BL       AT91F_US_SendFrame
   \   0000006E   02B0               ADD      SP,SP,#+8
    289                 
    290             }
    291             Net->Status.Timeout=g_counter + CRYTICAL_TIMEOUT;    //przed³u¿enie /restart timeoutu 
   \                     ??WizFiCommand_AT_NDHCP_5:
   \   00000070   0748               LDR      R0,??WizFiCommand_AT_NDHCP_2+0xC  ;; g_counter
   \   00000072   0CC8               LDM      R0!,{R2,R3}
   \   00000074   0748               LDR      R0,??WizFiCommand_AT_NDHCP_2+0x10  ;; 0x2710
   \   00000076   0021               MOVS     R1,#+0
   \   00000078   8018               ADDS     R0,R0,R2
   \   0000007A   5941               ADCS     R1,R1,R3
   \   0000007C   03C4               STM      R4!,{R0,R1}
    292             
    293          }
   \   0000007E   38BC               POP      {R3-R5}
   \   00000080   01BC               POP      {R0}
   \   00000082   0047               BX       R0               ;; return
   \                     ??WizFiCommand_AT_NDHCP_2:
   \   00000084   ........           DC32     WiFiDebug
   \   00000088   ........           DC32     AT_NDHCP_0
   \   0000008C   ........           DC32     AT_NDHCP_0 + 12
   \   00000090   ........           DC32     g_counter
   \   00000094   10270000           DC32     0x2710
    294          

   \                                 In section Debug.txt, align 4, keep-with-next
    295          char WizFiResponseCommand_AT_NDHCP(char *Buff_RX, char *Buff_TX, AT91PS_USART USART, _Net *Net)
    296          {
   \                     WizFiResponseCommand_AT_NDHCP:
   \   00000000   F1B5               PUSH     {R0,R4-R7,LR}
   \   00000002   0700               MOVS     R7,R0
   \   00000004   1C00               MOVS     R4,R3
    297             char odp=0;
   \   00000006   0025               MOVS     R5,#+0
   \   00000008   2E00               MOVS     R6,R5
    298             if (WiFiDebug) SendViaUSB(Buff_RX, strlen(Buff_RX));
                                              ^
Warning[Pe167]: argument of type "char *" is incompatible with parameter of
          type "unsigned char *"
   \   0000000A   1748               LDR      R0,??WizFiResponseCommand_AT_NDHCP_0  ;; WiFiDebug
   \   0000000C   0078               LDRB     R0,[R0, #+0]
   \   0000000E   0028               CMP      R0,#+0
   \   00000010   08D0               BEQ      ??WizFiResponseCommand_AT_NDHCP_1
   \   00000012   3800               MOVS     R0,R7
   \   00000014   ........           BL       strlen
   \   00000018   0100               MOVS     R1,R0
   \   0000001A   0904               LSLS     R1,R1,#+16
   \   0000001C   090C               LSRS     R1,R1,#+16
   \   0000001E   3800               MOVS     R0,R7
   \   00000020   ........           BL       SendViaUSB
    299             if(strstr(Buff_RX, "OK")!=NULL)
   \                     ??WizFiResponseCommand_AT_NDHCP_1:
   \   00000024   11A1               ADR      R1,??WizFiResponseCommand_AT_NDHCP_0+0x4  ;; 0x4F, 0x4B, 0x00, 0x00
   \   00000026   3800               MOVS     R0,R7
   \   00000028   ........           BL       strstr
   \   0000002C   0028               CMP      R0,#+0
   \   0000002E   16D0               BEQ      ??WizFiResponseCommand_AT_NDHCP_2
    300                  {
    301                    odp=1;  //ok 
   \   00000030   0126               MOVS     R6,#+1
    302                    for (char i=0; i<50; i++) Buff_RX[i]=0;
   \   00000032   2800               MOVS     R0,R5
   \   00000034   2A00               MOVS     R2,R5
   \   00000036   03E0               B        ??WizFiResponseCommand_AT_NDHCP_3
   \                     ??WizFiResponseCommand_AT_NDHCP_4:
   \   00000038   7A54               STRB     R2,[R7, R1]
   \   0000003A   401C               ADDS     R0,R0,#+1
   \   0000003C   0006               LSLS     R0,R0,#+24
   \   0000003E   000E               LSRS     R0,R0,#+24
   \                     ??WizFiResponseCommand_AT_NDHCP_3:
   \   00000040   0100               MOVS     R1,R0
   \   00000042   3229               CMP      R1,#+50
   \   00000044   F8D3               BCC      ??WizFiResponseCommand_AT_NDHCP_4
    303                    Net->Status.Timeout=g_counter + CRYTICAL_TIMEOUT;    //przed³u¿enie /restart timeoutu
   \   00000046   2700               MOVS     R7,R4
   \   00000048   3837               ADDS     R7,R7,#+56
   \   0000004A   0948               LDR      R0,??WizFiResponseCommand_AT_NDHCP_0+0x8  ;; g_counter
   \   0000004C   03C8               LDM      R0!,{R0,R1}
   \   0000004E   0200               MOVS     R2,R0
   \   00000050   0B00               MOVS     R3,R1
   \   00000052   0848               LDR      R0,??WizFiResponseCommand_AT_NDHCP_0+0xC  ;; 0x2710
   \   00000054   2900               MOVS     R1,R5
   \   00000056   8018               ADDS     R0,R0,R2
   \   00000058   5941               ADCS     R1,R1,R3
   \   0000005A   03C7               STM      R7!,{R0,R1}
    304                    Net->Status.Error=0;
   \   0000005C   6575               STRB     R5,[R4, #+21]
    305                  }
    306             
    307             return odp;
   \                     ??WizFiResponseCommand_AT_NDHCP_2:
   \   0000005E   3000               MOVS     R0,R6
   \   00000060   F8BC               POP      {R3-R7}
   \   00000062   02BC               POP      {R1}
   \   00000064   0847               BX       R1               ;; return
   \   00000066   C046               Nop      
   \                     ??WizFiResponseCommand_AT_NDHCP_0:
   \   00000068   ........           DC32     WiFiDebug
   \   0000006C   4F4B0000           DC8      0x4F, 0x4B, 0x00, 0x00
   \   00000070   ........           DC32     g_counter
   \   00000074   10270000           DC32     0x2710
    308          }
    309          
    310          
    311          
    312          
    313          //------------------------------------------------------------------------------

   \                                 In section Debug.txt, align 4, keep-with-next
    314          void WizFiCommand_AT_NSET(char *Buff_RX, char *Buff_TX,  AT91PS_USART USART, _Net *Net)
    315          {      
   \                     WizFiCommand_AT_NSET:
   \   00000000   F4B5               PUSH     {R2,R4-R7,LR}
   \   00000002   0D00               MOVS     R5,R1
   \   00000004   1C00               MOVS     R4,R3
    316                     for (short i=0; i<US1_BUFFER_Rx_SIZE; i++) Buff_RX[i]=0;
   \   00000006   0027               MOVS     R7,#+0
   \   00000008   3900               MOVS     R1,R7
   \   0000000A   04E0               B        ??WizFiCommand_AT_NSET_0
   \                     ??WizFiCommand_AT_NSET_1:
   \   0000000C   3A00               MOVS     R2,R7
   \   0000000E   4254               STRB     R2,[R0, R1]
   \   00000010   491C               ADDS     R1,R1,#+1
   \   00000012   0904               LSLS     R1,R1,#+16
   \   00000014   0914               ASRS     R1,R1,#+16
   \                     ??WizFiCommand_AT_NSET_0:
   \   00000016   9122               MOVS     R2,#+145
   \   00000018   9200               LSLS     R2,R2,#+2        ;; #+580
   \   0000001A   9142               CMP      R1,R2
   \   0000001C   F6DB               BLT      ??WizFiCommand_AT_NSET_1
    317                     Net->Status.CurrentOrder=WizFi_AT_NSET;
   \   0000001E   0620               MOVS     R0,#+6
   \   00000020   A070               STRB     R0,[R4, #+2]
    318                     char BTS=0;
   \   00000022   3800               MOVS     R0,R7
    319                     for (char i=0; i<sizeof(AT_NSET); i++)  {Buff_TX[i]=AT_NSET[i];   BTS++;}
   \   00000024   3900               MOVS     R1,R7
   \   00000026   07E0               B        ??WizFiCommand_AT_NSET_2
   \                     ??WizFiCommand_AT_NSET_3:
   \   00000028   0A00               MOVS     R2,R1
   \   0000002A   3E4B               LDR      R3,??WizFiCommand_AT_NSET_4  ;; AT_NSET
   \   0000002C   9B5C               LDRB     R3,[R3, R2]
   \   0000002E   AB54               STRB     R3,[R5, R2]
   \   00000030   401C               ADDS     R0,R0,#+1
   \   00000032   0006               LSLS     R0,R0,#+24
   \   00000034   000E               LSRS     R0,R0,#+24
   \   00000036   491C               ADDS     R1,R1,#+1
   \                     ??WizFiCommand_AT_NSET_2:
   \   00000038   0929               CMP      R1,#+9
   \   0000003A   F5D3               BCC      ??WizFiCommand_AT_NSET_3
    320                     BTS--;
   \   0000003C   401E               SUBS     R0,R0,#+1
   \   0000003E   0006               LSLS     R0,R0,#+24
   \   00000040   000E               LSRS     R0,R0,#+24
    321                     char ZN=0;
    322                     ZN=0; while ((Net->WiFi.IP[ZN]>0) && (ZN<=14)) {Buff_TX[BTS+ZN]=Net->WiFi.IP[ZN]; ZN++;}
   \   00000042   3900               MOVS     R1,R7
   \   00000044   07E0               B        ??WizFiCommand_AT_NSET_5
   \                     ??WizFiCommand_AT_NSET_6:
   \   00000046   0600               MOVS     R6,R0
   \   00000048   F318               ADDS     R3,R6,R3
   \   0000004A   5432               ADDS     R2,R2,#+84
   \   0000004C   1278               LDRB     R2,[R2, #+0]
   \   0000004E   EA54               STRB     R2,[R5, R3]
   \   00000050   491C               ADDS     R1,R1,#+1
   \   00000052   0906               LSLS     R1,R1,#+24
   \   00000054   090E               LSRS     R1,R1,#+24
   \                     ??WizFiCommand_AT_NSET_5:
   \   00000056   0B00               MOVS     R3,R1
   \   00000058   E218               ADDS     R2,R4,R3
   \   0000005A   5426               MOVS     R6,#+84
   \   0000005C   965D               LDRB     R6,[R2, R6]
   \   0000005E   002E               CMP      R6,#+0
   \   00000060   02D0               BEQ      ??WizFiCommand_AT_NSET_7
   \   00000062   0E00               MOVS     R6,R1
   \   00000064   0F2E               CMP      R6,#+15
   \   00000066   EED3               BCC      ??WizFiCommand_AT_NSET_6
    323                     BTS+=ZN;
   \                     ??WizFiCommand_AT_NSET_7:
   \   00000068   4018               ADDS     R0,R0,R1
   \   0000006A   0006               LSLS     R0,R0,#+24
   \   0000006C   000E               LSRS     R0,R0,#+24
   \   0000006E   0100               MOVS     R1,R0
   \   00000070   2C22               MOVS     R2,#+44
   \   00000072   6A54               STRB     R2,[R5, R1]
   \   00000074   401C               ADDS     R0,R0,#+1
   \   00000076   0006               LSLS     R0,R0,#+24
   \   00000078   000E               LSRS     R0,R0,#+24
    324                     Buff_TX[BTS++]=',';
    325                     ZN=0; while ((Net->WiFi.Mask[ZN]>0) && (ZN<=14)) {Buff_TX[BTS+ZN]=Net->WiFi.Mask[ZN]; ZN++;}
   \   0000007A   3900               MOVS     R1,R7
   \   0000007C   07E0               B        ??WizFiCommand_AT_NSET_8
   \                     ??WizFiCommand_AT_NSET_9:
   \   0000007E   0600               MOVS     R6,R0
   \   00000080   F318               ADDS     R3,R6,R3
   \   00000082   6332               ADDS     R2,R2,#+99
   \   00000084   1278               LDRB     R2,[R2, #+0]
   \   00000086   EA54               STRB     R2,[R5, R3]
   \   00000088   491C               ADDS     R1,R1,#+1
   \   0000008A   0906               LSLS     R1,R1,#+24
   \   0000008C   090E               LSRS     R1,R1,#+24
   \                     ??WizFiCommand_AT_NSET_8:
   \   0000008E   0B00               MOVS     R3,R1
   \   00000090   E218               ADDS     R2,R4,R3
   \   00000092   6326               MOVS     R6,#+99
   \   00000094   965D               LDRB     R6,[R2, R6]
   \   00000096   002E               CMP      R6,#+0
   \   00000098   02D0               BEQ      ??WizFiCommand_AT_NSET_10
   \   0000009A   0E00               MOVS     R6,R1
   \   0000009C   0F2E               CMP      R6,#+15
   \   0000009E   EED3               BCC      ??WizFiCommand_AT_NSET_9
    326                     BTS+=ZN;
   \                     ??WizFiCommand_AT_NSET_10:
   \   000000A0   4018               ADDS     R0,R0,R1
   \   000000A2   0006               LSLS     R0,R0,#+24
   \   000000A4   000E               LSRS     R0,R0,#+24
    327                     Buff_TX[BTS++]=',';
   \   000000A6   0100               MOVS     R1,R0
   \   000000A8   2C22               MOVS     R2,#+44
   \   000000AA   6A54               STRB     R2,[R5, R1]
   \   000000AC   401C               ADDS     R0,R0,#+1
   \   000000AE   0006               LSLS     R0,R0,#+24
   \   000000B0   000E               LSRS     R0,R0,#+24
    328                     ZN=0; while ((Net->WiFi.Gate[ZN]>0) && (ZN<=14)) {Buff_TX[BTS+ZN]=Net->WiFi.Gate[ZN]; ZN++;}
   \   000000B2   07E0               B        ??WizFiCommand_AT_NSET_11
   \                     ??WizFiCommand_AT_NSET_12:
   \   000000B4   0300               MOVS     R3,R0
   \   000000B6   5918               ADDS     R1,R3,R1
   \   000000B8   7232               ADDS     R2,R2,#+114
   \   000000BA   1278               LDRB     R2,[R2, #+0]
   \   000000BC   6A54               STRB     R2,[R5, R1]
   \   000000BE   7F1C               ADDS     R7,R7,#+1
   \   000000C0   3F06               LSLS     R7,R7,#+24
   \   000000C2   3F0E               LSRS     R7,R7,#+24
   \                     ??WizFiCommand_AT_NSET_11:
   \   000000C4   3900               MOVS     R1,R7
   \   000000C6   6218               ADDS     R2,R4,R1
   \   000000C8   7223               MOVS     R3,#+114
   \   000000CA   D35C               LDRB     R3,[R2, R3]
   \   000000CC   002B               CMP      R3,#+0
   \   000000CE   02D0               BEQ      ??WizFiCommand_AT_NSET_13
   \   000000D0   3B00               MOVS     R3,R7
   \   000000D2   0F2B               CMP      R3,#+15
   \   000000D4   EED3               BCC      ??WizFiCommand_AT_NSET_12
    329                     
    330                     Buff_TX[BTS+ZN++]=0x0d;
   \                     ??WizFiCommand_AT_NSET_13:
   \   000000D6   0600               MOVS     R6,R0
   \   000000D8   7118               ADDS     R1,R6,R1
   \   000000DA   0D22               MOVS     R2,#+13
   \   000000DC   6A54               STRB     R2,[R5, R1]
   \   000000DE   7F1C               ADDS     R7,R7,#+1
   \   000000E0   3F06               LSLS     R7,R7,#+24
   \   000000E2   3F0E               LSRS     R7,R7,#+24
    331                     if (WiFiDebug) SendViaUSB(Buff_TX, BTS+ZN);
                                                      ^
Warning[Pe167]: argument of type "char *" is incompatible with parameter of
          type "unsigned char *"
   \   000000E4   1049               LDR      R1,??WizFiCommand_AT_NSET_4+0x4  ;; WiFiDebug
   \   000000E6   0978               LDRB     R1,[R1, #+0]
   \   000000E8   0029               CMP      R1,#+0
   \   000000EA   06D0               BEQ      ??WizFiCommand_AT_NSET_14
   \   000000EC   3900               MOVS     R1,R7
   \   000000EE   4118               ADDS     R1,R0,R1
   \   000000F0   0904               LSLS     R1,R1,#+16
   \   000000F2   090C               LSRS     R1,R1,#+16
   \   000000F4   2800               MOVS     R0,R5
   \   000000F6   ........           BL       SendViaUSB
    332                     AT91F_US_SendFrame(USART,Buff_TX,BTS+ZN,0, 0);                        //Wysyla ramke  
                                                     ^
Warning[Pe167]: argument of type "char *" is incompatible with parameter of
          type "unsigned char *"
   \                     ??WizFiCommand_AT_NSET_14:
   \   000000FA   82B0               SUB      SP,SP,#+8
   \   000000FC   0020               MOVS     R0,#+0
   \   000000FE   0090               STR      R0,[SP, #+0]
   \   00000100   0300               MOVS     R3,R0
   \   00000102   F219               ADDS     R2,R6,R7
   \   00000104   2900               MOVS     R1,R5
   \   00000106   0298               LDR      R0,[SP, #+8]
   \   00000108   ........           BL       AT91F_US_SendFrame
   \   0000010C   02B0               ADD      SP,SP,#+8
    333                     Net->Status.Timeout=g_counter + CRYTICAL_TIMEOUT;    //przed³u¿enie /restart timeoutu
   \   0000010E   3834               ADDS     R4,R4,#+56
   \   00000110   0648               LDR      R0,??WizFiCommand_AT_NSET_4+0x8  ;; g_counter
   \   00000112   0CC8               LDM      R0!,{R2,R3}
   \   00000114   0648               LDR      R0,??WizFiCommand_AT_NSET_4+0xC  ;; 0x2710
   \   00000116   0021               MOVS     R1,#+0
   \   00000118   8018               ADDS     R0,R0,R2
   \   0000011A   5941               ADCS     R1,R1,R3
   \   0000011C   03C4               STM      R4!,{R0,R1}
    334                     
    335                     
    336          }
   \   0000011E   F8BC               POP      {R3-R7}
   \   00000120   01BC               POP      {R0}
   \   00000122   0047               BX       R0               ;; return
   \                     ??WizFiCommand_AT_NSET_4:
   \   00000124   ........           DC32     AT_NSET
   \   00000128   ........           DC32     WiFiDebug
   \   0000012C   ........           DC32     g_counter
   \   00000130   10270000           DC32     0x2710
    337          

   \                                 In section Debug.txt, align 4, keep-with-next
    338          char WizFiResponseCommand_AT_NSET(char *Buff_RX, char *Buff_TX, AT91PS_USART USART, _Net *Net)
    339          {
   \                     WizFiResponseCommand_AT_NSET:
   \   00000000   F1B5               PUSH     {R0,R4-R7,LR}
   \   00000002   0700               MOVS     R7,R0
   \   00000004   1C00               MOVS     R4,R3
    340             char odp=0;
   \   00000006   0025               MOVS     R5,#+0
   \   00000008   2E00               MOVS     R6,R5
    341             if (WiFiDebug) SendViaUSB(Buff_RX, strlen(Buff_RX));
                                              ^
Warning[Pe167]: argument of type "char *" is incompatible with parameter of
          type "unsigned char *"
   \   0000000A   1748               LDR      R0,??WizFiResponseCommand_AT_NSET_0  ;; WiFiDebug
   \   0000000C   0078               LDRB     R0,[R0, #+0]
   \   0000000E   0028               CMP      R0,#+0
   \   00000010   08D0               BEQ      ??WizFiResponseCommand_AT_NSET_1
   \   00000012   3800               MOVS     R0,R7
   \   00000014   ........           BL       strlen
   \   00000018   0100               MOVS     R1,R0
   \   0000001A   0904               LSLS     R1,R1,#+16
   \   0000001C   090C               LSRS     R1,R1,#+16
   \   0000001E   3800               MOVS     R0,R7
   \   00000020   ........           BL       SendViaUSB
    342             if(strstr(Buff_RX, "OK")!=NULL)
   \                     ??WizFiResponseCommand_AT_NSET_1:
   \   00000024   11A1               ADR      R1,??WizFiResponseCommand_AT_NSET_0+0x4  ;; 0x4F, 0x4B, 0x00, 0x00
   \   00000026   3800               MOVS     R0,R7
   \   00000028   ........           BL       strstr
   \   0000002C   0028               CMP      R0,#+0
   \   0000002E   16D0               BEQ      ??WizFiResponseCommand_AT_NSET_2
    343                  {
    344                    odp=1;  //ok 
   \   00000030   0126               MOVS     R6,#+1
    345                    for (char i=0; i<50; i++) Buff_RX[i]=0;
   \   00000032   2800               MOVS     R0,R5
   \   00000034   2A00               MOVS     R2,R5
   \   00000036   03E0               B        ??WizFiResponseCommand_AT_NSET_3
   \                     ??WizFiResponseCommand_AT_NSET_4:
   \   00000038   7A54               STRB     R2,[R7, R1]
   \   0000003A   401C               ADDS     R0,R0,#+1
   \   0000003C   0006               LSLS     R0,R0,#+24
   \   0000003E   000E               LSRS     R0,R0,#+24
   \                     ??WizFiResponseCommand_AT_NSET_3:
   \   00000040   0100               MOVS     R1,R0
   \   00000042   3229               CMP      R1,#+50
   \   00000044   F8D3               BCC      ??WizFiResponseCommand_AT_NSET_4
    346                    Net->Status.Timeout=g_counter + CRYTICAL_TIMEOUT;    //przed³u¿enie /restart timeoutu
   \   00000046   2700               MOVS     R7,R4
   \   00000048   3837               ADDS     R7,R7,#+56
   \   0000004A   0948               LDR      R0,??WizFiResponseCommand_AT_NSET_0+0x8  ;; g_counter
   \   0000004C   03C8               LDM      R0!,{R0,R1}
   \   0000004E   0200               MOVS     R2,R0
   \   00000050   0B00               MOVS     R3,R1
   \   00000052   0848               LDR      R0,??WizFiResponseCommand_AT_NSET_0+0xC  ;; 0x2710
   \   00000054   2900               MOVS     R1,R5
   \   00000056   8018               ADDS     R0,R0,R2
   \   00000058   5941               ADCS     R1,R1,R3
   \   0000005A   03C7               STM      R7!,{R0,R1}
    347                    Net->Status.Error=0;
   \   0000005C   6575               STRB     R5,[R4, #+21]
    348                  }
    349             
    350             return odp;
   \                     ??WizFiResponseCommand_AT_NSET_2:
   \   0000005E   3000               MOVS     R0,R6
   \   00000060   F8BC               POP      {R3-R7}
   \   00000062   02BC               POP      {R1}
   \   00000064   0847               BX       R1               ;; return
   \   00000066   C046               Nop      
   \                     ??WizFiResponseCommand_AT_NSET_0:
   \   00000068   ........           DC32     WiFiDebug
   \   0000006C   4F4B0000           DC8      0x4F, 0x4B, 0x00, 0x00
   \   00000070   ........           DC32     g_counter
   \   00000074   10270000           DC32     0x2710
    351          }
    352          
    353          
    354          
    355          
    356          //------------------------------------------------------------------------------

   \                                 In section Debug.txt, align 4, keep-with-next
    357          void WizFiCommand_AT_WAUTH_1(char *Buff_RX, char *Buff_TX,  AT91PS_USART USART, _Net *Net)
    358          {
   \                     WizFiCommand_AT_WAUTH_1:
   \   00000000   31B5               PUSH     {R0,R4,R5,LR}
   \   00000002   1500               MOVS     R5,R2
   \   00000004   1C00               MOVS     R4,R3
    359             for (short i=0; i<US1_BUFFER_Rx_SIZE; i++) Buff_RX[i]=0;
   \   00000006   0021               MOVS     R1,#+0
   \   00000008   0A00               MOVS     R2,R1
   \   0000000A   04E0               B        ??WizFiCommand_AT_WAUTH_1_0
   \                     ??WizFiCommand_AT_WAUTH_1_1:
   \   0000000C   0B00               MOVS     R3,R1
   \   0000000E   8354               STRB     R3,[R0, R2]
   \   00000010   521C               ADDS     R2,R2,#+1
   \   00000012   1204               LSLS     R2,R2,#+16
   \   00000014   1214               ASRS     R2,R2,#+16
   \                     ??WizFiCommand_AT_WAUTH_1_0:
   \   00000016   9123               MOVS     R3,#+145
   \   00000018   9B00               LSLS     R3,R3,#+2        ;; #+580
   \   0000001A   9A42               CMP      R2,R3
   \   0000001C   F6DB               BLT      ??WizFiCommand_AT_WAUTH_1_1
    360             Net->Status.CurrentOrder=WizFi_AT_WAUTH_1;    
   \   0000001E   0820               MOVS     R0,#+8
   \   00000020   A070               STRB     R0,[R4, #+2]
    361             if (WiFiDebug) SendViaUSB((char*)AT_WAUTH_1, sizeof(AT_WAUTH_1)-1);
                                              ^
Warning[Pe167]: argument of type "char *" is incompatible with parameter of
          type "unsigned char *"
   \   00000022   0E48               LDR      R0,??WizFiCommand_AT_WAUTH_1_2  ;; WiFiDebug
   \   00000024   0078               LDRB     R0,[R0, #+0]
   \   00000026   0028               CMP      R0,#+0
   \   00000028   03D0               BEQ      ??WizFiCommand_AT_WAUTH_1_3
   \   0000002A   0B21               MOVS     R1,#+11
   \   0000002C   0C48               LDR      R0,??WizFiCommand_AT_WAUTH_1_2+0x4  ;; AT_WAUTH_1
   \   0000002E   ........           BL       SendViaUSB
    362             AT91F_US_SendFrame(USART,(char*)AT_WAUTH_1,sizeof(AT_WAUTH_1)-1,0, 0);                        //Wysyla ramke  
                                             ^
Warning[Pe167]: argument of type "char *" is incompatible with parameter of
          type "unsigned char *"
   \                     ??WizFiCommand_AT_WAUTH_1_3:
   \   00000032   82B0               SUB      SP,SP,#+8
   \   00000034   0020               MOVS     R0,#+0
   \   00000036   0090               STR      R0,[SP, #+0]
   \   00000038   0300               MOVS     R3,R0
   \   0000003A   0B22               MOVS     R2,#+11
   \   0000003C   0849               LDR      R1,??WizFiCommand_AT_WAUTH_1_2+0x4  ;; AT_WAUTH_1
   \   0000003E   2800               MOVS     R0,R5
   \   00000040   ........           BL       AT91F_US_SendFrame
   \   00000044   02B0               ADD      SP,SP,#+8
    363             Net->Status.Timeout=g_counter + CRYTICAL_TIMEOUT;    //przed³u¿enie /restart timeoutu
   \   00000046   3834               ADDS     R4,R4,#+56
   \   00000048   0648               LDR      R0,??WizFiCommand_AT_WAUTH_1_2+0x8  ;; g_counter
   \   0000004A   0CC8               LDM      R0!,{R2,R3}
   \   0000004C   0648               LDR      R0,??WizFiCommand_AT_WAUTH_1_2+0xC  ;; 0x2710
   \   0000004E   0021               MOVS     R1,#+0
   \   00000050   8018               ADDS     R0,R0,R2
   \   00000052   5941               ADCS     R1,R1,R3
   \   00000054   03C4               STM      R4!,{R0,R1}
    364          }
   \   00000056   38BC               POP      {R3-R5}
   \   00000058   01BC               POP      {R0}
   \   0000005A   0047               BX       R0               ;; return
   \                     ??WizFiCommand_AT_WAUTH_1_2:
   \   0000005C   ........           DC32     WiFiDebug
   \   00000060   ........           DC32     AT_WAUTH_1
   \   00000064   ........           DC32     g_counter
   \   00000068   10270000           DC32     0x2710
    365          

   \                                 In section Debug.txt, align 4, keep-with-next
    366          char WizFiResponseCommand_AT_WAUTH_1(char *Buff_RX, char *Buff_TX, AT91PS_USART USART, _Net *Net)
    367          {
   \                     WizFiResponseCommand_AT_WAUTH_1:
   \   00000000   F1B5               PUSH     {R0,R4-R7,LR}
   \   00000002   0700               MOVS     R7,R0
   \   00000004   1C00               MOVS     R4,R3
    368             char odp=0;
   \   00000006   0025               MOVS     R5,#+0
   \   00000008   2E00               MOVS     R6,R5
    369             if (WiFiDebug) SendViaUSB(Buff_RX, strlen(Buff_RX));
                                              ^
Warning[Pe167]: argument of type "char *" is incompatible with parameter of
          type "unsigned char *"
   \   0000000A   1748               LDR      R0,??WizFiResponseCommand_AT_WAUTH_1_0  ;; WiFiDebug
   \   0000000C   0078               LDRB     R0,[R0, #+0]
   \   0000000E   0028               CMP      R0,#+0
   \   00000010   08D0               BEQ      ??WizFiResponseCommand_AT_WAUTH_1_1
   \   00000012   3800               MOVS     R0,R7
   \   00000014   ........           BL       strlen
   \   00000018   0100               MOVS     R1,R0
   \   0000001A   0904               LSLS     R1,R1,#+16
   \   0000001C   090C               LSRS     R1,R1,#+16
   \   0000001E   3800               MOVS     R0,R7
   \   00000020   ........           BL       SendViaUSB
    370             if(strstr(Buff_RX, "OK")!=NULL)
   \                     ??WizFiResponseCommand_AT_WAUTH_1_1:
   \   00000024   11A1               ADR      R1,??WizFiResponseCommand_AT_WAUTH_1_0+0x4  ;; 0x4F, 0x4B, 0x00, 0x00
   \   00000026   3800               MOVS     R0,R7
   \   00000028   ........           BL       strstr
   \   0000002C   0028               CMP      R0,#+0
   \   0000002E   16D0               BEQ      ??WizFiResponseCommand_AT_WAUTH_1_2
    371                  {
    372                    odp=1;  //ok 
   \   00000030   0126               MOVS     R6,#+1
    373                    for (char i=0; i<50; i++) Buff_RX[i]=0;
   \   00000032   2800               MOVS     R0,R5
   \   00000034   2A00               MOVS     R2,R5
   \   00000036   03E0               B        ??WizFiResponseCommand_AT_WAUTH_1_3
   \                     ??WizFiResponseCommand_AT_WAUTH_1_4:
   \   00000038   7A54               STRB     R2,[R7, R1]
   \   0000003A   401C               ADDS     R0,R0,#+1
   \   0000003C   0006               LSLS     R0,R0,#+24
   \   0000003E   000E               LSRS     R0,R0,#+24
   \                     ??WizFiResponseCommand_AT_WAUTH_1_3:
   \   00000040   0100               MOVS     R1,R0
   \   00000042   3229               CMP      R1,#+50
   \   00000044   F8D3               BCC      ??WizFiResponseCommand_AT_WAUTH_1_4
    374                    Net->Status.Timeout=g_counter + CRYTICAL_TIMEOUT;    //przed³u¿enie /restart timeoutu
   \   00000046   2700               MOVS     R7,R4
   \   00000048   3837               ADDS     R7,R7,#+56
   \   0000004A   0948               LDR      R0,??WizFiResponseCommand_AT_WAUTH_1_0+0x8  ;; g_counter
   \   0000004C   03C8               LDM      R0!,{R0,R1}
   \   0000004E   0200               MOVS     R2,R0
   \   00000050   0B00               MOVS     R3,R1
   \   00000052   0848               LDR      R0,??WizFiResponseCommand_AT_WAUTH_1_0+0xC  ;; 0x2710
   \   00000054   2900               MOVS     R1,R5
   \   00000056   8018               ADDS     R0,R0,R2
   \   00000058   5941               ADCS     R1,R1,R3
   \   0000005A   03C7               STM      R7!,{R0,R1}
    375                    Net->Status.Error=0;
   \   0000005C   6575               STRB     R5,[R4, #+21]
    376                  }
    377             
    378             return odp;
   \                     ??WizFiResponseCommand_AT_WAUTH_1_2:
   \   0000005E   3000               MOVS     R0,R6
   \   00000060   F8BC               POP      {R3-R7}
   \   00000062   02BC               POP      {R1}
   \   00000064   0847               BX       R1               ;; return
   \   00000066   C046               Nop      
   \                     ??WizFiResponseCommand_AT_WAUTH_1_0:
   \   00000068   ........           DC32     WiFiDebug
   \   0000006C   4F4B0000           DC8      0x4F, 0x4B, 0x00, 0x00
   \   00000070   ........           DC32     g_counter
   \   00000074   10270000           DC32     0x2710
    379          }
    380          
    381          
    382          //funkcja konwertuj¹ca string asci na string hex. ka¿da litera rozk³adana jest na dwie cyfry hex które s¹ zapisywane spowrotem jako ascii

   \                                 In section Debug.txt, align 4, keep-with-next
    383          void AsciToHexStr(char *AsciStr, char *HexStr)
    384          {
   \                     AsciToHexStr:
   \   00000000   F1B5               PUSH     {R0,R4-R7,LR}
   \   00000002   0C00               MOVS     R4,R1
   \   00000004   0025               MOVS     R5,#+0
    385          
    386             
    387             char L=0; //litera
    388             char LHex=0; //cyfra hex
   \   00000006   2F00               MOVS     R7,R5
   \   00000008   17E0               B        ??AsciToHexStr_0
    389             while ((AsciStr[L]>0) && (L<100))
    390             {
    391                CharToStr((AsciStr[L]>>4), &HexStr[LHex++], 1); 
   \                     ??AsciToHexStr_1:
   \   0000000A   0122               MOVS     R2,#+1
   \   0000000C   3800               MOVS     R0,R7
   \   0000000E   2118               ADDS     R1,R4,R0
   \   00000010   3078               LDRB     R0,[R6, #+0]
   \   00000012   0009               LSRS     R0,R0,#+4
   \   00000014   ........           BL       CharToStr
   \   00000018   7F1C               ADDS     R7,R7,#+1
   \   0000001A   3F06               LSLS     R7,R7,#+24
   \   0000001C   3F0E               LSRS     R7,R7,#+24
    392                CharToStr((AsciStr[L]&0xF), &HexStr[LHex++], 1); 
   \   0000001E   0122               MOVS     R2,#+1
   \   00000020   3800               MOVS     R0,R7
   \   00000022   2118               ADDS     R1,R4,R0
   \   00000024   3078               LDRB     R0,[R6, #+0]
   \   00000026   0007               LSLS     R0,R0,#+28
   \   00000028   000F               LSRS     R0,R0,#+28
   \   0000002A   ........           BL       CharToStr
   \   0000002E   7F1C               ADDS     R7,R7,#+1
   \   00000030   3F06               LSLS     R7,R7,#+24
   \   00000032   3F0E               LSRS     R7,R7,#+24
    393                L++;
   \   00000034   6D1C               ADDS     R5,R5,#+1
   \   00000036   2D06               LSLS     R5,R5,#+24
   \   00000038   2D0E               LSRS     R5,R5,#+24
    394             }
   \                     ??AsciToHexStr_0:
   \   0000003A   2800               MOVS     R0,R5
   \   0000003C   0099               LDR      R1,[SP, #+0]
   \   0000003E   0E18               ADDS     R6,R1,R0
   \   00000040   3078               LDRB     R0,[R6, #+0]
   \   00000042   0028               CMP      R0,#+0
   \   00000044   02D0               BEQ      ??AsciToHexStr_2
   \   00000046   2800               MOVS     R0,R5
   \   00000048   6428               CMP      R0,#+100
   \   0000004A   DED3               BCC      ??AsciToHexStr_1
    395             HexStr[LHex]=0;
   \                     ??AsciToHexStr_2:
   \   0000004C   0020               MOVS     R0,#+0
   \   0000004E   E055               STRB     R0,[R4, R7]
    396          }
   \   00000050   F8BC               POP      {R3-R7}
   \   00000052   01BC               POP      {R0}
   \   00000054   0047               BX       R0               ;; return
    397          
    398          
    399          
    400          //------------------------------------------------------------------------------

   \                                 In section Debug.txt, align 4, keep-with-next
    401          char WizFiCommand_AT_WWEP1(char *Buff_RX, char *Buff_TX,  AT91PS_USART USART, _Net *Net)
    402          {
   \                     WizFiCommand_AT_WWEP1:
   \   00000000   F7B5               PUSH     {R0-R2,R4-R7,LR}
   \   00000002   0D00               MOVS     R5,R1
   \   00000004   1C00               MOVS     R4,R3
    403                     //okrelenie typu wpisu czy? 64bit hex, czy 64bit asci, czy 128bit ASCI  -- 128B hex nie jest obs³ugiwane   
    404                     //5 znaków - kod asci 64b
    405                     //13 znaków - kod asci 128b
    406                     //10 znaków - kod hex 64 bit
    407                     //wartoæ inna to b³¹d lub kodowanie nie WEP
    408                     
    409                     char PassLen=0;
   \   00000006   0021               MOVS     R1,#+0
   \   00000008   0A00               MOVS     R2,R1
   \   0000000A   02E0               B        ??WizFiCommand_AT_WWEP1_0
    410                     while ((Net->WiFi.Key[PassLen]>0) && (PassLen<=15)) PassLen++;
   \                     ??WizFiCommand_AT_WWEP1_1:
   \   0000000C   521C               ADDS     R2,R2,#+1
   \   0000000E   1206               LSLS     R2,R2,#+24
   \   00000010   120E               LSRS     R2,R2,#+24
   \                     ??WizFiCommand_AT_WWEP1_0:
   \   00000012   1300               MOVS     R3,R2
   \   00000014   E318               ADDS     R3,R4,R3
   \   00000016   9F33               ADDS     R3,R3,#+159
   \   00000018   1B78               LDRB     R3,[R3, #+0]
   \   0000001A   002B               CMP      R3,#+0
   \   0000001C   02D0               BEQ      ??WizFiCommand_AT_WWEP1_2
   \   0000001E   1300               MOVS     R3,R2
   \   00000020   102B               CMP      R3,#+16
   \   00000022   F3D3               BCC      ??WizFiCommand_AT_WWEP1_1
    411                     
    412                     if ((PassLen!=5) && (PassLen!=13) && (PassLen!=10)) return 0;        //z³a iloc znaków lub nie ten typ kodowania
   \                     ??WizFiCommand_AT_WWEP1_2:
   \   00000024   1300               MOVS     R3,R2
   \   00000026   052B               CMP      R3,#+5
   \   00000028   05D0               BEQ      ??WizFiCommand_AT_WWEP1_3
   \   0000002A   0D2B               CMP      R3,#+13
   \   0000002C   03D0               BEQ      ??WizFiCommand_AT_WWEP1_3
   \   0000002E   0A2B               CMP      R3,#+10
   \   00000030   01D0               BEQ      ??WizFiCommand_AT_WWEP1_3
   \   00000032   0800               MOVS     R0,R1
   \   00000034   67E0               B        ??WizFiCommand_AT_WWEP1_4
    413             
    414                     
    415                     //wstawienie rozkazu 
    416                     for (short i=0; i<US1_BUFFER_Rx_SIZE; i++) Buff_RX[i]=0;
   \                     ??WizFiCommand_AT_WWEP1_3:
   \   00000036   0B00               MOVS     R3,R1
   \   00000038   04E0               B        ??WizFiCommand_AT_WWEP1_5
   \                     ??WizFiCommand_AT_WWEP1_6:
   \   0000003A   0E00               MOVS     R6,R1
   \   0000003C   C654               STRB     R6,[R0, R3]
   \   0000003E   5B1C               ADDS     R3,R3,#+1
   \   00000040   1B04               LSLS     R3,R3,#+16
   \   00000042   1B14               ASRS     R3,R3,#+16
   \                     ??WizFiCommand_AT_WWEP1_5:
   \   00000044   9126               MOVS     R6,#+145
   \   00000046   B600               LSLS     R6,R6,#+2        ;; #+580
   \   00000048   B342               CMP      R3,R6
   \   0000004A   F6DB               BLT      ??WizFiCommand_AT_WWEP1_6
    417                    // Net->Status.CurrentOrder=WizFi_AT_WWEP1;
    418                     char BTS=0;
   \   0000004C   0800               MOVS     R0,R1
    419                     for (char i=0; i<sizeof(AT_WWEP1); i++)  {Buff_TX[i]=AT_WWEP1[i];   BTS++;}
   \   0000004E   0B00               MOVS     R3,R1
   \   00000050   07E0               B        ??WizFiCommand_AT_WWEP1_7
   \                     ??WizFiCommand_AT_WWEP1_8:
   \   00000052   1E00               MOVS     R6,R3
   \   00000054   2D4F               LDR      R7,??WizFiCommand_AT_WWEP1_9  ;; AT_WWEP1
   \   00000056   BF5D               LDRB     R7,[R7, R6]
   \   00000058   AF55               STRB     R7,[R5, R6]
   \   0000005A   401C               ADDS     R0,R0,#+1
   \   0000005C   0006               LSLS     R0,R0,#+24
   \   0000005E   000E               LSRS     R0,R0,#+24
   \   00000060   5B1C               ADDS     R3,R3,#+1
   \                     ??WizFiCommand_AT_WWEP1_7:
   \   00000062   0A2B               CMP      R3,#+10
   \   00000064   F5D3               BCC      ??WizFiCommand_AT_WWEP1_8
    420                     BTS--;
   \   00000066   461E               SUBS     R6,R0,#+1
   \   00000068   3606               LSLS     R6,R6,#+24
   \   0000006A   360E               LSRS     R6,R6,#+24
    421                     
    422                     
    423                     //wstawienie klucza
    424                     char Key[15];
    425                     char PassN=0;
   \   0000006C   0F00               MOVS     R7,R1
    426                     switch (PassLen)
   \   0000006E   052A               CMP      R2,#+5
   \   00000070   04D0               BEQ      ??WizFiCommand_AT_WWEP1_10
   \   00000072   0A2A               CMP      R2,#+10
   \   00000074   12D0               BEQ      ??WizFiCommand_AT_WWEP1_11
   \   00000076   0D2A               CMP      R2,#+13
   \   00000078   08D0               BEQ      ??WizFiCommand_AT_WWEP1_12
   \   0000007A   1EE0               B        ??WizFiCommand_AT_WWEP1_13
    427                     {
    428                        case 5:    
    429                            PassN=10;  
   \                     ??WizFiCommand_AT_WWEP1_10:
   \   0000007C   0A27               MOVS     R7,#+10
    430                            AsciToHexStr(Net->WiFi.Key, &Buff_TX[BTS]);
   \   0000007E   3000               MOVS     R0,R6
   \   00000080   2918               ADDS     R1,R5,R0
   \   00000082   2000               MOVS     R0,R4
   \   00000084   9F30               ADDS     R0,R0,#+159
   \   00000086   ........           BL       AsciToHexStr
   \   0000008A   16E0               B        ??WizFiCommand_AT_WWEP1_13
    431                        break;
    432          
    433                        case 13:    
    434                            PassN=26; 
   \                     ??WizFiCommand_AT_WWEP1_12:
   \   0000008C   1A27               MOVS     R7,#+26
    435                            AsciToHexStr(Net->WiFi.Key, &Buff_TX[BTS]);
   \   0000008E   3000               MOVS     R0,R6
   \   00000090   2918               ADDS     R1,R5,R0
   \   00000092   2000               MOVS     R0,R4
   \   00000094   9F30               ADDS     R0,R0,#+159
   \   00000096   ........           BL       AsciToHexStr
   \   0000009A   0EE0               B        ??WizFiCommand_AT_WWEP1_13
    436                        break;
    437                        
    438                        case 10:    
    439                            PassN=10;  for (char i=0; i<PassN; i++) Buff_TX[BTS+i]=Net->WiFi.Key[i];
   \                     ??WizFiCommand_AT_WWEP1_11:
   \   0000009C   0A27               MOVS     R7,#+10
   \   0000009E   09E0               B        ??WizFiCommand_AT_WWEP1_14
   \                     ??WizFiCommand_AT_WWEP1_15:
   \   000000A0   0A00               MOVS     R2,R1
   \   000000A2   3000               MOVS     R0,R6
   \   000000A4   8018               ADDS     R0,R0,R2
   \   000000A6   A218               ADDS     R2,R4,R2
   \   000000A8   9F32               ADDS     R2,R2,#+159
   \   000000AA   1278               LDRB     R2,[R2, #+0]
   \   000000AC   2A54               STRB     R2,[R5, R0]
   \   000000AE   491C               ADDS     R1,R1,#+1
   \   000000B0   0906               LSLS     R1,R1,#+24
   \   000000B2   090E               LSRS     R1,R1,#+24
   \                     ??WizFiCommand_AT_WWEP1_14:
   \   000000B4   0800               MOVS     R0,R1
   \   000000B6   0A28               CMP      R0,#+10
   \   000000B8   F2D3               BCC      ??WizFiCommand_AT_WWEP1_15
   \                     ??WizFiCommand_AT_WWEP1_13:
   \   000000BA   3000               MOVS     R0,R6
   \   000000BC   3900               MOVS     R1,R7
   \   000000BE   4018               ADDS     R0,R0,R1
   \   000000C0   0090               STR      R0,[SP, #+0]
   \   000000C2   0098               LDR      R0,[SP, #+0]
   \   000000C4   0D21               MOVS     R1,#+13
   \   000000C6   2954               STRB     R1,[R5, R0]
    440                        break;
    441                     }
    442            
    443          
    444                     
    445                     
    446                      
    447                     Buff_TX[BTS+PassN]=0x0d;
    448                     if (WiFiDebug) SendViaUSB(Buff_TX, BTS+PassN+1);
                                                      ^
Warning[Pe167]: argument of type "char *" is incompatible with parameter of
          type "unsigned char *"
   \   000000C8   1148               LDR      R0,??WizFiCommand_AT_WWEP1_9+0x4  ;; WiFiDebug
   \   000000CA   0078               LDRB     R0,[R0, #+0]
   \   000000CC   0028               CMP      R0,#+0
   \   000000CE   06D0               BEQ      ??WizFiCommand_AT_WWEP1_16
   \   000000D0   F119               ADDS     R1,R6,R7
   \   000000D2   491C               ADDS     R1,R1,#+1
   \   000000D4   0904               LSLS     R1,R1,#+16
   \   000000D6   090C               LSRS     R1,R1,#+16
   \   000000D8   2800               MOVS     R0,R5
   \   000000DA   ........           BL       SendViaUSB
    449                     AT91F_US_SendFrame(USART,Buff_TX,BTS+PassN+1,0, 0);                        //Wysyla ramke  
                                                     ^
Warning[Pe167]: argument of type "char *" is incompatible with parameter of
          type "unsigned char *"

             char Key[15];
                  ^
"D:\Zeuron\Projekty\S300\S300-program v1.4 - 12.06.2013\Framework\WizFiCommand.c",424  Warning[Pe177]: 
          variable "Key" was declared but never referenced
   \                     ??WizFiCommand_AT_WWEP1_16:
   \   000000DE   82B0               SUB      SP,SP,#+8
   \   000000E0   0020               MOVS     R0,#+0
   \   000000E2   0090               STR      R0,[SP, #+0]
   \   000000E4   0300               MOVS     R3,R0
   \   000000E6   029A               LDR      R2,[SP, #+8]
   \   000000E8   521C               ADDS     R2,R2,#+1
   \   000000EA   2900               MOVS     R1,R5
   \   000000EC   0498               LDR      R0,[SP, #+16]
   \   000000EE   ........           BL       AT91F_US_SendFrame
   \   000000F2   02B0               ADD      SP,SP,#+8
    450                     Net->Status.Timeout=g_counter + CRYTICAL_TIMEOUT;    //przed³u¿enie /restart timeoutu
   \   000000F4   3834               ADDS     R4,R4,#+56
   \   000000F6   0748               LDR      R0,??WizFiCommand_AT_WWEP1_9+0x8  ;; g_counter
   \   000000F8   0CC8               LDM      R0!,{R2,R3}
   \   000000FA   0748               LDR      R0,??WizFiCommand_AT_WWEP1_9+0xC  ;; 0x2710
   \   000000FC   0021               MOVS     R1,#+0
   \   000000FE   8018               ADDS     R0,R0,R2
   \   00000100   5941               ADCS     R1,R1,R3
   \   00000102   03C4               STM      R4!,{R0,R1}
    451                     
    452                     
    453                     //while ((Net->WiFi.Key[PassN]>0) && (PassN<=15)) {Buff_TX[BTS+PassN]=Net->WiFi.Key[PassN]; PassN++;}
    454             
    455                    return 1;
   \   00000104   0120               MOVS     R0,#+1
   \                     ??WizFiCommand_AT_WWEP1_4:
   \   00000106   FEBC               POP      {R1-R7}
   \   00000108   02BC               POP      {R1}
   \   0000010A   0847               BX       R1               ;; return
   \                     ??WizFiCommand_AT_WWEP1_9:
   \   0000010C   ........           DC32     AT_WWEP1
   \   00000110   ........           DC32     WiFiDebug
   \   00000114   ........           DC32     g_counter
   \   00000118   10270000           DC32     0x2710
    456             
    457          }
    458          

   \                                 In section Debug.txt, align 4, keep-with-next
    459          char WizFiResponseCommand_AT_WWEP1(char *Buff_RX, char *Buff_TX, AT91PS_USART USART, _Net *Net)
    460          {
   \                     WizFiResponseCommand_AT_WWEP1:
   \   00000000   F1B5               PUSH     {R0,R4-R7,LR}
   \   00000002   0700               MOVS     R7,R0
   \   00000004   1C00               MOVS     R4,R3
    461             char odp=0;
   \   00000006   0025               MOVS     R5,#+0
   \   00000008   2E00               MOVS     R6,R5
    462             if (WiFiDebug) SendViaUSB(Buff_RX, strlen(Buff_RX));
                                              ^
Warning[Pe167]: argument of type "char *" is incompatible with parameter of
          type "unsigned char *"
   \   0000000A   1748               LDR      R0,??WizFiResponseCommand_AT_WWEP1_0  ;; WiFiDebug
   \   0000000C   0078               LDRB     R0,[R0, #+0]
   \   0000000E   0028               CMP      R0,#+0
   \   00000010   08D0               BEQ      ??WizFiResponseCommand_AT_WWEP1_1
   \   00000012   3800               MOVS     R0,R7
   \   00000014   ........           BL       strlen
   \   00000018   0100               MOVS     R1,R0
   \   0000001A   0904               LSLS     R1,R1,#+16
   \   0000001C   090C               LSRS     R1,R1,#+16
   \   0000001E   3800               MOVS     R0,R7
   \   00000020   ........           BL       SendViaUSB
    463             if(strstr(Buff_RX, "OK")!=NULL)
   \                     ??WizFiResponseCommand_AT_WWEP1_1:
   \   00000024   11A1               ADR      R1,??WizFiResponseCommand_AT_WWEP1_0+0x4  ;; 0x4F, 0x4B, 0x00, 0x00
   \   00000026   3800               MOVS     R0,R7
   \   00000028   ........           BL       strstr
   \   0000002C   0028               CMP      R0,#+0
   \   0000002E   16D0               BEQ      ??WizFiResponseCommand_AT_WWEP1_2
    464                  {
    465                    odp=1;  //ok 
   \   00000030   0126               MOVS     R6,#+1
    466                    for (char i=0; i<50; i++) Buff_RX[i]=0;
   \   00000032   2800               MOVS     R0,R5
   \   00000034   2A00               MOVS     R2,R5
   \   00000036   03E0               B        ??WizFiResponseCommand_AT_WWEP1_3
   \                     ??WizFiResponseCommand_AT_WWEP1_4:
   \   00000038   7A54               STRB     R2,[R7, R1]
   \   0000003A   401C               ADDS     R0,R0,#+1
   \   0000003C   0006               LSLS     R0,R0,#+24
   \   0000003E   000E               LSRS     R0,R0,#+24
   \                     ??WizFiResponseCommand_AT_WWEP1_3:
   \   00000040   0100               MOVS     R1,R0
   \   00000042   3229               CMP      R1,#+50
   \   00000044   F8D3               BCC      ??WizFiResponseCommand_AT_WWEP1_4
    467                    Net->Status.Timeout=g_counter + CRYTICAL_TIMEOUT;    //przed³u¿enie /restart timeoutu
   \   00000046   2700               MOVS     R7,R4
   \   00000048   3837               ADDS     R7,R7,#+56
   \   0000004A   0948               LDR      R0,??WizFiResponseCommand_AT_WWEP1_0+0x8  ;; g_counter
   \   0000004C   03C8               LDM      R0!,{R0,R1}
   \   0000004E   0200               MOVS     R2,R0
   \   00000050   0B00               MOVS     R3,R1
   \   00000052   0848               LDR      R0,??WizFiResponseCommand_AT_WWEP1_0+0xC  ;; 0x2710
   \   00000054   2900               MOVS     R1,R5
   \   00000056   8018               ADDS     R0,R0,R2
   \   00000058   5941               ADCS     R1,R1,R3
   \   0000005A   03C7               STM      R7!,{R0,R1}
    468                    Net->Status.Error=0;
   \   0000005C   6575               STRB     R5,[R4, #+21]
    469                  }
    470             
    471             return odp;
   \                     ??WizFiResponseCommand_AT_WWEP1_2:
   \   0000005E   3000               MOVS     R0,R6
   \   00000060   F8BC               POP      {R3-R7}
   \   00000062   02BC               POP      {R1}
   \   00000064   0847               BX       R1               ;; return
   \   00000066   C046               Nop      
   \                     ??WizFiResponseCommand_AT_WWEP1_0:
   \   00000068   ........           DC32     WiFiDebug
   \   0000006C   4F4B0000           DC8      0x4F, 0x4B, 0x00, 0x00
   \   00000070   ........           DC32     g_counter
   \   00000074   10270000           DC32     0x2710
    472          }
    473          
    474          
    475          
    476          
    477          
    478          
    479          
    480          
    481          
    482          //------------------------------------------------------------------------------

   \                                 In section Debug.txt, align 4, keep-with-next
    483          char WizFiCommand_AT_WWPA(char *Buff_RX, char *Buff_TX,  AT91PS_USART USART, _Net *Net)
    484          {
   \                     WizFiCommand_AT_WWPA:
   \   00000000   F4B5               PUSH     {R2,R4-R7,LR}
   \   00000002   0D00               MOVS     R5,R1
   \   00000004   1C00               MOVS     R4,R3
    485                     for (short i=0; i<US1_BUFFER_Rx_SIZE; i++) Buff_RX[i]=0;
   \   00000006   0026               MOVS     R6,#+0
   \   00000008   3100               MOVS     R1,R6
   \   0000000A   04E0               B        ??WizFiCommand_AT_WWPA_0
   \                     ??WizFiCommand_AT_WWPA_1:
   \   0000000C   3200               MOVS     R2,R6
   \   0000000E   4254               STRB     R2,[R0, R1]
   \   00000010   491C               ADDS     R1,R1,#+1
   \   00000012   0904               LSLS     R1,R1,#+16
   \   00000014   0914               ASRS     R1,R1,#+16
   \                     ??WizFiCommand_AT_WWPA_0:
   \   00000016   9122               MOVS     R2,#+145
   \   00000018   9200               LSLS     R2,R2,#+2        ;; #+580
   \   0000001A   9142               CMP      R1,R2
   \   0000001C   F6DB               BLT      ??WizFiCommand_AT_WWPA_1
    486                     Net->Status.CurrentOrder=WizFi_AT_WWPA;
   \   0000001E   0A20               MOVS     R0,#+10
   \   00000020   A070               STRB     R0,[R4, #+2]
    487                     char BTS=0;
   \   00000022   3000               MOVS     R0,R6
    488                     for (char i=0; i<sizeof(AT_WWPA); i++)  {Buff_TX[i]=AT_WWPA[i];   BTS++;}
   \   00000024   3100               MOVS     R1,R6
   \   00000026   07E0               B        ??WizFiCommand_AT_WWPA_2
   \                     ??WizFiCommand_AT_WWPA_3:
   \   00000028   0A00               MOVS     R2,R1
   \   0000002A   254B               LDR      R3,??WizFiCommand_AT_WWPA_4  ;; AT_WWPA
   \   0000002C   9B5C               LDRB     R3,[R3, R2]
   \   0000002E   AB54               STRB     R3,[R5, R2]
   \   00000030   401C               ADDS     R0,R0,#+1
   \   00000032   0006               LSLS     R0,R0,#+24
   \   00000034   000E               LSRS     R0,R0,#+24
   \   00000036   491C               ADDS     R1,R1,#+1
   \                     ??WizFiCommand_AT_WWPA_2:
   \   00000038   0929               CMP      R1,#+9
   \   0000003A   F5D3               BCC      ??WizFiCommand_AT_WWPA_3
    489                     BTS--;
   \   0000003C   401E               SUBS     R0,R0,#+1
   \   0000003E   0006               LSLS     R0,R0,#+24
   \   00000040   000E               LSRS     R0,R0,#+24
    490                     char PassN=0;
   \   00000042   06E0               B        ??WizFiCommand_AT_WWPA_5
    491                     while ((Net->WiFi.Key[PassN]>0) && (PassN<=15)) {Buff_TX[BTS+PassN]=Net->WiFi.Key[PassN]; PassN++;}
   \                     ??WizFiCommand_AT_WWPA_6:
   \   00000044   0300               MOVS     R3,R0
   \   00000046   5918               ADDS     R1,R3,R1
   \   00000048   1278               LDRB     R2,[R2, #+0]
   \   0000004A   6A54               STRB     R2,[R5, R1]
   \   0000004C   761C               ADDS     R6,R6,#+1
   \   0000004E   3606               LSLS     R6,R6,#+24
   \   00000050   360E               LSRS     R6,R6,#+24
   \                     ??WizFiCommand_AT_WWPA_5:
   \   00000052   3100               MOVS     R1,R6
   \   00000054   6218               ADDS     R2,R4,R1
   \   00000056   9F32               ADDS     R2,R2,#+159
   \   00000058   1378               LDRB     R3,[R2, #+0]
   \   0000005A   002B               CMP      R3,#+0
   \   0000005C   02D0               BEQ      ??WizFiCommand_AT_WWPA_7
   \   0000005E   3300               MOVS     R3,R6
   \   00000060   102B               CMP      R3,#+16
   \   00000062   EFD3               BCC      ??WizFiCommand_AT_WWPA_6
    492                     
    493                     if (PassN<8) return 0;
   \                     ??WizFiCommand_AT_WWPA_7:
   \   00000064   3200               MOVS     R2,R6
   \   00000066   082A               CMP      R2,#+8
   \   00000068   01D2               BCS      ??WizFiCommand_AT_WWPA_8
   \   0000006A   0020               MOVS     R0,#+0
   \   0000006C   24E0               B        ??WizFiCommand_AT_WWPA_9
    494                     
    495                     Buff_TX[BTS+PassN++]=0x0d;
   \                     ??WizFiCommand_AT_WWPA_8:
   \   0000006E   0700               MOVS     R7,R0
   \   00000070   7918               ADDS     R1,R7,R1
   \   00000072   0D22               MOVS     R2,#+13
   \   00000074   6A54               STRB     R2,[R5, R1]
   \   00000076   761C               ADDS     R6,R6,#+1
   \   00000078   3606               LSLS     R6,R6,#+24
   \   0000007A   360E               LSRS     R6,R6,#+24
    496                     if (WiFiDebug) SendViaUSB(Buff_TX, BTS+PassN);
                                                      ^
Warning[Pe167]: argument of type "char *" is incompatible with parameter of
          type "unsigned char *"
   \   0000007C   1149               LDR      R1,??WizFiCommand_AT_WWPA_4+0x4  ;; WiFiDebug
   \   0000007E   0978               LDRB     R1,[R1, #+0]
   \   00000080   0029               CMP      R1,#+0
   \   00000082   06D0               BEQ      ??WizFiCommand_AT_WWPA_10
   \   00000084   3100               MOVS     R1,R6
   \   00000086   4118               ADDS     R1,R0,R1
   \   00000088   0904               LSLS     R1,R1,#+16
   \   0000008A   090C               LSRS     R1,R1,#+16
   \   0000008C   2800               MOVS     R0,R5
   \   0000008E   ........           BL       SendViaUSB
    497                     AT91F_US_SendFrame(USART,Buff_TX,BTS+PassN,0, 0);                        //Wysyla ramke 
                                                     ^
Warning[Pe167]: argument of type "char *" is incompatible with parameter of
          type "unsigned char *"
   \                     ??WizFiCommand_AT_WWPA_10:
   \   00000092   82B0               SUB      SP,SP,#+8
   \   00000094   0020               MOVS     R0,#+0
   \   00000096   0090               STR      R0,[SP, #+0]
   \   00000098   0300               MOVS     R3,R0
   \   0000009A   BA19               ADDS     R2,R7,R6
   \   0000009C   2900               MOVS     R1,R5
   \   0000009E   0298               LDR      R0,[SP, #+8]
   \   000000A0   ........           BL       AT91F_US_SendFrame
   \   000000A4   02B0               ADD      SP,SP,#+8
    498                     Net->Status.Timeout=g_counter + CRYTICAL_TIMEOUT;    //przed³u¿enie /restart timeoutu
   \   000000A6   3834               ADDS     R4,R4,#+56
   \   000000A8   0748               LDR      R0,??WizFiCommand_AT_WWPA_4+0x8  ;; g_counter
   \   000000AA   0CC8               LDM      R0!,{R2,R3}
   \   000000AC   0748               LDR      R0,??WizFiCommand_AT_WWPA_4+0xC  ;; 0x2710
   \   000000AE   0021               MOVS     R1,#+0
   \   000000B0   8018               ADDS     R0,R0,R2
   \   000000B2   5941               ADCS     R1,R1,R3
   \   000000B4   03C4               STM      R4!,{R0,R1}
    499                     return 1;
   \   000000B6   0120               MOVS     R0,#+1
   \                     ??WizFiCommand_AT_WWPA_9:
   \   000000B8   F8BC               POP      {R3-R7}
   \   000000BA   02BC               POP      {R1}
   \   000000BC   0847               BX       R1               ;; return
   \   000000BE   C046               Nop      
   \                     ??WizFiCommand_AT_WWPA_4:
   \   000000C0   ........           DC32     AT_WWPA
   \   000000C4   ........           DC32     WiFiDebug
   \   000000C8   ........           DC32     g_counter
   \   000000CC   10270000           DC32     0x2710
    500                     
    501          }
    502          

   \                                 In section Debug.txt, align 4, keep-with-next
    503          char WizFiResponseCommand_AT_WWPA(char *Buff_RX, char *Buff_TX, AT91PS_USART USART, _Net *Net)
    504          {
   \                     WizFiResponseCommand_AT_WWPA:
   \   00000000   F1B5               PUSH     {R0,R4-R7,LR}
   \   00000002   0700               MOVS     R7,R0
   \   00000004   1C00               MOVS     R4,R3
    505             char odp=0;
   \   00000006   0025               MOVS     R5,#+0
   \   00000008   2E00               MOVS     R6,R5
    506             if (WiFiDebug) SendViaUSB(Buff_RX, strlen(Buff_RX));
                                              ^
Warning[Pe167]: argument of type "char *" is incompatible with parameter of
          type "unsigned char *"
   \   0000000A   1748               LDR      R0,??WizFiResponseCommand_AT_WWPA_0  ;; WiFiDebug
   \   0000000C   0078               LDRB     R0,[R0, #+0]
   \   0000000E   0028               CMP      R0,#+0
   \   00000010   08D0               BEQ      ??WizFiResponseCommand_AT_WWPA_1
   \   00000012   3800               MOVS     R0,R7
   \   00000014   ........           BL       strlen
   \   00000018   0100               MOVS     R1,R0
   \   0000001A   0904               LSLS     R1,R1,#+16
   \   0000001C   090C               LSRS     R1,R1,#+16
   \   0000001E   3800               MOVS     R0,R7
   \   00000020   ........           BL       SendViaUSB
    507             if(strstr(Buff_RX, "OK")!=NULL)
   \                     ??WizFiResponseCommand_AT_WWPA_1:
   \   00000024   11A1               ADR      R1,??WizFiResponseCommand_AT_WWPA_0+0x4  ;; 0x4F, 0x4B, 0x00, 0x00
   \   00000026   3800               MOVS     R0,R7
   \   00000028   ........           BL       strstr
   \   0000002C   0028               CMP      R0,#+0
   \   0000002E   16D0               BEQ      ??WizFiResponseCommand_AT_WWPA_2
    508                  {
    509                    odp=1;  //ok 
   \   00000030   0126               MOVS     R6,#+1
    510                    for (char i=0; i<50; i++) Buff_RX[i]=0;
   \   00000032   2800               MOVS     R0,R5
   \   00000034   2A00               MOVS     R2,R5
   \   00000036   03E0               B        ??WizFiResponseCommand_AT_WWPA_3
   \                     ??WizFiResponseCommand_AT_WWPA_4:
   \   00000038   7A54               STRB     R2,[R7, R1]
   \   0000003A   401C               ADDS     R0,R0,#+1
   \   0000003C   0006               LSLS     R0,R0,#+24
   \   0000003E   000E               LSRS     R0,R0,#+24
   \                     ??WizFiResponseCommand_AT_WWPA_3:
   \   00000040   0100               MOVS     R1,R0
   \   00000042   3229               CMP      R1,#+50
   \   00000044   F8D3               BCC      ??WizFiResponseCommand_AT_WWPA_4
    511                    Net->Status.Timeout=g_counter + CRYTICAL_TIMEOUT;    //przed³u¿enie /restart timeoutu
   \   00000046   2700               MOVS     R7,R4
   \   00000048   3837               ADDS     R7,R7,#+56
   \   0000004A   0948               LDR      R0,??WizFiResponseCommand_AT_WWPA_0+0x8  ;; g_counter
   \   0000004C   03C8               LDM      R0!,{R0,R1}
   \   0000004E   0200               MOVS     R2,R0
   \   00000050   0B00               MOVS     R3,R1
   \   00000052   0848               LDR      R0,??WizFiResponseCommand_AT_WWPA_0+0xC  ;; 0x2710
   \   00000054   2900               MOVS     R1,R5
   \   00000056   8018               ADDS     R0,R0,R2
   \   00000058   5941               ADCS     R1,R1,R3
   \   0000005A   03C7               STM      R7!,{R0,R1}
    512                    Net->Status.Error=0;
   \   0000005C   6575               STRB     R5,[R4, #+21]
    513                  }
    514             
    515             return odp;
   \                     ??WizFiResponseCommand_AT_WWPA_2:
   \   0000005E   3000               MOVS     R0,R6
   \   00000060   F8BC               POP      {R3-R7}
   \   00000062   02BC               POP      {R1}
   \   00000064   0847               BX       R1               ;; return
   \   00000066   C046               Nop      
   \                     ??WizFiResponseCommand_AT_WWPA_0:
   \   00000068   ........           DC32     WiFiDebug
   \   0000006C   4F4B0000           DC8      0x4F, 0x4B, 0x00, 0x00
   \   00000070   ........           DC32     g_counter
   \   00000074   10270000           DC32     0x2710
    516          }
    517          
    518          
    519          
    520          
    521          
    522          
    523          
    524          
    525          //³¹czenie z accespointem ------------------------------------------------------
    526          //------------------------------------------------------------------------------

   \                                 In section Debug.txt, align 4, keep-with-next
    527          void WizFiCommand_AT_WA(char *Buff_RX, char *Buff_TX,  AT91PS_USART USART, _Net *Net)
    528          {
   \                     WizFiCommand_AT_WA:
   \   00000000   F4B5               PUSH     {R2,R4-R7,LR}
   \   00000002   0D00               MOVS     R5,R1
   \   00000004   1C00               MOVS     R4,R3
    529               if (Net->WiFi.SSID[0]!=0)
   \   00000006   AE21               MOVS     R1,#+174
   \   00000008   615C               LDRB     R1,[R4, R1]
   \   0000000A   0029               CMP      R1,#+0
   \   0000000C   52D0               BEQ      ??WizFiCommand_AT_WA_0
    530               {
    531                     for (short i=0; i<US1_BUFFER_Rx_SIZE; i++) Buff_RX[i]=0;
   \   0000000E   0027               MOVS     R7,#+0
   \   00000010   3900               MOVS     R1,R7
   \   00000012   04E0               B        ??WizFiCommand_AT_WA_1
   \                     ??WizFiCommand_AT_WA_2:
   \   00000014   3A00               MOVS     R2,R7
   \   00000016   4254               STRB     R2,[R0, R1]
   \   00000018   491C               ADDS     R1,R1,#+1
   \   0000001A   0904               LSLS     R1,R1,#+16
   \   0000001C   0914               ASRS     R1,R1,#+16
   \                     ??WizFiCommand_AT_WA_1:
   \   0000001E   9122               MOVS     R2,#+145
   \   00000020   9200               LSLS     R2,R2,#+2        ;; #+580
   \   00000022   9142               CMP      R1,R2
   \   00000024   F6DB               BLT      ??WizFiCommand_AT_WA_2
    532                     Net->Status.CurrentOrder=WizFi_AT_WA;
   \   00000026   0B20               MOVS     R0,#+11
   \   00000028   A070               STRB     R0,[R4, #+2]
    533          
    534                     char BTS=0;
   \   0000002A   3800               MOVS     R0,R7
    535                     for (char i=0; i<sizeof(AT_WA); i++)  {Buff_TX[i]=AT_WA[i];   BTS++;}
   \   0000002C   3900               MOVS     R1,R7
   \   0000002E   07E0               B        ??WizFiCommand_AT_WA_3
   \                     ??WizFiCommand_AT_WA_4:
   \   00000030   0A00               MOVS     R2,R1
   \   00000032   224B               LDR      R3,??WizFiCommand_AT_WA_5  ;; AT_WA
   \   00000034   9B5C               LDRB     R3,[R3, R2]
   \   00000036   AB54               STRB     R3,[R5, R2]
   \   00000038   401C               ADDS     R0,R0,#+1
   \   0000003A   0006               LSLS     R0,R0,#+24
   \   0000003C   000E               LSRS     R0,R0,#+24
   \   0000003E   491C               ADDS     R1,R1,#+1
   \                     ??WizFiCommand_AT_WA_3:
   \   00000040   0729               CMP      R1,#+7
   \   00000042   F5D3               BCC      ??WizFiCommand_AT_WA_4
    536                     BTS--;
   \   00000044   401E               SUBS     R0,R0,#+1
   \   00000046   0006               LSLS     R0,R0,#+24
   \   00000048   000E               LSRS     R0,R0,#+24
    537                     char PassN=0;
   \   0000004A   06E0               B        ??WizFiCommand_AT_WA_6
    538                     while ((Net->WiFi.SSID[PassN]>0) && (PassN<=15)) {Buff_TX[BTS+PassN]=Net->WiFi.SSID[PassN]; PassN++;}
   \                     ??WizFiCommand_AT_WA_7:
   \   0000004C   0300               MOVS     R3,R0
   \   0000004E   5918               ADDS     R1,R3,R1
   \   00000050   1278               LDRB     R2,[R2, #+0]
   \   00000052   6A54               STRB     R2,[R5, R1]
   \   00000054   7F1C               ADDS     R7,R7,#+1
   \   00000056   3F06               LSLS     R7,R7,#+24
   \   00000058   3F0E               LSRS     R7,R7,#+24
   \                     ??WizFiCommand_AT_WA_6:
   \   0000005A   3900               MOVS     R1,R7
   \   0000005C   6218               ADDS     R2,R4,R1
   \   0000005E   AE32               ADDS     R2,R2,#+174
   \   00000060   1378               LDRB     R3,[R2, #+0]
   \   00000062   002B               CMP      R3,#+0
   \   00000064   02D0               BEQ      ??WizFiCommand_AT_WA_8
   \   00000066   3B00               MOVS     R3,R7
   \   00000068   102B               CMP      R3,#+16
   \   0000006A   EFD3               BCC      ??WizFiCommand_AT_WA_7
    539                     Buff_TX[BTS+PassN++]=0x0d;
   \                     ??WizFiCommand_AT_WA_8:
   \   0000006C   0600               MOVS     R6,R0
   \   0000006E   7118               ADDS     R1,R6,R1
   \   00000070   0D22               MOVS     R2,#+13
   \   00000072   6A54               STRB     R2,[R5, R1]
   \   00000074   7F1C               ADDS     R7,R7,#+1
   \   00000076   3F06               LSLS     R7,R7,#+24
   \   00000078   3F0E               LSRS     R7,R7,#+24
    540                     
    541                     if (WiFiDebug) SendViaUSB(Buff_TX, BTS+PassN);
                                                      ^
Warning[Pe167]: argument of type "char *" is incompatible with parameter of
          type "unsigned char *"
   \   0000007A   1149               LDR      R1,??WizFiCommand_AT_WA_5+0x4  ;; WiFiDebug
   \   0000007C   0978               LDRB     R1,[R1, #+0]
   \   0000007E   0029               CMP      R1,#+0
   \   00000080   06D0               BEQ      ??WizFiCommand_AT_WA_9
   \   00000082   3900               MOVS     R1,R7
   \   00000084   4118               ADDS     R1,R0,R1
   \   00000086   0904               LSLS     R1,R1,#+16
   \   00000088   090C               LSRS     R1,R1,#+16
   \   0000008A   2800               MOVS     R0,R5
   \   0000008C   ........           BL       SendViaUSB
    542                     AT91F_US_SendFrame(USART,Buff_TX,BTS+PassN,0, 0);                        //Wysyla ramke 
                                                     ^
Warning[Pe167]: argument of type "char *" is incompatible with parameter of
          type "unsigned char *"
   \                     ??WizFiCommand_AT_WA_9:
   \   00000090   82B0               SUB      SP,SP,#+8
   \   00000092   0020               MOVS     R0,#+0
   \   00000094   0090               STR      R0,[SP, #+0]
   \   00000096   0300               MOVS     R3,R0
   \   00000098   F219               ADDS     R2,R6,R7
   \   0000009A   2900               MOVS     R1,R5
   \   0000009C   0298               LDR      R0,[SP, #+8]
   \   0000009E   ........           BL       AT91F_US_SendFrame
   \   000000A2   02B0               ADD      SP,SP,#+8
    543                     Net->Status.Timeout=g_counter + AP_CONNECT_TIMEOUT;    //przed³u¿enie /restart timeoutu
   \   000000A4   3834               ADDS     R4,R4,#+56
   \   000000A6   0748               LDR      R0,??WizFiCommand_AT_WA_5+0x8  ;; g_counter
   \   000000A8   0CC8               LDM      R0!,{R2,R3}
   \   000000AA   0748               LDR      R0,??WizFiCommand_AT_WA_5+0xC  ;; 0x4e20
   \   000000AC   0021               MOVS     R1,#+0
   \   000000AE   8018               ADDS     R0,R0,R2
   \   000000B0   5941               ADCS     R1,R1,R3
   \   000000B2   03C4               STM      R4!,{R0,R1}
    544                     
    545                     
    546               }
    547          
    548          
    549          }
   \                     ??WizFiCommand_AT_WA_0:
   \   000000B4   F8BC               POP      {R3-R7}
   \   000000B6   01BC               POP      {R0}
   \   000000B8   0047               BX       R0               ;; return
   \   000000BA   C046               Nop      
   \                     ??WizFiCommand_AT_WA_5:
   \   000000BC   ........           DC32     AT_WA
   \   000000C0   ........           DC32     WiFiDebug
   \   000000C4   ........           DC32     g_counter
   \   000000C8   204E0000           DC32     0x4e20
    550          

   \                                 In section Debug.txt, align 4, keep-with-next
    551          char WizFiResponseCommand_AT_WA(char *Buff_RX, char *Buff_TX, AT91PS_USART USART, _Net *Net)
    552          {
   \                     WizFiResponseCommand_AT_WA:
   \   00000000   F1B5               PUSH     {R0,R4-R7,LR}
   \   00000002   0700               MOVS     R7,R0
   \   00000004   1C00               MOVS     R4,R3
    553             char odp=0;
   \   00000006   0025               MOVS     R5,#+0
   \   00000008   2E00               MOVS     R6,R5
    554             if (WiFiDebug) SendViaUSB(Buff_RX, strlen(Buff_RX));
                                              ^
Warning[Pe167]: argument of type "char *" is incompatible with parameter of
          type "unsigned char *"
   \   0000000A   1848               LDR      R0,??WizFiResponseCommand_AT_WA_0  ;; WiFiDebug
   \   0000000C   0078               LDRB     R0,[R0, #+0]
   \   0000000E   0028               CMP      R0,#+0
   \   00000010   08D0               BEQ      ??WizFiResponseCommand_AT_WA_1
   \   00000012   3800               MOVS     R0,R7
   \   00000014   ........           BL       strlen
   \   00000018   0100               MOVS     R1,R0
   \   0000001A   0904               LSLS     R1,R1,#+16
   \   0000001C   090C               LSRS     R1,R1,#+16
   \   0000001E   3800               MOVS     R0,R7
   \   00000020   ........           BL       SendViaUSB
    555             if(strstr(Buff_RX, "OK")!=NULL)
   \                     ??WizFiResponseCommand_AT_WA_1:
   \   00000024   12A1               ADR      R1,??WizFiResponseCommand_AT_WA_0+0x4  ;; 0x4F, 0x4B, 0x00, 0x00
   \   00000026   3800               MOVS     R0,R7
   \   00000028   ........           BL       strstr
   \   0000002C   0028               CMP      R0,#+0
   \   0000002E   18D0               BEQ      ??WizFiResponseCommand_AT_WA_2
    556                  {
    557                    odp=1;  //ok 
   \   00000030   0126               MOVS     R6,#+1
    558                    for (char i=0; i<50; i++) Buff_RX[i]=0;
   \   00000032   2800               MOVS     R0,R5
   \   00000034   2A00               MOVS     R2,R5
   \   00000036   03E0               B        ??WizFiResponseCommand_AT_WA_3
   \                     ??WizFiResponseCommand_AT_WA_4:
   \   00000038   7A54               STRB     R2,[R7, R1]
   \   0000003A   401C               ADDS     R0,R0,#+1
   \   0000003C   0006               LSLS     R0,R0,#+24
   \   0000003E   000E               LSRS     R0,R0,#+24
   \                     ??WizFiResponseCommand_AT_WA_3:
   \   00000040   0100               MOVS     R1,R0
   \   00000042   3229               CMP      R1,#+50
   \   00000044   F8D3               BCC      ??WizFiResponseCommand_AT_WA_4
    559                    
    560                    //Tu mo¿e byæ pobranie otrzymanego IP, Bramy, 
    561          
    562                    //---------------
    563                    Net->Status.Timeout=g_counter + CRYTICAL_TIMEOUT;    //przed³u¿enie /restart timeoutu
   \   00000046   2700               MOVS     R7,R4
   \   00000048   3837               ADDS     R7,R7,#+56
   \   0000004A   0A48               LDR      R0,??WizFiResponseCommand_AT_WA_0+0x8  ;; g_counter
   \   0000004C   03C8               LDM      R0!,{R0,R1}
   \   0000004E   0200               MOVS     R2,R0
   \   00000050   0B00               MOVS     R3,R1
   \   00000052   0948               LDR      R0,??WizFiResponseCommand_AT_WA_0+0xC  ;; 0x2710
   \   00000054   2900               MOVS     R1,R5
   \   00000056   8018               ADDS     R0,R0,R2
   \   00000058   5941               ADCS     R1,R1,R3
   \   0000005A   03C7               STM      R7!,{R0,R1}
    564                    Net->Status.Error=0;
   \   0000005C   6575               STRB     R5,[R4, #+21]
    565                    
    566                    Net->Status.AccesPointAssociateTest=0xFF;           //dla testów ekranowych
   \   0000005E   FF20               MOVS     R0,#+255
   \   00000060   2071               STRB     R0,[R4, #+4]
    567                  }
    568               
    569             
    570             return odp;
   \                     ??WizFiResponseCommand_AT_WA_2:
   \   00000062   3000               MOVS     R0,R6
   \   00000064   F8BC               POP      {R3-R7}
   \   00000066   02BC               POP      {R1}
   \   00000068   0847               BX       R1               ;; return
   \   0000006A   C046               Nop      
   \                     ??WizFiResponseCommand_AT_WA_0:
   \   0000006C   ........           DC32     WiFiDebug
   \   00000070   4F4B0000           DC8      0x4F, 0x4B, 0x00, 0x00
   \   00000074   ........           DC32     g_counter
   \   00000078   10270000           DC32     0x2710
    571          }
    572          
    573          
    574          
    575          
    576          
    577          
    578          //Sprawdzenie czy w WiFi.Domena jest wpisana domena czy IP serwera domeny ------
    579          // odp: 0- domena
    580          // odp: 1 - IP
    581          //------------------------------------------------------------------------------

   \                                 In section Debug.txt, align 4, keep-with-next
    582          char CheckExistDomenaIP(_Net *Net)
    583          {
   \                     CheckExistDomenaIP:
   \   00000000   70B5               PUSH     {R4-R6,LR}
   \   00000002   0100               MOVS     R1,R0
    584            char ExistIP=1;
   \   00000004   0122               MOVS     R2,#+1
   \   00000006   1000               MOVS     R0,R2
    585          
    586            if ((Net->WiFi.Domena[0]<'0') && ((Net->WiFi.Domena[0]>'9'))) ExistIP=0;
   \   00000008   0B00               MOVS     R3,R1
   \   0000000A   BD33               ADDS     R3,R3,#+189
   \   0000000C   1C78               LDRB     R4,[R3, #+0]
   \   0000000E   302C               CMP      R4,#+48
   \   00000010   0FD2               BCS      ??CheckExistDomenaIP_0
   \   00000012   2300               MOVS     R3,R4
   \   00000014   3A2B               CMP      R3,#+58
   \   00000016   0CD3               BCC      ??CheckExistDomenaIP_0
   \   00000018   0020               MOVS     R0,#+0
    587            
    588            char Size= sizeof(Net->WiFi.Domena);
    589            char Znak=1;
   \   0000001A   0AE0               B        ??CheckExistDomenaIP_0
    590            while ((Znak<Size) && (ExistIP==1)  && (Net->WiFi.Domena[Znak]>0) )  
    591            {
    592               if (((Net->WiFi.Domena[Znak]<'0') || (Net->WiFi.Domena[Znak]>'9')) && (Net->WiFi.Domena[Znak]!='.'))  ExistIP=0;
   \                     ??CheckExistDomenaIP_1:
   \   0000001C   302C               CMP      R4,#+48
   \   0000001E   01D3               BCC      ??CheckExistDomenaIP_2
   \   00000020   3A2C               CMP      R4,#+58
   \   00000022   03D3               BCC      ??CheckExistDomenaIP_3
   \                     ??CheckExistDomenaIP_2:
   \   00000024   2300               MOVS     R3,R4
   \   00000026   2E2B               CMP      R3,#+46
   \   00000028   00D0               BEQ      ??CheckExistDomenaIP_3
   \   0000002A   0020               MOVS     R0,#+0
    593            
    594               Znak++; 
   \                     ??CheckExistDomenaIP_3:
   \   0000002C   521C               ADDS     R2,R2,#+1
   \   0000002E   1206               LSLS     R2,R2,#+24
   \   00000030   120E               LSRS     R2,R2,#+24
    595            }
   \                     ??CheckExistDomenaIP_0:
   \   00000032   1300               MOVS     R3,R2
   \   00000034   0F2B               CMP      R3,#+15
   \   00000036   08D2               BCS      ??CheckExistDomenaIP_4
   \   00000038   0300               MOVS     R3,R0
   \   0000003A   012B               CMP      R3,#+1
   \   0000003C   05D1               BNE      ??CheckExistDomenaIP_4
   \   0000003E   1300               MOVS     R3,R2
   \   00000040   CB18               ADDS     R3,R1,R3
   \   00000042   BD33               ADDS     R3,R3,#+189
   \   00000044   1C78               LDRB     R4,[R3, #+0]
   \   00000046   002C               CMP      R4,#+0
   \   00000048   E8D1               BNE      ??CheckExistDomenaIP_1
    596            
    597            //je¿eli w Net->WiFi.Domena wpisany jest IP tp przepisz do  Net->Status.DomenaIP
    598            if (ExistIP==1)
   \                     ??CheckExistDomenaIP_4:
   \   0000004A   0200               MOVS     R2,R0
   \   0000004C   012A               CMP      R2,#+1
   \   0000004E   1ED1               BNE      ??CheckExistDomenaIP_5
    599            {
    600              Znak=0;
   \   00000050   0023               MOVS     R3,#+0
   \   00000052   1A00               MOVS     R2,R3
    601              for (char i=0; i<Size; i++) Net->Status.DomenaIP[i]=0;
   \   00000054   1C00               MOVS     R4,R3
   \   00000056   1E00               MOVS     R6,R3
   \   00000058   04E0               B        ??CheckExistDomenaIP_6
   \                     ??CheckExistDomenaIP_7:
   \   0000005A   4D19               ADDS     R5,R1,R5
   \   0000005C   AE71               STRB     R6,[R5, #+6]
   \   0000005E   641C               ADDS     R4,R4,#+1
   \   00000060   2406               LSLS     R4,R4,#+24
   \   00000062   240E               LSRS     R4,R4,#+24
   \                     ??CheckExistDomenaIP_6:
   \   00000064   2500               MOVS     R5,R4
   \   00000066   0F2D               CMP      R5,#+15
   \   00000068   F7D3               BCC      ??CheckExistDomenaIP_7
    602              while ((Znak<Size) && (ExistIP)  && (Net->WiFi.Domena[Znak]>0))
   \                     ??CheckExistDomenaIP_8:
   \   0000006A   1300               MOVS     R3,R2
   \   0000006C   0F2B               CMP      R3,#+15
   \   0000006E   0ED2               BCS      ??CheckExistDomenaIP_5
   \   00000070   0300               MOVS     R3,R0
   \   00000072   0CD0               BEQ      ??CheckExistDomenaIP_5
   \   00000074   1300               MOVS     R3,R2
   \   00000076   CB18               ADDS     R3,R1,R3
   \   00000078   1C00               MOVS     R4,R3
   \   0000007A   BD34               ADDS     R4,R4,#+189
   \   0000007C   2578               LDRB     R5,[R4, #+0]
   \   0000007E   002D               CMP      R5,#+0
   \   00000080   05D0               BEQ      ??CheckExistDomenaIP_5
    603              {
    604                Net->Status.DomenaIP[Znak]=Net->WiFi.Domena[Znak];
   \   00000082   2C00               MOVS     R4,R5
   \   00000084   9C71               STRB     R4,[R3, #+6]
    605                Znak++;
   \   00000086   521C               ADDS     R2,R2,#+1
   \   00000088   1206               LSLS     R2,R2,#+24
   \   0000008A   120E               LSRS     R2,R2,#+24
   \   0000008C   EDE7               B        ??CheckExistDomenaIP_8
    606              }
    607            }
    608            
    609            return ExistIP;
   \                     ??CheckExistDomenaIP_5:
   \   0000008E   70BC               POP      {R4-R6}
   \   00000090   02BC               POP      {R1}
   \   00000092   0847               BX       R1               ;; return
    610            
    611          }
    612          
    613          
    614          
    615          
    616          
    617          
    618          //Pobranie adresu domeny ------------------------------------------------------
    619          //------------------------------------------------------------------------------

   \                                 In section Debug.txt, align 4, keep-with-next
    620          void WizFiCommand_AT_DNSLOOKUP(char *Buff_RX, char *Buff_TX,  AT91PS_USART USART, _Net *Net)
    621          {
   \                     WizFiCommand_AT_DNSLOOKUP:
   \   00000000   F7B5               PUSH     {R0-R2,R4-R7,LR}
   \   00000002   0500               MOVS     R5,R0
   \   00000004   0E00               MOVS     R6,R1
   \   00000006   1C00               MOVS     R4,R3
    622                if (Net->WiFi.Domena[0]!=0)
   \   00000008   BD20               MOVS     R0,#+189
   \   0000000A   205C               LDRB     R0,[R4, R0]
   \   0000000C   0028               CMP      R0,#+0
   \   0000000E   6DD0               BEQ      ??WizFiCommand_AT_DNSLOOKUP_0
    623                {
    624                    for (short i=0; i<US1_BUFFER_Rx_SIZE; i++) Buff_RX[i]=0;
   \   00000010   0027               MOVS     R7,#+0
   \   00000012   3800               MOVS     R0,R7
   \   00000014   04E0               B        ??WizFiCommand_AT_DNSLOOKUP_1
   \                     ??WizFiCommand_AT_DNSLOOKUP_2:
   \   00000016   3900               MOVS     R1,R7
   \   00000018   2954               STRB     R1,[R5, R0]
   \   0000001A   401C               ADDS     R0,R0,#+1
   \   0000001C   0004               LSLS     R0,R0,#+16
   \   0000001E   0014               ASRS     R0,R0,#+16
   \                     ??WizFiCommand_AT_DNSLOOKUP_1:
   \   00000020   9121               MOVS     R1,#+145
   \   00000022   8900               LSLS     R1,R1,#+2        ;; #+580
   \   00000024   8842               CMP      R0,R1
   \   00000026   F6DB               BLT      ??WizFiCommand_AT_DNSLOOKUP_2
    625                    if (CheckExistDomenaIP(Net)==0)                                                  //sprawdzenie czy w WiFi.Domena jest wpisana domena czy IP serwera domeny
   \   00000028   2000               MOVS     R0,R4
   \   0000002A   ........           BL       CheckExistDomenaIP
   \   0000002E   0028               CMP      R0,#+0
   \   00000030   51D1               BNE      ??WizFiCommand_AT_DNSLOOKUP_3
    626                    {                                                                     //w WiFi.Domena jest wpisana domena
    627                       Net->Status.CurrentOrder=WizFi_AT_DNSLOOKUP;
   \   00000032   0C20               MOVS     R0,#+12
   \   00000034   A070               STRB     R0,[R4, #+2]
    628            
    629                       char BTS=0;
   \   00000036   3800               MOVS     R0,R7
    630                       for (char i=0; i<sizeof(AT_DNSLOOKUP); i++)  {Buff_TX[i]=AT_DNSLOOKUP[i];   BTS++;}
   \   00000038   3900               MOVS     R1,R7
   \   0000003A   07E0               B        ??WizFiCommand_AT_DNSLOOKUP_4
   \                     ??WizFiCommand_AT_DNSLOOKUP_5:
   \   0000003C   0A00               MOVS     R2,R1
   \   0000003E   2D4B               LDR      R3,??WizFiCommand_AT_DNSLOOKUP_6  ;; AT_DNSLOOKUP
   \   00000040   9B5C               LDRB     R3,[R3, R2]
   \   00000042   B354               STRB     R3,[R6, R2]
   \   00000044   401C               ADDS     R0,R0,#+1
   \   00000046   0006               LSLS     R0,R0,#+24
   \   00000048   000E               LSRS     R0,R0,#+24
   \   0000004A   491C               ADDS     R1,R1,#+1
   \                     ??WizFiCommand_AT_DNSLOOKUP_4:
   \   0000004C   0E29               CMP      R1,#+14
   \   0000004E   F5D3               BCC      ??WizFiCommand_AT_DNSLOOKUP_5
    631                       BTS--;
   \   00000050   411E               SUBS     R1,R0,#+1
   \   00000052   0906               LSLS     R1,R1,#+24
   \   00000054   090E               LSRS     R1,R1,#+24
    632                       char PassN=0;
   \   00000056   3800               MOVS     R0,R7
   \   00000058   06E0               B        ??WizFiCommand_AT_DNSLOOKUP_7
    633                       while ((Net->WiFi.Domena[PassN]>0) && (PassN<=15)) {Buff_TX[BTS+PassN]=Net->WiFi.Domena[PassN]; PassN++;}
   \                     ??WizFiCommand_AT_DNSLOOKUP_8:
   \   0000005A   0F00               MOVS     R7,R1
   \   0000005C   BA18               ADDS     R2,R7,R2
   \   0000005E   1B78               LDRB     R3,[R3, #+0]
   \   00000060   B354               STRB     R3,[R6, R2]
   \   00000062   401C               ADDS     R0,R0,#+1
   \   00000064   0006               LSLS     R0,R0,#+24
   \   00000066   000E               LSRS     R0,R0,#+24
   \                     ??WizFiCommand_AT_DNSLOOKUP_7:
   \   00000068   0200               MOVS     R2,R0
   \   0000006A   A318               ADDS     R3,R4,R2
   \   0000006C   BD33               ADDS     R3,R3,#+189
   \   0000006E   1F78               LDRB     R7,[R3, #+0]
   \   00000070   002F               CMP      R7,#+0
   \   00000072   02D0               BEQ      ??WizFiCommand_AT_DNSLOOKUP_9
   \   00000074   0700               MOVS     R7,R0
   \   00000076   102F               CMP      R7,#+16
   \   00000078   EFD3               BCC      ??WizFiCommand_AT_DNSLOOKUP_8
    634                       Buff_TX[BTS+PassN++]=0x0d;
   \                     ??WizFiCommand_AT_DNSLOOKUP_9:
   \   0000007A   0F00               MOVS     R7,R1
   \   0000007C   BA18               ADDS     R2,R7,R2
   \   0000007E   0D23               MOVS     R3,#+13
   \   00000080   B354               STRB     R3,[R6, R2]
   \   00000082   401C               ADDS     R0,R0,#+1
   \   00000084   0006               LSLS     R0,R0,#+24
   \   00000086   000E               LSRS     R0,R0,#+24
   \   00000088   0090               STR      R0,[SP, #+0]
    635                   
    636                       if (WiFiDebug) SendViaUSB(Buff_RX, BTS+PassN); 
                                                        ^
Warning[Pe167]: argument of type "char *" is incompatible with parameter of
          type "unsigned char *"
   \   0000008A   1B48               LDR      R0,??WizFiCommand_AT_DNSLOOKUP_6+0x4  ;; WiFiDebug
   \   0000008C   0078               LDRB     R0,[R0, #+0]
   \   0000008E   0028               CMP      R0,#+0
   \   00000090   08D0               BEQ      ??WizFiCommand_AT_DNSLOOKUP_10
   \   00000092   0098               LDR      R0,[SP, #+0]
   \   00000094   0006               LSLS     R0,R0,#+24
   \   00000096   000E               LSRS     R0,R0,#+24
   \   00000098   0918               ADDS     R1,R1,R0
   \   0000009A   0904               LSLS     R1,R1,#+16
   \   0000009C   090C               LSRS     R1,R1,#+16
   \   0000009E   2800               MOVS     R0,R5
   \   000000A0   ........           BL       SendViaUSB
    637                       AT91F_US_SendFrame(USART,Buff_TX,BTS+PassN,0, 0);                        //Wysyla ramke 
                                                       ^
Warning[Pe167]: argument of type "char *" is incompatible with parameter of
          type "unsigned char *"
   \                     ??WizFiCommand_AT_DNSLOOKUP_10:
   \   000000A4   82B0               SUB      SP,SP,#+8
   \   000000A6   0020               MOVS     R0,#+0
   \   000000A8   0090               STR      R0,[SP, #+0]
   \   000000AA   0300               MOVS     R3,R0
   \   000000AC   0298               LDR      R0,[SP, #+8]
   \   000000AE   0006               LSLS     R0,R0,#+24
   \   000000B0   000E               LSRS     R0,R0,#+24
   \   000000B2   3A18               ADDS     R2,R7,R0
   \   000000B4   3100               MOVS     R1,R6
   \   000000B6   0498               LDR      R0,[SP, #+16]
   \   000000B8   ........           BL       AT91F_US_SendFrame
   \   000000BC   02B0               ADD      SP,SP,#+8
    638                       Net->Status.Timeout=g_counter + CRYTICAL_TIMEOUT;    //przed³u¿enie /restart timeoutu
   \   000000BE   2500               MOVS     R5,R4
   \   000000C0   3835               ADDS     R5,R5,#+56
   \   000000C2   0E48               LDR      R0,??WizFiCommand_AT_DNSLOOKUP_6+0x8  ;; g_counter
   \   000000C4   0CC8               LDM      R0!,{R2,R3}
   \   000000C6   0E48               LDR      R0,??WizFiCommand_AT_DNSLOOKUP_6+0xC  ;; 0x2710
   \   000000C8   0021               MOVS     R1,#+0
   \   000000CA   8018               ADDS     R0,R0,R2
   \   000000CC   5941               ADCS     R1,R1,R3
   \   000000CE   03C5               STM      R5!,{R0,R1}
    639                       Net->Status.NextHttpOrder=HTTP_GET_Config;
   \   000000D0   1420               MOVS     R0,#+20
   \   000000D2   E070               STRB     R0,[R4, #+3]
   \   000000D4   0AE0               B        ??WizFiCommand_AT_DNSLOOKUP_0
    640                       
    641                       
    642                    }
    643                    else                                                                  //je¿eli w WiFi.Domena jest wpisany IP serwera domeny
    644                    {
    645                       Net->Status.AccesPointAssociate=CONNECTED;    
   \                     ??WizFiCommand_AT_DNSLOOKUP_3:
   \   000000D6   0320               MOVS     R0,#+3
   \   000000D8   2070               STRB     R0,[R4, #+0]
    646                       Net->Status.CurrentOrder=WizFi_NC;     //wyczyszczenie rozkazów
   \   000000DA   A770               STRB     R7,[R4, #+2]
    647                       Net->Status.Timeout=g_counter + CRYTICAL_TIMEOUT;    //przed³u¿enie /restart timeoutu
   \   000000DC   3834               ADDS     R4,R4,#+56
   \   000000DE   0748               LDR      R0,??WizFiCommand_AT_DNSLOOKUP_6+0x8  ;; g_counter
   \   000000E0   0CC8               LDM      R0!,{R2,R3}
   \   000000E2   0748               LDR      R0,??WizFiCommand_AT_DNSLOOKUP_6+0xC  ;; 0x2710
   \   000000E4   3900               MOVS     R1,R7
   \   000000E6   8018               ADDS     R0,R0,R2
   \   000000E8   5941               ADCS     R1,R1,R3
   \   000000EA   03C4               STM      R4!,{R0,R1}
    648                    }
    649                    
    650                }
    651          }
   \                     ??WizFiCommand_AT_DNSLOOKUP_0:
   \   000000EC   FEBC               POP      {R1-R7}
   \   000000EE   01BC               POP      {R0}
   \   000000F0   0047               BX       R0               ;; return
   \   000000F2   C046               Nop      
   \                     ??WizFiCommand_AT_DNSLOOKUP_6:
   \   000000F4   ........           DC32     AT_DNSLOOKUP
   \   000000F8   ........           DC32     WiFiDebug
   \   000000FC   ........           DC32     g_counter
   \   00000100   10270000           DC32     0x2710
    652          
    653          
    654          
    655          /*
    656          //Pobranie adresu domeny ------------------------------------------------------
    657          //------------------------------------------------------------------------------
    658          void WizFiCommand_AT_DNSLOOKUP(char *Buff_TX,  AT91PS_USART USART, _Net *Net)
    659          {
    660                       Net->Status.CurrentOrder=WizFi_AT_DNSLOOKUP;
    661            
    662                       char BTS=0;
    663                       for (char i=0; i<sizeof(AT_DNSLOOKUP); i++)  {Buff_TX[i]=AT_DNSLOOKUP[i];   BTS++;}
    664                       BTS--;
    665                       char PassN=0;
    666                       while ((Net->WiFi.Domena[PassN]>0) && (PassN<=25)) {Buff_TX[BTS+PassN]=Net->WiFi.Domena[PassN]; PassN++;}
    667                       Buff_TX[BTS+PassN++]=0x0d;
    668                   
    669                       AT91F_US_SendFrame(USART,Buff_TX,BTS+PassN,0, 0);                        //Wysyla ramke 
    670                       Net->Status.Timeout=g_counter + CRYTICAL_TIMEOUT;    //przed³u¿enie /restart timeoutu
    671                       Net->Status.NextHttpOrder=HTTP_GET_Config;
    672          }
    673          */
    674          
    675          

   \                                 In section Debug.txt, align 4, keep-with-next
    676          char WizFiResponseCommand_AT_DNSLOOKUP(char *Buff_RX, char *Buff_TX, AT91PS_USART USART, _Net *Net)
    677          {
   \                     WizFiResponseCommand_AT_DNSLOOKUP:
   \   00000000   F1B5               PUSH     {R0,R4-R7,LR}
   \   00000002   0600               MOVS     R6,R0
   \   00000004   1C00               MOVS     R4,R3
    678             char odp=0;
   \   00000006   0025               MOVS     R5,#+0
   \   00000008   6846               MOV      R0,SP
   \   0000000A   2900               MOVS     R1,R5
   \   0000000C   0170               STRB     R1,[R0, #+0]
    679             char *pTxt;
    680             
    681             pTxt=strstr(Buff_RX, "IP:");
   \   0000000E   25A1               ADR      R1,??WizFiResponseCommand_AT_DNSLOOKUP_0  ;; "IP:"
   \   00000010   3000               MOVS     R0,R6
   \   00000012   ........           BL       strstr
   \   00000016   0700               MOVS     R7,R0
    682             if (WiFiDebug) SendViaUSB(Buff_RX, strlen(Buff_RX));
                                              ^
Warning[Pe167]: argument of type "char *" is incompatible with parameter of
          type "unsigned char *"
   \   00000018   2348               LDR      R0,??WizFiResponseCommand_AT_DNSLOOKUP_0+0x4  ;; WiFiDebug
   \   0000001A   0078               LDRB     R0,[R0, #+0]
   \   0000001C   0028               CMP      R0,#+0
   \   0000001E   08D0               BEQ      ??WizFiResponseCommand_AT_DNSLOOKUP_1
   \   00000020   3000               MOVS     R0,R6
   \   00000022   ........           BL       strlen
   \   00000026   0100               MOVS     R1,R0
   \   00000028   0904               LSLS     R1,R1,#+16
   \   0000002A   090C               LSRS     R1,R1,#+16
   \   0000002C   3000               MOVS     R0,R6
   \   0000002E   ........           BL       SendViaUSB
    683             if((strstr(Buff_RX, "OK")!=NULL) && (pTxt!=NULL))
   \                     ??WizFiResponseCommand_AT_DNSLOOKUP_1:
   \   00000032   1EA1               ADR      R1,??WizFiResponseCommand_AT_DNSLOOKUP_0+0x8  ;; 0x4F, 0x4B, 0x00, 0x00
   \   00000034   3000               MOVS     R0,R6
   \   00000036   ........           BL       strstr
   \   0000003A   0028               CMP      R0,#+0
   \   0000003C   2DD0               BEQ      ??WizFiResponseCommand_AT_DNSLOOKUP_2
   \   0000003E   002F               CMP      R7,#+0
   \   00000040   2BD0               BEQ      ??WizFiResponseCommand_AT_DNSLOOKUP_2
    684                  {
    685                    odp=1;  //ok 
   \   00000042   6846               MOV      R0,SP
   \   00000044   0121               MOVS     R1,#+1
   \   00000046   0170               STRB     R1,[R0, #+0]
    686                    
    687                    Net->Status.AccesPointAssociate=CONNECTED;    
   \   00000048   0320               MOVS     R0,#+3
   \   0000004A   2070               STRB     R0,[R4, #+0]
    688                    Net->Status.CurrentOrder=WizFi_NC;     //wyczyszczenie rozkazów
   \   0000004C   2800               MOVS     R0,R5
   \   0000004E   A070               STRB     R0,[R4, #+2]
    689                      
    690                    pTxt+=3;
   \   00000050   FF1C               ADDS     R7,R7,#+3
    691                    char p=0;
   \   00000052   06E0               B        ??WizFiResponseCommand_AT_DNSLOOKUP_3
    692                    while ((*pTxt!=0x0d) && (p<=15))  {Net->Status.DomenaIP[p++]=*pTxt; pTxt++;}
   \                     ??WizFiResponseCommand_AT_DNSLOOKUP_4:
   \   00000054   6118               ADDS     R1,R4,R1
   \   00000056   3A78               LDRB     R2,[R7, #+0]
   \   00000058   8A71               STRB     R2,[R1, #+6]
   \   0000005A   401C               ADDS     R0,R0,#+1
   \   0000005C   0006               LSLS     R0,R0,#+24
   \   0000005E   000E               LSRS     R0,R0,#+24
   \   00000060   7F1C               ADDS     R7,R7,#+1
   \                     ??WizFiResponseCommand_AT_DNSLOOKUP_3:
   \   00000062   3978               LDRB     R1,[R7, #+0]
   \   00000064   0D29               CMP      R1,#+13
   \   00000066   02D0               BEQ      ??WizFiResponseCommand_AT_DNSLOOKUP_5
   \   00000068   0100               MOVS     R1,R0
   \   0000006A   1029               CMP      R1,#+16
   \   0000006C   F2D3               BCC      ??WizFiResponseCommand_AT_DNSLOOKUP_4
    693                    Net->Status.Timeout=g_counter + CRYTICAL_TIMEOUT;    //przed³u¿enie /restart timeoutu
   \                     ??WizFiResponseCommand_AT_DNSLOOKUP_5:
   \   0000006E   2700               MOVS     R7,R4
   \   00000070   3837               ADDS     R7,R7,#+56
   \   00000072   0F48               LDR      R0,??WizFiResponseCommand_AT_DNSLOOKUP_0+0xC  ;; g_counter
   \   00000074   03C8               LDM      R0!,{R0,R1}
   \   00000076   0200               MOVS     R2,R0
   \   00000078   0B00               MOVS     R3,R1
   \   0000007A   0E48               LDR      R0,??WizFiResponseCommand_AT_DNSLOOKUP_0+0x10  ;; 0x2710
   \   0000007C   2900               MOVS     R1,R5
   \   0000007E   8018               ADDS     R0,R0,R2
   \   00000080   5941               ADCS     R1,R1,R3
   \   00000082   03C7               STM      R7!,{R0,R1}
    694                    for (char i=0; i<50; i++) Buff_RX[i]=0;
   \   00000084   2800               MOVS     R0,R5
   \   00000086   2A00               MOVS     R2,R5
   \   00000088   03E0               B        ??WizFiResponseCommand_AT_DNSLOOKUP_6
   \                     ??WizFiResponseCommand_AT_DNSLOOKUP_7:
   \   0000008A   7254               STRB     R2,[R6, R1]
   \   0000008C   401C               ADDS     R0,R0,#+1
   \   0000008E   0006               LSLS     R0,R0,#+24
   \   00000090   000E               LSRS     R0,R0,#+24
   \                     ??WizFiResponseCommand_AT_DNSLOOKUP_6:
   \   00000092   0100               MOVS     R1,R0
   \   00000094   3229               CMP      R1,#+50
   \   00000096   F8D3               BCC      ??WizFiResponseCommand_AT_DNSLOOKUP_7
    695                    Net->Status.Error=0;
   \   00000098   6575               STRB     R5,[R4, #+21]
    696                  }
    697               
    698             return odp;
   \                     ??WizFiResponseCommand_AT_DNSLOOKUP_2:
   \   0000009A   6846               MOV      R0,SP
   \   0000009C   0078               LDRB     R0,[R0, #+0]
   \   0000009E   F8BC               POP      {R3-R7}
   \   000000A0   02BC               POP      {R1}
   \   000000A2   0847               BX       R1               ;; return
   \                     ??WizFiResponseCommand_AT_DNSLOOKUP_0:
   \   000000A4   49503A00           DC8      "IP:"
   \   000000A8   ........           DC32     WiFiDebug
   \   000000AC   4F4B0000           DC8      0x4F, 0x4B, 0x00, 0x00
   \   000000B0   ........           DC32     g_counter
   \   000000B4   10270000           DC32     0x2710
    699          }
    700          
    701          
    702          
    703                         
    704          
    705          
    706          
    707          
    708          
    709          //Rozkaz po³¹czenia z hostem----------------------------------------------------
    710          //------------------------------------------------------------------------------

   \                                 In section Debug.txt, align 4, keep-with-next
    711          void WizFiCommand_AT_NCTCP(char *Buff_RX, char *Buff_TX,  AT91PS_USART USART, _Net *Net)
    712          {
   \                     WizFiCommand_AT_NCTCP:
   \   00000000   F5B5               PUSH     {R0,R2,R4-R7,LR}
   \   00000002   81B0               SUB      SP,SP,#+4
   \   00000004   0C00               MOVS     R4,R1
   \   00000006   BD20               MOVS     R0,#+189
   \   00000008   185C               LDRB     R0,[R3, R0]
   \   0000000A   0028               CMP      R0,#+0
   \   0000000C   00D1               BNE      .+4
   \   0000000E   A0E0               B        ??WizFiCommand_AT_NCTCP_0
    713               if (Net->WiFi.Domena[0]!=0)
    714               {
    715                     for (short i=0; i<US1_BUFFER_Rx_SIZE; i++) Buff_RX[i]=0;
   \   00000010   0022               MOVS     R2,#+0
   \   00000012   1000               MOVS     R0,R2
   \   00000014   1500               MOVS     R5,R2
   \   00000016   04E0               B        ??WizFiCommand_AT_NCTCP_1
   \                     ??WizFiCommand_AT_NCTCP_2:
   \   00000018   0199               LDR      R1,[SP, #+4]
   \   0000001A   0D54               STRB     R5,[R1, R0]
   \   0000001C   401C               ADDS     R0,R0,#+1
   \   0000001E   0004               LSLS     R0,R0,#+16
   \   00000020   0014               ASRS     R0,R0,#+16
   \                     ??WizFiCommand_AT_NCTCP_1:
   \   00000022   9121               MOVS     R1,#+145
   \   00000024   8900               LSLS     R1,R1,#+2        ;; #+580
   \   00000026   8842               CMP      R0,R1
   \   00000028   F6DB               BLT      ??WizFiCommand_AT_NCTCP_2
   \   0000002A   4B4D               LDR      R5,??WizFiCommand_AT_NCTCP_3  ;; g_counter
   \   0000002C   1E00               MOVS     R6,R3
   \   0000002E   2036               ADDS     R6,R6,#+32
   \   00000030   03CD               LDM      R5!,{R0,R1}
   \   00000032   083D               SUBS     R5,R5,#+8
   \   00000034   03C6               STM      R6!,{R0,R1}
   \   00000036   0220               MOVS     R0,#+2
   \   00000038   5870               STRB     R0,[R3, #+1]
    716                     Net->Status.SendPacketTime=g_counter;
    717                     Net->Status.HostLink=CONNECTING;
    718                     Net->Status.Timeout=g_counter + CRYTICAL_TIMEOUT;    //przed³u¿enie /restart timeoutu
   \   0000003A   1E00               MOVS     R6,R3
   \   0000003C   2036               ADDS     R6,R6,#+32
   \   0000003E   1836               ADDS     R6,R6,#+24
   \   00000040   B446               MOV      R12,R6
   \   00000042   03CD               LDM      R5!,{R0,R1}
   \   00000044   083D               SUBS     R5,R5,#+8
   \   00000046   0600               MOVS     R6,R0
   \   00000048   0F00               MOVS     R7,R1
   \   0000004A   4448               LDR      R0,??WizFiCommand_AT_NCTCP_3+0x4  ;; 0x2710
   \   0000004C   1100               MOVS     R1,R2
   \   0000004E   8019               ADDS     R0,R0,R6
   \   00000050   7941               ADCS     R1,R1,R7
   \   00000052   6646               MOV      R6,R12
   \   00000054   03C6               STM      R6!,{R0,R1}
    719                     //Net->Status.HttpNextQueryTime=g_counter+100;   //rezerwa czasu pomiêdzy odpytaniami HTTP.
    720                     Net->Status.FreezTime=g_counter+FREEZ_TIME;
   \   00000056   1E00               MOVS     R6,R3
   \   00000058   2036               ADDS     R6,R6,#+32
   \   0000005A   2036               ADDS     R6,R6,#+32
   \   0000005C   03CD               LDM      R5!,{R0,R1}
   \   0000005E   0025               MOVS     R5,#+0
   \   00000060   3230               ADDS     R0,R0,#+50
   \   00000062   6941               ADCS     R1,R1,R5
   \   00000064   03C6               STM      R6!,{R0,R1}
    721                     
    722                     Net->Status.CurrentOrder=WizFi_AT_DNSLOOKUP;
   \   00000066   1800               MOVS     R0,R3
   \   00000068   401C               ADDS     R0,R0,#+1
   \   0000006A   0C21               MOVS     R1,#+12
   \   0000006C   4170               STRB     R1,[R0, #+1]
    723                     
    724                     char BTS=0;
   \   0000006E   1000               MOVS     R0,R2
    725                     for (char i=0; i<sizeof(AT_NCTCP); i++)  {Buff_TX[i]=AT_NCTCP[i];   BTS++;}
   \   00000070   1100               MOVS     R1,R2
   \   00000072   07E0               B        ??WizFiCommand_AT_NCTCP_4
   \                     ??WizFiCommand_AT_NCTCP_5:
   \   00000074   0D00               MOVS     R5,R1
   \   00000076   3A4E               LDR      R6,??WizFiCommand_AT_NCTCP_3+0x8  ;; AT_NCTCP
   \   00000078   765D               LDRB     R6,[R6, R5]
   \   0000007A   6655               STRB     R6,[R4, R5]
   \   0000007C   401C               ADDS     R0,R0,#+1
   \   0000007E   0006               LSLS     R0,R0,#+24
   \   00000080   000E               LSRS     R0,R0,#+24
   \   00000082   491C               ADDS     R1,R1,#+1
   \                     ??WizFiCommand_AT_NCTCP_4:
   \   00000084   0A29               CMP      R1,#+10
   \   00000086   F5D3               BCC      ??WizFiCommand_AT_NCTCP_5
    726                     BTS--;
   \   00000088   401E               SUBS     R0,R0,#+1
   \   0000008A   0006               LSLS     R0,R0,#+24
   \   0000008C   000E               LSRS     R0,R0,#+24
    727                     char PN=0;
   \   0000008E   1100               MOVS     R1,R2
    728                     if ((Net->WiFi.Subdomena[0]>47)&&(Net->WiFi.Subdomena[0]<123)) 
   \   00000090   1D00               MOVS     R5,R3
   \   00000092   BD35               ADDS     R5,R5,#+189
   \   00000094   ED7B               LDRB     R5,[R5, #+15]
   \   00000096   302D               CMP      R5,#+48
   \   00000098   21D3               BCC      ??WizFiCommand_AT_NCTCP_6
   \   0000009A   1D00               MOVS     R5,R3
   \   0000009C   BD35               ADDS     R5,R5,#+189
   \   0000009E   ED7B               LDRB     R5,[R5, #+15]
   \   000000A0   7B2D               CMP      R5,#+123
   \   000000A2   1CD2               BCS      ??WizFiCommand_AT_NCTCP_6
   \   000000A4   06E0               B        ??WizFiCommand_AT_NCTCP_7
    729                     {
    730                       while ((Net->WiFi.Subdomena[PN]>0) && (PN<=15)) {Buff_TX[BTS+PN]=Net->WiFi.Subdomena[PN]; PN++;}
   \                     ??WizFiCommand_AT_NCTCP_8:
   \   000000A6   0700               MOVS     R7,R0
   \   000000A8   BE19               ADDS     R6,R7,R6
   \   000000AA   2D78               LDRB     R5,[R5, #+0]
   \   000000AC   A555               STRB     R5,[R4, R6]
   \   000000AE   491C               ADDS     R1,R1,#+1
   \   000000B0   0906               LSLS     R1,R1,#+24
   \   000000B2   090E               LSRS     R1,R1,#+24
   \                     ??WizFiCommand_AT_NCTCP_7:
   \   000000B4   0E00               MOVS     R6,R1
   \   000000B6   9D19               ADDS     R5,R3,R6
   \   000000B8   CC35               ADDS     R5,R5,#+204
   \   000000BA   2F78               LDRB     R7,[R5, #+0]
   \   000000BC   002F               CMP      R7,#+0
   \   000000BE   02D0               BEQ      ??WizFiCommand_AT_NCTCP_9
   \   000000C0   0F00               MOVS     R7,R1
   \   000000C2   102F               CMP      R7,#+16
   \   000000C4   EFD3               BCC      ??WizFiCommand_AT_NCTCP_8
    731                       Buff_TX[BTS+PN]='.';
   \                     ??WizFiCommand_AT_NCTCP_9:
   \   000000C6   0100               MOVS     R1,R0
   \   000000C8   8919               ADDS     R1,R1,R6
   \   000000CA   2E25               MOVS     R5,#+46
   \   000000CC   6554               STRB     R5,[R4, R1]
    732                     }
    733                     PN=0;
   \   000000CE   06E0               B        ??WizFiCommand_AT_NCTCP_6
    734                     while ((Net->Status.DomenaIP[PN]>0) && (PN<=15)) {Buff_TX[BTS+PN]=Net->Status.DomenaIP[PN]; PN++;}
   \                     ??WizFiCommand_AT_NCTCP_10:
   \   000000D0   0600               MOVS     R6,R0
   \   000000D2   7118               ADDS     R1,R6,R1
   \   000000D4   AD79               LDRB     R5,[R5, #+6]
   \   000000D6   6554               STRB     R5,[R4, R1]
   \   000000D8   521C               ADDS     R2,R2,#+1
   \   000000DA   1206               LSLS     R2,R2,#+24
   \   000000DC   120E               LSRS     R2,R2,#+24
   \                     ??WizFiCommand_AT_NCTCP_6:
   \   000000DE   1100               MOVS     R1,R2
   \   000000E0   5D18               ADDS     R5,R3,R1
   \   000000E2   AE79               LDRB     R6,[R5, #+6]
   \   000000E4   002E               CMP      R6,#+0
   \   000000E6   02D0               BEQ      ??WizFiCommand_AT_NCTCP_11
   \   000000E8   1600               MOVS     R6,R2
   \   000000EA   102E               CMP      R6,#+16
   \   000000EC   F0D3               BCC      ??WizFiCommand_AT_NCTCP_10
    735                     Buff_TX[BTS+PN++]=',';
   \                     ??WizFiCommand_AT_NCTCP_11:
   \   000000EE   0600               MOVS     R6,R0
   \   000000F0   7118               ADDS     R1,R6,R1
   \   000000F2   2C23               MOVS     R3,#+44
   \   000000F4   6354               STRB     R3,[R4, R1]
   \   000000F6   521C               ADDS     R2,R2,#+1
   \   000000F8   1206               LSLS     R2,R2,#+24
   \   000000FA   120E               LSRS     R2,R2,#+24
    736                     Buff_TX[BTS+PN++]='8';
   \   000000FC   1100               MOVS     R1,R2
   \   000000FE   7118               ADDS     R1,R6,R1
   \   00000100   3823               MOVS     R3,#+56
   \   00000102   6354               STRB     R3,[R4, R1]
   \   00000104   521C               ADDS     R2,R2,#+1
   \   00000106   1206               LSLS     R2,R2,#+24
   \   00000108   120E               LSRS     R2,R2,#+24
    737                     Buff_TX[BTS+PN++]='0';
   \   0000010A   1100               MOVS     R1,R2
   \   0000010C   7118               ADDS     R1,R6,R1
   \   0000010E   3023               MOVS     R3,#+48
   \   00000110   6354               STRB     R3,[R4, R1]
   \   00000112   521C               ADDS     R2,R2,#+1
   \   00000114   1206               LSLS     R2,R2,#+24
   \   00000116   120E               LSRS     R2,R2,#+24
    738                     Buff_TX[BTS+PN++]=0x0d;
   \   00000118   1100               MOVS     R1,R2
   \   0000011A   7118               ADDS     R1,R6,R1
   \   0000011C   0D23               MOVS     R3,#+13
   \   0000011E   6354               STRB     R3,[R4, R1]
   \   00000120   521C               ADDS     R2,R2,#+1
   \   00000122   1206               LSLS     R2,R2,#+24
   \   00000124   120E               LSRS     R2,R2,#+24
   \   00000126   1500               MOVS     R5,R2
    739                    
    740                     
    741          
    742                      
    743                      if (WiFiDebug) SendViaUSB(Buff_RX, BTS+PN);  
                                                       ^
Warning[Pe167]: argument of type "char *" is incompatible with parameter of
          type "unsigned char *"
   \   00000128   0E49               LDR      R1,??WizFiCommand_AT_NCTCP_3+0xC  ;; WiFiDebug
   \   0000012A   0978               LDRB     R1,[R1, #+0]
   \   0000012C   0029               CMP      R1,#+0
   \   0000012E   06D0               BEQ      ??WizFiCommand_AT_NCTCP_12
   \   00000130   2900               MOVS     R1,R5
   \   00000132   4118               ADDS     R1,R0,R1
   \   00000134   0904               LSLS     R1,R1,#+16
   \   00000136   090C               LSRS     R1,R1,#+16
   \   00000138   0198               LDR      R0,[SP, #+4]
   \   0000013A   ........           BL       SendViaUSB
    744                     AT91F_US_SendFrame(USART,Buff_TX,BTS+PN,0, 0);                        //Wysyla ramke  otwieraj¹c¹ po³¹czenie 
                                                     ^
Warning[Pe167]: argument of type "char *" is incompatible with parameter of
          type "unsigned char *"
   \                     ??WizFiCommand_AT_NCTCP_12:
   \   0000013E   82B0               SUB      SP,SP,#+8
   \   00000140   0020               MOVS     R0,#+0
   \   00000142   0090               STR      R0,[SP, #+0]
   \   00000144   0300               MOVS     R3,R0
   \   00000146   7219               ADDS     R2,R6,R5
   \   00000148   2100               MOVS     R1,R4
   \   0000014A   0498               LDR      R0,[SP, #+16]
   \   0000014C   ........           BL       AT91F_US_SendFrame
   \   00000150   02B0               ADD      SP,SP,#+8
    745                     
    746                    
    747               }
    748          }
   \                     ??WizFiCommand_AT_NCTCP_0:
   \   00000152   FEBC               POP      {R1-R7}
   \   00000154   01BC               POP      {R0}
   \   00000156   0047               BX       R0               ;; return
   \                     ??WizFiCommand_AT_NCTCP_3:
   \   00000158   ........           DC32     g_counter
   \   0000015C   10270000           DC32     0x2710
   \   00000160   ........           DC32     AT_NCTCP
   \   00000164   ........           DC32     WiFiDebug
    749          
    750          
    751          

   \                                 In section Debug.txt, align 4, keep-with-next
    752          char WizFiResponseCommand_AT_NCTCP(char *Buff_RX, char *Buff_TX, AT91PS_USART USART, _Net *Net)
    753          {
   \                     WizFiResponseCommand_AT_NCTCP:
   \   00000000   F5B5               PUSH     {R0,R2,R4-R7,LR}
   \   00000002   83B0               SUB      SP,SP,#+12
   \   00000004   0F00               MOVS     R7,R1
   \   00000006   1C00               MOVS     R4,R3
    754             char odp=0;
   \   00000008   0026               MOVS     R6,#+0
   \   0000000A   6846               MOV      R0,SP
   \   0000000C   3100               MOVS     R1,R6
   \   0000000E   0170               STRB     R1,[R0, #+0]
   \   00000010   7448               LDR      R0,??WizFiResponseCommand_AT_NCTCP_0  ;; WiFiDebug
   \   00000012   0078               LDRB     R0,[R0, #+0]
   \   00000014   0028               CMP      R0,#+0
   \   00000016   08D0               BEQ      ??WizFiResponseCommand_AT_NCTCP_1
    755             char *pTxt;
    756             
    757             if (WiFiDebug) SendViaUSB(Buff_RX, strlen(Buff_RX));
                                              ^
Warning[Pe167]: argument of type "char *" is incompatible with parameter of
          type "unsigned char *"
   \   00000018   0398               LDR      R0,[SP, #+12]
   \   0000001A   ........           BL       strlen
   \   0000001E   0100               MOVS     R1,R0
   \   00000020   0904               LSLS     R1,R1,#+16
   \   00000022   090C               LSRS     R1,R1,#+16
   \   00000024   0398               LDR      R0,[SP, #+12]
   \   00000026   ........           BL       SendViaUSB
   \                     ??WizFiResponseCommand_AT_NCTCP_1:
   \   0000002A   6F49               LDR      R1,??WizFiResponseCommand_AT_NCTCP_0+0x4  ;; AT_NCLOSE + 12
   \   0000002C   0398               LDR      R0,[SP, #+12]
    758             pTxt=strstr(Buff_RX, "[CONNECT");
   \   0000002E   ........           BL       strstr
   \   00000032   0500               MOVS     R5,R0
    759             if ((pTxt!=NULL) && (pTxt[9]!='9')&& (pTxt[9]!='A'))
   \   00000034   00D1               BNE      .+4
   \   00000036   9EE0               B        ??WizFiResponseCommand_AT_NCTCP_2
   \   00000038   687A               LDRB     R0,[R5, #+9]
   \   0000003A   3928               CMP      R0,#+57
   \   0000003C   00D1               BNE      .+4
   \   0000003E   9AE0               B        ??WizFiResponseCommand_AT_NCTCP_2
   \   00000040   4128               CMP      R0,#+65
   \   00000042   00D1               BNE      .+4
   \   00000044   97E0               B        ??WizFiResponseCommand_AT_NCTCP_2
    760                  {
    761                    odp=1;  //ok 
   \   00000046   6846               MOV      R0,SP
   \   00000048   0121               MOVS     R1,#+1
   \   0000004A   0170               STRB     R1,[R0, #+0]
    762                    pTxt+=9;
   \   0000004C   0935               ADDS     R5,R5,#+9
    763                    Net->Status.HostChannel=*pTxt;
   \   0000004E   2878               LDRB     R0,[R5, #+0]
   \   00000050   A075               STRB     R0,[R4, #+22]
    764                    Net->Status.CurrentOrder=WizFi_NC;     //wyczyszczenie rozkazów
   \   00000052   3000               MOVS     R0,R6
   \   00000054   A070               STRB     R0,[R4, #+2]
   \   00000056   2200               MOVS     R2,R4
   \   00000058   3832               ADDS     R2,R2,#+56
   \   0000005A   9446               MOV      R12,R2
   \   0000005C   6348               LDR      R0,??WizFiResponseCommand_AT_NCTCP_0+0x8  ;; g_counter
   \   0000005E   03C8               LDM      R0!,{R0,R1}
   \   00000060   0200               MOVS     R2,R0
   \   00000062   0B00               MOVS     R3,R1
   \   00000064   6248               LDR      R0,??WizFiResponseCommand_AT_NCTCP_0+0xC  ;; 0x2710
   \   00000066   3100               MOVS     R1,R6
   \   00000068   8018               ADDS     R0,R0,R2
   \   0000006A   5941               ADCS     R1,R1,R3
   \   0000006C   6246               MOV      R2,R12
   \   0000006E   03C2               STM      R2!,{R0,R1}
    765                    
    766                    Net->Status.Timeout=g_counter + CRYTICAL_TIMEOUT;    //przed³u¿enie /restart timeoutu
    767                    
    768          
    769               
    770                    if ((pTxt[0]-48)==6)
   \   00000070   2878               LDRB     R0,[R5, #+0]
   \   00000072   3038               SUBS     R0,R0,#+48
   \   00000074   0628               CMP      R0,#+6
   \   00000076   30D1               BNE      ??WizFiResponseCommand_AT_NCTCP_3
    771                    {
    772                     char BTS=0;
   \   00000078   3000               MOVS     R0,R6
    773                     for (char i=0; i<sizeof(AT_NCLOSE); i++)  {Buff_TX[i]=AT_NCLOSE[i];   BTS++;}
   \   0000007A   3100               MOVS     R1,R6
   \   0000007C   07E0               B        ??WizFiResponseCommand_AT_NCTCP_4
   \                     ??WizFiResponseCommand_AT_NCTCP_5:
   \   0000007E   0A00               MOVS     R2,R1
   \   00000080   5C4B               LDR      R3,??WizFiResponseCommand_AT_NCTCP_0+0x10  ;; AT_NCLOSE
   \   00000082   9B5C               LDRB     R3,[R3, R2]
   \   00000084   BB54               STRB     R3,[R7, R2]
   \   00000086   401C               ADDS     R0,R0,#+1
   \   00000088   0006               LSLS     R0,R0,#+24
   \   0000008A   000E               LSRS     R0,R0,#+24
   \   0000008C   491C               ADDS     R1,R1,#+1
   \                     ??WizFiResponseCommand_AT_NCTCP_4:
   \   0000008E   0B29               CMP      R1,#+11
   \   00000090   F5D3               BCC      ??WizFiResponseCommand_AT_NCTCP_5
    774                     BTS--;
   \   00000092   401E               SUBS     R0,R0,#+1
   \   00000094   0006               LSLS     R0,R0,#+24
   \   00000096   000E               LSRS     R0,R0,#+24
    775                     Buff_TX[BTS++]='0';
   \   00000098   0100               MOVS     R1,R0
   \   0000009A   3022               MOVS     R2,#+48
   \   0000009C   7A54               STRB     R2,[R7, R1]
   \   0000009E   401C               ADDS     R0,R0,#+1
   \   000000A0   0006               LSLS     R0,R0,#+24
   \   000000A2   000E               LSRS     R0,R0,#+24
    776                     Buff_TX[BTS++]=0x0d; 
   \   000000A4   0100               MOVS     R1,R0
   \   000000A6   0D22               MOVS     R2,#+13
   \   000000A8   7A54               STRB     R2,[R7, R1]
   \   000000AA   401C               ADDS     R0,R0,#+1
   \   000000AC   0006               LSLS     R0,R0,#+24
   \   000000AE   000E               LSRS     R0,R0,#+24
   \   000000B0   0190               STR      R0,[SP, #+4]
    777                     if (WiFiDebug) SendViaUSB(Buff_RX, BTS); 
                                                      ^
Warning[Pe167]: argument of type "char *" is incompatible with parameter of
          type "unsigned char *"
   \   000000B2   4C48               LDR      R0,??WizFiResponseCommand_AT_NCTCP_0  ;; WiFiDebug
   \   000000B4   0078               LDRB     R0,[R0, #+0]
   \   000000B6   0028               CMP      R0,#+0
   \   000000B8   05D0               BEQ      ??WizFiResponseCommand_AT_NCTCP_6
   \   000000BA   0199               LDR      R1,[SP, #+4]
   \   000000BC   0906               LSLS     R1,R1,#+24
   \   000000BE   090E               LSRS     R1,R1,#+24
   \   000000C0   0398               LDR      R0,[SP, #+12]
   \   000000C2   ........           BL       SendViaUSB
    778                     AT91F_US_SendFrame(USART,Buff_TX,BTS,0, 0);                        //Wysyla ramke  otwieraj¹c¹ po³¹czenie 
                                                     ^
Warning[Pe167]: argument of type "char *" is incompatible with parameter of
          type "unsigned char *"
   \                     ??WizFiResponseCommand_AT_NCTCP_6:
   \   000000C6   82B0               SUB      SP,SP,#+8
   \   000000C8   3000               MOVS     R0,R6
   \   000000CA   0090               STR      R0,[SP, #+0]
   \   000000CC   0300               MOVS     R3,R0
   \   000000CE   039A               LDR      R2,[SP, #+12]
   \   000000D0   3900               MOVS     R1,R7
   \   000000D2   0698               LDR      R0,[SP, #+24]
   \   000000D4   ........           BL       AT91F_US_SendFrame
   \   000000D8   02B0               ADD      SP,SP,#+8
    779                    
    780                    }
    781                    if ((pTxt[0]-48)>6)
   \                     ??WizFiResponseCommand_AT_NCTCP_3:
   \   000000DA   2878               LDRB     R0,[R5, #+0]
   \   000000DC   3038               SUBS     R0,R0,#+48
   \   000000DE   0728               CMP      R0,#+7
   \   000000E0   2FDB               BLT      ??WizFiResponseCommand_AT_NCTCP_7
    782                    {
    783                     char BTS=0;
   \   000000E2   3000               MOVS     R0,R6
    784                     for (char i=0; i<sizeof(AT_NCLOSE); i++)  {Buff_TX[i]=AT_NCLOSE[i];   BTS++;}
   \   000000E4   3100               MOVS     R1,R6
   \   000000E6   07E0               B        ??WizFiResponseCommand_AT_NCTCP_8
   \                     ??WizFiResponseCommand_AT_NCTCP_9:
   \   000000E8   0A00               MOVS     R2,R1
   \   000000EA   424B               LDR      R3,??WizFiResponseCommand_AT_NCTCP_0+0x10  ;; AT_NCLOSE
   \   000000EC   9B5C               LDRB     R3,[R3, R2]
   \   000000EE   BB54               STRB     R3,[R7, R2]
   \   000000F0   401C               ADDS     R0,R0,#+1
   \   000000F2   0006               LSLS     R0,R0,#+24
   \   000000F4   000E               LSRS     R0,R0,#+24
   \   000000F6   491C               ADDS     R1,R1,#+1
   \                     ??WizFiResponseCommand_AT_NCTCP_8:
   \   000000F8   0B29               CMP      R1,#+11
   \   000000FA   F5D3               BCC      ??WizFiResponseCommand_AT_NCTCP_9
    785                     BTS--;
   \   000000FC   401E               SUBS     R0,R0,#+1
   \   000000FE   0006               LSLS     R0,R0,#+24
   \   00000100   000E               LSRS     R0,R0,#+24
    786                     Buff_TX[BTS++]=pTxt[0]-1;
   \   00000102   0100               MOVS     R1,R0
   \   00000104   2A78               LDRB     R2,[R5, #+0]
   \   00000106   521E               SUBS     R2,R2,#+1
   \   00000108   7A54               STRB     R2,[R7, R1]
   \   0000010A   401C               ADDS     R0,R0,#+1
   \   0000010C   0006               LSLS     R0,R0,#+24
   \   0000010E   000E               LSRS     R0,R0,#+24
    787                     Buff_TX[BTS++]=0x0d; 
   \   00000110   0100               MOVS     R1,R0
   \   00000112   0D22               MOVS     R2,#+13
   \   00000114   7A54               STRB     R2,[R7, R1]
   \   00000116   401C               ADDS     R0,R0,#+1
   \   00000118   0006               LSLS     R0,R0,#+24
   \   0000011A   000E               LSRS     R0,R0,#+24
   \   0000011C   0500               MOVS     R5,R0
    788                     
    789                     if (WiFiDebug) SendViaUSB(Buff_TX, BTS);
                                                      ^
Warning[Pe167]: argument of type "char *" is incompatible with parameter of
          type "unsigned char *"
   \   0000011E   3148               LDR      R0,??WizFiResponseCommand_AT_NCTCP_0  ;; WiFiDebug
   \   00000120   0078               LDRB     R0,[R0, #+0]
   \   00000122   0028               CMP      R0,#+0
   \   00000124   03D0               BEQ      ??WizFiResponseCommand_AT_NCTCP_10
   \   00000126   2900               MOVS     R1,R5
   \   00000128   3800               MOVS     R0,R7
   \   0000012A   ........           BL       SendViaUSB
    790                     AT91F_US_SendFrame(USART,Buff_TX,BTS,0, 0);                        //Wysyla ramke  otwieraj¹c¹ po³¹czenie 
                                                     ^
Warning[Pe167]: argument of type "char *" is incompatible with parameter of
          type "unsigned char *"
   \                     ??WizFiResponseCommand_AT_NCTCP_10:
   \   0000012E   82B0               SUB      SP,SP,#+8
   \   00000130   3000               MOVS     R0,R6
   \   00000132   0090               STR      R0,[SP, #+0]
   \   00000134   0300               MOVS     R3,R0
   \   00000136   2A00               MOVS     R2,R5
   \   00000138   3900               MOVS     R1,R7
   \   0000013A   0698               LDR      R0,[SP, #+24]
   \   0000013C   ........           BL       AT91F_US_SendFrame
   \   00000140   02B0               ADD      SP,SP,#+8
    791          
    792                    }
    793                
    794                    
    795                    for (char i=0; i<50; i++) Buff_RX[i]=0;
   \                     ??WizFiResponseCommand_AT_NCTCP_7:
   \   00000142   3000               MOVS     R0,R6
   \   00000144   3300               MOVS     R3,R6
   \   00000146   04E0               B        ??WizFiResponseCommand_AT_NCTCP_11
   \                     ??WizFiResponseCommand_AT_NCTCP_12:
   \   00000148   039A               LDR      R2,[SP, #+12]
   \   0000014A   5354               STRB     R3,[R2, R1]
   \   0000014C   401C               ADDS     R0,R0,#+1
   \   0000014E   0006               LSLS     R0,R0,#+24
   \   00000150   000E               LSRS     R0,R0,#+24
   \                     ??WizFiResponseCommand_AT_NCTCP_11:
   \   00000152   0100               MOVS     R1,R0
   \   00000154   3229               CMP      R1,#+50
   \   00000156   F7D3               BCC      ??WizFiResponseCommand_AT_NCTCP_12
    796                    
    797                    
    798                    Net->Status.HostLink=CONNECTED;
   \   00000158   0320               MOVS     R0,#+3
   \   0000015A   6070               STRB     R0,[R4, #+1]
    799                    Net->Status.HttpNextQueryTime=g_counter+100;
   \   0000015C   2200               MOVS     R2,R4
   \   0000015E   3032               ADDS     R2,R2,#+48
   \   00000160   2248               LDR      R0,??WizFiResponseCommand_AT_NCTCP_0+0x8  ;; g_counter
   \   00000162   03C8               LDM      R0!,{R0,R1}
   \   00000164   6430               ADDS     R0,R0,#+100
   \   00000166   5941               ADCS     R1,R1,R3
   \   00000168   03C2               STM      R2!,{R0,R1}
    800                    Net->Status.FreezTime=0;
   \   0000016A   1800               MOVS     R0,R3
   \   0000016C   0100               MOVS     R1,R0
   \   0000016E   2064               STR      R0,[R4, #+64]
   \   00000170   6164               STR      R1,[R4, #+68]
    801                    Net->Status.Error=0;
   \   00000172   6675               STRB     R6,[R4, #+21]
   \   00000174   30E0               B        ??WizFiResponseCommand_AT_NCTCP_13
    802                    
    803          
    804                    
    805                  
    806                    
    807                  }else if (strstr(Buff_RX, "[ERROR")!=NULL)
   \                     ??WizFiResponseCommand_AT_NCTCP_2:
   \   00000176   2049               LDR      R1,??WizFiResponseCommand_AT_NCTCP_0+0x14  ;; AT_NCLOSE + 32
   \   00000178   0398               LDR      R0,[SP, #+12]
   \   0000017A   ........           BL       strstr
   \   0000017E   0028               CMP      R0,#+0
   \   00000180   2AD0               BEQ      ??WizFiResponseCommand_AT_NCTCP_13
    808                  {
    809                    if (strstr(Buff_RX, "NO CID]")!=NULL)
   \   00000182   1E49               LDR      R1,??WizFiResponseCommand_AT_NCTCP_0+0x18  ;; AT_NCLOSE + 24
   \   00000184   0398               LDR      R0,[SP, #+12]
   \   00000186   ........           BL       strstr
   \   0000018A   0028               CMP      R0,#+0
   \   0000018C   12D0               BEQ      ??WizFiResponseCommand_AT_NCTCP_14
    810                    {
    811                      
    812                      odp=0;
    813                      
    814                      //radykalne zabezpieczenie - tymczasowe(prawdopodobnie :-)  )
    815                      //AT91C_BASE_RSTC->RSTC_RCR = AT91C_RSTC_PROCRST | AT91C_RSTC_PERRST | AT91C_RSTC_KEY;   //restart sterownika    
    816                      
    817                       if (WiFiDebug) SendViaUSB((char*)AT_XRESET, sizeof(AT_XRESET)-1);
                                                        ^
Warning[Pe167]: argument of type "char *" is incompatible with parameter of
          type "unsigned char *"
   \   0000018E   1548               LDR      R0,??WizFiResponseCommand_AT_NCTCP_0  ;; WiFiDebug
   \   00000190   0078               LDRB     R0,[R0, #+0]
   \   00000192   0028               CMP      R0,#+0
   \   00000194   03D0               BEQ      ??WizFiResponseCommand_AT_NCTCP_15
   \   00000196   0A21               MOVS     R1,#+10
   \   00000198   1948               LDR      R0,??WizFiResponseCommand_AT_NCTCP_0+0x1C  ;; AT_NCLOSE + 56
   \   0000019A   ........           BL       SendViaUSB
    818                      AT91F_US_SendFrame(USART,(char*)AT_XRESET,sizeof(AT_XRESET)-1,0, 0);                        //Wysyla ramke resetuj¹c¹ modu³ WiFi 
                                                      ^
Warning[Pe167]: argument of type "char *" is incompatible with parameter of
          type "unsigned char *"
   \                     ??WizFiResponseCommand_AT_NCTCP_15:
   \   0000019E   82B0               SUB      SP,SP,#+8
   \   000001A0   3000               MOVS     R0,R6
   \   000001A2   0090               STR      R0,[SP, #+0]
   \   000001A4   0300               MOVS     R3,R0
   \   000001A6   0A22               MOVS     R2,#+10
   \   000001A8   1549               LDR      R1,??WizFiResponseCommand_AT_NCTCP_0+0x1C  ;; AT_NCLOSE + 56
   \   000001AA   0698               LDR      R0,[SP, #+24]
   \   000001AC   ........           BL       AT91F_US_SendFrame
   \   000001B0   02B0               ADD      SP,SP,#+8
   \   000001B2   11E0               B        ??WizFiResponseCommand_AT_NCTCP_13
    819                      
    820                    #ifdef _ADMINISTRATOR_
    821                                Message_Paint(2,"Reset","WiFi",""," ","");   
    822                    #endif            
    823                    }else{
    824                      odp=0;
    825                      for (char i=0; i<50; i++) Buff_RX[i]=0;                    
   \                     ??WizFiResponseCommand_AT_NCTCP_14:
   \   000001B4   3300               MOVS     R3,R6
   \   000001B6   04E0               B        ??WizFiResponseCommand_AT_NCTCP_16
   \                     ??WizFiResponseCommand_AT_NCTCP_17:
   \   000001B8   039A               LDR      R2,[SP, #+12]
   \   000001BA   5354               STRB     R3,[R2, R1]
   \   000001BC   401C               ADDS     R0,R0,#+1
   \   000001BE   0006               LSLS     R0,R0,#+24
   \   000001C0   000E               LSRS     R0,R0,#+24
   \                     ??WizFiResponseCommand_AT_NCTCP_16:
   \   000001C2   0100               MOVS     R1,R0
   \   000001C4   3229               CMP      R1,#+50
   \   000001C6   F7D3               BCC      ??WizFiResponseCommand_AT_NCTCP_17
    826                      Net->Status.HostLink=DISCONNECTED;
   \   000001C8   6670               STRB     R6,[R4, #+1]
    827                      Net->Status.FreezTime=0;
   \   000001CA   1800               MOVS     R0,R3
   \   000001CC   0100               MOVS     R1,R0
   \   000001CE   2064               STR      R0,[R4, #+64]
   \   000001D0   6164               STR      R1,[R4, #+68]
    828                      
    829                      Net->Status.Error++;
   \   000001D2   607D               LDRB     R0,[R4, #+21]
   \   000001D4   401C               ADDS     R0,R0,#+1
   \   000001D6   6075               STRB     R0,[R4, #+21]
    830                    }
    831                    
    832                  }
    833                    
    834          
    835             return odp;
   \                     ??WizFiResponseCommand_AT_NCTCP_13:
   \   000001D8   6846               MOV      R0,SP
   \   000001DA   0078               LDRB     R0,[R0, #+0]
   \   000001DC   05B0               ADD      SP,SP,#+20
   \   000001DE   F0BC               POP      {R4-R7}
   \   000001E0   02BC               POP      {R1}
   \   000001E2   0847               BX       R1               ;; return
   \                     ??WizFiResponseCommand_AT_NCTCP_0:
   \   000001E4   ........           DC32     WiFiDebug
   \   000001E8   ........           DC32     AT_NCLOSE + 12
   \   000001EC   ........           DC32     g_counter
   \   000001F0   10270000           DC32     0x2710
   \   000001F4   ........           DC32     AT_NCLOSE
   \   000001F8   ........           DC32     AT_NCLOSE + 32
   \   000001FC   ........           DC32     AT_NCLOSE + 24
   \   00000200   ........           DC32     AT_NCLOSE + 56
    836          }
    837          
    838          
    839          
    840          
    841           
    842          
    843          
    844          
    845          //funkcja konwertuje napis na wartoæ short int --------------------------------
    846          // Txt  -wskanik na ci¹g
    847          // Cyfr -funkcja zwraca iloæ cyfr w ci¹gu
    848          // funkcja zwraca wartoæ short int

   \                                 In section Debug.txt, align 4, keep-with-next
    849          signed short int StrToWord(char *String, char *Cyfr)
    850          {
   \                     StrToWord:
   \   00000000   F7B5               PUSH     {R0-R2,R4-R7,LR}
    851             char *Txt=String;
   \   00000002   0023               MOVS     R3,#+0
    852             char LiczbaTab[5];
    853             char IlCyfr=0;
    854             signed char Min=1;
   \   00000004   0122               MOVS     R2,#+1
   \   00000006   1400               MOVS     R4,R2
   \   00000008   08E0               B        ??StrToWord_0
    855             
    856             while ((((*Txt>='0') && (*Txt<='9')) || (*Txt=='-')) && (IlCyfr<5))
    857             {
    858                if (*Txt=='-')
    859                {
    860                   Min=-1;
    861                }else{
    862                   LiczbaTab[IlCyfr++]=*Txt-48;
   \                     ??StrToWord_1:
   \   0000000A   1F00               MOVS     R7,R3
   \   0000000C   6D46               MOV      R5,SP
   \   0000000E   0678               LDRB     R6,[R0, #+0]
   \   00000010   303E               SUBS     R6,R6,#+48
   \   00000012   EE55               STRB     R6,[R5, R7]
   \   00000014   5B1C               ADDS     R3,R3,#+1
   \   00000016   1B06               LSLS     R3,R3,#+24
   \   00000018   1B0E               LSRS     R3,R3,#+24
    863                }
    864                *Txt++;
   \                     ??StrToWord_2:
   \   0000001A   401C               ADDS     R0,R0,#+1
   \                     ??StrToWord_0:
   \   0000001C   0578               LDRB     R5,[R0, #+0]
   \   0000001E   302D               CMP      R5,#+48
   \   00000020   01D3               BCC      ??StrToWord_3
   \   00000022   3A2D               CMP      R5,#+58
   \   00000024   01D3               BCC      ??StrToWord_4
   \                     ??StrToWord_3:
   \   00000026   2D2D               CMP      R5,#+45
   \   00000028   08D1               BNE      ??StrToWord_5
   \                     ??StrToWord_4:
   \   0000002A   1D00               MOVS     R5,R3
   \   0000002C   052D               CMP      R5,#+5
   \   0000002E   05D2               BCS      ??StrToWord_5
   \   00000030   0578               LDRB     R5,[R0, #+0]
   \   00000032   2D2D               CMP      R5,#+45
   \   00000034   E9D1               BNE      ??StrToWord_1
   \   00000036   0024               MOVS     R4,#+0
   \   00000038   E443               MVNS     R4,R4            ;; #-1
   \   0000003A   EEE7               B        ??StrToWord_2
    865             }
    866             *Cyfr=IlCyfr;
   \                     ??StrToWord_5:
   \   0000003C   1800               MOVS     R0,R3
   \   0000003E   0870               STRB     R0,[R1, #+0]
    867             
    868             int Mnoz=1;
    869             signed short int Wartosc=0; 
   \   00000040   0020               MOVS     R0,#+0
   \   00000042   0CE0               B        ??StrToWord_6
    870             while (IlCyfr>0)
    871             {
    872                 Wartosc+=LiczbaTab[--IlCyfr]*Mnoz;
   \                     ??StrToWord_7:
   \   00000044   5B1E               SUBS     R3,R3,#+1
   \   00000046   1B06               LSLS     R3,R3,#+24
   \   00000048   1B0E               LSRS     R3,R3,#+24
   \   0000004A   1900               MOVS     R1,R3
   \   0000004C   6D46               MOV      R5,SP
   \   0000004E   695C               LDRB     R1,[R5, R1]
   \   00000050   1500               MOVS     R5,R2
   \   00000052   6943               MULS     R1,R5,R1
   \   00000054   4018               ADDS     R0,R0,R1
   \   00000056   0004               LSLS     R0,R0,#+16
   \   00000058   0014               ASRS     R0,R0,#+16
    873                 Mnoz*=10;
   \   0000005A   0A21               MOVS     R1,#+10
   \   0000005C   4A43               MULS     R2,R1,R2
    874             }
   \                     ??StrToWord_6:
   \   0000005E   1900               MOVS     R1,R3
   \   00000060   F0D1               BNE      ??StrToWord_7
    875             Wartosc*=Min;
    876             
    877             return Wartosc;
   \   00000062   6043               MULS     R0,R4,R0
   \   00000064   0004               LSLS     R0,R0,#+16
   \   00000066   0014               ASRS     R0,R0,#+16
   \   00000068   FEBC               POP      {R1-R7}
   \   0000006A   02BC               POP      {R1}
   \   0000006C   0847               BX       R1               ;; return
    878          }//_____________________________________________________________________________
    879          
    880          

   \                                 In section Debug.txt, align 4, keep-with-next
    881          unsigned short GetSpecialAnalogVar(char ZmSp)
    882          {
   \                     GetSpecialAnalogVar:
   \   00000000   01B5               PUSH     {R0,LR}
    883             char sc;
    884             
    885             if (ZmSp<ScreenNr)       //zmienne czujnika termostatu
   \   00000002   0828               CMP      R0,#+8
   \   00000004   1CD2               BCS      ??GetSpecialAnalogVar_0
    886             {
    887                  sc=ZmSp;
   \   00000006   1849               LDR      R1,??GetSpecialAnalogVar_1  ;; 0xbc27
   \   00000008   A022               MOVS     R2,#+160
   \   0000000A   5043               MULS     R0,R2,R0
   \   0000000C   174A               LDR      R2,??GetSpecialAnalogVar_1+0x4  ;; gProg
   \   0000000E   1018               ADDS     R0,R2,R0
   \   00000010   4118               ADDS     R1,R0,R1
   \   00000012   0020               MOVS     R0,#+0
   \   00000014   0A56               LDRSB    R2,[R1, R0]
   \   00000016   002A               CMP      R2,#+0
   \   00000018   06D5               BPL      ??GetSpecialAnalogVar_2
    888                  if (gProg.Screen[sc].Thermo.SensorNode<0) //je¿eli zmienna
    889                     {
    890                       return VariablesAnal[gProg.Screen[sc].Thermo.SensorReg];
   \   0000001A   4878               LDRB     R0,[R1, #+1]
   \   0000001C   4000               LSLS     R0,R0,#+1
   \   0000001E   1449               LDR      R1,??GetSpecialAnalogVar_1+0x8  ;; VariablesAnal
   \   00000020   085E               LDRSH    R0,[R1, R0]
   \   00000022   0004               LSLS     R0,R0,#+16
   \   00000024   000C               LSRS     R0,R0,#+16
   \   00000026   1CE0               B        ??GetSpecialAnalogVar_3
    891                     }else{
    892                       return MainStage.StageI[gProg.Screen[sc].Thermo.SensorNode].Value[gProg.Screen[sc].Thermo.SensorReg];
   \                     ??GetSpecialAnalogVar_2:
   \   00000028   A020               MOVS     R0,#+160
   \   0000002A   4978               LDRB     R1,[R1, #+1]
   \   0000002C   4900               LSLS     R1,R1,#+1
   \   0000002E   1623               MOVS     R3,#+22
   \   00000030   5A43               MULS     R2,R3,R2
   \   00000032   104B               LDR      R3,??GetSpecialAnalogVar_1+0xC  ;; MainStage
   \   00000034   9A18               ADDS     R2,R3,R2
   \   00000036   5118               ADDS     R1,R2,R1
   \   00000038   085E               LDRSH    R0,[R1, R0]
   \   0000003A   0004               LSLS     R0,R0,#+16
   \   0000003C   000C               LSRS     R0,R0,#+16
   \   0000003E   10E0               B        ??GetSpecialAnalogVar_3
    893                     }
    894             }
    895             else if ((ZmSp>=10) && (ZmSp<10+ScreenNr))       //zmienne czujnika termostatu
   \                     ??GetSpecialAnalogVar_0:
   \   00000040   0A28               CMP      R0,#+10
   \   00000042   0DD3               BCC      ??GetSpecialAnalogVar_4
   \   00000044   1228               CMP      R0,#+18
   \   00000046   0BD2               BCS      ??GetSpecialAnalogVar_4
    896             {
    897                     sc=ZmSp-10;
    898                     return gProg.Screen[sc].Thermo.SetTemperature;
   \   00000048   0B49               LDR      R1,??GetSpecialAnalogVar_1+0x10  ;; 0xbc2e
   \   0000004A   0A38               SUBS     R0,R0,#+10
   \   0000004C   0006               LSLS     R0,R0,#+24
   \   0000004E   000E               LSRS     R0,R0,#+24
   \   00000050   A022               MOVS     R2,#+160
   \   00000052   5043               MULS     R0,R2,R0
   \   00000054   054A               LDR      R2,??GetSpecialAnalogVar_1+0x4  ;; gProg
   \   00000056   1018               ADDS     R0,R2,R0
   \   00000058   405E               LDRSH    R0,[R0, R1]
   \   0000005A   0004               LSLS     R0,R0,#+16
   \   0000005C   000C               LSRS     R0,R0,#+16
   \   0000005E   00E0               B        ??GetSpecialAnalogVar_3
    899              
    900             }
    901             return 0;
   \                     ??GetSpecialAnalogVar_4:
   \   00000060   0020               MOVS     R0,#+0
   \                     ??GetSpecialAnalogVar_3:
   \   00000062   08BC               POP      {R3}
   \   00000064   02BC               POP      {R1}
   \   00000066   0847               BX       R1               ;; return
   \                     ??GetSpecialAnalogVar_1:
   \   00000068   27BC0000           DC32     0xbc27
   \   0000006C   ........           DC32     gProg
   \   00000070   ........           DC32     VariablesAnal
   \   00000074   ........           DC32     MainStage
   \   00000078   2EBC0000           DC32     0xbc2e
    902            
    903          }
    904          
    905          

   \                                 In section Debug.txt, align 4, keep-with-next
    906          char GetSpecialBinarVar(char ZmSp)
    907          {
   \                     GetSpecialBinarVar:
   \   00000000   10B5               PUSH     {R4,LR}
    908             char sc;
    909            
    910             if (ZmSp<ScreenNr)       //zmienne  termostatu  AutoOn
   \   00000002   0828               CMP      R0,#+8
   \   00000004   06D2               BCS      ??GetSpecialBinarVar_0
    911             {
    912                  return gProg.Screen[ZmSp].Thermo.AutoOn;
   \   00000006   2E49               LDR      R1,??GetSpecialBinarVar_1  ;; 0xbc26
   \   00000008   A022               MOVS     R2,#+160
   \   0000000A   5043               MULS     R0,R2,R0
   \   0000000C   2D4A               LDR      R2,??GetSpecialBinarVar_1+0x4  ;; gProg
   \   0000000E   1018               ADDS     R0,R2,R0
   \   00000010   405C               LDRB     R0,[R0, R1]
   \   00000012   51E0               B        ??GetSpecialBinarVar_2
    913             }
    914             else if ((ZmSp>=10) && (ZmSp<10+ScreenNr))       //zmienne  termostatu Temp. zad w AutoOn
   \                     ??GetSpecialBinarVar_0:
   \   00000014   0A28               CMP      R0,#+10
   \   00000016   1DD3               BCC      ??GetSpecialBinarVar_3
   \   00000018   1228               CMP      R0,#+18
   \   0000001A   1BD2               BCS      ??GetSpecialBinarVar_3
    915             {
    916                 sc=ZmSp-10;
   \   0000001C   0A38               SUBS     R0,R0,#+10
   \   0000001E   0006               LSLS     R0,R0,#+24
   \   00000020   000E               LSRS     R0,R0,#+24
    917                char MaxTmp;
    918                if (gProg.Screen[sc].Thermo.Temperature[0]>gProg.Screen[sc].Thermo.Temperature[1])
   \   00000022   2849               LDR      R1,??GetSpecialBinarVar_1+0x4  ;; gProg
   \   00000024   284A               LDR      R2,??GetSpecialBinarVar_1+0x8  ;; 0xbc2a
   \   00000026   A023               MOVS     R3,#+160
   \   00000028   5843               MULS     R0,R3,R0
   \   0000002A   0818               ADDS     R0,R1,R0
   \   0000002C   8018               ADDS     R0,R0,R2
   \   0000002E   0221               MOVS     R1,#+2
   \   00000030   415E               LDRSH    R1,[R0, R1]
   \   00000032   0022               MOVS     R2,#+0
   \   00000034   825E               LDRSH    R2,[R0, R2]
   \   00000036   9142               CMP      R1,R2
   \   00000038   01DA               BGE      ??GetSpecialBinarVar_4
    919                {
    920                  MaxTmp=gProg.Screen[sc].Thermo.Temperature[0]; 
   \   0000003A   0188               LDRH     R1,[R0, #+0]
   \   0000003C   00E0               B        ??GetSpecialBinarVar_5
    921                }else{
    922                  MaxTmp=gProg.Screen[sc].Thermo.Temperature[1];
   \                     ??GetSpecialBinarVar_4:
   \   0000003E   4188               LDRH     R1,[R0, #+2]
    923                }
    924                
    925                if (gProg.Screen[sc].Thermo.SetTemperature==MaxTmp)
   \                     ??GetSpecialBinarVar_5:
   \   00000040   0422               MOVS     R2,#+4
   \   00000042   805E               LDRSH    R0,[R0, R2]
   \   00000044   0906               LSLS     R1,R1,#+24
   \   00000046   090E               LSRS     R1,R1,#+24
   \   00000048   8842               CMP      R0,R1
   \   0000004A   01D1               BNE      ??GetSpecialBinarVar_6
    926                {
    927                 return 1;  
   \   0000004C   0120               MOVS     R0,#+1
   \   0000004E   33E0               B        ??GetSpecialBinarVar_2
    928                }else{
    929                 return 0;      
   \                     ??GetSpecialBinarVar_6:
   \   00000050   0020               MOVS     R0,#+0
   \   00000052   31E0               B        ??GetSpecialBinarVar_2
    930                }     
    931                    
    932                  
    933             }
    934             else if ((ZmSp>=40) && (ZmSp<40+ScreenNr))       //zmienne  termostatu Temp. zad w AutoOn
   \                     ??GetSpecialBinarVar_3:
   \   00000054   2828               CMP      R0,#+40
   \   00000056   2ED3               BCC      ??GetSpecialBinarVar_7
   \   00000058   3028               CMP      R0,#+48
   \   0000005A   2CD2               BCS      ??GetSpecialBinarVar_7
    935             {
    936                sc=ZmSp-40;
   \   0000005C   2838               SUBS     R0,R0,#+40
   \   0000005E   0006               LSLS     R0,R0,#+24
   \   00000060   000E               LSRS     R0,R0,#+24
    937                
    938                char res=0;
   \   00000062   0024               MOVS     R4,#+0
    939                
    940                  if ((gProg.Screen[sc].Thermo.ActorNode<0xFF) && (gProg.Screen[sc].Thermo.ActorNode>=0))   //je¿eli wêze³
   \   00000064   1749               LDR      R1,??GetSpecialBinarVar_1+0x4  ;; gProg
   \   00000066   194A               LDR      R2,??GetSpecialBinarVar_1+0xC  ;; 0xbc24
   \   00000068   A023               MOVS     R3,#+160
   \   0000006A   5843               MULS     R0,R3,R0
   \   0000006C   0818               ADDS     R0,R1,R0
   \   0000006E   8218               ADDS     R2,R0,R2
   \   00000070   5178               LDRB     R1,[R2, #+1]
   \   00000072   0020               MOVS     R0,#+0
   \   00000074   1056               LDRSB    R0,[R2, R0]
   \   00000076   0028               CMP      R0,#+0
   \   00000078   0FD4               BMI      ??GetSpecialBinarVar_8
    941                  {
    942                    if ((PortStageRead(MainStage.StageQ[gProg.Screen[sc].Thermo.ActorNode].Port , gProg.Screen[sc].Thermo.ActorPort))==1) res=1;
   \   0000007A   1548               LDR      R0,??GetSpecialBinarVar_1+0x10  ;; 0x3a2
   \   0000007C   0023               MOVS     R3,#+0
   \   0000007E   D256               LDRSB    R2,[R2, R3]
   \   00000080   1623               MOVS     R3,#+22
   \   00000082   5A43               MULS     R2,R3,R2
   \   00000084   134B               LDR      R3,??GetSpecialBinarVar_1+0x14  ;; MainStage
   \   00000086   9A18               ADDS     R2,R3,R2
   \   00000088   105A               LDRH     R0,[R2, R0]
   \   0000008A   0004               LSLS     R0,R0,#+16
   \   0000008C   0014               ASRS     R0,R0,#+16
   \   0000008E   ........           BL       PortStageRead
   \   00000092   0128               CMP      R0,#+1
   \   00000094   0DD1               BNE      ??GetSpecialBinarVar_9
   \   00000096   0124               MOVS     R4,#+1
   \   00000098   0BE0               B        ??GetSpecialBinarVar_9
    943                  }else{  //Je¿eli zmienna
    944                    if(((Variables[gProg.Screen[sc].Thermo.ActorPort/8]>> (gProg.Screen[sc].Thermo.ActorPort%8))&0x1)==1) res=1;
   \                     ??GetSpecialBinarVar_8:
   \   0000009A   0800               MOVS     R0,R1
   \   0000009C   C010               ASRS     R0,R0,#+3
   \   0000009E   0E4A               LDR      R2,??GetSpecialBinarVar_1+0x18  ;; Variables
   \   000000A0   105C               LDRB     R0,[R2, R0]
   \   000000A2   0A00               MOVS     R2,R1
   \   000000A4   D208               LSRS     R2,R2,#+3
   \   000000A6   D200               LSLS     R2,R2,#+3
   \   000000A8   891A               SUBS     R1,R1,R2
   \   000000AA   0841               ASRS     R0,R0,R1
   \   000000AC   C007               LSLS     R0,R0,#+31
   \   000000AE   00D5               BPL      ??GetSpecialBinarVar_9
   \   000000B0   0124               MOVS     R4,#+1
    945                  }
    946                
    947                
    948                return res;
   \                     ??GetSpecialBinarVar_9:
   \   000000B2   2000               MOVS     R0,R4
   \   000000B4   00E0               B        ??GetSpecialBinarVar_2
    949             }
    950             
    951             return 0;
   \                     ??GetSpecialBinarVar_7:
   \   000000B6   0020               MOVS     R0,#+0
   \                     ??GetSpecialBinarVar_2:
   \   000000B8   10BC               POP      {R4}
   \   000000BA   02BC               POP      {R1}
   \   000000BC   0847               BX       R1               ;; return
   \   000000BE   C046               Nop      
   \                     ??GetSpecialBinarVar_1:
   \   000000C0   26BC0000           DC32     0xbc26
   \   000000C4   ........           DC32     gProg
   \   000000C8   2ABC0000           DC32     0xbc2a
   \   000000CC   24BC0000           DC32     0xbc24
   \   000000D0   A2030000           DC32     0x3a2
   \   000000D4   ........           DC32     MainStage
   \   000000D8   ........           DC32     Variables
    952          }  
    953            
    954          
    955          
    956          
    957          

   \                                 In section Debug.txt, align 4, keep-with-next
    958          void SetSpecialBinarVar(char ZmSp, char Val, _Net *Net)
    959          {
   \                     SetSpecialBinarVar:
   \   00000000   31B5               PUSH     {R0,R4,R5,LR}
    960             char sc;
    961            
    962             if (ZmSp<ScreenNr)       //zmienne  termostatu  AutoOn
   \   00000002   0828               CMP      R0,#+8
   \   00000004   17D2               BCS      ??SetSpecialBinarVar_0
    963             {
    964                 
    965                if (Val) gProg.Screen[ZmSp].Thermo.AutoOn=1; else gProg.Screen[ZmSp].Thermo.AutoOn=0;
   \   00000006   324B               LDR      R3,??SetSpecialBinarVar_1  ;; 0xbc26
   \   00000008   A024               MOVS     R4,#+160
   \   0000000A   6043               MULS     R0,R4,R0
   \   0000000C   314C               LDR      R4,??SetSpecialBinarVar_1+0x4  ;; gProg
   \   0000000E   2018               ADDS     R0,R4,R0
   \   00000010   0C00               MOVS     R4,R1
   \   00000012   641E               SUBS     R4,R4,#+1
   \   00000014   A441               SBCS     R4,R4,R4
   \   00000016   E443               MVNS     R4,R4
   \   00000018   E40F               LSRS     R4,R4,#+31
   \   0000001A   C454               STRB     R4,[R0, R3]
    966                Net->Status.NextHttpOrder=HTTP_POST;
   \                     ??SetSpecialBinarVar_2:
   \   0000001C   1220               MOVS     R0,#+18
   \   0000001E   D070               STRB     R0,[R2, #+3]
    967                ThermostatsTimeChartExecute(); 
   \   00000020   ........           BL       ThermostatsTimeChartExecute
    968                ThermostatsExecute();
   \   00000024   ........           BL       ThermostatsExecute
    969                MenuPaint();
   \   00000028   ........           BL       MenuPaint
    970                ExecuteSpecialThermVar();
                       ^
Warning[Pe223]: function "ExecuteSpecialThermVar" declared implicitly
   \   0000002C   ........           BL       ExecuteSpecialThermVar
    971                 
    972             }
    973             else if ((ZmSp>=10) && (ZmSp<10+ScreenNr))       //zmienne  termostatu Temp. zad w AutoOn
    974             {
    975                sc=ZmSp-10;
    976                char MaxTmp;
    977                char MinTmp;
    978                if (gProg.Screen[sc].Thermo.Temperature[0]>gProg.Screen[sc].Thermo.Temperature[1])
    979                {
    980                  MaxTmp=gProg.Screen[sc].Thermo.Temperature[0]; 
    981                  MinTmp=gProg.Screen[sc].Thermo.Temperature[1];
    982                }else{
    983                  MaxTmp=gProg.Screen[sc].Thermo.Temperature[1];
    984                  MinTmp=gProg.Screen[sc].Thermo.Temperature[0];
    985                }
    986                
    987                if (Val)
    988                {
    989                    gProg.Screen[sc].Thermo.SetTemperature=MaxTmp;
    990                }else{
    991                    gProg.Screen[sc].Thermo.SetTemperature=MinTmp; 
    992                }
    993                Net->Status.NextHttpOrder=HTTP_POST;
    994                ThermostatsTimeChartExecute(); 
    995                ThermostatsExecute();
    996                MenuPaint();
    997                ExecuteSpecialThermVar();
                       ^
Warning[Pe223]: function "ExecuteSpecialThermVar" declared implicitly
    998             }else if ((ZmSp>=20) && (ZmSp<20+ScreenNr))       //zmienne  termostatu temp+ w trybie Auto
    999             {
   1000                sc=ZmSp-20;
   1001                if ((gProg.Screen[sc].Thermo.SetTemperature)<500) {gProg.Screen[sc].Thermo.SetTemperature++;}
   1002                Net->Status.NextHttpOrder=HTTP_POST;
   1003                ThermostatsTimeChartExecute(); 
   1004                ThermostatsExecute();
   1005                MenuPaint();
   1006                ExecuteSpecialThermVar();
                       ^
Warning[Pe223]: function "ExecuteSpecialThermVar" declared implicitly
   1007             }else if ((ZmSp>=30) && (ZmSp<30+ScreenNr))       //zmienne  termostatu temp+ w trybie Auto
   1008             {
   1009                sc=ZmSp-30;
   1010                if ((gProg.Screen[sc].Thermo.SetTemperature)>0) {gProg.Screen[sc].Thermo.SetTemperature--;}
   1011                Net->Status.NextHttpOrder=HTTP_POST;
   1012                ThermostatsTimeChartExecute(); 
   1013                ThermostatsExecute();
   1014                MenuPaint();
   1015                ExecuteSpecialThermVar();
                       ^
Warning[Pe223]: function "ExecuteSpecialThermVar" declared implicitly
   1016             }
   1017          
   1018          }  
   \                     ??SetSpecialBinarVar_3:
   \   00000030   38BC               POP      {R3-R5}
   \   00000032   01BC               POP      {R0}
   \   00000034   0047               BX       R0               ;; return
   \                     ??SetSpecialBinarVar_0:
   \   00000036   0A28               CMP      R0,#+10
   \   00000038   1FD3               BCC      ??SetSpecialBinarVar_4
   \   0000003A   1228               CMP      R0,#+18
   \   0000003C   1DD2               BCS      ??SetSpecialBinarVar_4
   \   0000003E   0A38               SUBS     R0,R0,#+10
   \   00000040   0006               LSLS     R0,R0,#+24
   \   00000042   000E               LSRS     R0,R0,#+24
   \   00000044   234B               LDR      R3,??SetSpecialBinarVar_1+0x4  ;; gProg
   \   00000046   244C               LDR      R4,??SetSpecialBinarVar_1+0x8  ;; 0xbc2a
   \   00000048   A025               MOVS     R5,#+160
   \   0000004A   6843               MULS     R0,R5,R0
   \   0000004C   1818               ADDS     R0,R3,R0
   \   0000004E   0019               ADDS     R0,R0,R4
   \   00000050   0223               MOVS     R3,#+2
   \   00000052   C35E               LDRSH    R3,[R0, R3]
   \   00000054   0024               MOVS     R4,#+0
   \   00000056   045F               LDRSH    R4,[R0, R4]
   \   00000058   A342               CMP      R3,R4
   \   0000005A   02DA               BGE      ??SetSpecialBinarVar_5
   \   0000005C   0388               LDRH     R3,[R0, #+0]
   \   0000005E   4488               LDRH     R4,[R0, #+2]
   \   00000060   01E0               B        ??SetSpecialBinarVar_6
   \                     ??SetSpecialBinarVar_5:
   \   00000062   4388               LDRH     R3,[R0, #+2]
   \   00000064   0488               LDRH     R4,[R0, #+0]
   \                     ??SetSpecialBinarVar_6:
   \   00000066   0029               CMP      R1,#+0
   \   00000068   03D0               BEQ      ??SetSpecialBinarVar_7
   \   0000006A   1B06               LSLS     R3,R3,#+24
   \   0000006C   1B0E               LSRS     R3,R3,#+24
   \   0000006E   8380               STRH     R3,[R0, #+4]
   \   00000070   D4E7               B        ??SetSpecialBinarVar_2
   \                     ??SetSpecialBinarVar_7:
   \   00000072   2406               LSLS     R4,R4,#+24
   \   00000074   240E               LSRS     R4,R4,#+24
   \   00000076   8480               STRH     R4,[R0, #+4]
   \   00000078   D0E7               B        ??SetSpecialBinarVar_2
   \                     ??SetSpecialBinarVar_4:
   \   0000007A   1428               CMP      R0,#+20
   \   0000007C   13D3               BCC      ??SetSpecialBinarVar_8
   \   0000007E   1C28               CMP      R0,#+28
   \   00000080   11D2               BCS      ??SetSpecialBinarVar_8
   \   00000082   1438               SUBS     R0,R0,#+20
   \   00000084   0006               LSLS     R0,R0,#+24
   \   00000086   000E               LSRS     R0,R0,#+24
   \   00000088   124B               LDR      R3,??SetSpecialBinarVar_1+0x4  ;; gProg
   \   0000008A   1449               LDR      R1,??SetSpecialBinarVar_1+0xC  ;; 0xbc2e
   \   0000008C   A024               MOVS     R4,#+160
   \   0000008E   6043               MULS     R0,R4,R0
   \   00000090   1818               ADDS     R0,R3,R0
   \   00000092   4018               ADDS     R0,R0,R1
   \   00000094   0021               MOVS     R1,#+0
   \   00000096   415E               LDRSH    R1,[R0, R1]
   \   00000098   FA23               MOVS     R3,#+250
   \   0000009A   5B00               LSLS     R3,R3,#+1        ;; #+500
   \   0000009C   9942               CMP      R1,R3
   \   0000009E   BDDA               BGE      ??SetSpecialBinarVar_2
   \   000000A0   491C               ADDS     R1,R1,#+1
   \   000000A2   0180               STRH     R1,[R0, #+0]
   \   000000A4   BAE7               B        ??SetSpecialBinarVar_2
   \                     ??SetSpecialBinarVar_8:
   \   000000A6   1E28               CMP      R0,#+30
   \   000000A8   C2D3               BCC      ??SetSpecialBinarVar_3
   \   000000AA   2628               CMP      R0,#+38
   \   000000AC   C0D2               BCS      ??SetSpecialBinarVar_3
   \   000000AE   1E38               SUBS     R0,R0,#+30
   \   000000B0   0006               LSLS     R0,R0,#+24
   \   000000B2   000E               LSRS     R0,R0,#+24
   \   000000B4   074B               LDR      R3,??SetSpecialBinarVar_1+0x4  ;; gProg
   \   000000B6   0949               LDR      R1,??SetSpecialBinarVar_1+0xC  ;; 0xbc2e
   \   000000B8   A024               MOVS     R4,#+160
   \   000000BA   6043               MULS     R0,R4,R0
   \   000000BC   1818               ADDS     R0,R3,R0
   \   000000BE   4018               ADDS     R0,R0,R1
   \   000000C0   0021               MOVS     R1,#+0
   \   000000C2   415E               LDRSH    R1,[R0, R1]
   \   000000C4   0129               CMP      R1,#+1
   \   000000C6   A9DB               BLT      ??SetSpecialBinarVar_2
   \   000000C8   491E               SUBS     R1,R1,#+1
   \   000000CA   0180               STRH     R1,[R0, #+0]
   \   000000CC   A6E7               B        ??SetSpecialBinarVar_2
   \   000000CE   C046               Nop      
   \                     ??SetSpecialBinarVar_1:
   \   000000D0   26BC0000           DC32     0xbc26
   \   000000D4   ........           DC32     gProg
   \   000000D8   2ABC0000           DC32     0xbc2a
   \   000000DC   2EBC0000           DC32     0xbc2e
   1019            
   1020          
   1021          
   1022          //Funkcja wys³ania zadania HTTP

   \                                 In section Debug.txt, align 4, keep-with-next
   1023          void HTTP_Query(char *Buff_RX, char *Buff_TX,  AT91PS_USART USART, _Net *Net)
   1024          {
   \                     HTTP_Query:
   \   00000000   FDB5               PUSH     {R0,R2-R7,LR}
   \   00000002   8AB0               SUB      SP,SP,#+40
   \   00000004   0C00               MOVS     R4,R1
   \   00000006   0020               MOVS     R0,#+0
   \   00000008   04E0               B        ??HTTP_Query_0
   1025          
   1026                          
   1027                     //wysy³anie danych ------------------------------------
   1028                     
   1029                     short BTS=0;
   1030                     for (short i=0; i<sizeof(Buff_TX); i++) Buff_TX[i]=0;
   \                     ??HTTP_Query_1:
   \   0000000A   0021               MOVS     R1,#+0
   \   0000000C   2154               STRB     R1,[R4, R0]
   \   0000000E   401C               ADDS     R0,R0,#+1
   \   00000010   0004               LSLS     R0,R0,#+16
   \   00000012   0014               ASRS     R0,R0,#+16
   \                     ??HTTP_Query_0:
   \   00000014   0100               MOVS     R1,R0
   \   00000016   0904               LSLS     R1,R1,#+16
   \   00000018   090C               LSRS     R1,R1,#+16
   \   0000001A   0429               CMP      R1,#+4
   \   0000001C   F5D3               BCC      ??HTTP_Query_1
   \   0000001E   1B20               MOVS     R0,#+27
   \   00000020   2070               STRB     R0,[R4, #+0]
   1031                     Buff_TX[BTS++]=0x1B;
   1032                     Buff_TX[BTS++]='S';
   \   00000022   5320               MOVS     R0,#+83
   \   00000024   6070               STRB     R0,[R4, #+1]
   1033                     Buff_TX[BTS++]=Net->Status.HostChannel;     //numer kana³u [przydzielony przez serwer
   \   00000026   0C98               LDR      R0,[SP, #+48]
   \   00000028   401C               ADDS     R0,R0,#+1
   \   0000002A   0190               STR      R0,[SP, #+4]
   \   0000002C   407D               LDRB     R0,[R0, #+21]
   \   0000002E   A070               STRB     R0,[R4, #+2]
   \   00000030   0325               MOVS     R5,#+3
   1034                     
   1035                                               
   1036                     char Send=0; 
   \   00000032   0026               MOVS     R6,#+0
   1037                     char txt[16]; 
   1038                     //czyszczenie bufora nadawczego
   1039                     char *PozIlByte;
   1040                     switch (Net->Status.CurrentOrder)     
   \   00000034   0198               LDR      R0,[SP, #+4]
   \   00000036   4078               LDRB     R0,[R0, #+1]
   \   00000038   1228               CMP      R0,#+18
   \   0000003A   00D1               BNE      .+4
   \   0000003C   A0E0               B        ??HTTP_Query_2
   \   0000003E   1328               CMP      R0,#+19
   \   00000040   50D0               BEQ      ??HTTP_Query_3
   \   00000042   1428               CMP      R0,#+20
   \   00000044   00D0               BEQ      .+4
   \   00000046   C4E3               B        ??HTTP_Query_4
   1041                     {
   1042                        case HTTP_GET_Config:              //proba o podanie konfiguracji zestawu zmiennych
   1043                              strcat(Buff_TX,"GET ");
   \   00000048   D24D               LDR      R5,??HTTP_Query_5  ;; `?<Constant "GET ">`
   \   0000004A   2900               MOVS     R1,R5
   \   0000004C   2000               MOVS     R0,R4
   \   0000004E   ........           BL       strcat
   1044                              strcat(Buff_TX,Net->WiFi.Path);
   \   00000052   0C99               LDR      R1,[SP, #+48]
   \   00000054   DB31               ADDS     R1,R1,#+219
   \   00000056   2000               MOVS     R0,R4
   \   00000058   ........           BL       strcat
   1045                              strcat(Buff_TX,"/dc");
   \   0000005C   CEA1               ADR      R1,??HTTP_Query_5+0x4  ;; "/dc"
   \   0000005E   2000               MOVS     R0,R4
   \   00000060   ........           BL       strcat
   1046                              sprintf(txt, "%d",RF_Status.RF_ID_R);
                                     ^
Warning[Pe223]: function "sprintf" declared implicitly
   \   00000064   CD48               LDR      R0,??HTTP_Query_5+0x8  ;; RF_Status + 28
   \   00000066   0268               LDR      R2,[R0, #+0]
   \   00000068   CDA1               ADR      R1,??HTTP_Query_5+0xC  ;; 0x25, 0x64, 0x00, 0x00
   \   0000006A   05A8               ADD      R0,SP,#+20
   \   0000006C   ........           BL       sprintf
   1047                              strcat(Buff_TX,txt);
   \   00000070   05A9               ADD      R1,SP,#+20
   \   00000072   2000               MOVS     R0,R4
   \   00000074   ........           BL       strcat
   1048                              strcat(Buff_TX,".csv HTTP/1.1\r\n");
   \   00000078   2900               MOVS     R1,R5
   \   0000007A   0831               ADDS     R1,R1,#+8
   \   0000007C   2000               MOVS     R0,R4
   \   0000007E   ........           BL       strcat
   1049                              strcat(Buff_TX,"User-Agent: CEURON\r\nHost: ");
   \   00000082   2900               MOVS     R1,R5
   \   00000084   1831               ADDS     R1,R1,#+24
   \   00000086   2000               MOVS     R0,R4
   \   00000088   ........           BL       strcat
   1050                              if ((Net->WiFi.Subdomena[0]>47)&&(Net->WiFi.Subdomena[0]<123)) {strcat(Buff_TX,Net->WiFi.Subdomena); strcat(Buff_TX,".");}
   \   0000008C   0C98               LDR      R0,[SP, #+48]
   \   0000008E   CC30               ADDS     R0,R0,#+204
   \   00000090   0178               LDRB     R1,[R0, #+0]
   \   00000092   3029               CMP      R1,#+48
   \   00000094   0BD3               BCC      ??HTTP_Query_6
   \   00000096   0800               MOVS     R0,R1
   \   00000098   7B28               CMP      R0,#+123
   \   0000009A   08D2               BCS      ??HTTP_Query_6
   \   0000009C   0C99               LDR      R1,[SP, #+48]
   \   0000009E   CC31               ADDS     R1,R1,#+204
   \   000000A0   2000               MOVS     R0,R4
   \   000000A2   ........           BL       strcat
   \   000000A6   BFA1               ADR      R1,??HTTP_Query_5+0x10  ;; 0x2E, 0x00, 0x00, 0x00
   \   000000A8   2000               MOVS     R0,R4
   \   000000AA   ........           BL       strcat
   1051                              strcat(Buff_TX,Net->WiFi.Domena);
   \                     ??HTTP_Query_6:
   \   000000AE   0C99               LDR      R1,[SP, #+48]
   \   000000B0   BD31               ADDS     R1,R1,#+189
   \   000000B2   2000               MOVS     R0,R4
   \   000000B4   ........           BL       strcat
   1052                              strcat(Buff_TX,"\r\n");
   \   000000B8   BBA1               ADR      R1,??HTTP_Query_5+0x14  ;; 0x0D, 0x0A, 0x00, 0x00
   \   000000BA   2000               MOVS     R0,R4
   \   000000BC   ........           BL       strcat
   1053                              strcat(Buff_TX,"Connection: keep-alive\r\n");
   \   000000C0   2900               MOVS     R1,R5
   \   000000C2   3431               ADDS     R1,R1,#+52
   \   000000C4   2000               MOVS     R0,R4
   \   000000C6   ........           BL       strcat
   1054                              strcat(Buff_TX,"\r\n\r\n");
   \   000000CA   5035               ADDS     R5,R5,#+80
   \   000000CC   2900               MOVS     R1,R5
   \   000000CE   2000               MOVS     R0,R4
   \   000000D0   ........           BL       strcat
   1055                              BTS=strlen(Buff_TX);
   \   000000D4   2000               MOVS     R0,R4
   \   000000D6   ........           BL       strlen
   \   000000DA   0500               MOVS     R5,R0
   \   000000DC   2D04               LSLS     R5,R5,#+16
   \   000000DE   2D14               ASRS     R5,R5,#+16
   1056                              Send=1;
   \   000000E0   0126               MOVS     R6,#+1
   \   000000E2   76E3               B        ??HTTP_Query_4
   1057          
   1058                        break; 
   1059                        
   1060                        case HTTP_GET:              //proba o podanie konfiguracji zestawu zmiennych
   1061                              strcat(Buff_TX,"GET ");
   \                     ??HTTP_Query_3:
   \   000000E4   AB4D               LDR      R5,??HTTP_Query_5  ;; `?<Constant "GET ">`
   \   000000E6   2900               MOVS     R1,R5
   \   000000E8   2000               MOVS     R0,R4
   \   000000EA   ........           BL       strcat
   1062                              strcat(Buff_TX,Net->WiFi.Path);
   \   000000EE   0C99               LDR      R1,[SP, #+48]
   \   000000F0   DB31               ADDS     R1,R1,#+219
   \   000000F2   2000               MOVS     R0,R4
   \   000000F4   ........           BL       strcat
   1063                              strcat(Buff_TX,"/do");
   \   000000F8   ACA1               ADR      R1,??HTTP_Query_5+0x18  ;; "/do"
   \   000000FA   2000               MOVS     R0,R4
   \   000000FC   ........           BL       strcat
   1064                              sprintf(txt, "%d",RF_Status.RF_ID_R);
   \   00000100   A648               LDR      R0,??HTTP_Query_5+0x8  ;; RF_Status + 28
   \   00000102   0268               LDR      R2,[R0, #+0]
   \   00000104   A6A1               ADR      R1,??HTTP_Query_5+0xC  ;; 0x25, 0x64, 0x00, 0x00
   \   00000106   05A8               ADD      R0,SP,#+20
   \   00000108   ........           BL       sprintf
   1065                              strcat(Buff_TX,txt);
   \   0000010C   05A9               ADD      R1,SP,#+20
   \   0000010E   2000               MOVS     R0,R4
   \   00000110   ........           BL       strcat
   1066                              strcat(Buff_TX,".csv HTTP/1.1\r\n");
   \   00000114   2900               MOVS     R1,R5
   \   00000116   0831               ADDS     R1,R1,#+8
   \   00000118   2000               MOVS     R0,R4
   \   0000011A   ........           BL       strcat
   1067                              strcat(Buff_TX,"User-Agent: CEURON\r\nHost: ");
   \   0000011E   2900               MOVS     R1,R5
   \   00000120   1831               ADDS     R1,R1,#+24
   \   00000122   2000               MOVS     R0,R4
   \   00000124   ........           BL       strcat
   1068                              if ((Net->WiFi.Subdomena[0]>47)&&(Net->WiFi.Subdomena[0]<123)) {strcat(Buff_TX,Net->WiFi.Subdomena); strcat(Buff_TX,".");}
   \   00000128   0C98               LDR      R0,[SP, #+48]
   \   0000012A   CC30               ADDS     R0,R0,#+204
   \   0000012C   0178               LDRB     R1,[R0, #+0]
   \   0000012E   3029               CMP      R1,#+48
   \   00000130   0BD3               BCC      ??HTTP_Query_7
   \   00000132   0800               MOVS     R0,R1
   \   00000134   7B28               CMP      R0,#+123
   \   00000136   08D2               BCS      ??HTTP_Query_7
   \   00000138   0C99               LDR      R1,[SP, #+48]
   \   0000013A   CC31               ADDS     R1,R1,#+204
   \   0000013C   2000               MOVS     R0,R4
   \   0000013E   ........           BL       strcat
   \   00000142   98A1               ADR      R1,??HTTP_Query_5+0x10  ;; 0x2E, 0x00, 0x00, 0x00
   \   00000144   2000               MOVS     R0,R4
   \   00000146   ........           BL       strcat
   1069                              strcat(Buff_TX,Net->WiFi.Domena);
   \                     ??HTTP_Query_7:
   \   0000014A   0C99               LDR      R1,[SP, #+48]
   \   0000014C   BD31               ADDS     R1,R1,#+189
   \   0000014E   2000               MOVS     R0,R4
   \   00000150   ........           BL       strcat
   1070                              strcat(Buff_TX,"\r\n");
   \   00000154   94A1               ADR      R1,??HTTP_Query_5+0x14  ;; 0x0D, 0x0A, 0x00, 0x00
   \   00000156   2000               MOVS     R0,R4
   \   00000158   ........           BL       strcat
   1071                              strcat(Buff_TX,"Connection: keep-alive\r\n");
   \   0000015C   2900               MOVS     R1,R5
   \   0000015E   3431               ADDS     R1,R1,#+52
   \   00000160   2000               MOVS     R0,R4
   \   00000162   ........           BL       strcat
   1072                              strcat(Buff_TX,"\r\n\r\n");
   \   00000166   5035               ADDS     R5,R5,#+80
   \   00000168   2900               MOVS     R1,R5
   \   0000016A   2000               MOVS     R0,R4
   \   0000016C   ........           BL       strcat
   1073                              BTS=strlen(Buff_TX);
   \   00000170   2000               MOVS     R0,R4
   \   00000172   ........           BL       strlen
   \   00000176   0500               MOVS     R5,R0
   \   00000178   2D04               LSLS     R5,R5,#+16
   \   0000017A   2D14               ASRS     R5,R5,#+16
   1074                               Send=1;
   \   0000017C   0126               MOVS     R6,#+1
   \   0000017E   28E3               B        ??HTTP_Query_4
   1075                              
   1076                              
   1077                        break; 
   1078                        
   1079                        case HTTP_POST:                   //wys³anie zmiennych
   1080                              
   1081                              //obliczenie max iloci wysy³anych danych
   1082                              //151B(Nag³ówek i stopka) + 45B(Path,Subdomena,Domena) + 40(10B x VAR_SET_AMOUNT lub 7B x VAR_SET_AMOUNT dla dwustanów)  = max 596B. Przy samych dwustanach 476B
   1083                              strcat(Buff_TX,"POST ");
   \                     ??HTTP_Query_2:
   \   00000180   844D               LDR      R5,??HTTP_Query_5  ;; `?<Constant "GET ">`
   \   00000182   2900               MOVS     R1,R5
   \   00000184   5831               ADDS     R1,R1,#+88
   \   00000186   2000               MOVS     R0,R4
   \   00000188   ........           BL       strcat
   1084                              strcat(Buff_TX,Net->WiFi.Path);
   \   0000018C   0C99               LDR      R1,[SP, #+48]
   \   0000018E   DB31               ADDS     R1,R1,#+219
   \   00000190   2000               MOVS     R0,R4
   \   00000192   ........           BL       strcat
   1085                              strcat(Buff_TX,"/putgate.php HTTP/1.1\r\nUser-Agent: CEURON\r\nHost: ");
   \   00000196   2900               MOVS     R1,R5
   \   00000198   6031               ADDS     R1,R1,#+96
   \   0000019A   2000               MOVS     R0,R4
   \   0000019C   ........           BL       strcat
   1086                              if ((Net->WiFi.Subdomena[0]>47)&&(Net->WiFi.Subdomena[0]<123)) {strcat(Buff_TX,Net->WiFi.Subdomena); strcat(Buff_TX,".");}
   \   000001A0   0C98               LDR      R0,[SP, #+48]
   \   000001A2   CC30               ADDS     R0,R0,#+204
   \   000001A4   0178               LDRB     R1,[R0, #+0]
   \   000001A6   3029               CMP      R1,#+48
   \   000001A8   0BD3               BCC      ??HTTP_Query_8
   \   000001AA   0800               MOVS     R0,R1
   \   000001AC   7B28               CMP      R0,#+123
   \   000001AE   08D2               BCS      ??HTTP_Query_8
   \   000001B0   0C99               LDR      R1,[SP, #+48]
   \   000001B2   CC31               ADDS     R1,R1,#+204
   \   000001B4   2000               MOVS     R0,R4
   \   000001B6   ........           BL       strcat
   \   000001BA   7AA1               ADR      R1,??HTTP_Query_5+0x10  ;; 0x2E, 0x00, 0x00, 0x00
   \   000001BC   2000               MOVS     R0,R4
   \   000001BE   ........           BL       strcat
   1087                              strcat(Buff_TX,Net->WiFi.Domena);
   \                     ??HTTP_Query_8:
   \   000001C2   0C99               LDR      R1,[SP, #+48]
   \   000001C4   BD31               ADDS     R1,R1,#+189
   \   000001C6   2000               MOVS     R0,R4
   \   000001C8   ........           BL       strcat
   1088                              strcat(Buff_TX,"\r\nContent-Length: ");
   \   000001CC   2900               MOVS     R1,R5
   \   000001CE   9431               ADDS     R1,R1,#+148
   \   000001D0   2000               MOVS     R0,R4
   \   000001D2   ........           BL       strcat
   1089                              char PozLength=strlen(Buff_TX);
   \   000001D6   2000               MOVS     R0,R4
   \   000001D8   ........           BL       strlen
   \   000001DC   6946               MOV      R1,SP
   \   000001DE   0872               STRB     R0,[R1, #+8]
   1090                      
   1091                              strcat(Buff_TX,"   ");
   \   000001E0   73A1               ADR      R1,??HTTP_Query_5+0x1C  ;; "   "
   \   000001E2   2000               MOVS     R0,R4
   \   000001E4   ........           BL       strcat
   1092                              strcat(Buff_TX,"\r\nContent-Type: application/x-www-form-urlencoded\r\n\r\nNodeID=");
   \   000001E8   2900               MOVS     R1,R5
   \   000001EA   A831               ADDS     R1,R1,#+168
   \   000001EC   2000               MOVS     R0,R4
   \   000001EE   ........           BL       strcat
   1093                              int NAG=strlen(Buff_TX)-7;
   \   000001F2   2000               MOVS     R0,R4
   \   000001F4   ........           BL       strlen
   \   000001F8   C01F               SUBS     R0,R0,#+7
   \   000001FA   0390               STR      R0,[SP, #+12]
   1094                              sprintf(txt, "%d",RF_Status.RF_ID_R);
   \   000001FC   6748               LDR      R0,??HTTP_Query_5+0x8  ;; RF_Status + 28
   \   000001FE   0268               LDR      R2,[R0, #+0]
   \   00000200   67A1               ADR      R1,??HTTP_Query_5+0xC  ;; 0x25, 0x64, 0x00, 0x00
   \   00000202   05A8               ADD      R0,SP,#+20
   \   00000204   ........           BL       sprintf
   1095                              strcat(Buff_TX,txt);
   \   00000208   05A9               ADD      R1,SP,#+20
   \   0000020A   2000               MOVS     R0,R4
   \   0000020C   ........           BL       strcat
   1096                              
   1097                              strcat(Buff_TX,"&Order=1&Content=;\r\n");
   \   00000210   E835               ADDS     R5,R5,#+232
   \   00000212   2900               MOVS     R1,R5
   \   00000214   2000               MOVS     R0,R4
   \   00000216   ........           BL       strcat
   1098                              BTS=strlen(Buff_TX);
   \   0000021A   2000               MOVS     R0,R4
   \   0000021C   ........           BL       strlen
   \   00000220   0500               MOVS     R5,R0
   \   00000222   2D04               LSLS     R5,R5,#+16
   \   00000224   2D14               ASRS     R5,R5,#+16
   1099                              //oko³o 179 byte do tej pory
   1100                              char ContentLength=34;
   1101                              char ilLit=0;
   1102                              
   1103                              for (char VSN=0; VSN<Net->HTTP.VarSetCount; VSN++)
   \   00000226   3000               MOVS     R0,R6
   \   00000228   0090               STR      R0,[SP, #+0]
   \   0000022A   8CE0               B        ??HTTP_Query_9
   1104                              {
   1105                                switch (Net->HTTP.NetNodeSet[VSN].NetDataType)
   1106                                {
   1107                                  case 'a':  //jezeli zmienna analogowa
   1108                                        
   1109                                        Buff_TX[BTS++]='a';
   \                     ??HTTP_Query_10:
   \   0000022C   6055               STRB     R0,[R4, R5]
   \   0000022E   6D1C               ADDS     R5,R5,#+1
   \   00000230   2D04               LSLS     R5,R5,#+16
   \   00000232   2D14               ASRS     R5,R5,#+16
   1110                                        Buff_TX[BTS++]=(Net->HTTP.NetNodeSet[VSN].VarNr/10)+48;
   \   00000234   7078               LDRB     R0,[R6, #+1]
   \   00000236   0A21               MOVS     R1,#+10
   \   00000238   ........           BL       __aeabi_idivmod
   \   0000023C   3030               ADDS     R0,R0,#+48
   \   0000023E   6055               STRB     R0,[R4, R5]
   \   00000240   6D1C               ADDS     R5,R5,#+1
   \   00000242   2D04               LSLS     R5,R5,#+16
   \   00000244   2D14               ASRS     R5,R5,#+16
   1111                                        Buff_TX[BTS++]=(Net->HTTP.NetNodeSet[VSN].VarNr%10)+48;
   \   00000246   7078               LDRB     R0,[R6, #+1]
   \   00000248   0A21               MOVS     R1,#+10
   \   0000024A   ........           BL       __aeabi_idivmod
   \   0000024E   3031               ADDS     R1,R1,#+48
   \   00000250   6155               STRB     R1,[R4, R5]
   \   00000252   6D1C               ADDS     R5,R5,#+1
   \   00000254   2D04               LSLS     R5,R5,#+16
   \   00000256   2D14               ASRS     R5,R5,#+16
   1112                                        Buff_TX[BTS++]=';';
   \   00000258   3B20               MOVS     R0,#+59
   \   0000025A   6055               STRB     R0,[R4, R5]
   \   0000025C   6D1C               ADDS     R5,R5,#+1
   \   0000025E   2D04               LSLS     R5,R5,#+16
   \   00000260   2D14               ASRS     R5,R5,#+16
   1113                                        
   1114                                        if (VariablesAnal[Net->HTTP.NetNodeSet[VSN].VarNr]==(signed short)0x8000)
   \   00000262   544A               LDR      R2,??HTTP_Query_5+0x20  ;; VariablesAnal
   \   00000264   7078               LDRB     R0,[R6, #+1]
   \   00000266   4000               LSLS     R0,R0,#+1
   \   00000268   105E               LDRSH    R0,[R2, R0]
   \   0000026A   5349               LDR      R1,??HTTP_Query_5+0x24  ;; 0xffff8000
   \   0000026C   8842               CMP      R0,R1
   \   0000026E   0FD1               BNE      ??HTTP_Query_11
   1115                                        {
   1116                                           Buff_TX[BTS++]='B';
   \                     ??HTTP_Query_12:
   \   00000270   4220               MOVS     R0,#+66
   \   00000272   6055               STRB     R0,[R4, R5]
   \   00000274   6D1C               ADDS     R5,R5,#+1
   \   00000276   2D04               LSLS     R5,R5,#+16
   \   00000278   2D14               ASRS     R5,R5,#+16
   1117                                           Buff_TX[BTS++]='A';
   \   0000027A   4120               MOVS     R0,#+65
   \   0000027C   6055               STRB     R0,[R4, R5]
   \   0000027E   6D1C               ADDS     R5,R5,#+1
   \   00000280   2D04               LSLS     R5,R5,#+16
   \   00000282   2D14               ASRS     R5,R5,#+16
   1118                                           Buff_TX[BTS++]='T';
   \   00000284   5420               MOVS     R0,#+84
   \   00000286   6055               STRB     R0,[R4, R5]
   \   00000288   6D1C               ADDS     R5,R5,#+1
   \   0000028A   2D04               LSLS     R5,R5,#+16
   \   0000028C   2D14               ASRS     R5,R5,#+16
   \   0000028E   4BE0               B        ??HTTP_Query_13
   1119                                        }else{  
   1120                                         
   1121                                          if ((VariablesAnal[Net->HTTP.NetNodeSet[VSN].VarNr])>999)
   \                     ??HTTP_Query_11:
   \   00000290   7078               LDRB     R0,[R6, #+1]
   \   00000292   4000               LSLS     R0,R0,#+1
   \   00000294   105E               LDRSH    R0,[R2, R0]
   \   00000296   FA21               MOVS     R1,#+250
   \   00000298   8900               LSLS     R1,R1,#+2        ;; #+1000
   \   0000029A   8842               CMP      R0,R1
   \   0000029C   14DB               BLT      ??HTTP_Query_14
   1122                                          {
   1123                                            Buff_TX[BTS++]='>';
   \                     ??HTTP_Query_15:
   \   0000029E   3E20               MOVS     R0,#+62
   \   000002A0   6055               STRB     R0,[R4, R5]
   \   000002A2   6D1C               ADDS     R5,R5,#+1
   \   000002A4   2D04               LSLS     R5,R5,#+16
   \   000002A6   2D14               ASRS     R5,R5,#+16
   1124                                            Buff_TX[BTS++]='M';
   \   000002A8   4D20               MOVS     R0,#+77
   \   000002AA   6055               STRB     R0,[R4, R5]
   \   000002AC   6D1C               ADDS     R5,R5,#+1
   \   000002AE   2D04               LSLS     R5,R5,#+16
   \   000002B0   2D14               ASRS     R5,R5,#+16
   1125                                            Buff_TX[BTS++]='A';
   \   000002B2   4120               MOVS     R0,#+65
   \   000002B4   6055               STRB     R0,[R4, R5]
   \   000002B6   6D1C               ADDS     R5,R5,#+1
   \   000002B8   2D04               LSLS     R5,R5,#+16
   \   000002BA   2D14               ASRS     R5,R5,#+16
   1126                                            Buff_TX[BTS++]='X';
   \   000002BC   5820               MOVS     R0,#+88
   \   000002BE   6055               STRB     R0,[R4, R5]
   \   000002C0   6D1C               ADDS     R5,R5,#+1
   \   000002C2   2D04               LSLS     R5,R5,#+16
   \   000002C4   2D14               ASRS     R5,R5,#+16
   \   000002C6   2FE0               B        ??HTTP_Query_13
   1127                                          }
   1128                                          else if ((VariablesAnal[Net->HTTP.NetNodeSet[VSN].VarNr])<-999)
   \                     ??HTTP_Query_14:
   \   000002C8   7078               LDRB     R0,[R6, #+1]
   \   000002CA   4000               LSLS     R0,R0,#+1
   \   000002CC   105E               LDRSH    R0,[R2, R0]
   \   000002CE   3B49               LDR      R1,??HTTP_Query_5+0x28  ;; 0xfffffc19
   \   000002D0   8842               CMP      R0,R1
   \   000002D2   14DA               BGE      ??HTTP_Query_16
   1129                                          {
   1130                                            Buff_TX[BTS++]='-';
   \                     ??HTTP_Query_17:
   \   000002D4   2D20               MOVS     R0,#+45
   \   000002D6   6055               STRB     R0,[R4, R5]
   \   000002D8   6D1C               ADDS     R5,R5,#+1
   \   000002DA   2D04               LSLS     R5,R5,#+16
   \   000002DC   2D14               ASRS     R5,R5,#+16
   1131                                            Buff_TX[BTS++]='M';
   \   000002DE   4D20               MOVS     R0,#+77
   \   000002E0   6055               STRB     R0,[R4, R5]
   \   000002E2   6D1C               ADDS     R5,R5,#+1
   \   000002E4   2D04               LSLS     R5,R5,#+16
   \   000002E6   2D14               ASRS     R5,R5,#+16
   1132                                            Buff_TX[BTS++]='I';
   \   000002E8   4920               MOVS     R0,#+73
   \   000002EA   6055               STRB     R0,[R4, R5]
   \   000002EC   6D1C               ADDS     R5,R5,#+1
   \   000002EE   2D04               LSLS     R5,R5,#+16
   \   000002F0   2D14               ASRS     R5,R5,#+16
   1133                                            Buff_TX[BTS++]='N';
   \   000002F2   4E20               MOVS     R0,#+78
   \   000002F4   6055               STRB     R0,[R4, R5]
   \   000002F6   6D1C               ADDS     R5,R5,#+1
   \   000002F8   2D04               LSLS     R5,R5,#+16
   \   000002FA   2D14               ASRS     R5,R5,#+16
   \   000002FC   14E0               B        ??HTTP_Query_13
   1134                                          }else{
   1135                                            ilLit=sIntToStr(VariablesAnal[Net->HTTP.NetNodeSet[VSN].VarNr],&Buff_TX[BTS]);
   \                     ??HTTP_Query_16:
   \   000002FE   6119               ADDS     R1,R4,R5
   \   00000300   7078               LDRB     R0,[R6, #+1]
   \   00000302   4000               LSLS     R0,R0,#+1
   \   00000304   105E               LDRSH    R0,[R2, R0]
   \   00000306   ........           BL       sIntToStr
   1136                                            BTS+=ilLit;
   \   0000030A   2D18               ADDS     R5,R5,R0
   \   0000030C   2D04               LSLS     R5,R5,#+16
   \   0000030E   2D14               ASRS     R5,R5,#+16
   1137             
   1138                                          for (char i=ilLit; i<4; i++) {Buff_TX[BTS++]=' ';}
   \   00000310   07E0               B        ??HTTP_Query_18
   \                     ??HTTP_Query_19:
   \   00000312   2021               MOVS     R1,#+32
   \   00000314   6155               STRB     R1,[R4, R5]
   \   00000316   6D1C               ADDS     R5,R5,#+1
   \   00000318   2D04               LSLS     R5,R5,#+16
   \   0000031A   2D14               ASRS     R5,R5,#+16
   \   0000031C   401C               ADDS     R0,R0,#+1
   \   0000031E   0006               LSLS     R0,R0,#+24
   \   00000320   000E               LSRS     R0,R0,#+24
   \                     ??HTTP_Query_18:
   \   00000322   0100               MOVS     R1,R0
   \   00000324   0429               CMP      R1,#+4
   \   00000326   F4D3               BCC      ??HTTP_Query_19
   1139                                          }
   1140                                        }
   1141                                        
   1142                                        Buff_TX[BTS++]=0xd;
   \                     ??HTTP_Query_13:
   \   00000328   0D20               MOVS     R0,#+13
   \   0000032A   6055               STRB     R0,[R4, R5]
   \   0000032C   6D1C               ADDS     R5,R5,#+1
   \   0000032E   2D04               LSLS     R5,R5,#+16
   \   00000330   2D14               ASRS     R5,R5,#+16
   1143                                        Buff_TX[BTS++]=0xa;
   \   00000332   0A20               MOVS     R0,#+10
   \   00000334   6055               STRB     R0,[R4, R5]
   \   00000336   6D1C               ADDS     R5,R5,#+1
   \   00000338   2D04               LSLS     R5,R5,#+16
   \   0000033A   2D14               ASRS     R5,R5,#+16
   1144                                        ContentLength+=10;
   \                     ??HTTP_Query_20:
   \   0000033C   0098               LDR      R0,[SP, #+0]
   \   0000033E   401C               ADDS     R0,R0,#+1
   \   00000340   0006               LSLS     R0,R0,#+24
   \   00000342   000E               LSRS     R0,R0,#+24
   \   00000344   0090               STR      R0,[SP, #+0]
   \                     ??HTTP_Query_9:
   \   00000346   0098               LDR      R0,[SP, #+0]
   \   00000348   0C99               LDR      R1,[SP, #+48]
   \   0000034A   F231               ADDS     R1,R1,#+242
   \   0000034C   0978               LDRB     R1,[R1, #+0]
   \   0000034E   0006               LSLS     R0,R0,#+24
   \   00000350   000E               LSRS     R0,R0,#+24
   \   00000352   8842               CMP      R0,R1
   \   00000354   00D3               BCC      .+4
   \   00000356   13E2               B        ??HTTP_Query_21
   \   00000358   0098               LDR      R0,[SP, #+0]
   \   0000035A   0006               LSLS     R0,R0,#+24
   \   0000035C   000E               LSRS     R0,R0,#+24
   \   0000035E   0521               MOVS     R1,#+5
   \   00000360   4843               MULS     R0,R1,R0
   \   00000362   0C99               LDR      R1,[SP, #+48]
   \   00000364   0F18               ADDS     R7,R1,R0
   \   00000366   3E00               MOVS     R6,R7
   \   00000368   F636               ADDS     R6,R6,#+246
   \   0000036A   3078               LDRB     R0,[R6, #+0]
   \   0000036C   6128               CMP      R0,#+97
   \   0000036E   00D1               BNE      .+4
   \   00000370   5CE7               B        ??HTTP_Query_10
   \   00000372   6228               CMP      R0,#+98
   \   00000374   24D0               BEQ      ??HTTP_Query_22
   \   00000376   6328               CMP      R0,#+99
   \   00000378   5ED0               BEQ      ??HTTP_Query_23
   \   0000037A   6428               CMP      R0,#+100
   \   0000037C   00D1               BNE      .+4
   \   0000037E   C5E0               B        ??HTTP_Query_24
   \   00000380   6928               CMP      R0,#+105
   \   00000382   00D1               BNE      .+4
   \   00000384   F7E0               B        ??HTTP_Query_25
   \   00000386   7128               CMP      R0,#+113
   \   00000388   00D1               BNE      .+4
   \   0000038A   42E1               B        ??HTTP_Query_26
   \   0000038C   7228               CMP      R0,#+114
   \   0000038E   00D1               BNE      .+4
   \   00000390   8DE1               B        ??HTTP_Query_27
   \   00000392   D3E7               B        ??HTTP_Query_20
   \                     ??HTTP_Query_5:
   \   00000394   ........           DC32     `?<Constant "GET ">`
   \   00000398   2F646300           DC8      "/dc"
   \   0000039C   ........           DC32     RF_Status + 28
   \   000003A0   25640000           DC8      0x25, 0x64, 0x00, 0x00
   \   000003A4   2E000000           DC8      0x2E, 0x00, 0x00, 0x00
   \   000003A8   0D0A0000           DC8      0x0D, 0x0A, 0x00, 0x00
   \   000003AC   2F646F00           DC8      "/do"
   \   000003B0   20202000           DC8      "   "
   \   000003B4   ........           DC32     VariablesAnal
   \   000003B8   0080FFFF           DC32     0xffff8000
   \   000003BC   19FCFFFF           DC32     0xfffffc19
   1145                                          
   1146                                  break;
   1147                                  
   1148                                  case 'b':  //jezeli zmienna dwustanowa
   1149                                        Buff_TX[BTS++]='b';
   \                     ??HTTP_Query_22:
   \   000003C0   6055               STRB     R0,[R4, R5]
   \   000003C2   6D1C               ADDS     R5,R5,#+1
   \   000003C4   2D04               LSLS     R5,R5,#+16
   \   000003C6   2D14               ASRS     R5,R5,#+16
   1150                                        Buff_TX[BTS++]=(Net->HTTP.NetNodeSet[VSN].VarNr/10)+48;
   \   000003C8   7078               LDRB     R0,[R6, #+1]
   \   000003CA   0A21               MOVS     R1,#+10
   \   000003CC   ........           BL       __aeabi_idivmod
   \   000003D0   3030               ADDS     R0,R0,#+48
   \   000003D2   6055               STRB     R0,[R4, R5]
   \   000003D4   6D1C               ADDS     R5,R5,#+1
   \   000003D6   2D04               LSLS     R5,R5,#+16
   \   000003D8   2D14               ASRS     R5,R5,#+16
   1151                                        Buff_TX[BTS++]=(Net->HTTP.NetNodeSet[VSN].VarNr%10)+48;
   \   000003DA   7078               LDRB     R0,[R6, #+1]
   \   000003DC   0A21               MOVS     R1,#+10
   \   000003DE   ........           BL       __aeabi_idivmod
   \   000003E2   3031               ADDS     R1,R1,#+48
   \   000003E4   6155               STRB     R1,[R4, R5]
   \   000003E6   6D1C               ADDS     R5,R5,#+1
   \   000003E8   2D04               LSLS     R5,R5,#+16
   \   000003EA   2D14               ASRS     R5,R5,#+16
   1152                                        Buff_TX[BTS++]=';';
   \   000003EC   3B20               MOVS     R0,#+59
   \   000003EE   6055               STRB     R0,[R4, R5]
   \   000003F0   6D1C               ADDS     R5,R5,#+1
   \   000003F2   2D04               LSLS     R5,R5,#+16
   \   000003F4   2D14               ASRS     R5,R5,#+16
   1153                                        Net->HTTP.NetNodeSet[VSN].Value=((Variables[Net->HTTP.NetNodeSet[VSN].VarNr/8]>>(Net->HTTP.NetNodeSet[VSN].VarNr%8))&0x1);
   \   000003F6   F937               ADDS     R7,R7,#+249
   \   000003F8   7078               LDRB     R0,[R6, #+1]
   \   000003FA   C010               ASRS     R0,R0,#+3
   \   000003FC   E749               LDR      R1,??HTTP_Query_28  ;; Variables
   \   000003FE   095C               LDRB     R1,[R1, R0]
   \   00000400   7078               LDRB     R0,[R6, #+1]
   \   00000402   0200               MOVS     R2,R0
   \   00000404   D208               LSRS     R2,R2,#+3
   \   00000406   D200               LSLS     R2,R2,#+3
   \   00000408   801A               SUBS     R0,R0,R2
   \   0000040A   0141               ASRS     R1,R1,R0
   \   0000040C   0120               MOVS     R0,#+1
   \   0000040E   0840               ANDS     R0,R0,R1
   \   00000410   3870               STRB     R0,[R7, #+0]
   \   00000412   000A               LSRS     R0,R0,#+8
   \   00000414   7870               STRB     R0,[R7, #+1]
   1154                                        Buff_TX[BTS++]=Net->HTTP.NetNodeSet[VSN].Value+48;
   \   00000416   3978               LDRB     R1,[R7, #+0]
   \   00000418   3031               ADDS     R1,R1,#+48
   \   0000041A   6155               STRB     R1,[R4, R5]
   \   0000041C   6D1C               ADDS     R5,R5,#+1
   \   0000041E   2D04               LSLS     R5,R5,#+16
   \   00000420   2D14               ASRS     R5,R5,#+16
   1155                                        Buff_TX[BTS++]=0xd;
   \   00000422   0D20               MOVS     R0,#+13
   \   00000424   6055               STRB     R0,[R4, R5]
   \   00000426   6D1C               ADDS     R5,R5,#+1
   \   00000428   2D04               LSLS     R5,R5,#+16
   \   0000042A   2D14               ASRS     R5,R5,#+16
   1156                                        Buff_TX[BTS++]=0xa;
   \   0000042C   0A20               MOVS     R0,#+10
   \   0000042E   6055               STRB     R0,[R4, R5]
   \   00000430   6D1C               ADDS     R5,R5,#+1
   \   00000432   2D04               LSLS     R5,R5,#+16
   \   00000434   2D14               ASRS     R5,R5,#+16
   1157                                        ContentLength+=7;
   \   00000436   81E7               B        ??HTTP_Query_20
   1158                                  break;
   1159                                  
   1160                                  case 'c':  //jezeli zmienna analogowa specjalna
   1161                                        
   1162                                        Buff_TX[BTS++]='c';
   \                     ??HTTP_Query_23:
   \   00000438   6055               STRB     R0,[R4, R5]
   \   0000043A   6D1C               ADDS     R5,R5,#+1
   \   0000043C   2D04               LSLS     R5,R5,#+16
   \   0000043E   2D14               ASRS     R5,R5,#+16
   1163                                        Buff_TX[BTS++]=(Net->HTTP.NetNodeSet[VSN].VarNr/10)+48;
   \   00000440   7078               LDRB     R0,[R6, #+1]
   \   00000442   0A21               MOVS     R1,#+10
   \   00000444   ........           BL       __aeabi_idivmod
   \   00000448   3030               ADDS     R0,R0,#+48
   \   0000044A   6055               STRB     R0,[R4, R5]
   \   0000044C   6D1C               ADDS     R5,R5,#+1
   \   0000044E   2D04               LSLS     R5,R5,#+16
   \   00000450   2D14               ASRS     R5,R5,#+16
   1164                                        Buff_TX[BTS++]=(Net->HTTP.NetNodeSet[VSN].VarNr%10)+48;
   \   00000452   7078               LDRB     R0,[R6, #+1]
   \   00000454   0A21               MOVS     R1,#+10
   \   00000456   ........           BL       __aeabi_idivmod
   \   0000045A   3031               ADDS     R1,R1,#+48
   \   0000045C   6155               STRB     R1,[R4, R5]
   \   0000045E   6D1C               ADDS     R5,R5,#+1
   \   00000460   2D04               LSLS     R5,R5,#+16
   \   00000462   2D14               ASRS     R5,R5,#+16
   1165                                        Buff_TX[BTS++]=';';
   \   00000464   3B20               MOVS     R0,#+59
   \   00000466   6055               STRB     R0,[R4, R5]
   \   00000468   6D1C               ADDS     R5,R5,#+1
   \   0000046A   2D04               LSLS     R5,R5,#+16
   \   0000046C   2D14               ASRS     R5,R5,#+16
   1166                                        if (Net->HTTP.NetNodeSet[VSN].VarNr==99)   //je¿eli propa o podanie czsu
   \   0000046E   7078               LDRB     R0,[R6, #+1]
   \   00000470   6328               CMP      R0,#+99
   \   00000472   34D1               BNE      ??HTTP_Query_29
   1167                                        {
   1168                                          Buff_TX[BTS++]=(DateTime.Hour/10)+48;
   \   00000474   CA4E               LDR      R6,??HTTP_Query_28+0x4  ;; DateTime
   \   00000476   F078               LDRB     R0,[R6, #+3]
   \   00000478   0A21               MOVS     R1,#+10
   \   0000047A   ........           BL       __aeabi_idivmod
   \   0000047E   3030               ADDS     R0,R0,#+48
   \   00000480   6055               STRB     R0,[R4, R5]
   \   00000482   6D1C               ADDS     R5,R5,#+1
   \   00000484   2D04               LSLS     R5,R5,#+16
   \   00000486   2D14               ASRS     R5,R5,#+16
   1169                                          Buff_TX[BTS++]=(DateTime.Hour%10)+48;
   \   00000488   F078               LDRB     R0,[R6, #+3]
   \   0000048A   0A21               MOVS     R1,#+10
   \   0000048C   ........           BL       __aeabi_idivmod
   \   00000490   3031               ADDS     R1,R1,#+48
   \   00000492   6155               STRB     R1,[R4, R5]
   \   00000494   6D1C               ADDS     R5,R5,#+1
   \   00000496   2D04               LSLS     R5,R5,#+16
   \   00000498   2D14               ASRS     R5,R5,#+16
   1170                                          Buff_TX[BTS++]=':';
   \   0000049A   3A20               MOVS     R0,#+58
   \   0000049C   6055               STRB     R0,[R4, R5]
   \   0000049E   6D1C               ADDS     R5,R5,#+1
   \   000004A0   2D04               LSLS     R5,R5,#+16
   \   000004A2   2D14               ASRS     R5,R5,#+16
   1171                                          Buff_TX[BTS++]=(DateTime.Minute/10)+48;
   \   000004A4   3079               LDRB     R0,[R6, #+4]
   \   000004A6   0A21               MOVS     R1,#+10
   \   000004A8   ........           BL       __aeabi_idivmod
   \   000004AC   3030               ADDS     R0,R0,#+48
   \   000004AE   6055               STRB     R0,[R4, R5]
   \   000004B0   6D1C               ADDS     R5,R5,#+1
   \   000004B2   2D04               LSLS     R5,R5,#+16
   \   000004B4   2D14               ASRS     R5,R5,#+16
   1172                                          Buff_TX[BTS++]=(DateTime.Minute%10)+48;
   \   000004B6   3079               LDRB     R0,[R6, #+4]
   \   000004B8   0A21               MOVS     R1,#+10
   \   000004BA   ........           BL       __aeabi_idivmod
   \   000004BE   3031               ADDS     R1,R1,#+48
   \   000004C0   6155               STRB     R1,[R4, R5]
   \   000004C2   6D1C               ADDS     R5,R5,#+1
   \   000004C4   2D04               LSLS     R5,R5,#+16
   \   000004C6   2D14               ASRS     R5,R5,#+16
   1173                                          //for (char i=ilLit; i<4; i++) {Buff_TX[BTS++]=' ';}
   1174                                          Buff_TX[BTS++]=0xd;
   \   000004C8   0D20               MOVS     R0,#+13
   \   000004CA   6055               STRB     R0,[R4, R5]
   \   000004CC   6D1C               ADDS     R5,R5,#+1
   \   000004CE   2D04               LSLS     R5,R5,#+16
   \   000004D0   2D14               ASRS     R5,R5,#+16
   1175                                          Buff_TX[BTS++]=0xa;
   \   000004D2   0A20               MOVS     R0,#+10
   \   000004D4   6055               STRB     R0,[R4, R5]
   \   000004D6   6D1C               ADDS     R5,R5,#+1
   \   000004D8   2D04               LSLS     R5,R5,#+16
   \   000004DA   2D14               ASRS     R5,R5,#+16
   1176                                          ContentLength+=11;
   \   000004DC   2EE7               B        ??HTTP_Query_20
   1177                                        }else{
   1178                                          ilLit=sIntToStr(GetSpecialAnalogVar(Net->HTTP.NetNodeSet[VSN].VarNr),&Buff_TX[BTS]);
   \                     ??HTTP_Query_29:
   \   000004DE   ........           BL       GetSpecialAnalogVar
   \   000004E2   6119               ADDS     R1,R4,R5
   \   000004E4   0004               LSLS     R0,R0,#+16
   \   000004E6   0014               ASRS     R0,R0,#+16
   \   000004E8   ........           BL       sIntToStr
   1179                                          BTS+=ilLit;
   \   000004EC   2D18               ADDS     R5,R5,R0
   \   000004EE   2D04               LSLS     R5,R5,#+16
   \   000004F0   2D14               ASRS     R5,R5,#+16
   1180                                          for (char i=ilLit; i<4; i++) {Buff_TX[BTS++]=' ';}
   \                     ??HTTP_Query_30:
   \   000004F2   0100               MOVS     R1,R0
   \   000004F4   0429               CMP      R1,#+4
   \   000004F6   00D3               BCC      .+4
   \   000004F8   16E7               B        ??HTTP_Query_13
   \   000004FA   2021               MOVS     R1,#+32
   \   000004FC   6155               STRB     R1,[R4, R5]
   \   000004FE   6D1C               ADDS     R5,R5,#+1
   \   00000500   2D04               LSLS     R5,R5,#+16
   \   00000502   2D14               ASRS     R5,R5,#+16
   \   00000504   401C               ADDS     R0,R0,#+1
   \   00000506   0006               LSLS     R0,R0,#+24
   \   00000508   000E               LSRS     R0,R0,#+24
   \   0000050A   F2E7               B        ??HTTP_Query_30
   1181                                          Buff_TX[BTS++]=0xd;
   1182                                          Buff_TX[BTS++]=0xa;
   1183                                          ContentLength+=10;
   1184                                        }
   1185                                  break;
   1186                                  
   1187                                   case 'd':  //jezeli zmienna dwustanowa specjalna
   1188                                    
   1189                                        Buff_TX[BTS++]='d';
   \                     ??HTTP_Query_24:
   \   0000050C   6055               STRB     R0,[R4, R5]
   \   0000050E   6D1C               ADDS     R5,R5,#+1
   \   00000510   2D04               LSLS     R5,R5,#+16
   \   00000512   2D14               ASRS     R5,R5,#+16
   1190                                        Buff_TX[BTS++]=(Net->HTTP.NetNodeSet[VSN].VarNr/10)+48;
   \   00000514   7078               LDRB     R0,[R6, #+1]
   \   00000516   0A21               MOVS     R1,#+10
   \   00000518   ........           BL       __aeabi_idivmod
   \   0000051C   3030               ADDS     R0,R0,#+48
   \   0000051E   6055               STRB     R0,[R4, R5]
   \   00000520   6D1C               ADDS     R5,R5,#+1
   \   00000522   2D04               LSLS     R5,R5,#+16
   \   00000524   2D14               ASRS     R5,R5,#+16
   1191                                        Buff_TX[BTS++]=(Net->HTTP.NetNodeSet[VSN].VarNr%10)+48;
   \   00000526   7078               LDRB     R0,[R6, #+1]
   \   00000528   0A21               MOVS     R1,#+10
   \   0000052A   ........           BL       __aeabi_idivmod
   \   0000052E   3031               ADDS     R1,R1,#+48
   \   00000530   6155               STRB     R1,[R4, R5]
   \   00000532   6D1C               ADDS     R5,R5,#+1
   \   00000534   2D04               LSLS     R5,R5,#+16
   \   00000536   2D14               ASRS     R5,R5,#+16
   1192                                        Buff_TX[BTS++]=';';
   \   00000538   3B20               MOVS     R0,#+59
   \   0000053A   6055               STRB     R0,[R4, R5]
   \   0000053C   6D1C               ADDS     R5,R5,#+1
   \   0000053E   2D04               LSLS     R5,R5,#+16
   \   00000540   2D14               ASRS     R5,R5,#+16
   1193                                        Buff_TX[BTS++]=GetSpecialBinarVar(Net->HTTP.NetNodeSet[VSN].VarNr)+48;
   \   00000542   7078               LDRB     R0,[R6, #+1]
   \   00000544   ........           BL       GetSpecialBinarVar
   \   00000548   3030               ADDS     R0,R0,#+48
   \   0000054A   6055               STRB     R0,[R4, R5]
   \   0000054C   6D1C               ADDS     R5,R5,#+1
   \   0000054E   2D04               LSLS     R5,R5,#+16
   \   00000550   2D14               ASRS     R5,R5,#+16
   1194                                        Buff_TX[BTS++]=0xd;
   \   00000552   0D20               MOVS     R0,#+13
   \   00000554   6055               STRB     R0,[R4, R5]
   \   00000556   6D1C               ADDS     R5,R5,#+1
   \   00000558   2D04               LSLS     R5,R5,#+16
   \   0000055A   2D14               ASRS     R5,R5,#+16
   1195                                        Buff_TX[BTS++]=0xa;
   \   0000055C   0A20               MOVS     R0,#+10
   \   0000055E   6055               STRB     R0,[R4, R5]
   \   00000560   6D1C               ADDS     R5,R5,#+1
   \   00000562   2D04               LSLS     R5,R5,#+16
   \   00000564   2D14               ASRS     R5,R5,#+16
   1196                                        Net->HTTP.NetNodeSet[VSN].Value=GetSpecialBinarVar(Net->HTTP.NetNodeSet[VSN].VarNr);
   \   00000566   7078               LDRB     R0,[R6, #+1]
   \   00000568   ........           BL       GetSpecialBinarVar
   \   0000056C   F937               ADDS     R7,R7,#+249
   \   0000056E   3870               STRB     R0,[R7, #+0]
   \   00000570   000A               LSRS     R0,R0,#+8
   \   00000572   7870               STRB     R0,[R7, #+1]
   1197                                          
   1198                                   
   1199                                        ContentLength+=7;
   \   00000574   E2E6               B        ??HTTP_Query_20
   1200                                  break;
   1201                                  
   1202                                  
   1203                                  case 'i':  //jezeli wejcie dwustanowe
   1204                                        Buff_TX[BTS++]='i';
   \                     ??HTTP_Query_25:
   \   00000576   6055               STRB     R0,[R4, R5]
   \   00000578   6D1C               ADDS     R5,R5,#+1
   \   0000057A   2D04               LSLS     R5,R5,#+16
   \   0000057C   2D14               ASRS     R5,R5,#+16
   1205                                        Buff_TX[BTS++]=(Net->HTTP.NetNodeSet[VSN].NodeNr/10)+48;
   \   0000057E   7078               LDRB     R0,[R6, #+1]
   \   00000580   0A21               MOVS     R1,#+10
   \   00000582   ........           BL       __aeabi_idivmod
   \   00000586   3030               ADDS     R0,R0,#+48
   \   00000588   6055               STRB     R0,[R4, R5]
   \   0000058A   6D1C               ADDS     R5,R5,#+1
   \   0000058C   2D04               LSLS     R5,R5,#+16
   \   0000058E   2D14               ASRS     R5,R5,#+16
   1206                                        Buff_TX[BTS++]=(Net->HTTP.NetNodeSet[VSN].NodeNr%10)+48;
   \   00000590   7078               LDRB     R0,[R6, #+1]
   \   00000592   0A21               MOVS     R1,#+10
   \   00000594   ........           BL       __aeabi_idivmod
   \   00000598   3031               ADDS     R1,R1,#+48
   \   0000059A   6155               STRB     R1,[R4, R5]
   \   0000059C   6D1C               ADDS     R5,R5,#+1
   \   0000059E   2D04               LSLS     R5,R5,#+16
   \   000005A0   2D14               ASRS     R5,R5,#+16
   1207                                        Buff_TX[BTS++]=(Net->HTTP.NetNodeSet[VSN].PortNr/10)+48;
   \   000005A2   B078               LDRB     R0,[R6, #+2]
   \   000005A4   0A21               MOVS     R1,#+10
   \   000005A6   ........           BL       __aeabi_idivmod
   \   000005AA   3030               ADDS     R0,R0,#+48
   \   000005AC   6055               STRB     R0,[R4, R5]
   \   000005AE   6D1C               ADDS     R5,R5,#+1
   \   000005B0   2D04               LSLS     R5,R5,#+16
   \   000005B2   2D14               ASRS     R5,R5,#+16
   1208                                        Buff_TX[BTS++]=(Net->HTTP.NetNodeSet[VSN].PortNr%10)+48;
   \   000005B4   B078               LDRB     R0,[R6, #+2]
   \   000005B6   0A21               MOVS     R1,#+10
   \   000005B8   ........           BL       __aeabi_idivmod
   \   000005BC   3031               ADDS     R1,R1,#+48
   \   000005BE   6155               STRB     R1,[R4, R5]
   \   000005C0   6D1C               ADDS     R5,R5,#+1
   \   000005C2   2D04               LSLS     R5,R5,#+16
   \   000005C4   2D14               ASRS     R5,R5,#+16
   1209                                        Buff_TX[BTS++]=';';
   \   000005C6   3B20               MOVS     R0,#+59
   \   000005C8   6055               STRB     R0,[R4, R5]
   \   000005CA   6D1C               ADDS     R5,R5,#+1
   \   000005CC   2D04               LSLS     R5,R5,#+16
   \   000005CE   2D14               ASRS     R5,R5,#+16
   1210                                        Net->HTTP.NetNodeSet[VSN].Value=PortStageRead(MainStage.StageI[Net->HTTP.NetNodeSet[VSN].NodeNr].Port, Net->HTTP.NetNodeSet[VSN].PortNr); 
   \   000005D0   B178               LDRB     R1,[R6, #+2]
   \   000005D2   7078               LDRB     R0,[R6, #+1]
   \   000005D4   1622               MOVS     R2,#+22
   \   000005D6   5043               MULS     R0,R2,R0
   \   000005D8   A94A               LDR      R2,??HTTP_Query_31  ;; MainStage
   \   000005DA   1018               ADDS     R0,R2,R0
   \   000005DC   A030               ADDS     R0,R0,#+160
   \   000005DE   0088               LDRH     R0,[R0, #+0]
   \   000005E0   0004               LSLS     R0,R0,#+16
   \   000005E2   0014               ASRS     R0,R0,#+16
   \   000005E4   ........           BL       PortStageRead
   \   000005E8   F937               ADDS     R7,R7,#+249
   \   000005EA   3870               STRB     R0,[R7, #+0]
   \   000005EC   000A               LSRS     R0,R0,#+8
   \   000005EE   7870               STRB     R0,[R7, #+1]
   1211                                        Buff_TX[BTS++]=Net->HTTP.NetNodeSet[VSN].Value+48;
   \   000005F0   3978               LDRB     R1,[R7, #+0]
   \   000005F2   3031               ADDS     R1,R1,#+48
   \   000005F4   6155               STRB     R1,[R4, R5]
   \   000005F6   6D1C               ADDS     R5,R5,#+1
   \   000005F8   2D04               LSLS     R5,R5,#+16
   \   000005FA   2D14               ASRS     R5,R5,#+16
   1212                                        Buff_TX[BTS++]=0xd;
   \   000005FC   0D20               MOVS     R0,#+13
   \   000005FE   6055               STRB     R0,[R4, R5]
   \   00000600   6D1C               ADDS     R5,R5,#+1
   \   00000602   2D04               LSLS     R5,R5,#+16
   \   00000604   2D14               ASRS     R5,R5,#+16
   1213                                        Buff_TX[BTS++]=0xa;
   \   00000606   0A20               MOVS     R0,#+10
   \   00000608   6055               STRB     R0,[R4, R5]
   \   0000060A   6D1C               ADDS     R5,R5,#+1
   \   0000060C   2D04               LSLS     R5,R5,#+16
   \   0000060E   2D14               ASRS     R5,R5,#+16
   1214                                        ContentLength+=9;
   \   00000610   94E6               B        ??HTTP_Query_20
   1215                                  break;
   1216                                  
   1217                                  case 'q':  //jezeli wejcie dwustanowe
   1218                                        Buff_TX[BTS++]='q';
   \                     ??HTTP_Query_26:
   \   00000612   6055               STRB     R0,[R4, R5]
   \   00000614   6D1C               ADDS     R5,R5,#+1
   \   00000616   2D04               LSLS     R5,R5,#+16
   \   00000618   2D14               ASRS     R5,R5,#+16
   1219                                        Buff_TX[BTS++]=(Net->HTTP.NetNodeSet[VSN].NodeNr/10)+48;
   \   0000061A   7078               LDRB     R0,[R6, #+1]
   \   0000061C   0A21               MOVS     R1,#+10
   \   0000061E   ........           BL       __aeabi_idivmod
   \   00000622   3030               ADDS     R0,R0,#+48
   \   00000624   6055               STRB     R0,[R4, R5]
   \   00000626   6D1C               ADDS     R5,R5,#+1
   \   00000628   2D04               LSLS     R5,R5,#+16
   \   0000062A   2D14               ASRS     R5,R5,#+16
   1220                                        Buff_TX[BTS++]=(Net->HTTP.NetNodeSet[VSN].NodeNr%10)+48;
   \   0000062C   7078               LDRB     R0,[R6, #+1]
   \   0000062E   0A21               MOVS     R1,#+10
   \   00000630   ........           BL       __aeabi_idivmod
   \   00000634   3031               ADDS     R1,R1,#+48
   \   00000636   6155               STRB     R1,[R4, R5]
   \   00000638   6D1C               ADDS     R5,R5,#+1
   \   0000063A   2D04               LSLS     R5,R5,#+16
   \   0000063C   2D14               ASRS     R5,R5,#+16
   1221                                        Buff_TX[BTS++]=(Net->HTTP.NetNodeSet[VSN].PortNr/10)+48;
   \   0000063E   B078               LDRB     R0,[R6, #+2]
   \   00000640   0A21               MOVS     R1,#+10
   \   00000642   ........           BL       __aeabi_idivmod
   \   00000646   3030               ADDS     R0,R0,#+48
   \   00000648   6055               STRB     R0,[R4, R5]
   \   0000064A   6D1C               ADDS     R5,R5,#+1
   \   0000064C   2D04               LSLS     R5,R5,#+16
   \   0000064E   2D14               ASRS     R5,R5,#+16
   1222                                        Buff_TX[BTS++]=(Net->HTTP.NetNodeSet[VSN].PortNr%10)+48;
   \   00000650   B078               LDRB     R0,[R6, #+2]
   \   00000652   0A21               MOVS     R1,#+10
   \   00000654   ........           BL       __aeabi_idivmod
   \   00000658   3031               ADDS     R1,R1,#+48
   \   0000065A   6155               STRB     R1,[R4, R5]
   \   0000065C   6D1C               ADDS     R5,R5,#+1
   \   0000065E   2D04               LSLS     R5,R5,#+16
   \   00000660   2D14               ASRS     R5,R5,#+16
   1223                                        Buff_TX[BTS++]=';';
   \   00000662   3B20               MOVS     R0,#+59
   \   00000664   6055               STRB     R0,[R4, R5]
   \   00000666   6D1C               ADDS     R5,R5,#+1
   \   00000668   2D04               LSLS     R5,R5,#+16
   \   0000066A   2D14               ASRS     R5,R5,#+16
   1224                                        Net->HTTP.NetNodeSet[VSN].Value=PortStageRead(MainStage.StageQ[Net->HTTP.NetNodeSet[VSN].NodeNr].Port, Net->HTTP.NetNodeSet[VSN].PortNr); 
   \   0000066C   B178               LDRB     R1,[R6, #+2]
   \   0000066E   8548               LDR      R0,??HTTP_Query_31+0x4  ;; 0x3a2
   \   00000670   7278               LDRB     R2,[R6, #+1]
   \   00000672   1623               MOVS     R3,#+22
   \   00000674   5A43               MULS     R2,R3,R2
   \   00000676   824B               LDR      R3,??HTTP_Query_31  ;; MainStage
   \   00000678   9A18               ADDS     R2,R3,R2
   \   0000067A   105A               LDRH     R0,[R2, R0]
   \   0000067C   0004               LSLS     R0,R0,#+16
   \   0000067E   0014               ASRS     R0,R0,#+16
   \   00000680   ........           BL       PortStageRead
   \   00000684   F937               ADDS     R7,R7,#+249
   \   00000686   3870               STRB     R0,[R7, #+0]
   \   00000688   000A               LSRS     R0,R0,#+8
   \   0000068A   7870               STRB     R0,[R7, #+1]
   1225                                        Buff_TX[BTS++]=Net->HTTP.NetNodeSet[VSN].Value+48;
   \   0000068C   3978               LDRB     R1,[R7, #+0]
   \   0000068E   3031               ADDS     R1,R1,#+48
   \   00000690   6155               STRB     R1,[R4, R5]
   \   00000692   6D1C               ADDS     R5,R5,#+1
   \   00000694   2D04               LSLS     R5,R5,#+16
   \   00000696   2D14               ASRS     R5,R5,#+16
   1226                                        Buff_TX[BTS++]=0xd;
   \   00000698   0D20               MOVS     R0,#+13
   \   0000069A   6055               STRB     R0,[R4, R5]
   \   0000069C   6D1C               ADDS     R5,R5,#+1
   \   0000069E   2D04               LSLS     R5,R5,#+16
   \   000006A0   2D14               ASRS     R5,R5,#+16
   1227                                        Buff_TX[BTS++]=0xa;
   \   000006A2   0A20               MOVS     R0,#+10
   \   000006A4   6055               STRB     R0,[R4, R5]
   \   000006A6   6D1C               ADDS     R5,R5,#+1
   \   000006A8   2D04               LSLS     R5,R5,#+16
   \   000006AA   2D14               ASRS     R5,R5,#+16
   1228                                        ContentLength+=9;
   \   000006AC   46E6               B        ??HTTP_Query_20
   1229                                  break;
   1230                                  
   1231                                  case 'r':  //jezeli rejestr wejciowy wêz³a
   1232                                        
   1233                                        Buff_TX[BTS++]='r';
   \                     ??HTTP_Query_27:
   \   000006AE   6055               STRB     R0,[R4, R5]
   \   000006B0   6D1C               ADDS     R5,R5,#+1
   \   000006B2   2D04               LSLS     R5,R5,#+16
   \   000006B4   2D14               ASRS     R5,R5,#+16
   1234                                        Buff_TX[BTS++]=(Net->HTTP.NetNodeSet[VSN].NodeNr/10)+48;
   \   000006B6   7078               LDRB     R0,[R6, #+1]
   \   000006B8   0A21               MOVS     R1,#+10
   \   000006BA   ........           BL       __aeabi_idivmod
   \   000006BE   3030               ADDS     R0,R0,#+48
   \   000006C0   6055               STRB     R0,[R4, R5]
   \   000006C2   6D1C               ADDS     R5,R5,#+1
   \   000006C4   2D04               LSLS     R5,R5,#+16
   \   000006C6   2D14               ASRS     R5,R5,#+16
   1235                                        Buff_TX[BTS++]=(Net->HTTP.NetNodeSet[VSN].NodeNr%10)+48;
   \   000006C8   7078               LDRB     R0,[R6, #+1]
   \   000006CA   0A21               MOVS     R1,#+10
   \   000006CC   ........           BL       __aeabi_idivmod
   \   000006D0   3031               ADDS     R1,R1,#+48
   \   000006D2   6155               STRB     R1,[R4, R5]
   \   000006D4   6D1C               ADDS     R5,R5,#+1
   \   000006D6   2D04               LSLS     R5,R5,#+16
   \   000006D8   2D14               ASRS     R5,R5,#+16
   1236                                        Buff_TX[BTS++]=(Net->HTTP.NetNodeSet[VSN].RegNr/10)+48;
   \   000006DA   B078               LDRB     R0,[R6, #+2]
   \   000006DC   0A21               MOVS     R1,#+10
   \   000006DE   ........           BL       __aeabi_idivmod
   \   000006E2   3030               ADDS     R0,R0,#+48
   \   000006E4   6055               STRB     R0,[R4, R5]
   \   000006E6   6D1C               ADDS     R5,R5,#+1
   \   000006E8   2D04               LSLS     R5,R5,#+16
   \   000006EA   2D14               ASRS     R5,R5,#+16
   1237                                        Buff_TX[BTS++]=(Net->HTTP.NetNodeSet[VSN].RegNr%10)+48;
   \   000006EC   B078               LDRB     R0,[R6, #+2]
   \   000006EE   0A21               MOVS     R1,#+10
   \   000006F0   ........           BL       __aeabi_idivmod
   \   000006F4   3031               ADDS     R1,R1,#+48
   \   000006F6   6155               STRB     R1,[R4, R5]
   \   000006F8   6D1C               ADDS     R5,R5,#+1
   \   000006FA   2D04               LSLS     R5,R5,#+16
   \   000006FC   2D14               ASRS     R5,R5,#+16
   1238                                        Buff_TX[BTS++]=';';
   \   000006FE   3B20               MOVS     R0,#+59
   \   00000700   6055               STRB     R0,[R4, R5]
   \   00000702   6D1C               ADDS     R5,R5,#+1
   \   00000704   2D04               LSLS     R5,R5,#+16
   \   00000706   2D14               ASRS     R5,R5,#+16
   1239                                        
   1240                                        
   1241                                        if ((MainStage.StageI[Net->HTTP.NetNodeSet[VSN].NodeNr].Value[Net->HTTP.NetNodeSet[VSN].RegNr]==(signed short)0x8000) && (Net->HTTP.NetNodeSet[VSN].RegNr>0))
   \   00000708   5D48               LDR      R0,??HTTP_Query_31  ;; MainStage
   \   0000070A   A021               MOVS     R1,#+160
   \   0000070C   B278               LDRB     R2,[R6, #+2]
   \   0000070E   5200               LSLS     R2,R2,#+1
   \   00000710   7378               LDRB     R3,[R6, #+1]
   \   00000712   1627               MOVS     R7,#+22
   \   00000714   7B43               MULS     R3,R7,R3
   \   00000716   C318               ADDS     R3,R0,R3
   \   00000718   9A18               ADDS     R2,R3,R2
   \   0000071A   515E               LDRSH    R1,[R2, R1]
   \   0000071C   5A4A               LDR      R2,??HTTP_Query_31+0x8  ;; 0xffff8000
   \   0000071E   9142               CMP      R1,R2
   \   00000720   03D1               BNE      ??HTTP_Query_32
   \   00000722   B178               LDRB     R1,[R6, #+2]
   \   00000724   0029               CMP      R1,#+0
   \   00000726   00D0               BEQ      .+4
   \   00000728   A2E5               B        ??HTTP_Query_12
   1242                                        {
   1243                                           Buff_TX[BTS++]='B';
   1244                                           Buff_TX[BTS++]='A';
   1245                                           Buff_TX[BTS++]='T';
   1246                                        }else{  
   1247                                         
   1248                                          if ((VariablesAnal[Net->HTTP.NetNodeSet[VSN].VarNr])>999)
   \                     ??HTTP_Query_32:
   \   0000072A   584A               LDR      R2,??HTTP_Query_31+0xC  ;; VariablesAnal
   \   0000072C   7178               LDRB     R1,[R6, #+1]
   \   0000072E   4900               LSLS     R1,R1,#+1
   \   00000730   515E               LDRSH    R1,[R2, R1]
   \   00000732   FA23               MOVS     R3,#+250
   \   00000734   9B00               LSLS     R3,R3,#+2        ;; #+1000
   \   00000736   9942               CMP      R1,R3
   \   00000738   00DB               BLT      .+4
   \   0000073A   B0E5               B        ??HTTP_Query_15
   1249                                          {
   1250                                            Buff_TX[BTS++]='>';
   1251                                            Buff_TX[BTS++]='M';
   1252                                            Buff_TX[BTS++]='A';
   1253                                            Buff_TX[BTS++]='X';
   1254                                          }
   1255                                          else if ((VariablesAnal[Net->HTTP.NetNodeSet[VSN].VarNr])<-999)
   \   0000073C   7178               LDRB     R1,[R6, #+1]
   \   0000073E   4900               LSLS     R1,R1,#+1
   \   00000740   515E               LDRSH    R1,[R2, R1]
   \   00000742   534A               LDR      R2,??HTTP_Query_31+0x10  ;; 0xfffffc19
   \   00000744   9142               CMP      R1,R2
   \   00000746   00DA               BGE      .+4
   \   00000748   C4E5               B        ??HTTP_Query_17
   1256                                          {
   1257                                            Buff_TX[BTS++]='-';
   1258                                            Buff_TX[BTS++]='M';
   1259                                            Buff_TX[BTS++]='I';
   1260                                            Buff_TX[BTS++]='N';
   1261                                          }else{
   1262                                            ilLit=sIntToStr(MainStage.StageI[Net->HTTP.NetNodeSet[VSN].NodeNr].Value[Net->HTTP.NetNodeSet[VSN].RegNr],&Buff_TX[BTS]);
   \   0000074A   6119               ADDS     R1,R4,R5
   \   0000074C   A022               MOVS     R2,#+160
   \   0000074E   B378               LDRB     R3,[R6, #+2]
   \   00000750   5B00               LSLS     R3,R3,#+1
   \   00000752   7678               LDRB     R6,[R6, #+1]
   \   00000754   7E43               MULS     R6,R7,R6
   \   00000756   8019               ADDS     R0,R0,R6
   \   00000758   C018               ADDS     R0,R0,R3
   \   0000075A   805E               LDRSH    R0,[R0, R2]
   \   0000075C   ........           BL       sIntToStr
   1263                                            BTS+=ilLit;
   \   00000760   2D18               ADDS     R5,R5,R0
   \   00000762   2D04               LSLS     R5,R5,#+16
   \   00000764   2D14               ASRS     R5,R5,#+16
   1264             
   1265                                          for (char i=ilLit; i<4; i++) {Buff_TX[BTS++]=' ';}
   \                     ??HTTP_Query_33:
   \   00000766   0100               MOVS     R1,R0
   \   00000768   0429               CMP      R1,#+4
   \   0000076A   00D3               BCC      .+4
   \   0000076C   DCE5               B        ??HTTP_Query_13
   \   0000076E   2021               MOVS     R1,#+32
   \   00000770   6155               STRB     R1,[R4, R5]
   \   00000772   6D1C               ADDS     R5,R5,#+1
   \   00000774   2D04               LSLS     R5,R5,#+16
   \   00000776   2D14               ASRS     R5,R5,#+16
   \   00000778   401C               ADDS     R0,R0,#+1
   \   0000077A   0006               LSLS     R0,R0,#+24
   \   0000077C   000E               LSRS     R0,R0,#+24
   \   0000077E   F2E7               B        ??HTTP_Query_33
   1266                                          }
   1267                                        }
   1268                                        
   1269                                        Buff_TX[BTS++]=0xd;
   1270                                        Buff_TX[BTS++]=0xa;
   1271                                        ContentLength+=12;
   1272                                          
   1273                                  break;
   1274                                  
   1275                                }
   1276                              }
   1277                         
   1278                              ContentLength=BTS-NAG;
   1279                              
   1280                               Send=1;
   \                     ??HTTP_Query_21:
   \   00000780   0126               MOVS     R6,#+1
   1281                              char LengthTxt[4];
   1282                              char IlLiczb=CharToStr(ContentLength,LengthTxt,3);    //(char Value, char *Vstring, char ill) 
   \   00000782   0322               MOVS     R2,#+3
   \   00000784   04A9               ADD      R1,SP,#+16
   \   00000786   2800               MOVS     R0,R5
   \   00000788   039B               LDR      R3,[SP, #+12]
   \   0000078A   C01A               SUBS     R0,R0,R3
   \   0000078C   0006               LSLS     R0,R0,#+24
   \   0000078E   000E               LSRS     R0,R0,#+24
   \   00000790   ........           BL       CharToStr
   1283                              
   1284                              for (char i=0; i<IlLiczb; i++)
   \   00000794   0021               MOVS     R1,#+0
   \   00000796   04AF               ADD      R7,SP,#+16
   \   00000798   0CE0               B        ??HTTP_Query_34
   \   0000079A   C046               Nop      
   \                     ??HTTP_Query_28:
   \   0000079C   ........           DC32     Variables
   \   000007A0   ........           DC32     DateTime
   1285                              {
   1286                                Buff_TX[PozLength+i]=LengthTxt[i];
   \                     ??HTTP_Query_35:
   \   000007A4   6B46               MOV      R3,SP
   \   000007A6   1B7A               LDRB     R3,[R3, #+8]
   \   000007A8   9B18               ADDS     R3,R3,R2
   \   000007AA   BA5C               LDRB     R2,[R7, R2]
   \   000007AC   E254               STRB     R2,[R4, R3]
   1287                              }
   \   000007AE   491C               ADDS     R1,R1,#+1
   \   000007B0   0906               LSLS     R1,R1,#+24
   \   000007B2   090E               LSRS     R1,R1,#+24
   \                     ??HTTP_Query_34:
   \   000007B4   0A00               MOVS     R2,R1
   \   000007B6   8242               CMP      R2,R0
   \   000007B8   F4D3               BCC      ??HTTP_Query_35
   1288                              
   1289                    
   1290                            Net->Status.Timeout=g_counter + CRYTICAL_TIMEOUT;    //przed³u¿enie /restart timeoutu
   \   000007BA   0C9F               LDR      R7,[SP, #+48]
   \   000007BC   1837               ADDS     R7,R7,#+24
   \   000007BE   2037               ADDS     R7,R7,#+32
   \   000007C0   3448               LDR      R0,??HTTP_Query_31+0x14  ;; g_counter
   \   000007C2   03C8               LDM      R0!,{R0,R1}
   \   000007C4   0200               MOVS     R2,R0
   \   000007C6   0B00               MOVS     R3,R1
   \   000007C8   3348               LDR      R0,??HTTP_Query_31+0x18  ;; 0x2710
   \   000007CA   0021               MOVS     R1,#+0
   \   000007CC   8018               ADDS     R0,R0,R2
   \   000007CE   5941               ADCS     R1,R1,R3
   \   000007D0   03C7               STM      R7!,{R0,R1}
   1291                      break;              
   1292                    }
   1293                     
   1294                      if (Send)
   \                     ??HTTP_Query_4:
   \   000007D2   002E               CMP      R6,#+0
   \   000007D4   50D0               BEQ      ??HTTP_Query_36
   1295                      {
   1296                        
   1297                        Buff_TX[BTS++]=0x1B;
   \   000007D6   1B20               MOVS     R0,#+27
   \   000007D8   6055               STRB     R0,[R4, R5]
   \   000007DA   6D1C               ADDS     R5,R5,#+1
   \   000007DC   2D04               LSLS     R5,R5,#+16
   \   000007DE   2D14               ASRS     R5,R5,#+16
   1298                        Buff_TX[BTS++]='E';
   \   000007E0   4520               MOVS     R0,#+69
   \   000007E2   6055               STRB     R0,[R4, R5]
   \   000007E4   6D1C               ADDS     R5,R5,#+1
   \   000007E6   2D04               LSLS     R5,R5,#+16
   \   000007E8   2D14               ASRS     R5,R5,#+16
   1299                        for (short i=0; i<US1_BUFFER_Rx_SIZE; i++) Buff_RX[i]=0;
   \   000007EA   0020               MOVS     R0,#+0
   \   000007EC   0200               MOVS     R2,R0
   \   000007EE   04E0               B        ??HTTP_Query_37
   \                     ??HTTP_Query_38:
   \   000007F0   0A99               LDR      R1,[SP, #+40]
   \   000007F2   0A54               STRB     R2,[R1, R0]
   \   000007F4   401C               ADDS     R0,R0,#+1
   \   000007F6   0004               LSLS     R0,R0,#+16
   \   000007F8   0014               ASRS     R0,R0,#+16
   \                     ??HTTP_Query_37:
   \   000007FA   9121               MOVS     R1,#+145
   \   000007FC   8900               LSLS     R1,R1,#+2        ;; #+580
   \   000007FE   8842               CMP      R0,R1
   \   00000800   F6DB               BLT      ??HTTP_Query_38
   1300                        if (Net->Status.HostLink==CONNECTED)
   \   00000802   0198               LDR      R0,[SP, #+4]
   \   00000804   0078               LDRB     R0,[R0, #+0]
   \   00000806   0328               CMP      R0,#+3
   \   00000808   2CD1               BNE      ??HTTP_Query_39
   1301                        {
   1302                            
   1303                            Net->Status.Timeout=g_counter + CRYTICAL_TIMEOUT;    //przed³u¿enie /restart timeoutu
   \   0000080A   0C9E               LDR      R6,[SP, #+48]
   \   0000080C   1836               ADDS     R6,R6,#+24
   \   0000080E   214F               LDR      R7,??HTTP_Query_31+0x14  ;; g_counter
   \   00000810   3200               MOVS     R2,R6
   \   00000812   2032               ADDS     R2,R2,#+32
   \   00000814   9446               MOV      R12,R2
   \   00000816   03CF               LDM      R7!,{R0,R1}
   \   00000818   083F               SUBS     R7,R7,#+8
   \   0000081A   0200               MOVS     R2,R0
   \   0000081C   0B00               MOVS     R3,R1
   \   0000081E   1E48               LDR      R0,??HTTP_Query_31+0x18  ;; 0x2710
   \   00000820   0021               MOVS     R1,#+0
   \   00000822   8018               ADDS     R0,R0,R2
   \   00000824   5941               ADCS     R1,R1,R3
   \   00000826   6246               MOV      R2,R12
   \   00000828   03C2               STM      R2!,{R0,R1}
   1304                            Net->Status.HttpNextQueryTime=g_counter+HTTP_QUERY_MAX_TIME;   //restart czasu pomiêdzy odpytaniami HTTP. Ustawienie Maksymalnego czasu na odpowied
   \   0000082A   3200               MOVS     R2,R6
   \   0000082C   1832               ADDS     R2,R2,#+24
   \   0000082E   9446               MOV      R12,R2
   \   00000830   03CF               LDM      R7!,{R0,R1}
   \   00000832   083F               SUBS     R7,R7,#+8
   \   00000834   0200               MOVS     R2,R0
   \   00000836   0B00               MOVS     R3,R1
   \   00000838   1848               LDR      R0,??HTTP_Query_31+0x1C  ;; 0x1388
   \   0000083A   0021               MOVS     R1,#+0
   \   0000083C   8018               ADDS     R0,R0,R2
   \   0000083E   5941               ADCS     R1,R1,R3
   \   00000840   6246               MOV      R2,R12
   \   00000842   03C2               STM      R2!,{R0,R1}
   1305                            
   1306                            
   1307                            AT91F_US_SendFrame(USART,Buff_TX,BTS,0, 0);                        //Wysyla ramke 
                                                            ^
Warning[Pe167]: argument of type "char *" is incompatible with parameter of
          type "unsigned char *"
   \   00000844   82B0               SUB      SP,SP,#+8
   \   00000846   0020               MOVS     R0,#+0
   \   00000848   0090               STR      R0,[SP, #+0]
   \   0000084A   0300               MOVS     R3,R0
   \   0000084C   2A00               MOVS     R2,R5
   \   0000084E   2100               MOVS     R1,R4
   \   00000850   0D98               LDR      R0,[SP, #+52]
   \   00000852   ........           BL       AT91F_US_SendFrame
   \   00000856   02B0               ADD      SP,SP,#+8
   1308                            
   1309                            Net->Status.SendPacketTime=g_counter;
   \   00000858   3200               MOVS     R2,R6
   \   0000085A   0832               ADDS     R2,R2,#+8
   \   0000085C   03CF               LDM      R7!,{R0,R1}
   \   0000085E   03C2               STM      R2!,{R0,R1}
   1310                            Net->Status.SendBytes=BTS;
   \   00000860   2800               MOVS     R0,R5
   \   00000862   3080               STRH     R0,[R6, #+0]
   1311                            
   1312                        }
   1313                        
   1314                        if (WiFiDebug) 
   \                     ??HTTP_Query_39:
   \   00000864   0E48               LDR      R0,??HTTP_Query_31+0x20  ;; WiFiDebug
   \   00000866   0078               LDRB     R0,[R0, #+0]
   \   00000868   0028               CMP      R0,#+0
   \   0000086A   05D0               BEQ      ??HTTP_Query_36
   1315                        {
   1316                          SendViaUSB(Buff_TX, BTS);
                                            ^
Warning[Pe167]: argument of type "char *" is incompatible with parameter of
          type "unsigned char *"

             char *PozIlByte;
                   ^
"D:\Zeuron\Projekty\S300\S300-program v1.4 - 12.06.2013\Framework\WizFiCommand.c",1039  Warning[Pe177]: 
          variable "PozIlByte" was declared but never referenced
   \   0000086C   2900               MOVS     R1,R5
   \   0000086E   0904               LSLS     R1,R1,#+16
   \   00000870   090C               LSRS     R1,R1,#+16
   \   00000872   2000               MOVS     R0,R4
   \   00000874   ........           BL       SendViaUSB
   1317                          /*
   1318                          if (BTS>255)
   1319                          {
   1320                           SendViaUSB(Buff_TX, 255);
   1321                           //SendViaUSB(Buff_TX+255, BTS-255);
   1322                          }else{
   1323                           SendViaUSB(Buff_TX, BTS); 
   1324                          }
   1325                          */
   1326                        }
   1327                      }
   1328            
   1329          }
   \                     ??HTTP_Query_36:
   \   00000878   0DB0               ADD      SP,SP,#+52
   \   0000087A   F0BC               POP      {R4-R7}
   \   0000087C   01BC               POP      {R0}
   \   0000087E   0047               BX       R0               ;; return
   \                     ??HTTP_Query_31:
   \   00000880   ........           DC32     MainStage
   \   00000884   A2030000           DC32     0x3a2
   \   00000888   0080FFFF           DC32     0xffff8000
   \   0000088C   ........           DC32     VariablesAnal
   \   00000890   19FCFFFF           DC32     0xfffffc19
   \   00000894   ........           DC32     g_counter
   \   00000898   10270000           DC32     0x2710
   \   0000089C   88130000           DC32     0x1388
   \   000008A0   ........           DC32     WiFiDebug
   1330          
   1331          
   1332          
   1333            
   1334          
   1335          
   1336          
   1337          

   \                                 In section Debug.txt, align 4, keep-with-next
   1338          char HTTP_QueryResponse(char *Buff_RX, char *Buff_TX, AT91PS_USART USART, _Net *Net)
   1339          {
   \                     HTTP_QueryResponse:
   \   00000000   F9B5               PUSH     {R0,R3-R7,LR}
   \   00000002   83B0               SUB      SP,SP,#+12
   1340          
   1341                   char *pTxt;
   1342              
   1343                   //if (WiFiDebug) SendViaUSB(Buff_RX, 580); 
   1344                   
   1345                   if ((Buff_RX[3]=='H') && (Buff_RX[4]=='T')&& (Buff_RX[5]=='T') && (Buff_RX[6]=='P')  ) //(strstr(Buff_RX, "HTTP")!=NULL)
   \   00000004   C078               LDRB     R0,[R0, #+3]
   \   00000006   4828               CMP      R0,#+72
   \   00000008   00D0               BEQ      .+4
   \   0000000A   E5E0               B        ??HTTP_QueryResponse_0
   \   0000000C   0398               LDR      R0,[SP, #+12]
   \   0000000E   0079               LDRB     R0,[R0, #+4]
   \   00000010   5428               CMP      R0,#+84
   \   00000012   00D0               BEQ      .+4
   \   00000014   E0E0               B        ??HTTP_QueryResponse_0
   \   00000016   0398               LDR      R0,[SP, #+12]
   \   00000018   4079               LDRB     R0,[R0, #+5]
   \   0000001A   5428               CMP      R0,#+84
   \   0000001C   00D0               BEQ      .+4
   \   0000001E   DBE0               B        ??HTTP_QueryResponse_0
   \   00000020   0398               LDR      R0,[SP, #+12]
   \   00000022   8079               LDRB     R0,[R0, #+6]
   \   00000024   5028               CMP      R0,#+80
   \   00000026   00D0               BEQ      .+4
   \   00000028   D6E0               B        ??HTTP_QueryResponse_0
   1346                   {
   1347          
   1348                         Net->Status.ResPacketTime=g_counter;
   \   0000002A   1800               MOVS     R0,R3
   \   0000002C   2830               ADDS     R0,R0,#+40
   \   0000002E   0190               STR      R0,[SP, #+4]
   \   00000030   0200               MOVS     R2,R0
   \   00000032   CA48               LDR      R0,??HTTP_QueryResponse_1  ;; g_counter
   \   00000034   03C8               LDM      R0!,{R0,R1}
   \   00000036   03C2               STM      R2!,{R0,R1}
   1349                        
   1350                         Net->Status.HttpNextQueryTime=g_counter+(Net->WiFi.HttpQueryPeriod*100); 
   \   00000038   049C               LDR      R4,[SP, #+16]
   \   0000003A   EE34               ADDS     R4,R4,#+238
   \   0000003C   019D               LDR      R5,[SP, #+4]
   \   0000003E   0835               ADDS     R5,R5,#+8
   \   00000040   C648               LDR      R0,??HTTP_QueryResponse_1  ;; g_counter
   \   00000042   0CC8               LDM      R0!,{R2,R3}
   \   00000044   0020               MOVS     R0,#+0
   \   00000046   205E               LDRSH    R0,[R4, R0]
   \   00000048   6421               MOVS     R1,#+100
   \   0000004A   4843               MULS     R0,R1,R0
   \   0000004C   C117               ASRS     R1,R0,#+31
   \   0000004E   8018               ADDS     R0,R0,R2
   \   00000050   5941               ADCS     R1,R1,R3
   \   00000052   03C5               STM      R5!,{R0,R1}
   \   00000054   C249               LDR      R1,??HTTP_QueryResponse_1+0x4  ;; `?<Constant "GET ">` + 80
   \   00000056   0398               LDR      R0,[SP, #+12]
   1351                         pTxt=strstr(Buff_RX, "\r\n\r\n");
   \   00000058   ........           BL       strstr
   \   0000005C   0500               MOVS     R5,R0
   1352                         if ((pTxt!=NULL) && (strstr(Buff_RX, "OK")!=NULL))
   \   0000005E   00D1               BNE      .+4
   \   00000060   BAE0               B        ??HTTP_QueryResponse_0
   \   00000062   C0A1               ADR      R1,??HTTP_QueryResponse_1+0x8  ;; 0x4F, 0x4B, 0x00, 0x00
   \   00000064   0398               LDR      R0,[SP, #+12]
   \   00000066   ........           BL       strstr
   \   0000006A   0028               CMP      R0,#+0
   \   0000006C   00D1               BNE      .+4
   \   0000006E   B3E0               B        ??HTTP_QueryResponse_0
   1353                         {  
   1354                           pTxt+=4;
   \   00000070   2D1D               ADDS     R5,R5,#+4
   1355                           switch (Net->Status.CurrentOrder)     
   \   00000072   0498               LDR      R0,[SP, #+16]
   \   00000074   401C               ADDS     R0,R0,#+1
   \   00000076   0290               STR      R0,[SP, #+8]
   \   00000078   4078               LDRB     R0,[R0, #+1]
   \   0000007A   1228               CMP      R0,#+18
   \   0000007C   00D1               BNE      .+4
   \   0000007E   FAE1               B        ??HTTP_QueryResponse_2
   \   00000080   1328               CMP      R0,#+19
   \   00000082   00D1               BNE      .+4
   \   00000084   ACE0               B        ??HTTP_QueryResponse_3
   \   00000086   1428               CMP      R0,#+20
   \   00000088   00D0               BEQ      .+4
   \   0000008A   90E0               B        ??HTTP_QueryResponse_4
   1356                                 {
   1357                                    case HTTP_GET_Config:
   1358                                         pTxt+=3;
   \   0000008C   ED1C               ADDS     R5,R5,#+3
   1359                                         Net->HTTP.VarSetCount=0;    
   \   0000008E   0020               MOVS     R0,#+0
   \   00000090   0100               MOVS     R1,R0
   \   00000092   2171               STRB     R1,[R4, #+4]
   1360                                         for (char i=0; i<VAR_SET_AMOUNT; i++) {Net->HTTP.NetNodeSet[i].NetDataType=NO_Var;}  //wyczyszczenie tablicy 
   \   00000094   09E0               B        ??HTTP_QueryResponse_5
   \                     ??HTTP_QueryResponse_6:
   \   00000096   0523               MOVS     R3,#+5
   \   00000098   5A43               MULS     R2,R3,R2
   \   0000009A   049B               LDR      R3,[SP, #+16]
   \   0000009C   9A18               ADDS     R2,R3,R2
   \   0000009E   F632               ADDS     R2,R2,#+246
   \   000000A0   0300               MOVS     R3,R0
   \   000000A2   1370               STRB     R3,[R2, #+0]
   \   000000A4   491C               ADDS     R1,R1,#+1
   \   000000A6   0906               LSLS     R1,R1,#+24
   \   000000A8   090E               LSRS     R1,R1,#+24
   \                     ??HTTP_QueryResponse_5:
   \   000000AA   0A00               MOVS     R2,R1
   \   000000AC   282A               CMP      R2,#+40
   \   000000AE   F2D3               BCC      ??HTTP_QueryResponse_6
   1361                                         //przepisanie konfiguracji do tabeli VarSet  
   1362                                          while (((pTxt[0]=='a') || (pTxt[0]=='b') || (pTxt[0]=='c') || (pTxt[0]=='d') || (pTxt[0]=='i') || (pTxt[0]=='q') || (pTxt[0]=='r')) && (Net->HTTP.VarSetCount<VAR_SET_AMOUNT))
   \                     ??HTTP_QueryResponse_7:
   \   000000B0   2978               LDRB     R1,[R5, #+0]
   \   000000B2   6129               CMP      R1,#+97
   \   000000B4   0BD0               BEQ      ??HTTP_QueryResponse_8
   \   000000B6   6229               CMP      R1,#+98
   \   000000B8   09D0               BEQ      ??HTTP_QueryResponse_8
   \   000000BA   6329               CMP      R1,#+99
   \   000000BC   07D0               BEQ      ??HTTP_QueryResponse_8
   \   000000BE   6429               CMP      R1,#+100
   \   000000C0   05D0               BEQ      ??HTTP_QueryResponse_8
   \   000000C2   6929               CMP      R1,#+105
   \   000000C4   03D0               BEQ      ??HTTP_QueryResponse_8
   \   000000C6   7129               CMP      R1,#+113
   \   000000C8   01D0               BEQ      ??HTTP_QueryResponse_8
   \   000000CA   7229               CMP      R1,#+114
   \   000000CC   4AD1               BNE      ??HTTP_QueryResponse_9
   \                     ??HTTP_QueryResponse_8:
   \   000000CE   2179               LDRB     R1,[R4, #+4]
   \   000000D0   2829               CMP      R1,#+40
   \   000000D2   47D2               BCS      ??HTTP_QueryResponse_9
   1363                                          {
   1364                                             if ((pTxt[0]=='i') || (pTxt[0]=='q') || (pTxt[0]=='r'))  //je¿eli wejcie lub wyjcie wêz³a lub sensor
   \   000000D4   2978               LDRB     R1,[R5, #+0]
   \   000000D6   6929               CMP      R1,#+105
   \   000000D8   03D0               BEQ      ??HTTP_QueryResponse_10
   \   000000DA   7129               CMP      R1,#+113
   \   000000DC   01D0               BEQ      ??HTTP_QueryResponse_10
   \   000000DE   7229               CMP      R1,#+114
   \   000000E0   26D1               BNE      ??HTTP_QueryResponse_11
   1365                                             {
   1366                                               Net->HTTP.NetNodeSet[Net->HTTP.VarSetCount].NetDataType=pTxt[0];
                                                                                                             ^
Warning[Pe188]: enumerated type mixed with another type
   \                     ??HTTP_QueryResponse_10:
   \   000000E2   2179               LDRB     R1,[R4, #+4]
   \   000000E4   0522               MOVS     R2,#+5
   \   000000E6   5143               MULS     R1,R2,R1
   \   000000E8   049A               LDR      R2,[SP, #+16]
   \   000000EA   5118               ADDS     R1,R2,R1
   \   000000EC   F631               ADDS     R1,R1,#+246
   \   000000EE   2A78               LDRB     R2,[R5, #+0]
   \   000000F0   0A70               STRB     R2,[R1, #+0]
   1367                                               Net->HTTP.NetNodeSet[Net->HTTP.VarSetCount].NodeNr=(pTxt[1]-48)*10+(pTxt[2]-48);
   \   000000F2   2179               LDRB     R1,[R4, #+4]
   \   000000F4   0522               MOVS     R2,#+5
   \   000000F6   5143               MULS     R1,R2,R1
   \   000000F8   049A               LDR      R2,[SP, #+16]
   \   000000FA   5118               ADDS     R1,R2,R1
   \   000000FC   F731               ADDS     R1,R1,#+247
   \   000000FE   6A78               LDRB     R2,[R5, #+1]
   \   00000100   0A23               MOVS     R3,#+10
   \   00000102   5A43               MULS     R2,R3,R2
   \   00000104   AB78               LDRB     R3,[R5, #+2]
   \   00000106   D218               ADDS     R2,R2,R3
   \   00000108   103A               SUBS     R2,R2,#+16
   \   0000010A   0A70               STRB     R2,[R1, #+0]
   1368                                               Net->HTTP.NetNodeSet[Net->HTTP.VarSetCount].PortNr=(pTxt[3]-48)*10+(pTxt[4]-48);
   \   0000010C   2179               LDRB     R1,[R4, #+4]
   \   0000010E   0522               MOVS     R2,#+5
   \   00000110   5143               MULS     R1,R2,R1
   \   00000112   049A               LDR      R2,[SP, #+16]
   \   00000114   5118               ADDS     R1,R2,R1
   \   00000116   F831               ADDS     R1,R1,#+248
   \   00000118   EA78               LDRB     R2,[R5, #+3]
   \   0000011A   0A23               MOVS     R3,#+10
   \   0000011C   5A43               MULS     R2,R3,R2
   \   0000011E   2B79               LDRB     R3,[R5, #+4]
   \   00000120   D218               ADDS     R2,R2,R3
   \   00000122   103A               SUBS     R2,R2,#+16
   \   00000124   0A70               STRB     R2,[R1, #+0]
   1369                                               Net->HTTP.VarSetCount++;
   \   00000126   2179               LDRB     R1,[R4, #+4]
   \   00000128   491C               ADDS     R1,R1,#+1
   \   0000012A   2171               STRB     R1,[R4, #+4]
   1370                                               pTxt+=9;
   \   0000012C   0935               ADDS     R5,R5,#+9
   \   0000012E   BFE7               B        ??HTTP_QueryResponse_7
   1371                                             }else{
   1372                                               Net->HTTP.NetNodeSet[Net->HTTP.VarSetCount].NetDataType=pTxt[0];
                                                                                                             ^
Warning[Pe188]: enumerated type mixed with another type
   \                     ??HTTP_QueryResponse_11:
   \   00000130   2179               LDRB     R1,[R4, #+4]
   \   00000132   0522               MOVS     R2,#+5
   \   00000134   5143               MULS     R1,R2,R1
   \   00000136   049A               LDR      R2,[SP, #+16]
   \   00000138   5118               ADDS     R1,R2,R1
   \   0000013A   F631               ADDS     R1,R1,#+246
   \   0000013C   2A78               LDRB     R2,[R5, #+0]
   \   0000013E   0A70               STRB     R2,[R1, #+0]
   1373                                               Net->HTTP.NetNodeSet[Net->HTTP.VarSetCount].VarNr=(pTxt[1]-48)*10+(pTxt[2]-48);
   \   00000140   2179               LDRB     R1,[R4, #+4]
   \   00000142   0522               MOVS     R2,#+5
   \   00000144   5143               MULS     R1,R2,R1
   \   00000146   049A               LDR      R2,[SP, #+16]
   \   00000148   5118               ADDS     R1,R2,R1
   \   0000014A   F731               ADDS     R1,R1,#+247
   \   0000014C   6A78               LDRB     R2,[R5, #+1]
   \   0000014E   0A23               MOVS     R3,#+10
   \   00000150   5A43               MULS     R2,R3,R2
   \   00000152   AB78               LDRB     R3,[R5, #+2]
   \   00000154   D218               ADDS     R2,R2,R3
   \   00000156   103A               SUBS     R2,R2,#+16
   \   00000158   0A70               STRB     R2,[R1, #+0]
   1374                                               Net->HTTP.VarSetCount++;
   \   0000015A   2179               LDRB     R1,[R4, #+4]
   \   0000015C   491C               ADDS     R1,R1,#+1
   \   0000015E   2171               STRB     R1,[R4, #+4]
   1375                                               pTxt+=7;
   \   00000160   ED1D               ADDS     R5,R5,#+7
   \   00000162   A5E7               B        ??HTTP_QueryResponse_7
   1376                                             }
   1377                                          }
   1378          
   1379                                         for (char i=0; i<20; i++) Buff_RX[i]=0;
   \                     ??HTTP_QueryResponse_9:
   \   00000164   0100               MOVS     R1,R0
   \   00000166   0600               MOVS     R6,R0
   \   00000168   04E0               B        ??HTTP_QueryResponse_12
   \                     ??HTTP_QueryResponse_13:
   \   0000016A   039B               LDR      R3,[SP, #+12]
   \   0000016C   9E54               STRB     R6,[R3, R2]
   \   0000016E   491C               ADDS     R1,R1,#+1
   \   00000170   0906               LSLS     R1,R1,#+24
   \   00000172   090E               LSRS     R1,R1,#+24
   \                     ??HTTP_QueryResponse_12:
   \   00000174   0A00               MOVS     R2,R1
   \   00000176   142A               CMP      R2,#+20
   \   00000178   F7D3               BCC      ??HTTP_QueryResponse_13
   1380                                         Net->Status.NextHttpOrder=HTTP_POST;
   \   0000017A   0299               LDR      R1,[SP, #+8]
   \   0000017C   1222               MOVS     R2,#+18
   \   0000017E   8A70               STRB     R2,[R1, #+2]
   1381                                         Net->Status.CurrentOrder=WizFi_NC;     //wyczyszczenie rozkazów
   \   00000180   0299               LDR      R1,[SP, #+8]
   \   00000182   4870               STRB     R0,[R1, #+1]
   1382                                         Net->Status.Timeout=g_counter + CRYTICAL_TIMEOUT;    //przed³u¿enie /restart timeoutu
   \   00000184   019E               LDR      R6,[SP, #+4]
   \   00000186   1036               ADDS     R6,R6,#+16
   \   00000188   7448               LDR      R0,??HTTP_QueryResponse_1  ;; g_counter
   \   0000018A   0CC8               LDM      R0!,{R2,R3}
   \   0000018C   C048               LDR      R0,??HTTP_QueryResponse_14  ;; 0x2710
   \   0000018E   0021               MOVS     R1,#+0
   \   00000190   8018               ADDS     R0,R0,R2
   \   00000192   5941               ADCS     R1,R1,R3
   \   00000194   03C6               STM      R6!,{R0,R1}
   1383                                         Net->Status.HttpNextQueryTime=g_counter+(Net->WiFi.HttpQueryPeriod*100);   //restart czasu pomiêdzy odpytaniami HTTP.
   \   00000196   019E               LDR      R6,[SP, #+4]
   \   00000198   0836               ADDS     R6,R6,#+8
   \   0000019A   7048               LDR      R0,??HTTP_QueryResponse_1  ;; g_counter
   \   0000019C   03C8               LDM      R0!,{R0,R1}
   \   0000019E   0022               MOVS     R2,#+0
   \   000001A0   A25E               LDRSH    R2,[R4, R2]
   \   000001A2   6423               MOVS     R3,#+100
   \   000001A4   5A43               MULS     R2,R3,R2
   \   000001A6   D317               ASRS     R3,R2,#+31
   \   000001A8   1218               ADDS     R2,R2,R0
   \   000001AA   4B41               ADCS     R3,R3,R1
   \   000001AC   0CC6               STM      R6!,{R2,R3}
   1384                                         
   1385                                    break; 
   1386                                    
   1387                                    case HTTP_GET: 
   1388                               
   1389                                          pTxt=pTxt;
   1390                                          char ZmType=0;
   1391                                          char ZmNr=0;      //numer zmiennej lub wêz³a
   1392                                          char PortNr=0;
   1393                                          char IlCyfr;
   1394                                          short int NNW=StrToWord(pTxt, &IlCyfr);         //numer najnowszego wpisu
   1395                                          short int NW=NNW;
   1396                                          pTxt+=IlCyfr+1;
   1397                                          ZmType=*pTxt; pTxt++;
   1398                                          ZmNr=(pTxt[0]-48)*10+pTxt[1]-48;
   1399                                          PortNr=(pTxt[2]-48)*10+pTxt[3]-48;
   1400                                          pTxt+=3;
   1401                                          while (((ZmType=='a') || (ZmType=='b') || (ZmType=='c') || (ZmType=='d') || (ZmType=='e') || (ZmType=='q')) && (NW>Net->HTTP.LastForseOrderNr) && (Net->HTTP.LastForseOrderNr!=0) )
   1402                                          {
   1403                                            switch (ZmType) 
   1404                                            {
   1405                                              case 'a': ////zmienne analogowe
   1406                                                  VariablesAnal[ZmNr]=StrToWord(pTxt, &IlCyfr);
   1407                                                  pTxt+=IlCyfr+2;
   1408                                              break;
   1409                                                
   1410                                              case 'b':  //zmienne dwustanowe 
   1411                                                   
   1412                                                if ((*pTxt=='1'))
   1413                                                 {
   1414                                                   Variables[ZmNr/8] |= 1<<(ZmNr%8);
   1415                                                 }
   1416                                                else if ((*pTxt=='2'))
   1417                                                 {
   1418                                                   Variables[ZmNr/8] |= 1<<(ZmNr%8);
   1419                                                   VariablesImpulse[ZmNr/8] |= 1<<(ZmNr%8);
   1420                                                 }
   1421                                                 else
   1422                                                 { 
   1423                                                   Variables[ZmNr/8]&= ~(1<<(ZmNr%8));
   1424                                                 }
   1425                                                   pTxt+=3;
   1426                                              break;  
   1427                                              
   1428                                              case 'c': //zmienne specjalne analogowe
   1429                       
   1430                                                  pTxt+=IlCyfr+2;
   1431                                              break;
   1432                                                
   1433                                              case 'd': //zmienne specjalne dwustanowe
   1434                                                   if (*pTxt=='0') SetSpecialBinarVar(ZmNr, 0, Net); else SetSpecialBinarVar(ZmNr, 1, Net);   
   1435                                                   pTxt+=3;
   1436                                              break;
   1437                                              
   1438                                              case 'e': //konfiguracja
   1439                                                if (ZmNr==1)    //serwer ¿¹da pobrania nowej konfiguracji 
   1440                                                  {
   1441                                                    if (*pTxt=='0') Net->Status.NextHttpOrder=HTTP_GET_Config;
   1442                                                  }                               
   1443                                                   pTxt+=3;
   1444                                              break;
   1445                                              
   1446                                              case 'q':  //zmienne dwustanowe 
   1447                                                pTxt+=2;   
   1448                                                if ((*pTxt=='1'))
   1449                                                 {
   1450                                                    PortStageSet((&(MainStage.StageQ[ZmNr].Port)),PortNr,1);
                                                                        ^
Warning[Pe167]: argument of type "unsigned short *" is incompatible with
          parameter of type "short *"
   1451                                                 } 
   1452                                                else if ((*pTxt=='2'))
   1453                                                 {
   1454                                                    PortStageSet((&(MainStage.StageQ[ZmNr].Port)),PortNr,1);
                                                                        ^
Warning[Pe167]: argument of type "unsigned short *" is incompatible with
          parameter of type "short *"
   1455                                                    PortStageSet((&(MainStage.StageQImpulse[ZmNr])),PortNr,1);   //ustawienie flagi impuls
                                                                        ^
Warning[Pe167]: argument of type "unsigned short *" is incompatible with
          parameter of type "short *"
   1456                                                 }
   1457                                                 else
   1458                                                 { 
   1459                                                    PortStageSet((&(MainStage.StageQ[ZmNr].Port)),PortNr,0);
                                                                        ^
Warning[Pe167]: argument of type "unsigned short *" is incompatible with
          parameter of type "short *"

                   switch (Net->Status.CurrentOrder)     
                   ^
"D:\Zeuron\Projekty\S300\S300-program v1.4 - 12.06.2013\Framework\WizFiCommand.c",1355  Warning[Pe546]: 
          transfer of control bypasses initialization of:
            variable "ZmType" (declared at line 1390 of
                      "D:\Zeuron\Projekty\S300\S300-program v1.4 -
                      12.06.2013\Framework\WizFiCommand.c")
            variable "ZmNr" (declared at line 1391 of
                      "D:\Zeuron\Projekty\S300\S300-program v1.4 -
                      12.06.2013\Framework\WizFiCommand.c")
            variable "PortNr" (declared at line 1392 of
                      "D:\Zeuron\Projekty\S300\S300-program v1.4 -
                      12.06.2013\Framework\WizFiCommand.c")
            variable "NNW" (declared at line 1394 of
                      "D:\Zeuron\Projekty\S300\S300-program v1.4 -
                      12.06.2013\Framework\WizFiCommand.c")
            variable "NW" (declared at line 1395 of
                      "D:\Zeuron\Projekty\S300\S300-program v1.4 -
                      12.06.2013\Framework\WizFiCommand.c")
   1460                                                 }
   1461                                                 if (TransQuality.Mensur[ZmNr-1]>0)  MainStage.SendStageChange[ZmNr]=ChangeStageFlag;
   1462                                                 pTxt+=3;
   1463                                              break;  
   1464                                            }
   1465                                            
   1466                                            
   1467                                            NW=StrToWord(pTxt, &IlCyfr);
   1468                                            pTxt+=IlCyfr+1;
   1469                                            ZmType=*pTxt; pTxt++;
   1470                                            ZmNr=(pTxt[0]-48)*10+pTxt[1]-48;
   1471                                            PortNr=(pTxt[2]-48)*10+pTxt[2]-48;
   1472                                            pTxt+=3;
   1473                                          
   1474                                        }
   1475                                        
   1476                                        if (NNW>Net->HTTP.LastForseOrderNr) 
   1477                                        {
   1478                                          Net->HTTP.LastForseOrderNr=NNW;
   1479                                        }else if ((NNW==0) && (Net->HTTP.LastForseOrderNr>0))
   1480                                        {
   1481                                          Net->HTTP.LastForseOrderNr=0;
   1482                                          Net->Status.NextHttpOrder=HTTP_GET_Config;
   1483                                        }
   1484                                       
   1485                                        for (char i=0; i<20; i++) Buff_RX[i]=0;
   1486                                        Net->Status.CurrentOrder=WizFi_NC;     //wyczyszczenie rozkazów
   1487                                        Net->Status.Timeout=g_counter + CRYTICAL_TIMEOUT;    //przed³u¿enie /restart timeoutu
   1488                                        Net->Status.HttpNextQueryTime=g_counter+(Net->WiFi.HttpQueryPeriod*100);   //restart czasu pomiêdzy odpytaniami HTTP.
   1489                                    break; 
   1490                                    
   1491                                    case HTTP_POST:
   1492          
   1493                                        for (char i=0; i<20; i++) Buff_RX[i]=0;
   1494                                        Net->Status.CurrentOrder=WizFi_NC;     //wyczyszczenie rozkazów
   1495                                        Net->Status.Timeout=g_counter + CRYTICAL_TIMEOUT;    //przed³u¿enie /restart timeoutu
   1496                                        Net->Status.HttpNextQueryTime=g_counter+(Net->WiFi.HttpQueryPeriod*100);   //restart czasu pomiêdzy odpytaniami HTTP.
   1497                                   break;
   1498                                   
   1499                                   
   1500                               } //koniec switch (Net->Status.CurrentOrder)
   1501                           
   1502                            
   1503                              //Zg³oszone zamkniête po³¹czenie
   1504                           
   1505                              if ((strstr(Buff_RX, "Connection: close")!=NULL) /*&& (Net->Status.HostLink==CONNECTED)*/) 
   \                     ??HTTP_QueryResponse_4:
   \   000001AE   B949               LDR      R1,??HTTP_QueryResponse_14+0x4  ;; `?<Constant "GET ">` + 256
   \   000001B0   0398               LDR      R0,[SP, #+12]
   \   000001B2   ........           BL       strstr
   \   000001B6   0028               CMP      R0,#+0
   \   000001B8   0AD0               BEQ      ??HTTP_QueryResponse_15
   1506                              {
   1507                                Net->Status.FreezTime=g_counter+FREEZ_TIME;
   \   000001BA   019A               LDR      R2,[SP, #+4]
   \   000001BC   1832               ADDS     R2,R2,#+24
   \   000001BE   6748               LDR      R0,??HTTP_QueryResponse_1  ;; g_counter
   \   000001C0   03C8               LDM      R0!,{R0,R1}
   \   000001C2   0023               MOVS     R3,#+0
   \   000001C4   3230               ADDS     R0,R0,#+50
   \   000001C6   5941               ADCS     R1,R1,R3
   \   000001C8   03C2               STM      R2!,{R0,R1}
   1508                                 Net->Status.HostLink=DISCONNECTING;                             //Roz³¹czenie
   \   000001CA   0298               LDR      R0,[SP, #+8]
   \   000001CC   0121               MOVS     R1,#+1
   \   000001CE   0170               STRB     R1,[R0, #+0]
   1509                              }
   1510                          
   1511                           
   1512                           
   1513                           Net->Status.ResBytes=(int)pTxt -(int)Buff_RX;
   \                     ??HTTP_QueryResponse_15:
   \   000001D0   0498               LDR      R0,[SP, #+16]
   \   000001D2   0399               LDR      R1,[SP, #+12]
   \   000001D4   691A               SUBS     R1,R5,R1
   \   000001D6   4183               STRH     R1,[R0, #+26]
   1514                         } //koniec if(pTxt!=NULL)
   1515                         
   1516          
   1517                   
   1518                   } 
   1519                   
   1520                
   1521            
   1522          }
                 ^
Warning[Pe940]: missing return statement at end of non-void function
          "HTTP_QueryResponse"
   \                     ??HTTP_QueryResponse_0:
   \   000001D8   05B0               ADD      SP,SP,#+20
   \   000001DA   F0BC               POP      {R4-R7}
   \   000001DC   01BC               POP      {R0}
   \   000001DE   0047               BX       R0               ;; return
   \                     ??HTTP_QueryResponse_3:
   \   000001E0   6946               MOV      R1,SP
   \   000001E2   2800               MOVS     R0,R5
   \   000001E4   ........           BL       StrToWord
   \   000001E8   6946               MOV      R1,SP
   \   000001EA   4880               STRH     R0,[R1, #+2]
   \   000001EC   0220               MOVS     R0,#+2
   \   000001EE   085E               LDRSH    R0,[R1, R0]
   \   000001F0   0978               LDRB     R1,[R1, #+0]
   \   000001F2   6D18               ADDS     R5,R5,R1
   \   000001F4   6D1C               ADDS     R5,R5,#+1
   \   000001F6   2978               LDRB     R1,[R5, #+0]
   \   000001F8   6D1C               ADDS     R5,R5,#+1
   \   000001FA   2A78               LDRB     R2,[R5, #+0]
   \   000001FC   0A23               MOVS     R3,#+10
   \   000001FE   5A43               MULS     R2,R3,R2
   \   00000200   6B78               LDRB     R3,[R5, #+1]
   \   00000202   D718               ADDS     R7,R2,R3
   \   00000204   103F               SUBS     R7,R7,#+16
   \   00000206   AA78               LDRB     R2,[R5, #+2]
   \   00000208   0A23               MOVS     R3,#+10
   \   0000020A   5A43               MULS     R2,R3,R2
   \   0000020C   EB78               LDRB     R3,[R5, #+3]
   \   0000020E   D618               ADDS     R6,R2,R3
   \   00000210   103E               SUBS     R6,R6,#+16
   \   00000212   ED1C               ADDS     R5,R5,#+3
   \   00000214   23E0               B        ??HTTP_QueryResponse_16
   \                     ??HTTP_QueryResponse_17:
   \   00000216   6946               MOV      R1,SP
   \   00000218   2800               MOVS     R0,R5
   \   0000021A   ........           BL       StrToWord
   \   0000021E   3F06               LSLS     R7,R7,#+24
   \   00000220   3F0E               LSRS     R7,R7,#+24
   \   00000222   7900               LSLS     R1,R7,#+1
   \   00000224   9C4A               LDR      R2,??HTTP_QueryResponse_14+0x8  ;; VariablesAnal
   \   00000226   5052               STRH     R0,[R2, R1]
   \   00000228   6846               MOV      R0,SP
   \   0000022A   0078               LDRB     R0,[R0, #+0]
   \   0000022C   2D18               ADDS     R5,R5,R0
   \   0000022E   AD1C               ADDS     R5,R5,#+2
   \                     ??HTTP_QueryResponse_18:
   \   00000230   6946               MOV      R1,SP
   \   00000232   2800               MOVS     R0,R5
   \   00000234   ........           BL       StrToWord
   \   00000238   6946               MOV      R1,SP
   \   0000023A   0978               LDRB     R1,[R1, #+0]
   \   0000023C   6D18               ADDS     R5,R5,R1
   \   0000023E   6D1C               ADDS     R5,R5,#+1
   \   00000240   2978               LDRB     R1,[R5, #+0]
   \   00000242   6D1C               ADDS     R5,R5,#+1
   \   00000244   2A78               LDRB     R2,[R5, #+0]
   \   00000246   0A23               MOVS     R3,#+10
   \   00000248   5A43               MULS     R2,R3,R2
   \   0000024A   6B78               LDRB     R3,[R5, #+1]
   \   0000024C   D718               ADDS     R7,R2,R3
   \   0000024E   103F               SUBS     R7,R7,#+16
   \   00000250   AA78               LDRB     R2,[R5, #+2]
   \   00000252   0A23               MOVS     R3,#+10
   \   00000254   5A43               MULS     R2,R3,R2
   \   00000256   AB78               LDRB     R3,[R5, #+2]
   \   00000258   D618               ADDS     R6,R2,R3
   \   0000025A   103E               SUBS     R6,R6,#+16
   \   0000025C   ED1C               ADDS     R5,R5,#+3
   \                     ??HTTP_QueryResponse_16:
   \   0000025E   6129               CMP      R1,#+97
   \   00000260   0AD0               BEQ      ??HTTP_QueryResponse_19
   \   00000262   6229               CMP      R1,#+98
   \   00000264   08D0               BEQ      ??HTTP_QueryResponse_19
   \   00000266   6329               CMP      R1,#+99
   \   00000268   06D0               BEQ      ??HTTP_QueryResponse_19
   \   0000026A   6429               CMP      R1,#+100
   \   0000026C   04D0               BEQ      ??HTTP_QueryResponse_19
   \   0000026E   6529               CMP      R1,#+101
   \   00000270   02D0               BEQ      ??HTTP_QueryResponse_19
   \   00000272   7129               CMP      R1,#+113
   \   00000274   00D0               BEQ      .+4
   \   00000276   C1E0               B        ??HTTP_QueryResponse_20
   \                     ??HTTP_QueryResponse_19:
   \   00000278   0622               MOVS     R2,#+6
   \   0000027A   A25E               LDRSH    R2,[R4, R2]
   \   0000027C   8242               CMP      R2,R0
   \   0000027E   00DB               BLT      .+4
   \   00000280   BCE0               B        ??HTTP_QueryResponse_20
   \   00000282   1000               MOVS     R0,R2
   \   00000284   00D1               BNE      .+4
   \   00000286   B9E0               B        ??HTTP_QueryResponse_20
   \   00000288   6129               CMP      R1,#+97
   \   0000028A   C4D0               BEQ      ??HTTP_QueryResponse_17
   \   0000028C   6229               CMP      R1,#+98
   \   0000028E   08D0               BEQ      ??HTTP_QueryResponse_21
   \   00000290   6329               CMP      R1,#+99
   \   00000292   41D0               BEQ      ??HTTP_QueryResponse_22
   \   00000294   6429               CMP      R1,#+100
   \   00000296   44D0               BEQ      ??HTTP_QueryResponse_23
   \   00000298   6529               CMP      R1,#+101
   \   0000029A   54D0               BEQ      ??HTTP_QueryResponse_24
   \   0000029C   7129               CMP      R1,#+113
   \   0000029E   63D0               BEQ      ??HTTP_QueryResponse_25
   \   000002A0   C6E7               B        ??HTTP_QueryResponse_18
   \                     ??HTTP_QueryResponse_21:
   \   000002A2   2878               LDRB     R0,[R5, #+0]
   \   000002A4   3128               CMP      R0,#+49
   \   000002A6   0FD1               BNE      ??HTTP_QueryResponse_26
   \   000002A8   3F06               LSLS     R7,R7,#+24
   \   000002AA   3F0E               LSRS     R7,R7,#+24
   \   000002AC   3A00               MOVS     R2,R7
   \   000002AE   D210               ASRS     R2,R2,#+3
   \   000002B0   7A48               LDR      R0,??HTTP_QueryResponse_14+0xC  ;; Variables
   \   000002B2   8018               ADDS     R0,R0,R2
   \   000002B4   0178               LDRB     R1,[R0, #+0]
   \   000002B6   0122               MOVS     R2,#+1
   \   000002B8   3B00               MOVS     R3,R7
   \   000002BA   DB08               LSRS     R3,R3,#+3
   \   000002BC   DB00               LSLS     R3,R3,#+3
   \   000002BE   FB1A               SUBS     R3,R7,R3
   \   000002C0   9A40               LSLS     R2,R2,R3
   \   000002C2   0A43               ORRS     R2,R2,R1
   \   000002C4   0270               STRB     R2,[R0, #+0]
   \   000002C6   25E0               B        ??HTTP_QueryResponse_27
   \                     ??HTTP_QueryResponse_26:
   \   000002C8   3228               CMP      R0,#+50
   \   000002CA   14D1               BNE      ??HTTP_QueryResponse_28
   \   000002CC   3F06               LSLS     R7,R7,#+24
   \   000002CE   3F0E               LSRS     R7,R7,#+24
   \   000002D0   0121               MOVS     R1,#+1
   \   000002D2   3800               MOVS     R0,R7
   \   000002D4   C008               LSRS     R0,R0,#+3
   \   000002D6   C000               LSLS     R0,R0,#+3
   \   000002D8   381A               SUBS     R0,R7,R0
   \   000002DA   8140               LSLS     R1,R1,R0
   \   000002DC   3A00               MOVS     R2,R7
   \   000002DE   D210               ASRS     R2,R2,#+3
   \   000002E0   6E48               LDR      R0,??HTTP_QueryResponse_14+0xC  ;; Variables
   \   000002E2   8018               ADDS     R0,R0,R2
   \   000002E4   0378               LDRB     R3,[R0, #+0]
   \   000002E6   0B43               ORRS     R3,R3,R1
   \   000002E8   0370               STRB     R3,[R0, #+0]
   \   000002EA   6D48               LDR      R0,??HTTP_QueryResponse_14+0x10  ;; VariablesImpulse
   \   000002EC   8018               ADDS     R0,R0,R2
   \   000002EE   0278               LDRB     R2,[R0, #+0]
   \   000002F0   1143               ORRS     R1,R1,R2
   \   000002F2   0170               STRB     R1,[R0, #+0]
   \   000002F4   0EE0               B        ??HTTP_QueryResponse_27
   \                     ??HTTP_QueryResponse_28:
   \   000002F6   3F06               LSLS     R7,R7,#+24
   \   000002F8   3F0E               LSRS     R7,R7,#+24
   \   000002FA   3A00               MOVS     R2,R7
   \   000002FC   D210               ASRS     R2,R2,#+3
   \   000002FE   6748               LDR      R0,??HTTP_QueryResponse_14+0xC  ;; Variables
   \   00000300   8018               ADDS     R0,R0,R2
   \   00000302   0178               LDRB     R1,[R0, #+0]
   \   00000304   0122               MOVS     R2,#+1
   \   00000306   3B00               MOVS     R3,R7
   \   00000308   DB08               LSRS     R3,R3,#+3
   \   0000030A   DB00               LSLS     R3,R3,#+3
   \   0000030C   FB1A               SUBS     R3,R7,R3
   \   0000030E   9A40               LSLS     R2,R2,R3
   \   00000310   9143               BICS     R1,R1,R2
   \   00000312   0170               STRB     R1,[R0, #+0]
   \                     ??HTTP_QueryResponse_27:
   \   00000314   ED1C               ADDS     R5,R5,#+3
   \   00000316   8BE7               B        ??HTTP_QueryResponse_18
   \                     ??HTTP_QueryResponse_22:
   \   00000318   6846               MOV      R0,SP
   \   0000031A   0078               LDRB     R0,[R0, #+0]
   \   0000031C   2D18               ADDS     R5,R5,R0
   \   0000031E   AD1C               ADDS     R5,R5,#+2
   \   00000320   86E7               B        ??HTTP_QueryResponse_18
   \                     ??HTTP_QueryResponse_23:
   \   00000322   2878               LDRB     R0,[R5, #+0]
   \   00000324   3028               CMP      R0,#+48
   \   00000326   049A               LDR      R2,[SP, #+16]
   \   00000328   06D1               BNE      ??HTTP_QueryResponse_29
   \   0000032A   0021               MOVS     R1,#+0
   \   0000032C   3800               MOVS     R0,R7
   \   0000032E   0006               LSLS     R0,R0,#+24
   \   00000330   000E               LSRS     R0,R0,#+24
   \   00000332   ........           BL       SetSpecialBinarVar
   \   00000336   EDE7               B        ??HTTP_QueryResponse_27
   \                     ??HTTP_QueryResponse_29:
   \   00000338   0121               MOVS     R1,#+1
   \   0000033A   3800               MOVS     R0,R7
   \   0000033C   0006               LSLS     R0,R0,#+24
   \   0000033E   000E               LSRS     R0,R0,#+24
   \   00000340   ........           BL       SetSpecialBinarVar
   \   00000344   E6E7               B        ??HTTP_QueryResponse_27
   \                     ??HTTP_QueryResponse_24:
   \   00000346   3F06               LSLS     R7,R7,#+24
   \   00000348   3F0E               LSRS     R7,R7,#+24
   \   0000034A   012F               CMP      R7,#+1
   \   0000034C   E2D1               BNE      ??HTTP_QueryResponse_27
   \   0000034E   2878               LDRB     R0,[R5, #+0]
   \   00000350   3028               CMP      R0,#+48
   \   00000352   DFD1               BNE      ??HTTP_QueryResponse_27
   \   00000354   0298               LDR      R0,[SP, #+8]
   \   00000356   1421               MOVS     R1,#+20
   \   00000358   8170               STRB     R1,[R0, #+2]
   \   0000035A   DBE7               B        ??HTTP_QueryResponse_27
   \                     ??HTTP_QueryResponse_1:
   \   0000035C   ........           DC32     g_counter
   \   00000360   ........           DC32     `?<Constant "GET ">` + 80
   \   00000364   4F4B0000           DC8      0x4F, 0x4B, 0x00, 0x00
   \                     ??HTTP_QueryResponse_25:
   \   00000368   AD1C               ADDS     R5,R5,#+2
   \   0000036A   2878               LDRB     R0,[R5, #+0]
   \   0000036C   3128               CMP      R0,#+49
   \   0000036E   0ED1               BNE      ??HTTP_QueryResponse_30
   \   00000370   0122               MOVS     R2,#+1
   \   00000372   3100               MOVS     R1,R6
   \   00000374   0906               LSLS     R1,R1,#+24
   \   00000376   090E               LSRS     R1,R1,#+24
   \   00000378   4A48               LDR      R0,??HTTP_QueryResponse_14+0x14  ;; 0x3a2
   \   0000037A   3F06               LSLS     R7,R7,#+24
   \   0000037C   3F0E               LSRS     R7,R7,#+24
   \   0000037E   1623               MOVS     R3,#+22
   \   00000380   7B43               MULS     R3,R7,R3
   \   00000382   494E               LDR      R6,??HTTP_QueryResponse_14+0x18  ;; MainStage
   \   00000384   F318               ADDS     R3,R6,R3
   \   00000386   1818               ADDS     R0,R3,R0
   \   00000388   ........           BL       PortStageSet
   \   0000038C   29E0               B        ??HTTP_QueryResponse_31
   \                     ??HTTP_QueryResponse_30:
   \   0000038E   3228               CMP      R0,#+50
   \   00000390   19D1               BNE      ??HTTP_QueryResponse_32
   \   00000392   3F06               LSLS     R7,R7,#+24
   \   00000394   3F0E               LSRS     R7,R7,#+24
   \   00000396   0122               MOVS     R2,#+1
   \   00000398   3100               MOVS     R1,R6
   \   0000039A   0906               LSLS     R1,R1,#+24
   \   0000039C   090E               LSRS     R1,R1,#+24
   \   0000039E   0E00               MOVS     R6,R1
   \   000003A0   404B               LDR      R3,??HTTP_QueryResponse_14+0x14  ;; 0x3a2
   \   000003A2   1621               MOVS     R1,#+22
   \   000003A4   7943               MULS     R1,R7,R1
   \   000003A6   4048               LDR      R0,??HTTP_QueryResponse_14+0x18  ;; MainStage
   \   000003A8   4018               ADDS     R0,R0,R1
   \   000003AA   C018               ADDS     R0,R0,R3
   \   000003AC   3100               MOVS     R1,R6
   \   000003AE   ........           BL       PortStageSet
   \   000003B2   0122               MOVS     R2,#+1
   \   000003B4   3100               MOVS     R1,R6
   \   000003B6   3D48               LDR      R0,??HTTP_QueryResponse_14+0x1C  ;; 0x6a4
   \   000003B8   7B00               LSLS     R3,R7,#+1
   \   000003BA   3B4E               LDR      R6,??HTTP_QueryResponse_14+0x18  ;; MainStage
   \   000003BC   F318               ADDS     R3,R6,R3
   \   000003BE   1818               ADDS     R0,R3,R0
   \   000003C0   ........           BL       PortStageSet
   \   000003C4   0DE0               B        ??HTTP_QueryResponse_31
   \                     ??HTTP_QueryResponse_32:
   \   000003C6   0022               MOVS     R2,#+0
   \   000003C8   3100               MOVS     R1,R6
   \   000003CA   0906               LSLS     R1,R1,#+24
   \   000003CC   090E               LSRS     R1,R1,#+24
   \   000003CE   3548               LDR      R0,??HTTP_QueryResponse_14+0x14  ;; 0x3a2
   \   000003D0   3F06               LSLS     R7,R7,#+24
   \   000003D2   3F0E               LSRS     R7,R7,#+24
   \   000003D4   1623               MOVS     R3,#+22
   \   000003D6   7B43               MULS     R3,R7,R3
   \   000003D8   334E               LDR      R6,??HTTP_QueryResponse_14+0x18  ;; MainStage
   \   000003DA   F318               ADDS     R3,R6,R3
   \   000003DC   1818               ADDS     R0,R3,R0
   \   000003DE   ........           BL       PortStageSet
   \                     ??HTTP_QueryResponse_31:
   \   000003E2   B800               LSLS     R0,R7,#+2
   \   000003E4   3249               LDR      R1,??HTTP_QueryResponse_14+0x20  ;; TransQuality
   \   000003E6   0818               ADDS     R0,R1,R0
   \   000003E8   806C               LDR      R0,[R0, #+72]
   \   000003EA   0028               CMP      R0,#+0
   \   000003EC   92D0               BEQ      ??HTTP_QueryResponse_27
   \   000003EE   3148               LDR      R0,??HTTP_QueryResponse_14+0x24  ;; 0x6eb
   \   000003F0   2D49               LDR      R1,??HTTP_QueryResponse_14+0x18  ;; MainStage
   \   000003F2   C919               ADDS     R1,R1,R7
   \   000003F4   304A               LDR      R2,??HTTP_QueryResponse_14+0x28  ;; ChangeStageFlag
   \   000003F6   1278               LDRB     R2,[R2, #+0]
   \   000003F8   0A54               STRB     R2,[R1, R0]
   \   000003FA   8BE7               B        ??HTTP_QueryResponse_27
   \                     ??HTTP_QueryResponse_20:
   \   000003FC   0620               MOVS     R0,#+6
   \   000003FE   205E               LDRSH    R0,[R4, R0]
   \   00000400   6A46               MOV      R2,SP
   \   00000402   0221               MOVS     R1,#+2
   \   00000404   515E               LDRSH    R1,[R2, R1]
   \   00000406   8842               CMP      R0,R1
   \   00000408   03DA               BGE      ??HTTP_QueryResponse_33
   \   0000040A   6846               MOV      R0,SP
   \   0000040C   4088               LDRH     R0,[R0, #+2]
   \   0000040E   E080               STRH     R0,[R4, #+6]
   \   00000410   0DE0               B        ??HTTP_QueryResponse_34
   \                     ??HTTP_QueryResponse_33:
   \   00000412   6946               MOV      R1,SP
   \   00000414   0220               MOVS     R0,#+2
   \   00000416   085E               LDRSH    R0,[R1, R0]
   \   00000418   0028               CMP      R0,#+0
   \   0000041A   08D1               BNE      ??HTTP_QueryResponse_34
   \   0000041C   0620               MOVS     R0,#+6
   \   0000041E   205E               LDRSH    R0,[R4, R0]
   \   00000420   0128               CMP      R0,#+1
   \   00000422   04DB               BLT      ??HTTP_QueryResponse_34
   \   00000424   0020               MOVS     R0,#+0
   \   00000426   E080               STRH     R0,[R4, #+6]
   \   00000428   0298               LDR      R0,[SP, #+8]
   \   0000042A   1421               MOVS     R1,#+20
   \   0000042C   8170               STRB     R1,[R0, #+2]
   \                     ??HTTP_QueryResponse_34:
   \   0000042E   0020               MOVS     R0,#+0
   \   00000430   0100               MOVS     R1,R0
   \   00000432   0600               MOVS     R6,R0
   \   00000434   04E0               B        ??HTTP_QueryResponse_35
   \                     ??HTTP_QueryResponse_36:
   \   00000436   039B               LDR      R3,[SP, #+12]
   \   00000438   9E54               STRB     R6,[R3, R2]
   \   0000043A   491C               ADDS     R1,R1,#+1
   \   0000043C   0906               LSLS     R1,R1,#+24
   \   0000043E   090E               LSRS     R1,R1,#+24
   \                     ??HTTP_QueryResponse_35:
   \   00000440   0A00               MOVS     R2,R1
   \   00000442   142A               CMP      R2,#+20
   \   00000444   F7D3               BCC      ??HTTP_QueryResponse_36
   \                     ??HTTP_QueryResponse_37:
   \   00000446   0298               LDR      R0,[SP, #+8]
   \   00000448   3100               MOVS     R1,R6
   \   0000044A   4170               STRB     R1,[R0, #+1]
   \   0000044C   019E               LDR      R6,[SP, #+4]
   \   0000044E   1036               ADDS     R6,R6,#+16
   \   00000450   1A48               LDR      R0,??HTTP_QueryResponse_14+0x2C  ;; g_counter
   \   00000452   0CC8               LDM      R0!,{R2,R3}
   \   00000454   0E48               LDR      R0,??HTTP_QueryResponse_14  ;; 0x2710
   \   00000456   8018               ADDS     R0,R0,R2
   \   00000458   5941               ADCS     R1,R1,R3
   \   0000045A   03C6               STM      R6!,{R0,R1}
   \   0000045C   019E               LDR      R6,[SP, #+4]
   \   0000045E   0836               ADDS     R6,R6,#+8
   \   00000460   1648               LDR      R0,??HTTP_QueryResponse_14+0x2C  ;; g_counter
   \   00000462   03C8               LDM      R0!,{R0,R1}
   \   00000464   0022               MOVS     R2,#+0
   \   00000466   A25E               LDRSH    R2,[R4, R2]
   \   00000468   6423               MOVS     R3,#+100
   \   0000046A   5A43               MULS     R2,R3,R2
   \   0000046C   D317               ASRS     R3,R2,#+31
   \   0000046E   1218               ADDS     R2,R2,R0
   \   00000470   4B41               ADCS     R3,R3,R1
   \   00000472   0CC6               STM      R6!,{R2,R3}
   \   00000474   9BE6               B        ??HTTP_QueryResponse_4
   \                     ??HTTP_QueryResponse_2:
   \   00000476   0020               MOVS     R0,#+0
   \   00000478   0100               MOVS     R1,R0
   \   0000047A   0600               MOVS     R6,R0
   \                     ??HTTP_QueryResponse_38:
   \   0000047C   0A00               MOVS     R2,R1
   \   0000047E   142A               CMP      R2,#+20
   \   00000480   E1D2               BCS      ??HTTP_QueryResponse_37
   \   00000482   039B               LDR      R3,[SP, #+12]
   \   00000484   9E54               STRB     R6,[R3, R2]
   \   00000486   491C               ADDS     R1,R1,#+1
   \   00000488   0906               LSLS     R1,R1,#+24
   \   0000048A   090E               LSRS     R1,R1,#+24
   \   0000048C   F6E7               B        ??HTTP_QueryResponse_38
   \   0000048E   C046               Nop      
   \                     ??HTTP_QueryResponse_14:
   \   00000490   10270000           DC32     0x2710
   \   00000494   ........           DC32     `?<Constant "GET ">` + 256
   \   00000498   ........           DC32     VariablesAnal
   \   0000049C   ........           DC32     Variables
   \   000004A0   ........           DC32     VariablesImpulse
   \   000004A4   A2030000           DC32     0x3a2
   \   000004A8   ........           DC32     MainStage
   \   000004AC   A4060000           DC32     0x6a4
   \   000004B0   ........           DC32     TransQuality
   \   000004B4   EB060000           DC32     0x6eb
   \   000004B8   ........           DC32     ChangeStageFlag
   \   000004BC   ........           DC32     g_counter
   1523          
   1524          
   1525          

   \                                 In section Debug.txt, align 4, keep-with-next
   1526          void HTTP_CheckConnection(char *Buff_TX, AT91PS_USART USART, _Net *Net)
   1527          {
   \                     HTTP_CheckConnection:
   \   00000000   70B5               PUSH     {R4-R6,LR}
   \   00000002   0E00               MOVS     R6,R1
   \   00000004   1400               MOVS     R4,R2
   1528             Net->Status.FreezTime=g_counter+FREEZ_TIME; //rezerwowanie czasu
   \   00000006   0F4D               LDR      R5,??HTTP_CheckConnection_0  ;; g_counter
   \   00000008   03CD               LDM      R5!,{R0,R1}
   \   0000000A   083D               SUBS     R5,R5,#+8
   \   0000000C   0022               MOVS     R2,#+0
   \   0000000E   3230               ADDS     R0,R0,#+50
   \   00000010   5141               ADCS     R1,R1,R2
   \   00000012   2064               STR      R0,[R4, #+64]
   \   00000014   6164               STR      R1,[R4, #+68]
   1529             Net->Status.CurrentOrder=WizFi_AT_CID;     
   \   00000016   1120               MOVS     R0,#+17
   \   00000018   A070               STRB     R0,[R4, #+2]
   1530             AT91F_US_SendFrame(USART,(char*)AT_CID,sizeof(AT_CID)-1,0, 0);                        //Wysyla ramke  
                                             ^
Warning[Pe167]: argument of type "char *" is incompatible with parameter of
          type "unsigned char *"
   \   0000001A   82B0               SUB      SP,SP,#+8
   \   0000001C   1000               MOVS     R0,R2
   \   0000001E   0090               STR      R0,[SP, #+0]
   \   00000020   0300               MOVS     R3,R0
   \   00000022   0922               MOVS     R2,#+9
   \   00000024   0849               LDR      R1,??HTTP_CheckConnection_0+0x4  ;; AT_CID
   \   00000026   3000               MOVS     R0,R6
   \   00000028   ........           BL       AT91F_US_SendFrame
   \   0000002C   02B0               ADD      SP,SP,#+8
   1531             Net->Status.Timeout=g_counter + CRYTICAL_TIMEOUT;    //przed³u¿enie /restart timeoutu
   \   0000002E   3834               ADDS     R4,R4,#+56
   \   00000030   0CCD               LDM      R5!,{R2,R3}
   \   00000032   0648               LDR      R0,??HTTP_CheckConnection_0+0x8  ;; 0x2710
   \   00000034   0021               MOVS     R1,#+0
   \   00000036   8018               ADDS     R0,R0,R2
   \   00000038   5941               ADCS     R1,R1,R3
   \   0000003A   03C4               STM      R4!,{R0,R1}
   1532             
   1533          }
   \   0000003C   70BC               POP      {R4-R6}
   \   0000003E   01BC               POP      {R0}
   \   00000040   0047               BX       R0               ;; return
   \   00000042   C046               Nop      
   \                     ??HTTP_CheckConnection_0:
   \   00000044   ........           DC32     g_counter
   \   00000048   ........           DC32     AT_CID
   \   0000004C   10270000           DC32     0x2710
   1534          

   \                                 In section Debug.txt, align 4, keep-with-next
   1535          char HTTP_CheckConnectionResponse(char *Buff_RX, char *Buff_TX, AT91PS_USART USART, _Net *Net)
   1536          {
   \                     HTTP_CheckConnectionResponse:
   \   00000000   F7B5               PUSH     {R0-R2,R4-R7,LR}
   \   00000002   0600               MOVS     R6,R0
   \   00000004   1C00               MOVS     R4,R3
   1537             char odp=0;
   \   00000006   0025               MOVS     R5,#+0
   \   00000008   6846               MOV      R0,SP
   \   0000000A   2900               MOVS     R1,R5
   \   0000000C   0170               STRB     R1,[R0, #+0]
   1538          
   1539          
   1540                  if ((strstr(Buff_RX, "[ERROR")!=NULL) || (strstr(Buff_RX, "No valid Cids")!=NULL))    //((Buff_RX, "[ERROR")!=NULL) ||       strstr(Buff_RX, "No valid Cids")!=NULL)
   \   0000000E   2B4F               LDR      R7,??HTTP_CheckConnectionResponse_0  ;; AT_NCLOSE
   \   00000010   3900               MOVS     R1,R7
   \   00000012   2031               ADDS     R1,R1,#+32
   \   00000014   3000               MOVS     R0,R6
   \   00000016   ........           BL       strstr
   \   0000001A   0028               CMP      R0,#+0
   \   0000001C   06D1               BNE      ??HTTP_CheckConnectionResponse_1
   \   0000001E   2837               ADDS     R7,R7,#+40
   \   00000020   3900               MOVS     R1,R7
   \   00000022   3000               MOVS     R0,R6
   \   00000024   ........           BL       strstr
   \   00000028   0028               CMP      R0,#+0
   \   0000002A   19D0               BEQ      ??HTTP_CheckConnectionResponse_2
   1541                  {
   1542                    for (char i=0; i<50; i++) Buff_RX[i]=0;
   \                     ??HTTP_CheckConnectionResponse_1:
   \   0000002C   2800               MOVS     R0,R5
   \   0000002E   2A00               MOVS     R2,R5
   \   00000030   03E0               B        ??HTTP_CheckConnectionResponse_3
   \                     ??HTTP_CheckConnectionResponse_4:
   \   00000032   7254               STRB     R2,[R6, R1]
   \   00000034   401C               ADDS     R0,R0,#+1
   \   00000036   0006               LSLS     R0,R0,#+24
   \   00000038   000E               LSRS     R0,R0,#+24
   \                     ??HTTP_CheckConnectionResponse_3:
   \   0000003A   0100               MOVS     R1,R0
   \   0000003C   3229               CMP      R1,#+50
   \   0000003E   F8D3               BCC      ??HTTP_CheckConnectionResponse_4
   1543                    Net->Status.Timeout=g_counter + CRYTICAL_TIMEOUT;    //przed³u¿enie /restart timeoutu
   \   00000040   2600               MOVS     R6,R4
   \   00000042   3836               ADDS     R6,R6,#+56
   \   00000044   1E48               LDR      R0,??HTTP_CheckConnectionResponse_0+0x4  ;; g_counter
   \   00000046   0CC8               LDM      R0!,{R2,R3}
   \   00000048   1E48               LDR      R0,??HTTP_CheckConnectionResponse_0+0x8  ;; 0x2710
   \   0000004A   2900               MOVS     R1,R5
   \   0000004C   8018               ADDS     R0,R0,R2
   \   0000004E   5941               ADCS     R1,R1,R3
   \   00000050   03C6               STM      R6!,{R0,R1}
   1544                    Net->Status.FreezTime=0;
   \   00000052   2800               MOVS     R0,R5
   \   00000054   0100               MOVS     R1,R0
   \   00000056   2064               STR      R0,[R4, #+64]
   \   00000058   6164               STR      R1,[R4, #+68]
   1545                    Net->Status.HostLink=DISCONNECTED;
   \   0000005A   6070               STRB     R0,[R4, #+1]
   1546                    Net->Status.CurrentOrder=WizFi_NC;
   \   0000005C   A570               STRB     R5,[R4, #+2]
   \   0000005E   28E0               B        ??HTTP_CheckConnectionResponse_5
   1547                  }else if(strstr(Buff_RX, "[OK")!=NULL)
   \                     ??HTTP_CheckConnectionResponse_2:
   \   00000060   19A1               ADR      R1,??HTTP_CheckConnectionResponse_0+0xC  ;; "[OK"
   \   00000062   3000               MOVS     R0,R6
   \   00000064   ........           BL       strstr
   \   00000068   0028               CMP      R0,#+0
   \   0000006A   22D0               BEQ      ??HTTP_CheckConnectionResponse_5
   1548                  {
   1549                    odp=1;  //ok 
   \   0000006C   6846               MOV      R0,SP
   \   0000006E   0121               MOVS     R1,#+1
   \   00000070   0170               STRB     R1,[R0, #+0]
   1550                    for (char i=0; i<50; i++) Buff_RX[i]=0;
   \   00000072   2800               MOVS     R0,R5
   \   00000074   2A00               MOVS     R2,R5
   \   00000076   03E0               B        ??HTTP_CheckConnectionResponse_6
   \                     ??HTTP_CheckConnectionResponse_7:
   \   00000078   7254               STRB     R2,[R6, R1]
   \   0000007A   401C               ADDS     R0,R0,#+1
   \   0000007C   0006               LSLS     R0,R0,#+24
   \   0000007E   000E               LSRS     R0,R0,#+24
   \                     ??HTTP_CheckConnectionResponse_6:
   \   00000080   0100               MOVS     R1,R0
   \   00000082   3229               CMP      R1,#+50
   \   00000084   F8D3               BCC      ??HTTP_CheckConnectionResponse_7
   1551                    Net->Status.Timeout=g_counter + CRYTICAL_TIMEOUT;    //przed³u¿enie /restart timeoutu
   \   00000086   2700               MOVS     R7,R4
   \   00000088   3837               ADDS     R7,R7,#+56
   \   0000008A   0D48               LDR      R0,??HTTP_CheckConnectionResponse_0+0x4  ;; g_counter
   \   0000008C   03C8               LDM      R0!,{R0,R1}
   \   0000008E   0200               MOVS     R2,R0
   \   00000090   0B00               MOVS     R3,R1
   \   00000092   0C48               LDR      R0,??HTTP_CheckConnectionResponse_0+0x8  ;; 0x2710
   \   00000094   2900               MOVS     R1,R5
   \   00000096   8018               ADDS     R0,R0,R2
   \   00000098   5941               ADCS     R1,R1,R3
   \   0000009A   03C7               STM      R7!,{R0,R1}
   1552                    Net->Status.CurrentOrder=WizFi_NC;
   \   0000009C   A570               STRB     R5,[R4, #+2]
   1553                    HTTP_Task(Buff_RX, Buff_TX,USART, Net);                                //wykonaj kolejne zadanie HTTP
   \   0000009E   2300               MOVS     R3,R4
   \   000000A0   029A               LDR      R2,[SP, #+8]
   \   000000A2   0199               LDR      R1,[SP, #+4]
   \   000000A4   3000               MOVS     R0,R6
   \   000000A6   ........           BL       HTTP_Task
   1554                    Net->Status.FreezTime=0;
   \   000000AA   4034               ADDS     R4,R4,#+64
   \   000000AC   2800               MOVS     R0,R5
   \   000000AE   0100               MOVS     R1,R0
   \   000000B0   03C4               STM      R4!,{R0,R1}
   1555                  }
   1556                    
   1557            
   1558             return odp;
   \                     ??HTTP_CheckConnectionResponse_5:
   \   000000B2   6846               MOV      R0,SP
   \   000000B4   0078               LDRB     R0,[R0, #+0]
   \   000000B6   FEBC               POP      {R1-R7}
   \   000000B8   02BC               POP      {R1}
   \   000000BA   0847               BX       R1               ;; return
   \                     ??HTTP_CheckConnectionResponse_0:
   \   000000BC   ........           DC32     AT_NCLOSE
   \   000000C0   ........           DC32     g_counter
   \   000000C4   10270000           DC32     0x2710
   \   000000C8   5B4F4B00           DC8      "[OK"
   1559          }

   \                                 In section Debug.txt, align 4, keep-with-next
   \                     ??DataTable20:
   \   00000000   ........           DC32     WiFiDebug

   \                                 In section Debug.txt, align 4, keep-with-next
   \                     ??DataTable21:
   \   00000000   ........           DC32     g_counter

   \                                 In section Debug.txt, align 4, keep-with-next
   \                     ??DataTable22:
   \   00000000   10270000           DC32     0x2710

   \                                 In section .rodata, align 4
   \   00000000   4F4B00             DC8 "OK"
   \   00000003   00                 DC8 0

   \                                 In section .rodata, align 4
   \   00000000   49503A00           DC8 "IP:"

   \                                 In section .rodata, align 4
   \                     `?<Constant "GET ">`:
   \   00000000   4745542000         DC8 "GET "
   \   00000005   000000             DC8 0, 0, 0
   \   00000008   2E6373762048       DC8 ".csv HTTP/1.1\015\012"
   \              5454502F312E
   \              310D0A00    
   \   00000018   557365722D41       DC8 "User-Agent: CEURON\015\012Host: "
   \              67656E743A20
   \              434555524F4E
   \              0D0A486F7374
   \              3A2000      
   \   00000033   00                 DC8 0
   \   00000034   436F6E6E6563       DC8 "Connection: keep-alive\015\012"
   \              74696F6E3A20
   \              6B6565702D61
   \              6C6976650D0A
   \              00          
   \   0000004D   000000             DC8 0, 0, 0
   \   00000050   0D0A0D0A00         DC8 "\015\012\015\012"
   \   00000055   000000             DC8 0, 0, 0
   \   00000058   504F53542000       DC8 "POST "
   \   0000005E   0000               DC8 0, 0
   \   00000060   2F7075746761       DC8 "/putgate.php HTTP/1.1\015\012User-Agent: CEURON\015\012Host: "
   \              74652E706870
   \              20485454502F
   \              312E310D0A55
   \              7365722D4167
   \              656E743A2043
   \              4555524F4E0D
   \              0A486F73743A
   \              2000        
   \   00000092   0000               DC8 0, 0
   \   00000094   0D0A436F6E74       DC8 "\015\012Content-Length: "
   \              656E742D4C65
   \              6E6774683A20
   \              00          
   \   000000A7   00                 DC8 0
   \   000000A8   0D0A436F6E74       DC8 0DH, 0AH, 43H, 6FH, 6EH, 74H, 65H, 6EH
   \              656E        
   \   000000B0   742D54797065       DC8 74H, 2DH, 54H, 79H, 70H, 65H, 3AH, 20H
   \              3A20        
   \   000000B8   6170706C6963       DC8 61H, 70H, 70H, 6CH, 69H, 63H, 61H, 74H
   \              6174        
   \   000000C0   696F6E2F782D       DC8 69H, 6FH, 6EH, 2FH, 78H, 2DH, 77H, 77H
   \              7777        
   \   000000C8   772D666F726D       DC8 77H, 2DH, 66H, 6FH, 72H, 6DH, 2DH, 75H
   \              2D75        
   \   000000D0   726C656E636F       DC8 72H, 6CH, 65H, 6EH, 63H, 6FH, 64H, 65H
   \              6465        
   \   000000D8   640D0A0D0A4E       DC8 64H, 0DH, 0AH, 0DH, 0AH, 4EH, 6FH, 64H
   \              6F64        
   \   000000E0   6549443D00         DC8 65H, 49H, 44H, 3DH, 0
   \   000000E5   000000             DC8 0, 0, 0
   \   000000E8   264F72646572       DC8 "&Order=1&Content=;\015\012"
   \              3D3126436F6E
   \              74656E743D3B
   \              0D0A00      
   \   000000FD   000000             DC8 0, 0, 0
   \   00000100   436F6E6E6563       DC8 "Connection: close"
   \              74696F6E3A20
   \              636C6F736500
   \   00000112   0000               DC8 0, 0

   \                                 In section .rodata, align 4
   \   00000000   2F646300           DC8 "/dc"

   \                                 In section .rodata, align 4
   \   00000000   256400             DC8 "%d"
   \   00000003   00                 DC8 0

   \                                 In section .rodata, align 4
   \   00000000   2E00               DC8 "."
   \   00000002   0000               DC8 0, 0

   \                                 In section .rodata, align 4
   \   00000000   0D0A00             DC8 "\015\012"
   \   00000003   00                 DC8 0

   \                                 In section .rodata, align 4
   \   00000000   2F646F00           DC8 "/do"

   \                                 In section .rodata, align 4
   \   00000000   20202000           DC8 "   "

   \                                 In section .rodata, align 4
   \   00000000   5B4F4B00           DC8 "[OK"

   Maximum stack usage in bytes:

     Function                       .cstack
     --------                       -------
     AT91F_PDC_IsNextTxEmpty             0
     AT91F_PDC_IsTxEmpty                 0
     AT91F_PDC_SendFrame                24
     AT91F_PDC_SetNextTx                 0
     AT91F_PDC_SetTx                     0
     AT91F_US_SendFrame                 16
     AsciToHexStr                       24
     CheckExistDomenaIP                 16
     GetSpecialAnalogVar                 8
     GetSpecialBinarVar                  8
     HTTP_CheckConnection               24
     HTTP_CheckConnectionResponse       32
     HTTP_Query                         80
     HTTP_QueryResponse                 40
     SetSpecialBinarVar                 16
     StrToWord                          32
     WizFiCommand_AT                    24
     WizFiCommand_ATI2                  24
     WizFiCommand_AT_DNSLOOKUP          40
     WizFiCommand_AT_NCLOSEALL          24
     WizFiCommand_AT_NCTCP              40
     WizFiCommand_AT_NDHCP              24
     WizFiCommand_AT_NSET               32
     WizFiCommand_AT_VER                24
     WizFiCommand_AT_WA                 32
     WizFiCommand_AT_WAUTH_1            24
     WizFiCommand_AT_WD                 24
     WizFiCommand_AT_WWEP1              40
     WizFiCommand_AT_WWPA               32
     WizFiCommand_AT_XDUM0              24
     WizFiResponseCommand_AT            24
     WizFiResponseCommand_ATI2          24
     WizFiResponseCommand_AT_DNSLOOKUP
                                        24
     WizFiResponseCommand_AT_NCLOSEALL0
                                        24
     WizFiResponseCommand_AT_NCTCP      48
     WizFiResponseCommand_AT_NDHCP      24
     WizFiResponseCommand_AT_NSET       24
     WizFiResponseCommand_AT_VER        24
     WizFiResponseCommand_AT_WA         24
     WizFiResponseCommand_AT_WAUTH_1
                                        24
     WizFiResponseCommand_AT_WD         24
     WizFiResponseCommand_AT_WWEP1      24
     WizFiResponseCommand_AT_WWPA       24
     WizFiResponseCommand_AT_XDUM0      24
     strstr                              8


   Section sizes:

     Function/Label                 Bytes
     --------------                 -----
     AT91F_PDC_SetNextTx               6
     AT91F_PDC_SetTx                   6
     AT91F_PDC_IsTxEmpty              10
     AT91F_PDC_IsNextTxEmpty          10
     AT91F_PDC_SendFrame              70
     AT91F_US_SendFrame               26
     strstr                           12
     AT                                4
     ATI2                              8
     AT_VER                           12
     AT_XDUM0                         12
     AT_WD                             8
     AT_NDHCP_0                       24
     AT_NSET                          12
     AT_WAUTH_1                       12
     AT_WWEP1                         12
     AT_WWPA                          12
     AT_WA                             8
     AT_DNSLOOKUP                     16
     AT_NCTCP                         12
     AT_NCLOSE                        68
     AT_NCLOSEALL                     16
     AT_WS                             8
     AT_CID                           12
     WizFiCommand_AT                 154
     WizFiResponseCommand_AT         108
     WizFiCommand_AT_VER             100
     WizFiResponseCommand_AT_VER     108
     WizFiCommand_ATI2                96
     WizFiResponseCommand_ATI2       108
     WizFiCommand_AT_XDUM0            96
     WizFiResponseCommand_AT_XDUM0   120
     WizFiCommand_AT_NCLOSEALL        88
     WizFiResponseCommand_AT_NCLOSEALL0
                                     108
     WizFiCommand_AT_WD              108
     WizFiResponseCommand_AT_WD      120
     WizFiCommand_AT_NDHCP           152
     WizFiResponseCommand_AT_NDHCP   120
     WizFiCommand_AT_NSET            308
     WizFiResponseCommand_AT_NSET    120
     WizFiCommand_AT_WAUTH_1         108
     WizFiResponseCommand_AT_WAUTH_1
                                     120
     AsciToHexStr                     86
     WizFiCommand_AT_WWEP1           284
     WizFiResponseCommand_AT_WWEP1   120
     WizFiCommand_AT_WWPA            208
     WizFiResponseCommand_AT_WWPA    120
     WizFiCommand_AT_WA              204
     WizFiResponseCommand_AT_WA      124
     CheckExistDomenaIP              148
     WizFiCommand_AT_DNSLOOKUP       260
     WizFiResponseCommand_AT_DNSLOOKUP
                                     184
     WizFiCommand_AT_NCTCP           360
     WizFiResponseCommand_AT_NCTCP   516
     StrToWord                       110
     GetSpecialAnalogVar             124
     GetSpecialBinarVar              220
     SetSpecialBinarVar              224
     HTTP_Query                     2212
     HTTP_QueryResponse             1216
     HTTP_CheckConnection             80
     HTTP_CheckConnectionResponse    204
     ??DataTable20                     4
     ??DataTable21                     4
     ??DataTable22                     4
     ?<Constant "OK">                  4
     ?<Constant "IP:">                 4
     ?<Constant "GET ">              276
     ?<Constant "/dc">                 4
     ?<Constant "%d">                  4
     ?<Constant ".">                   4
     ?<Constant "\r\n">                4
     ?<Constant "/do">                 4
     ?<Constant "   ">                 4
     ?<Constant "[OK">                 4

 
   568 bytes in section .rodata
 9 398 bytes in section Debug.txt
 
 9 258 bytes of CODE  memory (+ 140 bytes shared)
   568 bytes of CONST memory

Errors: none
Warnings: 70
