###############################################################################
#                                                                             #
# IAR ARM ANSI C/C++ Compiler V5.10.5.372/W32           04/Jun/2013  20:18:33 #
# Copyright 1999-2007 IAR Systems. All rights reserved.                       #
#                                                                             #
#    Cpu mode     =  thumb                                                    #
#    Endian       =  little                                                   #
#    Source file  =  D:\Zeuron\Projekty\S300\S300-program v1.3 -              #
#                    04.06.2013\Framework\lcd.c                               #
#    Command line =  "D:\Zeuron\Projekty\S300\S300-program v1.3 -             #
#                    04.06.2013\Framework\lcd.c" -D AT91SAM7S256 -D           #
#                    AT91SAM7SEK -D iH -D __ALARM -D __WIFI_MODULE -D S300i   #
#                    -lC "D:\Zeuron\Projekty\S300\S300-program v1.3 -         #
#                    04.06.2013\S300i\List\" --diag_suppress Pa082 -o         #
#                    "D:\Zeuron\Projekty\S300\S300-program v1.3 -             #
#                    04.06.2013\S300i\Obj\" --debug --endian little --cpu     #
#                    ARM7TDMI -e --fpu None --dlib_config "C:\Program Files   #
#                    (x86)\IAR Systems\Embedded Workbench                     #
#                    5.0\ARM\INC\DLib_Config_Normal.h" -I                     #
#                    "D:\Zeuron\Projekty\S300\S300-program v1.3 -             #
#                    04.06.2013\lib\AT91SAM7S256\" -I                         #
#                    "D:\Zeuron\Projekty\S300\S300-program v1.3 -             #
#                    04.06.2013\lib\AT91SAM7S64\" -I                          #
#                    "D:\Zeuron\Projekty\S300\S300-program v1.3 -             #
#                    04.06.2013\" -I "D:\Zeuron\Projekty\S300\S300-program    #
#                    v1.3 - 04.06.2013\cdc\" -I "D:\Zeuron\Projekty\S300\S300 #
#                    -program v1.3 - 04.06.2013\core\" -I                     #
#                    "D:\Zeuron\Projekty\S300\S300-program v1.3 -             #
#                    04.06.2013\startup\" -I "D:\Zeuron\Projekty\S300\S300-pr #
#                    ogram v1.3 - 04.06.2013\Framework\" -I                   #
#                    "D:\Zeuron\Projekty\S300\S300-program v1.3 -             #
#                    04.06.2013\Framework\Configuration\" -I "C:\Program      #
#                    Files (x86)\IAR Systems\Embedded Workbench               #
#                    5.0\ARM\INC\" --section .text=Debug.txt --interwork      #
#                    --cpu_mode thumb -Oh                                     #
#    List file    =  D:\Zeuron\Projekty\S300\S300-program v1.3 -              #
#                    04.06.2013\S300i\List\lcd.lst                            #
#    Object file  =  D:\Zeuron\Projekty\S300\S300-program v1.3 -              #
#                    04.06.2013\S300i\Obj\lcd.o                               #
#                                                                             #
#                                                                             #
###############################################################################

D:\Zeuron\Projekty\S300\S300-program v1.3 - 04.06.2013\Framework\lcd.c
      1          //****************************************************************************//
      2          //*--------------------------------------------------------------------------*//
      3          //*                                 CEURON                                   *//                     
      4          //*--------------------------------------------------------------------------*//
      5          //*--------------------------------------------------------------------------*//
      6          //*  Nazwa pliku                  : LCD.c                                    *//
      7          //*  Opis                         : Plik obs³ugi wyœwietlacza LCD            *//
      8          //*  Autor                        : Pawe³ Narwojsz                           *//
      9          //*  Data utrzorzenia             : 15.09.2007                               *//
     10          //*  Data ostatniej modyfikacji   : --.--.----                               *//
     11          //*--------------------------------------------------------------------------*//
     12          //*                                                                          *//
     13          //*--------------------------------------------------------------------------*//
     14          //* Rejestr zmian  (data - opis):                                            *//
     15          //*                                                                          *//
     16          //*                               Brak zmian                                 *//
     17          //*                                                                          *//
     18          //*__________________________________________________________________________*// 
     19          //****************************************************************************//
     20          //****************************************************************************//
     21          
     22          
     23          
     24          
     25          
     26          
     27          
     28          
     29          
     30          
     31          // Pliki do³¹czane -------------------------------------------------------------
     32               #include "common.h"
     33               #include "core/device.h"                                                   //aduje bibliotreki dla odpowiedniego procesora
     34               //#include "AT91SAM7S256.h"
     35               #include "core/trace.h"
     36               #include "LCD.h"
     37               #include "Framework.h "
     38               #include <stdarg.h>
     39          
     40          //-----------------------Koniec plików do³¹czanych -----------------------------
     41          
     42          
     43          #ifndef _LCD_NEGATIV_OLD_
     44          #define LCD_delay 40
     45          
     46          //Zmienne globalne -------------------------------------------------------------
     47            _Correct korekta_Y=1;
                                      ^
Warning[Pe520]: initialization with "{...}" expected for aggregate object
     48            _Correct korekta_X=1;
                                      ^
Warning[Pe520]: initialization with "{...}" expected for aggregate object
     49          //___________________________Koniec zmiennych globalnych________________________
     50          
     51          
     52          extern void Delay (unsigned long a);
     53          //extern MenuPaint(void);
     54          extern long long int g_counter;
     55          extern int MenuLevel;
     56          extern char AlarmOn; 
     57          extern char g_info;
     58          //Definicje --------------------------------------------------------------------
     59                AT91PS_PIO    m_pPio   = AT91C_BASE_PIOA;
     60                AT91PS_PIO    TS_pPio  = AT91C_BASE_PIOA;
     61                //TouchScreen
     62          
     63          #define  TS_ADC             AT91C_BASE_PDC_ADC
     64          #define  TS_ADC_CH0         AT91C_ADC_CH0
     65          #define  TS_ADC_CH1         AT91C_ADC_CH1
     66          #define  TS_ADC_CH2         AT91C_ADC_CH2
     67          #define  TS_ADC_CH3         AT91C_ADC_CH3
     68          #define  TS_PIO             AT91C_BASE_PIOA
     69          #define  TS_PIO_CH0         AT91C_PIO_PA17
     70          #define  TS_PIO_CH1         AT91C_PIO_PA18
     71          #define  TS_PIO_CH2         AT91C_PIO_PA19
     72          #define  TS_PIO_CH3         AT91C_PIO_PA20
     73          
     74          #define  TS_ADC_ID         AT91C_ID_ADC        
     75          // Leds
     76          //___________________________Koniec definicji___________________________________
     77          
     78          
     79                
     80          extern signed short X_down;
     81          extern signed short Y_down;
     82          extern signed short X_up;
     83          extern signed short Y_up;
     84          
     85          
     86          char LCD_Canvas[8][128] = {
     87                            {254,1,1,1,1,1,1,1,131,69,125,69,41,41,17,1,1,169,1,1,1,1,1,1,1,1,1,1,131,69,125,69,41,41,17,1,1,169,1,1,1,1,1,1,1,1,1,1,131,69,125,69,41,41,17,1,1,169,1,1,1,1,1,1,1,1,1,1,131,69,125,69,41,41,17,1,1,169,1,1,1,1,1,1,1,1,1,1,131,69,125,69,41,41,17,1,1,169,1,1,1,1,1,1,1,1,1,1,131,69,125,69,41,41,17,1,1,1,255,7,243,107,155,155,107,243,6,252},
     88                            {255,164,160,144,160,164,24,0,66,66,66,66,66,99,66,0,0,170,0,0,32,32,32,32,32,48,32,0,66,66,66,66,66,99,66,0,0,170,0,0,28,36,36,36,36,36,24,0,66,66,66,66,66,99,66,0,0,170,0,0,16,16,16,16,16,24,16,0,66,66,66,66,66,99,66,0,0,170,0,0,60,8,16,16,32,36,24,0,66,66,66,66,66,99,66,0,0,170,0,0,152,164,160,144,160,164,24,0,66,66,66,66,66,99,66,0,0,0,255,254,60,189,125,253,189,60,254,255},
     89                            {255,148,148,148,148,148,99,0,130,68,124,68,40,40,16,0,0,170,0,0,207,34,4,132,8,41,198,0,124,4,4,124,4,4,124,0,0,170,0,1,9,136,136,144,144,160,60,0,60,68,68,68,68,68,60,0,0,170,0,1,61,136,16,16,32,164,24,0,56,68,4,4,4,68,56,0,0,170,0,0,34,34,34,66,66,131,242,0,28,36,36,60,36,36,28,0,0,170,0,0,115,148,148,148,148,148,99,0,130,68,124,68,40,40,16,0,0,0,255,255,36,117,87,38,37,36,255,255},
     90                            {255,4,8,8,16,18,12,0,0,0,0,0,0,0,0,0,0,170,0,0,32,161,125,164,169,49,32,0,0,0,0,0,0,0,0,0,0,170,0,0,99,148,132,148,115,36,227,0,0,0,0,0,0,0,0,0,0,170,0,0,131,132,244,146,164,196,131,0,0,0,0,0,0,0,0,0,0,170,0,0,16,16,254,82,148,24,16,0,0,0,0,0,0,0,0,0,0,170,0,0,158,4,8,8,16,18,12,0,0,0,0,0,0,0,0,0,0,0,255,255,159,223,63,191,127,63,255,255},
     91                            {255,68,72,136,80,82,140,0,0,0,0,0,0,0,0,0,0,170,0,0,99,148,148,148,115,145,103,0,0,0,0,0,0,0,0,0,0,170,0,0,208,80,126,82,84,88,144,0,0,0,0,0,0,0,0,0,0,170,0,0,142,82,147,82,82,82,140,0,0,0,0,0,0,0,0,0,0,170,0,16,210,130,7,2,2,67,130,0,0,0,0,0,0,0,0,0,0,170,0,0,158,68,72,136,80,82,140,0,0,0,0,0,0,0,0,0,0,0,255,255,180,149,150,166,167,147,255,255},
     92                            {255,18,18,33,34,66,121,0,0,0,0,0,0,0,0,0,0,170,0,128,132,4,4,8,8,16,30,0,0,0,0,0,0,0,0,0,0,170,0,0,57,74,74,74,74,74,49,0,0,0,0,0,0,0,0,0,0,170,0,0,49,74,75,50,74,74,49,0,0,0,0,0,0,0,0,0,0,170,0,0,51,72,65,33,66,74,49,0,0,0,0,0,0,0,0,0,0,170,0,0,17,18,18,33,34,66,121,0,0,0,0,0,0,0,0,0,0,0,255,255,36,110,113,117,123,57,255,255},
     93                            {255,201,72,68,72,73,70,64,64,64,64,64,64,64,64,192,192,202,64,192,78,210,82,210,82,210,76,192,64,192,64,192,64,192,64,192,64,202,64,192,71,201,73,201,73,201,70,192,64,192,64,192,64,192,64,192,64,202,64,192,70,201,73,198,73,201,70,192,64,192,64,192,64,192,64,192,64,202,64,192,200,200,223,201,202,204,200,192,192,192,192,64,64,192,64,192,64,202,64,192,70,201,72,196,200,73,70,64,64,64,64,64,64,64,64,64,64,192,255,255,248,251,255,255,255,254,255,255},
     94                            {255,192,128,128,128,128,128,140,158,191,191,128,128,128,128,192,255,170,213,170,213,170,213,170,213,170,213,170,213,170,213,170,213,170,213,170,213,170,213,170,213,170,213,170,213,170,213,170,213,170,213,170,213,170,213,170,213,170,213,170,213,170,213,170,213,170,213,170,213,170,213,170,213,170,213,170,213,170,128,255,255,255,255,192,222,222,192,255,255,255,255,128,213,170,213,170,213,170,213,170,213,170,213,255,192,128,128,128,191,191,158,140,128,128,128,128,128,192,255,255,255,255,255,255,255,255,127,63}
     95                            };
     96          
     97          
     98          
     99          
    100          
    101          //===================================================================================================================================================================//
    102          //===================================================================================================================================================================//
    103          //===================================================================================================================================================================//
    104          //===================================================================================================================================================================//
    105          //============================================================      F U N K C J E      ==============================================================================//
    106          //===================================================================================================================================================================//
    107          //===================================================================================================================================================================//
    108          
    109          
    110          
    111          //*-----------------------------------------------------------------------------
    112          //* Nazwa funkcji :    RepaintLCD
    113          //* Funkcja g³ówna wyrysowywania tabeli LCD_Canvas na ekran LCD
    114          //*-----------------------------------------------------------------------------
    115          //* Konieczne zdefiniowanie zmiennej globalnej "char LCD_Canvas[8][128];"
    116          //*-----------------------------------------------------------------------------
    117          
    118          char chipSelect=1;

   \                                 In section Debug.txt, align 4, keep-with-next
    119          void RepaintLCD(void)
    120          {
   \                     RepaintLCD:
   \   00000000   F1B5               PUSH     {R0,R4-R7,LR}
    121            
    122          
    123          char lcdData=0;
    124          //char lcdStartPage=0;
    125          //char chipSelect=0;
    126          char displayY=0;
    127            
    128          //  for (char chipSelect=1; chipSelect<=2; chipSelect++)
    129          //{
    130          
    131             if (chipSelect<2) {chipSelect=2;} else {chipSelect=1;}
   \   00000002   194C               LDR      R4,??RepaintLCD_0  ;; chipSelect
   \   00000004   2078               LDRB     R0,[R4, #+0]
   \   00000006   0228               CMP      R0,#+2
   \   00000008   01D2               BCS      ??RepaintLCD_1
   \   0000000A   0220               MOVS     R0,#+2
   \   0000000C   00E0               B        ??RepaintLCD_2
   \                     ??RepaintLCD_1:
   \   0000000E   0120               MOVS     R0,#+1
   \                     ??RepaintLCD_2:
   \   00000010   2070               STRB     R0,[R4, #+0]
    132               at91ChipSelect(chipSelect);   
   \   00000012   ........           BL       at91ChipSelect
    133          
    134               at91DisplayYAdress(displayY);
   \   00000016   0020               MOVS     R0,#+0
   \   00000018   ........           BL       at91DisplayYAdress
    135               Delay(50);  
   \   0000001C   3220               MOVS     R0,#+50
   \   0000001E   ........           BL       Delay
    136               
    137                for (char lcdStartPage=0; lcdStartPage<8; lcdStartPage++)
   \   00000022   0025               MOVS     R5,#+0
   \   00000024   ....               LDR      R6,??DataTable8  ;; LCD_Canvas
    138                {
    139                   
    140                  at91DisplayStartPage(lcdStartPage); 
   \                     ??RepaintLCD_3:
   \   00000026   2806               LSLS     R0,R5,#+24
   \   00000028   000E               LSRS     R0,R0,#+24
   \   0000002A   ........           BL       at91DisplayStartPage
    141                  Delay(50);
   \   0000002E   3220               MOVS     R0,#+50
   \   00000030   ........           BL       Delay
    142                  for (lcdData=(64*chipSelect-64); lcdData<(64*chipSelect); lcdData++)
   \   00000034   2078               LDRB     R0,[R4, #+0]
   \   00000036   8701               LSLS     R7,R0,#+6
   \   00000038   403F               SUBS     R7,R7,#+64
   \   0000003A   06E0               B.N      ??RepaintLCD_4
    143                  {
    144                    
    145                    at91DisplayData(LCD_Canvas[lcdStartPage][lcdData]);
   \                     ??RepaintLCD_5:
   \   0000003C   F05D               LDRB     R0,[R6, R7]
   \   0000003E   ........           BL       at91DisplayData
    146                    Delay(50);
   \   00000042   3220               MOVS     R0,#+50
   \   00000044   ........           BL       Delay
    147                  }
   \   00000048   7F1C               ADDS     R7,R7,#+1
   \                     ??RepaintLCD_4:
   \   0000004A   3F06               LSLS     R7,R7,#+24
   \   0000004C   3F0E               LSRS     R7,R7,#+24
   \   0000004E   2078               LDRB     R0,[R4, #+0]
   \   00000050   8001               LSLS     R0,R0,#+6
   \   00000052   8742               CMP      R7,R0
   \   00000054   F2DB               BLT      ??RepaintLCD_5
    148                }
   \   00000056   6D1C               ADDS     R5,R5,#+1
   \   00000058   8036               ADDS     R6,R6,#+128
   \   0000005A   2806               LSLS     R0,R5,#+24
   \   0000005C   000E               LSRS     R0,R0,#+24
   \   0000005E   0828               CMP      R0,#+8
   \   00000060   E1D3               BCC      ??RepaintLCD_3
    149           //}
    150          
    151          }//_______________________ Koniec funkcji RepaintLCD __________________________
   \   00000062   ........           BL       ??Subroutine0_0
   \   00000066   C046               Nop      
   \                     ??RepaintLCD_0:
   \   00000068   ........           DC32     chipSelect

   \                                 In section Debug.txt, align 4, keep-with-next
   \                     ?Subroutine0:
   \   00000000   AE70               STRB     R6,[R5, #+2]
   \   00000002   0A2F               CMP      R7,#+10
   \   00000004   04D2               BCS      ??Subroutine0_1
   \   00000006   3020               MOVS     R0,#+48
   \   00000008   E870               STRB     R0,[R5, #+3]
   \   0000000A   3037               ADDS     R7,R7,#+48
   \   0000000C   2F71               STRB     R7,[R5, #+4]
   \   0000000E   0BE0               B        ??Subroutine0_2
   \                     ??Subroutine0_1:
   \   00000010   3800               MOVS     R0,R7
   \   00000012   0A21               MOVS     R1,#+10
   \   00000014   ........           BL       __aeabi_idivmod
   \   00000018   3030               ADDS     R0,R0,#+48
   \   0000001A   E870               STRB     R0,[R5, #+3]
   \   0000001C   3800               MOVS     R0,R7
   \   0000001E   0A21               MOVS     R1,#+10
   \   00000020   ........           BL       __aeabi_idivmod
   \   00000024   3031               ADDS     R1,R1,#+48
   \   00000026   2971               STRB     R1,[R5, #+4]
   \                     ??Subroutine0_2:
   \   00000028   6E71               STRB     R6,[R5, #+5]
   \   0000002A   0A2C               CMP      R4,#+10
   \   0000002C   04D2               BCS      ??Subroutine0_3
   \   0000002E   3020               MOVS     R0,#+48
   \   00000030   A871               STRB     R0,[R5, #+6]
   \   00000032   3034               ADDS     R4,R4,#+48
   \   00000034   EC71               STRB     R4,[R5, #+7]
   \   00000036   0BE0               B        ??Subroutine0_0
   \                     ??Subroutine0_3:
   \   00000038   2000               MOVS     R0,R4
   \   0000003A   0A21               MOVS     R1,#+10
   \   0000003C   ........           BL       __aeabi_idivmod
   \   00000040   3030               ADDS     R0,R0,#+48
   \   00000042   A871               STRB     R0,[R5, #+6]
   \   00000044   2000               MOVS     R0,R4
   \   00000046   0A21               MOVS     R1,#+10
   \   00000048   ........           BL       __aeabi_idivmod
   \   0000004C   3031               ADDS     R1,R1,#+48
   \   0000004E   E971               STRB     R1,[R5, #+7]
   \                     ??Subroutine0_0:
   \   00000050   F8BC               POP      {R3-R7}
   \   00000052   01BC               POP      {R0}
   \   00000054   0047               BX       R0               ;; return
    152          
    153          
    154          
    155          
    156          
    157          
    158          //*-----------------------------------------------------------------------------
    159          //* Nazwa funkcji :    CleanCanvas
    160          //* Funkcja czyszczenia bufora ekranu. 
    161          //*-----------------------------------------------------------------------------
    162          //* Efekt widoczny po odœwierzeniu LCD (RepaintLCD)
    163          //*-----------------------------------------------------------------------------

   \                                 In section Debug.txt, align 4, keep-with-next
    164          void CleanCanvas(void)
    165          {
   \                     CleanCanvas:
   \   00000000   31B5               PUSH     {R0,R4,R5,LR}
    166            for (int i=0; i<=7; i++)
   \   00000002   ....               LDR      R4,??DataTable8  ;; LCD_Canvas
   \   00000004   0825               MOVS     R5,#+8
    167            {
    168              for (int j=0; j<=127; j++)
    169              {
    170                LCD_Canvas[i][j] =0; 
   \                     ??CleanCanvas_0:
   \   00000006   8021               MOVS     R1,#+128
   \   00000008   2000               MOVS     R0,R4
   \   0000000A   ........           BL       __aeabi_memclr
    171              }
    172            }
   \   0000000E   8034               ADDS     R4,R4,#+128
   \   00000010   6D1E               SUBS     R5,R5,#+1
   \   00000012   F8D1               BNE      ??CleanCanvas_0
    173          }//_______________________ Koniec funkcji CleanCanvas __________________________
   \   00000014   38BC               POP      {R3-R5}
   \   00000016   01BC               POP      {R0}
   \   00000018   0047               BX       R0               ;; return
    174          
    175          
    176          
    177          
    178          
    179          //*-----------------------------------------------------------------------------
    180          //* Nazwa funkcji :    HalfCleanCanvas
    181          //* Funkcja szatkowania bufora ekranu. 
    182          //*-----------------------------------------------------------------------------
    183          //* Efekt widoczny po odœwierzeniu LCD (RepaintLCD)
    184          //*-----------------------------------------------------------------------------

   \                                 In section Debug.txt, align 4, keep-with-next
    185          void HalfCleanCanvas(void)
    186          {
   \                     HalfCleanCanvas:
   \   00000000   F1B5               PUSH     {R0,R4-R7,LR}
    187            for (int i=0; i<=7; i++)
   \   00000002   0020               MOVS     R0,#+0
   \   00000004   ....               LDR      R1,??DataTable8  ;; LCD_Canvas
   \   00000006   5522               MOVS     R2,#+85
   \   00000008   AA23               MOVS     R3,#+170
    188            {
    189              for (int j=0; j<=127; j++)
   \                     ??HalfCleanCanvas_0:
   \   0000000A   0400               MOVS     R4,R0
   \   0000000C   8025               MOVS     R5,#+128
    190              {
    191                if ((j+i)%2) 
   \                     ??HalfCleanCanvas_1:
   \   0000000E   0E78               LDRB     R6,[R1, #+0]
   \   00000010   E70F               LSRS     R7,R4,#+31
   \   00000012   3F19               ADDS     R7,R7,R4
   \   00000014   7F10               ASRS     R7,R7,#+1
   \   00000016   7F00               LSLS     R7,R7,#+1
   \   00000018   E71B               SUBS     R7,R4,R7
   \   0000001A   01D0               BEQ      ??HalfCleanCanvas_2
    192                {
    193                  LCD_Canvas[i][j] &=0xAA; 
   \   0000001C   1E40               ANDS     R6,R6,R3
   \   0000001E   00E0               B        ??HalfCleanCanvas_3
    194                }
    195                else
    196                {
    197                  LCD_Canvas[i][j] &=0x55; 
   \                     ??HalfCleanCanvas_2:
   \   00000020   1640               ANDS     R6,R6,R2
   \                     ??HalfCleanCanvas_3:
   \   00000022   0E70               STRB     R6,[R1, #+0]
    198                } 
    199              }
   \   00000024   491C               ADDS     R1,R1,#+1
   \   00000026   641C               ADDS     R4,R4,#+1
   \   00000028   6D1E               SUBS     R5,R5,#+1
   \   0000002A   F0D1               BNE      ??HalfCleanCanvas_1
    200            }
   \   0000002C   401C               ADDS     R0,R0,#+1
   \   0000002E   0828               CMP      R0,#+8
   \   00000030   EBDB               BLT      ??HalfCleanCanvas_0
    201          }//_______________________ Koniec funkcji HalfCleanCanvas __________________________
   \   00000032   ........           BL       ??Subroutine0_0
    202          
    203          
    204          
    205          //*-----------------------------------------------------------------------------
    206          //* Nazwa funkcji :    CleanCanvasArea
    207          //* Funkcja czyszczenia okreœlonego obszaru
    208          //* Colour  -  0= bia³y, 1=czarny
    209          //*-----------------------------------------------------------------------------
    210          //* Efekt widoczny po odœwierzeniu LCD (RepaintLCD)
    211          //*-----------------------------------------------------------------------------

   \                                 In section Debug.txt, align 4, keep-with-next
    212          void CleanCanvasArea(char X, char Y, char X_Lenght, char Y_Lenght, char Colour)
    213          {
   \                     CleanCanvasArea:
   \   00000000   F5B5               PUSH     {R0,R2,R4-R7,LR}
   \   00000002   83B0               SUB      SP,SP,#+12
   \   00000004   0AA8               ADD      R0,SP,#+40
   \   00000006   0078               LDRB     R0,[R0, #+0]
    214          
    215            char kol=0;
    216            char bit=0;
    217            char linia=Y;
    218            
    219          if ( Colour == 0 )
   \   00000008   5A1E               SUBS     R2,R3,#+1
   \   0000000A   0028               CMP      R0,#+0
   \   0000000C   2ED1               BNE      ??CleanCanvasArea_0
    220          {
    221            for (int i=0; i<=Y_Lenght-1; i++)
   \   0000000E   002A               CMP      R2,#+0
   \   00000010   5AD4               BMI      ??CleanCanvasArea_1
   \   00000012   ....               LDR      R0,??DataTable8  ;; LCD_Canvas
   \   00000014   4218               ADDS     R2,R0,R1
   \   00000016   6846               MOV      R0,SP
   \   00000018   6946               MOV      R1,SP
   \   0000001A   097B               LDRB     R1,[R1, #+12]
   \   0000001C   CC08               LSRS     R4,R1,#+3
   \   0000001E   E400               LSLS     R4,R4,#+3
   \   00000020   091B               SUBS     R1,R1,R4
   \   00000022   0170               STRB     R1,[R0, #+0]
   \   00000024   007C               LDRB     R0,[R0, #+16]
   \   00000026   401E               SUBS     R0,R0,#+1
   \   00000028   0190               STR      R0,[SP, #+4]
   \   0000002A   08E0               B        ??CleanCanvasArea_2
    222             { 
    223               kol=(X)/8;
    224               bit=(X)%8;
    225               
    226          
    227              
    228               for (int j=0; j<=X_Lenght-1; j++)
    229                {
    230                     LCD_Canvas[kol][linia] &=~(1<<bit);  
    231                     if (bit<7)  { bit++;}  else {bit=0;   kol++;  }
   \                     ??CleanCanvasArea_3:
   \   0000002C   0021               MOVS     R1,#+0
   \   0000002E   401C               ADDS     R0,R0,#+1
   \   00000030   0006               LSLS     R0,R0,#+24
   \   00000032   000E               LSRS     R0,R0,#+24
   \                     ??CleanCanvasArea_4:
   \   00000034   641E               SUBS     R4,R4,#+1
   \   00000036   0CD1               BNE      ??CleanCanvasArea_5
    232                }   
    233                linia++;
   \                     ??CleanCanvasArea_6:
   \   00000038   521C               ADDS     R2,R2,#+1
   \   0000003A   5B1E               SUBS     R3,R3,#+1
   \   0000003C   44D0               BEQ      ??CleanCanvasArea_1
   \                     ??CleanCanvasArea_2:
   \   0000003E   6846               MOV      R0,SP
   \   00000040   007B               LDRB     R0,[R0, #+12]
   \   00000042   C008               LSRS     R0,R0,#+3
   \   00000044   6946               MOV      R1,SP
   \   00000046   0978               LDRB     R1,[R1, #+0]
   \   00000048   019C               LDR      R4,[SP, #+4]
   \   0000004A   002C               CMP      R4,#+0
   \   0000004C   F4D4               BMI      ??CleanCanvasArea_6
   \   0000004E   6C46               MOV      R4,SP
   \   00000050   247C               LDRB     R4,[R4, #+16]
   \                     ??CleanCanvasArea_5:
   \   00000052   C501               LSLS     R5,R0,#+7
   \   00000054   5519               ADDS     R5,R2,R5
   \   00000056   2E78               LDRB     R6,[R5, #+0]
   \   00000058   0127               MOVS     R7,#+1
   \   0000005A   8F40               LSLS     R7,R7,R1
   \   0000005C   BE43               BICS     R6,R6,R7
   \   0000005E   2E70               STRB     R6,[R5, #+0]
   \   00000060   0906               LSLS     R1,R1,#+24
   \   00000062   090E               LSRS     R1,R1,#+24
   \   00000064   0729               CMP      R1,#+7
   \   00000066   E1D2               BCS      ??CleanCanvasArea_3
   \   00000068   491C               ADDS     R1,R1,#+1
   \   0000006A   E3E7               B        ??CleanCanvasArea_4
    234             }
    235          }
    236          else
    237          {
    238            for (int i=0; i<=Y_Lenght-1; i++)
   \                     ??CleanCanvasArea_0:
   \   0000006C   002A               CMP      R2,#+0
   \   0000006E   2BD4               BMI      ??CleanCanvasArea_1
   \   00000070   ....               LDR      R0,??DataTable8  ;; LCD_Canvas
   \   00000072   4218               ADDS     R2,R0,R1
   \   00000074   6846               MOV      R0,SP
   \   00000076   6946               MOV      R1,SP
   \   00000078   097B               LDRB     R1,[R1, #+12]
   \   0000007A   CC08               LSRS     R4,R1,#+3
   \   0000007C   E400               LSLS     R4,R4,#+3
   \   0000007E   091B               SUBS     R1,R1,R4
   \   00000080   0170               STRB     R1,[R0, #+0]
   \   00000082   007C               LDRB     R0,[R0, #+16]
   \   00000084   401E               SUBS     R0,R0,#+1
   \   00000086   0190               STR      R0,[SP, #+4]
    239             { 
    240               kol=(X)/8;
   \                     ??CleanCanvasArea_7:
   \   00000088   6846               MOV      R0,SP
   \   0000008A   007B               LDRB     R0,[R0, #+12]
   \   0000008C   C008               LSRS     R0,R0,#+3
    241               bit=(X)%8;
   \   0000008E   6946               MOV      R1,SP
   \   00000090   0978               LDRB     R1,[R1, #+0]
    242               
    243               for (int j=0; j<=X_Lenght-1; j++)
   \   00000092   019C               LDR      R4,[SP, #+4]
   \   00000094   002C               CMP      R4,#+0
   \   00000096   14D4               BMI      ??CleanCanvasArea_8
   \   00000098   6C46               MOV      R4,SP
   \   0000009A   247C               LDRB     R4,[R4, #+16]
    244                {
    245                     LCD_Canvas[kol][linia] |=(1<<bit);  
   \                     ??CleanCanvasArea_9:
   \   0000009C   C501               LSLS     R5,R0,#+7
   \   0000009E   5519               ADDS     R5,R2,R5
   \   000000A0   2E78               LDRB     R6,[R5, #+0]
   \   000000A2   0127               MOVS     R7,#+1
   \   000000A4   8F40               LSLS     R7,R7,R1
   \   000000A6   3743               ORRS     R7,R7,R6
   \   000000A8   2F70               STRB     R7,[R5, #+0]
    246                     if (bit<7)  { bit++;}  else {bit=0;   kol++;  }
   \   000000AA   0906               LSLS     R1,R1,#+24
   \   000000AC   090E               LSRS     R1,R1,#+24
   \   000000AE   0729               CMP      R1,#+7
   \   000000B0   01D2               BCS      ??CleanCanvasArea_10
   \   000000B2   491C               ADDS     R1,R1,#+1
   \   000000B4   03E0               B        ??CleanCanvasArea_11
   \                     ??CleanCanvasArea_10:
   \   000000B6   0021               MOVS     R1,#+0
   \   000000B8   401C               ADDS     R0,R0,#+1
   \   000000BA   0006               LSLS     R0,R0,#+24
   \   000000BC   000E               LSRS     R0,R0,#+24
    247                }   
   \                     ??CleanCanvasArea_11:
   \   000000BE   641E               SUBS     R4,R4,#+1
   \   000000C0   ECD1               BNE      ??CleanCanvasArea_9
    248                linia++;
    249             }
   \                     ??CleanCanvasArea_8:
   \   000000C2   521C               ADDS     R2,R2,#+1
   \   000000C4   5B1E               SUBS     R3,R3,#+1
   \   000000C6   DFD1               BNE      ??CleanCanvasArea_7
    250          }
    251            
    252          }//_______________________ Koniec funkcji CleanCanvasArea __________________________
   \                     ??CleanCanvasArea_1:
   \   000000C8   05B0               ADD      SP,SP,#+20
   \   000000CA   F0BC               POP      {R4-R7}
   \   000000CC   01BC               POP      {R0}
   \   000000CE   0047               BX       R0               ;; return
    253          
    254          
    255          
    256          
    257          //*-----------------------------------------------------------------------------
    258          //* Nazwa funkcji :    CleanCanvasArea
    259          //* Funkcja czyszczenia okreœlonego obszaru
    260          //* Colour  -  0= bia³y, 1=czarny
    261          //*-----------------------------------------------------------------------------
    262          //* Efekt widoczny po odœwierzeniu LCD (RepaintLCD)
    263          //*-----------------------------------------------------------------------------

   \                                 In section Debug.txt, align 4, keep-with-next
    264          void CanvasPixel(char X, char Y, char Colour)
    265          {
   \                     CanvasPixel:
   \   00000000   10B5               PUSH     {R4,LR}
    266               char kol=(X)/8;
   \   00000002   C308               LSRS     R3,R0,#+3
    267               char bit=(X)%8;
   \   00000004   DC00               LSLS     R4,R3,#+3
   \   00000006   001B               SUBS     R0,R0,R4
   \   00000008   0006               LSLS     R0,R0,#+24
   \   0000000A   000E               LSRS     R0,R0,#+24
    268               
    269               if ( Colour == 0 )
   \   0000000C   002A               CMP      R2,#+0
   \   0000000E   09D1               BNE      ??CanvasPixel_0
    270               {
    271                 LCD_Canvas[kol][Y] &=~(1<<bit); 
   \   00000010   DA01               LSLS     R2,R3,#+7
   \   00000012   ....               LDR      R3,??DataTable8  ;; LCD_Canvas
   \   00000014   9A18               ADDS     R2,R3,R2
   \   00000016   5118               ADDS     R1,R2,R1
   \   00000018   0A78               LDRB     R2,[R1, #+0]
   \   0000001A   0123               MOVS     R3,#+1
   \   0000001C   8340               LSLS     R3,R3,R0
   \   0000001E   9A43               BICS     R2,R2,R3
   \   00000020   0A70               STRB     R2,[R1, #+0]
   \   00000022   08E0               B        ??CanvasPixel_1
    272               }
    273               else
    274               {
    275                 LCD_Canvas[kol][Y] |=(1<<bit);  
   \                     ??CanvasPixel_0:
   \   00000024   DA01               LSLS     R2,R3,#+7
   \   00000026   ....               LDR      R3,??DataTable8  ;; LCD_Canvas
   \   00000028   9A18               ADDS     R2,R3,R2
   \   0000002A   5118               ADDS     R1,R2,R1
   \   0000002C   0A78               LDRB     R2,[R1, #+0]
   \   0000002E   0123               MOVS     R3,#+1
   \   00000030   8340               LSLS     R3,R3,R0
   \   00000032   1343               ORRS     R3,R3,R2
   \   00000034   0B70               STRB     R3,[R1, #+0]
    276               }
    277          }//_______________________ Koniec funkcji CleanCanvasArea __________________________
   \                     ??CanvasPixel_1:
   \   00000036   10BC               POP      {R4}
   \   00000038   01BC               POP      {R0}
   \   0000003A   0047               BX       R0               ;; return
    278          
    279          
    280          
    281          
    282          
    283          
    284          //*-----------------------------------------------------------------------------
    285          //* Nazwa funkcji :    CopyToCanvas
    286          //* Funkcja kopiowania dowolnej tablicy[8][128] do bufora wyœwietlacza 
    287          //*-----------------------------------------------------------------------------
    288          //* Efekt widoczny po odœwierzeniu LCD (RepaintLCD)
    289          //*-----------------------------------------------------------------------------

   \                                 In section Debug.txt, align 4, keep-with-next
    290          void CopyToCanvas(char Tabela[8][128])
    291          {
   \                     CopyToCanvas:
   \   00000000   01B5               PUSH     {R0,LR}
    292            for (int i=0; i<=7; i++)
   \   00000002   ....               LDR      R1,??DataTable8  ;; LCD_Canvas
   \   00000004   8022               MOVS     R2,#+128
   \   00000006   5200               LSLS     R2,R2,#+1        ;; #+256
    293            {
    294              for (int j=0; j<=127; j++)
    295              {
    296                LCD_Canvas[i][j] =Tabela[i][j]; 
   \                     ??CopyToCanvas_0:
   \   00000008   0378               LDRB     R3,[R0, #+0]
   \   0000000A   0B70               STRB     R3,[R1, #+0]
   \   0000000C   4378               LDRB     R3,[R0, #+1]
   \   0000000E   4B70               STRB     R3,[R1, #+1]
   \   00000010   8378               LDRB     R3,[R0, #+2]
   \   00000012   8B70               STRB     R3,[R1, #+2]
   \   00000014   C378               LDRB     R3,[R0, #+3]
   \   00000016   CB70               STRB     R3,[R1, #+3]
    297              }
   \   00000018   001D               ADDS     R0,R0,#+4
   \   0000001A   091D               ADDS     R1,R1,#+4
    298            }
   \   0000001C   521E               SUBS     R2,R2,#+1
   \   0000001E   F3D1               BNE      ??CopyToCanvas_0
    299          }//_______________________ Koniec funkcji CopyToCanvas __________________________
   \   00000020   08BC               POP      {R3}
   \   00000022   01BC               POP      {R0}
   \   00000024   0047               BX       R0               ;; return
    300          
    301          
    302          
    303          
    304          
    305          
    306          //*-----------------------------------------------------------------------------
    307          //* Nazwa funkcji :    CopyToCanvas
    308          //* Funkcja kopiowania dowolnej tablicy[8][128] do bufora wyœwietlacza 
    309          //*-----------------------------------------------------------------------------
    310          //* Efekt widoczny po odœwierzeniu LCD (RepaintLCD)
    311          //*-----------------------------------------------------------------------------

   \                                 In section Debug.txt, align 4, keep-with-next
    312          void CopyToCanvasPoint(char *Tabela, char X, char Y, char X_Lenght, char Y_Lenght)
    313          {
   \                     CopyToCanvasPoint:
   \   00000000   FBB5               PUSH     {R0,R1,R3-R7,LR}
   \   00000002   86B0               SUB      SP,SP,#+24
    314          
    315            char kol=0;
    316            char bit=0;
    317            char kol2=0;
    318            char bit2=0;
    319            char linia=Y;
   \   00000004   0020               MOVS     R0,#+0
   \   00000006   0090               STR      R0,[SP, #+0]
   \   00000008   0EA8               ADD      R0,SP,#+56
   \   0000000A   0078               LDRB     R0,[R0, #+0]
   \   0000000C   401E               SUBS     R0,R0,#+1
   \   0000000E   0290               STR      R0,[SP, #+8]
   \   00000010   56D4               BMI      ??CopyToCanvasPoint_0
   \   00000012   ....               LDR      R0,??DataTable8  ;; LCD_Canvas
   \   00000014   8018               ADDS     R0,R0,R2
   \   00000016   0190               STR      R0,[SP, #+4]
   \   00000018   0800               MOVS     R0,R1
   \   0000001A   C108               LSRS     R1,R0,#+3
   \   0000001C   C900               LSLS     R1,R1,#+3
   \   0000001E   401A               SUBS     R0,R0,R1
   \   00000020   0006               LSLS     R0,R0,#+24
   \   00000022   000E               LSRS     R0,R0,#+24
   \   00000024   0390               STR      R0,[SP, #+12]
   \   00000026   1800               MOVS     R0,R3
   \   00000028   401E               SUBS     R0,R0,#+1
   \   0000002A   0490               STR      R0,[SP, #+16]
    320            
    321            for (int i=0; i<=Y_Lenght-1; i++)
    322             {
    323          
    324               
    325               kol=(X)/8;
   \                     ??CopyToCanvasPoint_1:
   \   0000002C   6846               MOV      R0,SP
   \   0000002E   007F               LDRB     R0,[R0, #+28]
   \   00000030   C008               LSRS     R0,R0,#+3
    326               bit=(X)%8;
   \   00000032   0399               LDR      R1,[SP, #+12]
    327               
    328               kol2=0;
   \   00000034   0022               MOVS     R2,#+0
    329               bit2=0;
   \   00000036   0023               MOVS     R3,#+0
    330                 
    331               for (int j=0; j<=X_Lenght-1; j++)
   \   00000038   049C               LDR      R4,[SP, #+16]
   \   0000003A   002C               CMP      R4,#+0
   \   0000003C   36D4               BMI      ??CopyToCanvasPoint_2
   \   0000003E   08AC               ADD      R4,SP,#+32
   \   00000040   2478               LDRB     R4,[R4, #+0]
    332                {
    333                   if (((Tabela[(kol2*Y_Lenght)+(i)]>>bit2)&0x1)>0)
   \                     ??CopyToCanvasPoint_3:
   \   00000042   1206               LSLS     R2,R2,#+24
   \   00000044   120E               LSRS     R2,R2,#+24
   \   00000046   0EAD               ADD      R5,SP,#+56
   \   00000048   2D78               LDRB     R5,[R5, #+0]
   \   0000004A   5543               MULS     R5,R2,R5
   \   0000004C   009E               LDR      R6,[SP, #+0]
   \   0000004E   AD19               ADDS     R5,R5,R6
   \   00000050   069E               LDR      R6,[SP, #+24]
   \   00000052   755D               LDRB     R5,[R6, R5]
   \   00000054   1D41               ASRS     R5,R5,R3
   \   00000056   0126               MOVS     R6,#+1
   \   00000058   2E40               ANDS     R6,R6,R5
   \   0000005A   012E               CMP      R6,#+1
   \   0000005C   08DB               BLT      ??CopyToCanvasPoint_4
    334                    {
    335                       
    336                       LCD_Canvas[kol][linia] |=(1<<bit); 
   \   0000005E   C501               LSLS     R5,R0,#+7
   \   00000060   019E               LDR      R6,[SP, #+4]
   \   00000062   7519               ADDS     R5,R6,R5
   \   00000064   2E78               LDRB     R6,[R5, #+0]
   \   00000066   0127               MOVS     R7,#+1
   \   00000068   8F40               LSLS     R7,R7,R1
   \   0000006A   3743               ORRS     R7,R7,R6
   \   0000006C   2F70               STRB     R7,[R5, #+0]
   \   0000006E   07E0               B        ??CopyToCanvasPoint_5
    337                    }
    338                    else
    339                    {
    340                       LCD_Canvas[kol][linia] &=~(1<<bit);  
   \                     ??CopyToCanvasPoint_4:
   \   00000070   C501               LSLS     R5,R0,#+7
   \   00000072   019E               LDR      R6,[SP, #+4]
   \   00000074   7519               ADDS     R5,R6,R5
   \   00000076   2E78               LDRB     R6,[R5, #+0]
   \   00000078   0127               MOVS     R7,#+1
   \   0000007A   8F40               LSLS     R7,R7,R1
   \   0000007C   BE43               BICS     R6,R6,R7
   \   0000007E   2E70               STRB     R6,[R5, #+0]
    341                    }
    342                   
    343            
    344                     if (bit<7)  { bit++;}  else {bit=0;   kol++;  }
   \                     ??CopyToCanvasPoint_5:
   \   00000080   0D06               LSLS     R5,R1,#+24
   \   00000082   2D0E               LSRS     R5,R5,#+24
   \   00000084   072D               CMP      R5,#+7
   \   00000086   03D2               BCS      ??CopyToCanvasPoint_6
   \   00000088   491C               ADDS     R1,R1,#+1
   \   0000008A   0906               LSLS     R1,R1,#+24
   \   0000008C   090E               LSRS     R1,R1,#+24
   \   0000008E   03E0               B        ??CopyToCanvasPoint_7
   \                     ??CopyToCanvasPoint_6:
   \   00000090   0021               MOVS     R1,#+0
   \   00000092   401C               ADDS     R0,R0,#+1
   \   00000094   0006               LSLS     R0,R0,#+24
   \   00000096   000E               LSRS     R0,R0,#+24
    345                     if (bit2<7) { bit2++;} else {bit2=0;  kol2++; }           
   \                     ??CopyToCanvasPoint_7:
   \   00000098   1B06               LSLS     R3,R3,#+24
   \   0000009A   1B0E               LSRS     R3,R3,#+24
   \   0000009C   072B               CMP      R3,#+7
   \   0000009E   01D2               BCS      ??CopyToCanvasPoint_8
   \   000000A0   5B1C               ADDS     R3,R3,#+1
   \   000000A2   01E0               B        ??CopyToCanvasPoint_9
   \                     ??CopyToCanvasPoint_8:
   \   000000A4   0023               MOVS     R3,#+0
   \   000000A6   521C               ADDS     R2,R2,#+1
    346                }   
   \                     ??CopyToCanvasPoint_9:
   \   000000A8   641E               SUBS     R4,R4,#+1
   \   000000AA   CAD1               BNE      ??CopyToCanvasPoint_3
    347               
    348                linia++;
    349             }
   \                     ??CopyToCanvasPoint_2:
   \   000000AC   0098               LDR      R0,[SP, #+0]
   \   000000AE   401C               ADDS     R0,R0,#+1
   \   000000B0   0090               STR      R0,[SP, #+0]
   \   000000B2   0198               LDR      R0,[SP, #+4]
   \   000000B4   401C               ADDS     R0,R0,#+1
   \   000000B6   0190               STR      R0,[SP, #+4]
   \   000000B8   0298               LDR      R0,[SP, #+8]
   \   000000BA   0099               LDR      R1,[SP, #+0]
   \   000000BC   8842               CMP      R0,R1
   \   000000BE   B5DA               BGE      ??CopyToCanvasPoint_1
    350          
    351          }//_______________________ Koniec funkcji CopyToCanvas __________________________
   \                     ??CopyToCanvasPoint_0:
   \   000000C0   09B0               ADD      SP,SP,#+36
   \   000000C2   F0BC               POP      {R4-R7}
   \   000000C4   01BC               POP      {R0}
   \   000000C6   0047               BX       R0               ;; return
    352          
    353          
    354          
    355          
    356          //*-----------------------------------------------------------------------------
    357          //* Nazwa funkcji :    at91DisplayOnOff
    358          //* Funkcja za³¹czania/wy³¹czania LCD
    359          //*-----------------------------------------------------------------------------
    360          //////////////////////////////////////////////////////
    361          // R/W  D/I  DB7  DB6  DB5  DB4  DB3  DB2  DB1  DB0 //
    362          //  RW   DI  DB7  DB6  DB5  DB4  DB3  DB2  DB1  DB0 //
    363          //   0    0    0    0    1    1    1    1    1    D //
    364          //                                                  //
    365          // on_off - "0" - OFF                               //
    366          //        - "1" - ON                                //
    367          //////////////////////////////////////////////////////
    368          //*-----------------------------------------------------------------------------
    369          

   \                                 In section Debug.txt, align 4, keep-with-next
    370           void at91DisplayOnOff(char on_off)
    371           {
   \                     at91DisplayOnOff:
   \   00000000   70B5               PUSH     {R4-R6,LR}
    372              m_pPio->PIO_CODR =  LCD_BUS_MASK;                         // zeruje piny
   \   00000002   ....               LDR      R4,??DataTable11  ;; m_pPio
   \   00000004   2168               LDR      R1,[R4, #+0]
   \   00000006   ....               LDR      R5,??DataTable12  ;; 0x7e00811c
   \   00000008   4D63               STR      R5,[R1, #+52]
    373          
    374             
    375              //m_pPio->PIO_CODR = DB5 | DB4 | DB3 | DB2 | DB1 | on_off << 3;  // "1" na wyœwietlaczu
    376             if (on_off)
   \   0000000A   0028               CMP      R0,#+0
   \   0000000C   01D0               BEQ      ??at91DisplayOnOff_0
    377             {
    378                m_pPio->PIO_SODR = DB5 | DB4 | DB3 | DB2 | DB1 | DB0;  // "1" na wyœwietlaczu
   \   0000000E   0548               LDR      R0,??at91DisplayOnOff_1  ;; 0x3c000110
   \   00000010   00E0               B.N      ??at91DisplayOnOff_2
    379             }
    380             else
    381             {
    382                m_pPio->PIO_SODR = DB5 | DB4 | DB3 | DB2 | DB1;  // "1" na wyœwietlaczu 
   \                     ??at91DisplayOnOff_0:
   \   00000012   0548               LDR      R0,??at91DisplayOnOff_1+0x4  ;; 0x1c000110
   \                     ??at91DisplayOnOff_2:
   \   00000014   0863               STR      R0,[R1, #+48]
    383             }
    384             
    385             m_pPio->PIO_CODR = DI | RW;
   \   00000016   0C20               MOVS     R0,#+12
   \   00000018   4863               STR      R0,[R1, #+52]
    386              m_pPio->PIO_SODR = ENABLE;
   \   0000001A   8026               MOVS     R6,#+128
   \   0000001C   F605               LSLS     R6,R6,#+23       ;; #+1073741824
   \   0000001E   0E63               STR      R6,[R1, #+48]
    387              Delay(2);
   \   00000020   0220               MOVS     R0,#+2
   \   00000022   ....               B.N      ?Subroutine1
   \                     ??at91DisplayOnOff_1:
   \   00000024   1001003C           DC32     0x3c000110
   \   00000028   1001001C           DC32     0x1c000110
    388              m_pPio->PIO_CODR = ENABLE;
    389             m_pPio->PIO_CODR =  LCD_BUS_MASK;                         // "0" na wyœwietlaczu
    390          
    391          }//_______________________ Koniec funkcji at91DisplayOnOff ______________________

   \                                 In section Debug.txt, align 4, keep-with-next
   \                     ?Subroutine1:
   \   00000000   ........           BL       Delay
   \   00000004   2068               LDR      R0,[R4, #+0]
   \   00000006   4663               STR      R6,[R0, #+52]
   \   00000008   4563               STR      R5,[R0, #+52]
   \                     ??Subroutine1_0:
   \   0000000A   70BC               POP      {R4-R6}
   \   0000000C   01BC               POP      {R0}
   \   0000000E   0047               BX       R0               ;; return
   \                     ??Subroutine1_1:
   \   00000010   10810004           DC32     0x4008110
    392           
    393           
    394          
    395          
    396          
    397          
    398          
    399           
    400          //*-----------------------------------------------------------------------------
    401          //* Nazwa funkcji :    at91DisplayStartLine
    402          //* Funkcja ustawienia lini startowej
    403          //*-----------------------------------------------------------------------------
    404          //////////////////////////////////////////////////////
    405          // R/W  D/I  DB7  DB6  DB5  DB4  DB3  DB2  DB1  DB0 //
    406          //  RW   DI  DB7  DB6  DB5  DB4  DB3  DB2  DB1  DB0 //
    407          //   0    0    1    1    A    A    A    A    A    A //
    408          //                                                  //
    409          // AAAAAA - przesuniêcie w górê strony testowej     //
    410          //////////////////////////////////////////////////////
    411          //*-----------------------------------------------------------------------------

   \                                 In section Debug.txt, align 4, keep-with-next
    412           void at91DisplayStartLine(void)
    413           {
   \                     at91DisplayStartLine:
   \   00000000   70B5               PUSH     {R4-R6,LR}
    414             m_pPio->PIO_CODR =  LCD_BUS_MASK;                         // zeruje piny
   \   00000002   094E               LDR      R6,??at91DisplayStartLine_0  ;; m_pPio
   \   00000004   3068               LDR      R0,[R6, #+0]
   \   00000006   0A4C               LDR      R4,??at91DisplayStartLine_0+0x8  ;; 0x7e00811c
   \   00000008   4463               STR      R4,[R0, #+52]
    415          
    416             
    417              m_pPio->PIO_SODR =  DB7 | DB6 ;  // "1" na wyœwietlaczu
   \   0000000A   0849               LDR      R1,??at91DisplayStartLine_0+0x4  ;; 0x2008000
   \   0000000C   0163               STR      R1,[R0, #+48]
    418              m_pPio->PIO_CODR = DI | RW;
   \   0000000E   0C21               MOVS     R1,#+12
   \   00000010   4163               STR      R1,[R0, #+52]
    419              m_pPio->PIO_SODR = ENABLE;
   \   00000012   8025               MOVS     R5,#+128
   \   00000014   ED05               LSLS     R5,R5,#+23       ;; #+1073741824
   \   00000016   0563               STR      R5,[R0, #+48]
    420              Delay(2);
   \   00000018   0220               MOVS     R0,#+2
   \   0000001A   ........           BL       Delay
    421              m_pPio->PIO_CODR = ENABLE;
   \   0000001E   3068               LDR      R0,[R6, #+0]
   \   00000020   4563               STR      R5,[R0, #+52]
    422              m_pPio->PIO_CODR =  LCD_BUS_MASK;                         // "0" na wyœwietlaczu
   \   00000022   4463               STR      R4,[R0, #+52]
    423          
    424          }//_____________________ Koniec funkcji at91DisplayStartLine ___________________
   \   00000024   ....               B.N      ??Subroutine1_0
   \   00000026   C046               Nop      
   \                     ??at91DisplayStartLine_0:
   \   00000028   ........           DC32     m_pPio
   \   0000002C   00800002           DC32     0x2008000
   \   00000030   1C81007E           DC32     0x7e00811c
    425          
    426          
    427          
    428          
    429          
    430          
    431          
    432          
    433           
    434          //*-----------------------------------------------------------------------------
    435          //* Nazwa funkcji :    at91DisplayStartPage
    436          //* Funkcja ustawienia strony
    437          //*-----------------------------------------------------------------------------
    438          //////////////////////////////////////////////////////
    439          // R/W  D/I  DB7  DB6  DB5  DB4  DB3  DB2  DB1  DB0 //
    440          //  RW   DI  DB7  DB6  DB5  DB4  DB3  DB2  DB1  DB0 //
    441          //   0    0    1    0    1    1    1    A    A    A //
    442          //                                                  //
    443          // AAA - numer zapisywanej strony                   //
    444          //////////////////////////////////////////////////////
    445          //*-----------------------------------------------------------------------------
    446          

   \                                 In section Debug.txt, align 4, keep-with-next
    447           void at91DisplayStartPage(char lcd_start_page)
    448           {
   \                     at91DisplayStartPage:
   \   00000000   70B5               PUSH     {R4-R6,LR}
    449              char data=lcd_start_page; 
    450              
    451              m_pPio->PIO_CODR =  LCD_BUS_MASK;                         // zeruje piny
   \   00000002   ....               LDR      R4,??DataTable11  ;; m_pPio
   \   00000004   2168               LDR      R1,[R4, #+0]
   \   00000006   ....               LDR      R5,??DataTable12  ;; 0x7e00811c
   \   00000008   4D63               STR      R5,[R1, #+52]
    452          
    453                
    454              //m_pPio->PIO_CODR = DB7 | DB5 | DB4 | DB3 | lcd_start_page << 3;  // "1" na wyœwietlaczu
    455              m_pPio->PIO_SODR = DB7 | DB5 | DB4 | DB3 | (((data>>2)&0x1)<<mDB2) | (((data>>1)&0x1)<<mDB1) | (((data>>0)&0x1)<<mDB0) ;  // "1" na wyœwietlaczu
   \   0000000A   0122               MOVS     R2,#+1
   \   0000000C   8310               ASRS     R3,R0,#+2
   \   0000000E   1340               ANDS     R3,R3,R2
   \   00000010   DB06               LSLS     R3,R3,#+27
   \   00000012   4610               ASRS     R6,R0,#+1
   \   00000014   1640               ANDS     R6,R6,R2
   \   00000016   3607               LSLS     R6,R6,#+28
   \   00000018   1E43               ORRS     R6,R6,R3
   \   0000001A   0240               ANDS     R2,R2,R0
   \   0000001C   5007               LSLS     R0,R2,#+29
   \   0000001E   3043               ORRS     R0,R0,R6
   \   00000020   ....               LDR      R2,??Subroutine1_1  ;; 0x4008110
   \   00000022   0243               ORRS     R2,R2,R0
   \   00000024   0A63               STR      R2,[R1, #+48]
    456              m_pPio->PIO_CODR = DI | RW;
   \   00000026   0C20               MOVS     R0,#+12
   \   00000028   4863               STR      R0,[R1, #+52]
    457              m_pPio->PIO_SODR = ENABLE;
   \   0000002A   8026               MOVS     R6,#+128
   \   0000002C   F605               LSLS     R6,R6,#+23       ;; #+1073741824
   \   0000002E   0E63               STR      R6,[R1, #+48]
    458              Delay(LCD_delay);
   \   00000030   2820               MOVS     R0,#+40
   \   00000032   C046               Nop      
   \   00000034                      REQUIRE ?Subroutine1
   \   00000034                      ;; // Fall through to label ?Subroutine1
    459              m_pPio->PIO_CODR = ENABLE;
    460             m_pPio->PIO_CODR =  LCD_BUS_MASK;                         // "0" na wyœwietlaczu
    461          
    462          }//_____________________ Koniec funkcji at91DisplayStartPage ___________________
    463          
    464          
    465          
    466          
    467          
    468          
    469          
    470          
    471          
    472          //*-----------------------------------------------------------------------------
    473          //* Nazwa funkcji :    at91DisplayYAdress
    474          //* Funkcja okreœla wspó³rzêdne X od których ma zacz¹æ 
    475          //*         zapisywaæ, automatycznie inkrementowane    
    476          //*         po kazdej operacji zapisu/odczytu
    477          //*-----------------------------------------------------------------------------      
    478          //////////////////////////////////////////////////////
    479          // R/W  D/I  DB7  DB6  DB5  DB4  DB3  DB2  DB1  DB0 //
    480          //  RW   DI  DB7  DB6  DB5  DB4  DB3  DB2  DB1  DB0 //
    481          //   0    0    0    1    A    A    A    A    A    A //
    482          //                                                  //
    483          // AAAAAA-przesuniêcie zapisywanej kolumny w prawo  //
    484          //////////////////////////////////////////////////////
    485          //*-----------------------------------------------------------------------------
    486          

   \                                 In section Debug.txt, align 4, keep-with-next
    487           void at91DisplayYAdress(char display_Y)
    488           {
   \                     at91DisplayYAdress:
   \   00000000   F1B5               PUSH     {R0,R4-R7,LR}
    489             char data=(0x3F-display_Y); 
   \   00000002   3F21               MOVS     R1,#+63
   \   00000004   091A               SUBS     R1,R1,R0
   \   00000006   0906               LSLS     R1,R1,#+24
   \   00000008   090E               LSRS     R1,R1,#+24
    490             
    491             m_pPio->PIO_CODR =  LCD_BUS_MASK;                         // zeruje piny
   \   0000000A   214C               LDR      R4,??at91DisplayYAdress_0  ;; m_pPio
   \   0000000C   2268               LDR      R2,[R4, #+0]
   \   0000000E   214D               LDR      R5,??at91DisplayYAdress_0+0x4  ;; 0x7e00811c
   \   00000010   5563               STR      R5,[R2, #+52]
    492          
    493          
    494              m_pPio->PIO_SODR = DB6 | (((display_Y>>5)&0x1)<<mDB5) | (((display_Y>>4)&0x1)<<mDB4) | (((display_Y>>3)&0x1)<<mDB3) | (((display_Y>>2)&0x1)<<mDB2) | (((display_Y>>1)&0x1)<<mDB1) | (((display_Y>>0)&0x1)<<mDB0);             // "0" na wyœwietlaczu // "1" na wyœwietlaczu
   \   00000012   0300               MOVS     R3,R0
   \   00000014   0126               MOVS     R6,#+1
   \   00000016   4011               ASRS     R0,R0,#+5
   \   00000018   3040               ANDS     R0,R0,R6
   \   0000001A   8706               LSLS     R7,R0,#+26
   \   0000001C   1811               ASRS     R0,R3,#+4
   \   0000001E   3040               ANDS     R0,R0,R6
   \   00000020   0002               LSLS     R0,R0,#+8
   \   00000022   3843               ORRS     R0,R0,R7
   \   00000024   DF10               ASRS     R7,R3,#+3
   \   00000026   3740               ANDS     R7,R7,R6
   \   00000028   3F01               LSLS     R7,R7,#+4
   \   0000002A   0743               ORRS     R7,R7,R0
   \   0000002C   9810               ASRS     R0,R3,#+2
   \   0000002E   3040               ANDS     R0,R0,R6
   \   00000030   C006               LSLS     R0,R0,#+27
   \   00000032   3843               ORRS     R0,R0,R7
   \   00000034   5F10               ASRS     R7,R3,#+1
   \   00000036   3740               ANDS     R7,R7,R6
   \   00000038   3F07               LSLS     R7,R7,#+28
   \   0000003A   0743               ORRS     R7,R7,R0
   \   0000003C   3340               ANDS     R3,R3,R6
   \   0000003E   5807               LSLS     R0,R3,#+29
   \   00000040   3843               ORRS     R0,R0,R7
   \   00000042   7306               LSLS     R3,R6,#+25
   \   00000044   0343               ORRS     R3,R3,R0
   \   00000046   1363               STR      R3,[R2, #+48]
    495              m_pPio->PIO_CODR = DI | RW | (((data>>5)&0x1)<<mDB5) | (((data>>4)&0x1)<<mDB4) | (((data>>3)&0x1)<<mDB3) | (((data>>2)&0x1)<<mDB2) | (((data>>1)&0x1)<<mDB1) | (((data>>0)&0x1)<<mDB0);             // "0" na wyœwietlaczu
   \   00000048   4811               ASRS     R0,R1,#+5
   \   0000004A   3040               ANDS     R0,R0,R6
   \   0000004C   8306               LSLS     R3,R0,#+26
   \   0000004E   0811               ASRS     R0,R1,#+4
   \   00000050   3040               ANDS     R0,R0,R6
   \   00000052   0002               LSLS     R0,R0,#+8
   \   00000054   1843               ORRS     R0,R0,R3
   \   00000056   CB10               ASRS     R3,R1,#+3
   \   00000058   3340               ANDS     R3,R3,R6
   \   0000005A   1B01               LSLS     R3,R3,#+4
   \   0000005C   0343               ORRS     R3,R3,R0
   \   0000005E   8810               ASRS     R0,R1,#+2
   \   00000060   3040               ANDS     R0,R0,R6
   \   00000062   C006               LSLS     R0,R0,#+27
   \   00000064   1843               ORRS     R0,R0,R3
   \   00000066   4B10               ASRS     R3,R1,#+1
   \   00000068   3340               ANDS     R3,R3,R6
   \   0000006A   1B07               LSLS     R3,R3,#+28
   \   0000006C   0343               ORRS     R3,R3,R0
   \   0000006E   0E40               ANDS     R6,R6,R1
   \   00000070   7007               LSLS     R0,R6,#+29
   \   00000072   1843               ORRS     R0,R0,R3
   \   00000074   0C21               MOVS     R1,#+12
   \   00000076   0143               ORRS     R1,R1,R0
   \   00000078   5163               STR      R1,[R2, #+52]
    496              
    497              m_pPio->PIO_SODR = ENABLE;
   \   0000007A   8026               MOVS     R6,#+128
   \   0000007C   F605               LSLS     R6,R6,#+23       ;; #+1073741824
   \   0000007E   1663               STR      R6,[R2, #+48]
    498              Delay(1);
   \   00000080   0120               MOVS     R0,#+1
   \   00000082   ........           BL       Delay
    499              m_pPio->PIO_CODR = ENABLE;
   \   00000086   2068               LDR      R0,[R4, #+0]
   \   00000088   4663               STR      R6,[R0, #+52]
    500              m_pPio->PIO_CODR =  LCD_BUS_MASK;                       // "0" na wyœwietlaczu
   \   0000008A   4563               STR      R5,[R0, #+52]
    501          }//_______________________ Koniec funkcji at91DisplayYAdress ___________________
   \   0000008C   ........           BL       ??Subroutine0_0
   \                     ??at91DisplayYAdress_0:
   \   00000090   ........           DC32     m_pPio
   \   00000094   1C81007E           DC32     0x7e00811c
    502          
    503           
    504           
    505          
    506           
    507          
    508          
    509          
    510          //*-----------------------------------------------------------------------------
    511          //* Nazwa funkcji :    at91DisplayData
    512          //* Funkcja wpisywania danych do Ram LCD
    513          //*-----------------------------------------------------------------------------
    514          //* R/W  D/I  DB7  DB6  DB5  DB4  DB3  DB2  DB1  DB0 
    515          //*  RW   DI  DB7  DB6  DB5  DB4  DB3  DB2  DB1  DB0 
    516          //*  0    1    A    A    A    A    A    A    A    A 
    517          //*                                                  
    518          //*  AAAAAAAA - dane                                  
    519          //*-----------------------------------------------------------------------------
    520          

   \                                 In section Debug.txt, align 4
    521          inline void at91DisplayData(char lcd_data)
    522           {
   \                     at91DisplayData:
   \   00000000   70B5               PUSH     {R4-R6,LR}
    523          
    524             char data=(0xFF-lcd_data); 
   \   00000002   FF21               MOVS     R1,#+255
   \   00000004   091A               SUBS     R1,R1,R0
   \   00000006   0906               LSLS     R1,R1,#+24
   \   00000008   090E               LSRS     R1,R1,#+24
    525             m_pPio->PIO_CODR =  LCD_BUS_MASK;                         // zeruje piny
   \   0000000A   284C               LDR      R4,??at91DisplayData_0  ;; m_pPio
   \   0000000C   2268               LDR      R2,[R4, #+0]
   \   0000000E   284B               LDR      R3,??at91DisplayData_0+0x4  ;; 0x7e00811c
   \   00000010   5363               STR      R3,[R2, #+52]
    526             
    527                m_pPio->PIO_SODR = DI | (((lcd_data>>7)&0x1)<<mDB7) | (((lcd_data>>6)&0x1)<<mDB6) | (((lcd_data>>5)&0x1)<<mDB5) | (((lcd_data>>4)&0x1)<<mDB4) | (((lcd_data>>3)&0x1)<<mDB3) | (((lcd_data>>2)&0x1)<<mDB2) | (((lcd_data>>1)&0x1)<<mDB1) | (((lcd_data>>0)&0x1)<<mDB0); 
   \   00000012   0123               MOVS     R3,#+1
   \   00000014   C509               LSRS     R5,R0,#+7
   \   00000016   EE03               LSLS     R6,R5,#+15
   \   00000018   8511               ASRS     R5,R0,#+6
   \   0000001A   1D40               ANDS     R5,R5,R3
   \   0000001C   6D06               LSLS     R5,R5,#+25
   \   0000001E   3543               ORRS     R5,R5,R6
   \   00000020   4611               ASRS     R6,R0,#+5
   \   00000022   1E40               ANDS     R6,R6,R3
   \   00000024   B606               LSLS     R6,R6,#+26
   \   00000026   2E43               ORRS     R6,R6,R5
   \   00000028   0511               ASRS     R5,R0,#+4
   \   0000002A   1D40               ANDS     R5,R5,R3
   \   0000002C   2D02               LSLS     R5,R5,#+8
   \   0000002E   3543               ORRS     R5,R5,R6
   \   00000030   C610               ASRS     R6,R0,#+3
   \   00000032   1E40               ANDS     R6,R6,R3
   \   00000034   3601               LSLS     R6,R6,#+4
   \   00000036   2E43               ORRS     R6,R6,R5
   \   00000038   8510               ASRS     R5,R0,#+2
   \   0000003A   1D40               ANDS     R5,R5,R3
   \   0000003C   ED06               LSLS     R5,R5,#+27
   \   0000003E   3543               ORRS     R5,R5,R6
   \   00000040   4610               ASRS     R6,R0,#+1
   \   00000042   1E40               ANDS     R6,R6,R3
   \   00000044   3607               LSLS     R6,R6,#+28
   \   00000046   2E43               ORRS     R6,R6,R5
   \   00000048   1840               ANDS     R0,R0,R3
   \   0000004A   4007               LSLS     R0,R0,#+29
   \   0000004C   3043               ORRS     R0,R0,R6
   \   0000004E   0425               MOVS     R5,#+4
   \   00000050   0543               ORRS     R5,R5,R0
   \   00000052   1563               STR      R5,[R2, #+48]
    528                m_pPio->PIO_CODR = RW | (((data>>7)&0x1)<<mDB7) | (((data>>6)&0x1)<<mDB6) | (((data>>5)&0x1)<<mDB5) | (((data>>4)&0x1)<<mDB4) | (((data>>3)&0x1)<<mDB3) | (((data>>2)&0x1)<<mDB2) | (((data>>1)&0x1)<<mDB1) | (((data>>0)&0x1)<<mDB0); 
   \   00000054   C809               LSRS     R0,R1,#+7
   \   00000056   C003               LSLS     R0,R0,#+15
   \   00000058   8D11               ASRS     R5,R1,#+6
   \   0000005A   1D40               ANDS     R5,R5,R3
   \   0000005C   6D06               LSLS     R5,R5,#+25
   \   0000005E   0543               ORRS     R5,R5,R0
   \   00000060   4811               ASRS     R0,R1,#+5
   \   00000062   1840               ANDS     R0,R0,R3
   \   00000064   8006               LSLS     R0,R0,#+26
   \   00000066   2843               ORRS     R0,R0,R5
   \   00000068   0D11               ASRS     R5,R1,#+4
   \   0000006A   1D40               ANDS     R5,R5,R3
   \   0000006C   2D02               LSLS     R5,R5,#+8
   \   0000006E   0543               ORRS     R5,R5,R0
   \   00000070   C810               ASRS     R0,R1,#+3
   \   00000072   1840               ANDS     R0,R0,R3
   \   00000074   0001               LSLS     R0,R0,#+4
   \   00000076   2843               ORRS     R0,R0,R5
   \   00000078   8D10               ASRS     R5,R1,#+2
   \   0000007A   1D40               ANDS     R5,R5,R3
   \   0000007C   ED06               LSLS     R5,R5,#+27
   \   0000007E   0543               ORRS     R5,R5,R0
   \   00000080   4810               ASRS     R0,R1,#+1
   \   00000082   1840               ANDS     R0,R0,R3
   \   00000084   0007               LSLS     R0,R0,#+28
   \   00000086   2843               ORRS     R0,R0,R5
   \   00000088   0B40               ANDS     R3,R3,R1
   \   0000008A   5907               LSLS     R1,R3,#+29
   \   0000008C   0143               ORRS     R1,R1,R0
   \   0000008E   0820               MOVS     R0,#+8
   \   00000090   0843               ORRS     R0,R0,R1
   \   00000092   5063               STR      R0,[R2, #+52]
    529             
    530          
    531              
    532             m_pPio->PIO_SODR = ENABLE;
   \   00000094   8025               MOVS     R5,#+128
   \   00000096   ED05               LSLS     R5,R5,#+23       ;; #+1073741824
   \   00000098   1563               STR      R5,[R2, #+48]
    533          
    534              Delay(18);
   \   0000009A   1220               MOVS     R0,#+18
   \   0000009C   ........           BL       Delay
    535              m_pPio->PIO_CODR = ENABLE;
   \   000000A0   2068               LDR      R0,[R4, #+0]
   \   000000A2   4563               STR      R5,[R0, #+52]
    536          
    537             // m_pPio->PIO_SODR =  LCD_BUS_MASK;                         // zeruje piny
    538          
    539          }//_______________________ Koniec funkcji at91DisplayData ______________________
   \   000000A4   70BC               POP      {R4-R6}
   \   000000A6   01BC               POP      {R0}
   \   000000A8   0047               BX       R0               ;; return
   \   000000AA   C046               Nop      
   \                     ??at91DisplayData_0:
   \   000000AC   ........           DC32     m_pPio
   \   000000B0   1C81007E           DC32     0x7e00811c
    540          
    541          
    542           
    543           
    544           
    545          //*-----------------------------------------------------------------------------
    546          //* Nazwa funkcji :    at91ChipSelect
    547          //* Funkcja wyboru kontrolera 1z2
    548          //*-----------------------------------------------------------------------------
    549          //* chip_select - "1" - CS1                   
    550          //*             - "2" - CS2      
    551          //*-----------------------------------------------------------------------------
    552          

   \                                 In section Debug.txt, align 4, keep-with-next
    553           void at91ChipSelect(char chip_select)
    554           {
   \                     at91ChipSelect:
   \   00000000   10B5               PUSH     {R4,LR}
    555             unsigned long cs_set;
    556             unsigned long cs_clr;
    557             
    558             m_pPio->PIO_CODR =  LCD_BUS_MASK;                         // zeruje piny
   \   00000002   0B4B               LDR      R3,??at91ChipSelect_0  ;; m_pPio
   \   00000004   1B68               LDR      R3,[R3, #+0]
   \   00000006   0B4C               LDR      R4,??at91ChipSelect_0+0x4  ;; 0x7e00811c
   \   00000008   5C63               STR      R4,[R3, #+52]
    559          
    560             
    561             if (chip_select==2) 
   \   0000000A   0228               CMP      R0,#+2
   \   0000000C   03D1               BNE      ??at91ChipSelect_1
    562                {
    563                  cs_set=CS2;
   \   0000000E   8021               MOVS     R1,#+128
   \   00000010   0904               LSLS     R1,R1,#+16       ;; #+8388608
    564                  cs_clr=CS1;
   \   00000012   CA09               LSRS     R2,R1,#+7
   \   00000014   04E0               B        ??at91ChipSelect_2
    565                }
    566           
    567             if (chip_select==1) 
   \                     ??at91ChipSelect_1:
   \   00000016   0128               CMP      R0,#+1
   \   00000018   02D1               BNE      ??at91ChipSelect_2
    568                {
    569                  cs_set=CS1;
   \   0000001A   8021               MOVS     R1,#+128
   \   0000001C   4902               LSLS     R1,R1,#+9        ;; #+65536
    570                  cs_clr=CS2;
   \   0000001E   CA01               LSLS     R2,R1,#+7
    571                }
    572             
    573          
    574          
    575             
    576              m_pPio->PIO_CODR = cs_clr;   
   \                     ??at91ChipSelect_2:
   \   00000020   5A63               STR      R2,[R3, #+52]
    577              m_pPio->PIO_SODR = cs_set;                           // "1" na wyœwietlaczu
   \   00000022   1963               STR      R1,[R3, #+48]
    578              
    579              
    580              
    581          at91DisplayOnOff(1); 
   \   00000024   0120               MOVS     R0,#+1
   \   00000026   ........           BL       at91DisplayOnOff
    582            
    583            
    584          
    585          }//_______________________ Koniec funkcji at91ChipSelect __________________________
   \   0000002A   10BC               POP      {R4}
   \   0000002C   01BC               POP      {R0}
   \   0000002E   0047               BX       R0               ;; return
   \                     ??at91ChipSelect_0:
   \   00000030   ........           DC32     m_pPio
   \   00000034   1C81007E           DC32     0x7e00811c
    586          
    587           
    588           
    589          
    590          
    591          
    592          
    593          
    594          //*-----------------------------------------------------------------------------
    595          //* Nazwa funkcji :    ReadTP
    596          //* Funkcja obs³ugi TouchPanel`a
    597          //*-----------------------------------------------------------------------------
    598          //*  !!! Czas trwania funkcji 15us
    599          //*-----------------------------------------------------------------------------
    600          

   \                                 In section Debug.txt, align 4, keep-with-next
    601          void ReadTP(_TPoint *Point)
    602          {
   \                     ReadTP:
   \   00000000   F1B5               PUSH     {R0,R4-R7,LR}
    603            unsigned pomX, pomY;
    604            pomX=0;
    605            pomY=0;
    606          
    607              //POMIAR X -------------------------------------------------------------------
    608            AT91F_PIO_CfgOutput(TS_PIO, TS_PIO_CH1);
   \   00000002   1E4C               LDR      R4,??ReadTP_0    ;; 0xfffff400
   \   00000004   8020               MOVS     R0,#+128
   \   00000006   C002               LSLS     R0,R0,#+11       ;; #+262144
   \   00000008   2060               STR      R0,[R4, #+0]
   \   0000000A   1D4D               LDR      R5,??ReadTP_0+0x4  ;; 0xfffff410
   \   0000000C   2860               STR      R0,[R5, #+0]
   \   0000000E   8100               LSLS     R1,R0,#+2
   \   00000010   2160               STR      R1,[R4, #+0]
    609            AT91F_PIO_CfgOutput(TS_PIO, TS_PIO_CH3);
   \   00000012   2960               STR      R1,[R5, #+0]
   \   00000014   1B49               LDR      R1,??ReadTP_0+0x8  ;; 0xfffff414
   \   00000016   4208               LSRS     R2,R0,#+1
   \   00000018   0A60               STR      R2,[R1, #+0]
    610           
    611            AT91F_PIO_CfgInput(TS_PIO, TS_PIO_CH0);
   \   0000001A   2260               STR      R2,[R4, #+0]
    612            TS_PIO->PIO_PPUDR=TS_PIO_CH0;
   \   0000001C   1A4E               LDR      R6,??ReadTP_0+0xC  ;; 0xfffff460
   \   0000001E   3260               STR      R2,[R6, #+0]
   \   00000020   1A49               LDR      R1,??ReadTP_0+0x10  ;; TS_pPio
   \   00000022   0968               LDR      R1,[R1, #+0]
   \   00000024   0863               STR      R0,[R1, #+48]
    613            
    614            TS_pPio->PIO_SODR = TS_PIO_CH1; 
    615            TS_pPio->PIO_CODR = TS_PIO_CH3;         
   \   00000026   8000               LSLS     R0,R0,#+2
   \   00000028   4863               STR      R0,[R1, #+52]
    616              
    617            pomX =  ReadADC(2);
   \   0000002A   0220               MOVS     R0,#+2
   \   0000002C   ........           BL       ReadADC
   \   00000030   0700               MOVS     R7,R0
    618            
    619          
    620            
    621            //POMIAR Y -------------------------------------------------------------------
    622            AT91F_PIO_CfgOutput(TS_PIO, TS_PIO_CH0);
   \   00000032   8020               MOVS     R0,#+128
   \   00000034   8002               LSLS     R0,R0,#+10       ;; #+131072
   \   00000036   2060               STR      R0,[R4, #+0]
   \   00000038   2860               STR      R0,[R5, #+0]
    623            AT91F_PIO_CfgOutput(TS_PIO, TS_PIO_CH2);
   \   0000003A   8000               LSLS     R0,R0,#+2
   \   0000003C   2060               STR      R0,[R4, #+0]
   \   0000003E   2860               STR      R0,[R5, #+0]
    624            
    625            AT91F_PIO_CfgInput(TS_PIO, TS_PIO_CH3);
   \   00000040   1049               LDR      R1,??ReadTP_0+0x8  ;; 0xfffff414
   \   00000042   4200               LSLS     R2,R0,#+1
   \   00000044   0A60               STR      R2,[R1, #+0]
   \   00000046   2260               STR      R2,[R4, #+0]
    626            TS_PIO->PIO_PPUDR=TS_PIO_CH3;
   \   00000048   3260               STR      R2,[R6, #+0]
    627            
    628            TS_pPio->PIO_SODR = TS_PIO_CH2; 
   \   0000004A   1049               LDR      R1,??ReadTP_0+0x10  ;; TS_pPio
   \   0000004C   0968               LDR      R1,[R1, #+0]
   \   0000004E   0863               STR      R0,[R1, #+48]
    629            TS_pPio->PIO_CODR = TS_PIO_CH0;        
   \   00000050   8008               LSRS     R0,R0,#+2
   \   00000052   4863               STR      R0,[R1, #+52]
    630            
    631            
    632            pomY =  ReadADC(1);
   \   00000054   0120               MOVS     R0,#+1
   \   00000056   ........           BL       ReadADC
    633          
    634            //walidacja / wykrycie dotkniêcia
    635            if ((pomY>900) || (pomY<=0) || (pomX>900) || (pomX<=0) )
   \   0000005A   0D49               LDR      R1,??ReadTP_0+0x14  ;; 0x385
   \   0000005C   8842               CMP      R0,R1
   \   0000005E   05D2               BCS      ??ReadTP_1
   \   00000060   0028               CMP      R0,#+0
   \   00000062   03D0               BEQ      ??ReadTP_1
   \   00000064   8F42               CMP      R7,R1
   \   00000066   01D2               BCS      ??ReadTP_1
   \   00000068   002F               CMP      R7,#+0
   \   0000006A   01D1               BNE      ??ReadTP_2
    636            {
    637              pomY=0;
   \                     ??ReadTP_1:
   \   0000006C   0020               MOVS     R0,#+0
    638              pomX=0;
   \   0000006E   0027               MOVS     R7,#+0
    639            }
    640          
    641            //kalibracja -----------------------------------------------------------------
    642          
    643          
    644            //przepisanie pomiarów
    645            Point->y=pomY;
   \                     ??ReadTP_2:
   \   00000070   0099               LDR      R1,[SP, #+0]
   \   00000072   4880               STRH     R0,[R1, #+2]
    646            Point->x=pomX;
   \   00000074   0098               LDR      R0,[SP, #+0]
   \   00000076   0780               STRH     R7,[R0, #+0]
    647          }
   \   00000078   ........           BL       ??Subroutine0_0
   \                     ??ReadTP_0:
   \   0000007C   00F4FFFF           DC32     0xfffff400
   \   00000080   10F4FFFF           DC32     0xfffff410
   \   00000084   14F4FFFF           DC32     0xfffff414
   \   00000088   60F4FFFF           DC32     0xfffff460
   \   0000008C   ........           DC32     TS_pPio
   \   00000090   85030000           DC32     0x385
    648          //END Touth panel ----------------------------------------------------------  
    649          
    650          
    651          
    652          
    653          
    654          
    655          //*-----------------------------------------------------------------------------
    656          //* Nazwa funkcji :    ReadADC
    657          //*-----------------------------------------------------------------------------
    658          //*-----------------------------------------------------------------------------

   \                                 In section .bss, align 2
    659              unsigned short odp=0; 
   \                     odp:
   \   00000000                      DS8 2
    660          

   \                                 In section Debug.txt, align 4, keep-with-next
    661          unsigned short ReadADC (char Channel) 
    662          { 
   \                     ReadADC:
   \   00000000   01B5               PUSH     {R0,LR}
    663          
    664           
    665          
    666              //enable channel and set PIN to ADCx function (no need to write PIO!!) 
    667            AT91C_BASE_ADC->ADC_CR = AT91C_ADC_SWRST; 
   \   00000002   1C49               LDR      R1,??ReadADC_1   ;; 0xfffd8000
   \   00000004   0122               MOVS     R2,#+1
   \   00000006   0A60               STR      R2,[R1, #+0]
    668          AT91C_BASE_ADC->ADC_MR = (15<24)|(11<<16)|(4<<8); 
   \   00000008   1B4A               LDR      R2,??ReadADC_1+0x4  ;; 0xfffd8004
   \   0000000A   1C4B               LDR      R3,??ReadADC_1+0x8  ;; 0xb0401
   \   0000000C   1360               STR      R3,[R2, #+0]
    669          AT91C_BASE_ADC->ADC_CHDR =0xFF;   
   \   0000000E   1C4A               LDR      R2,??ReadADC_1+0xC  ;; 0xfffd8014
   \   00000010   FF23               MOVS     R3,#+255
   \   00000012   1360               STR      R3,[R2, #+0]
   \   00000014   0122               MOVS     R2,#+1
   \   00000016   8240               LSLS     R2,R2,R0
   \   00000018   1A4B               LDR      R3,??ReadADC_1+0x10  ;; 0xfffd8010
   \   0000001A   1A60               STR      R2,[R3, #+0]
    670            
    671            //AT91C_BASE_ADC->ADC_CHDR =0xFF; 
    672              AT91C_BASE_ADC->ADC_CHER = (1<< Channel);    
    673              
    674          
    675              //start first conversion 
    676              AT91C_BASE_ADC->ADC_CR = AT91C_ADC_START; 
   \   0000001C   0223               MOVS     R3,#+2
   \   0000001E   0B60               STR      R3,[R1, #+0]
   \   00000020   1949               LDR      R1,??ReadADC_1+0x14  ;; 0xfffd801c
    677           
    678              while ((AT91C_BASE_ADC->ADC_SR &(1 << Channel))==0){};
   \                     ??ReadADC_2:
   \   00000022   0B68               LDR      R3,[R1, #+0]
   \   00000024   1340               ANDS     R3,R3,R2
   \   00000026   FCD0               BEQ      ??ReadADC_2
    679              //while ((AT91C_BASE_ADC->ADC_SR & AT91C_ADC_DRDY)==0){};
    680          
    681                switch (Channel){
   \   00000028   0528               CMP      R0,#+5
   \   0000002A   19D8               BHI      ??ReadADC_3
   \   0000002C   01A3               ADR      R3,??ReadADC_0
   \   0000002E   1B5C               LDRB     R3,[R3, R0]
   \   00000030   9F44               ADD      PC,PC,R3
   \   00000032   C046               Nop      
   \                     ??ReadADC_0:
   \   00000034   060C1218           DC8      +6,+12,+18,+24
   \   00000038   1E24               DC8      +30,+36
    682                  case 0: odp=AT91C_BASE_ADC->ADC_CDR0; break; 
   \                     ??ReadADC_4:
   \   0000003A   1448               LDR      R0,??ReadADC_1+0x18  ;; odp
   \   0000003C   144B               LDR      R3,??ReadADC_1+0x1C  ;; 0xfffd8030
   \   0000003E   0DE0               B.N      ??ReadADC_5
    683                  case 1: odp=AT91C_BASE_ADC->ADC_CDR1; break;  
   \                     ??ReadADC_6:
   \   00000040   1248               LDR      R0,??ReadADC_1+0x18  ;; odp
   \   00000042   144B               LDR      R3,??ReadADC_1+0x20  ;; 0xfffd8034
   \   00000044   0AE0               B.N      ??ReadADC_5
    684                  case 2: odp=AT91C_BASE_ADC->ADC_CDR2; break;  
   \                     ??ReadADC_7:
   \   00000046   1148               LDR      R0,??ReadADC_1+0x18  ;; odp
   \   00000048   134B               LDR      R3,??ReadADC_1+0x24  ;; 0xfffd8038
   \   0000004A   07E0               B.N      ??ReadADC_5
    685                  case 3: odp=AT91C_BASE_ADC->ADC_CDR3; break;  
   \                     ??ReadADC_8:
   \   0000004C   0F48               LDR      R0,??ReadADC_1+0x18  ;; odp
   \   0000004E   134B               LDR      R3,??ReadADC_1+0x28  ;; 0xfffd803c
   \   00000050   04E0               B.N      ??ReadADC_5
    686                  case 4: odp=AT91C_BASE_ADC->ADC_CDR4; break;  
   \                     ??ReadADC_9:
   \   00000052   0E48               LDR      R0,??ReadADC_1+0x18  ;; odp
   \   00000054   124B               LDR      R3,??ReadADC_1+0x2C  ;; 0xfffd8040
   \   00000056   01E0               B.N      ??ReadADC_5
    687                  case 5: odp=AT91C_BASE_ADC->ADC_CDR5; break;  
   \                     ??ReadADC_10:
   \   00000058   0C48               LDR      R0,??ReadADC_1+0x18  ;; odp
   \   0000005A   124B               LDR      R3,??ReadADC_1+0x30  ;; 0xfffd8044
   \                     ??ReadADC_5:
   \   0000005C   1B68               LDR      R3,[R3, #+0]
   \   0000005E   0380               STRH     R3,[R0, #+0]
    688                } 
    689                
    690                
    691           while ((AT91C_BASE_ADC->ADC_SR &(1 << Channel))==1){};
   \                     ??ReadADC_3:
   \   00000060   0868               LDR      R0,[R1, #+0]
   \   00000062   1040               ANDS     R0,R0,R2
   \   00000064   0128               CMP      R0,#+1
   \   00000066   FBD0               BEQ      ??ReadADC_3
    692               
    693               // odp=AT91C_BASE_ADC->ADC_LCDR;
    694          
    695          
    696                
    697               // AT91C_BASE_ADC->ADC_CR = AT91C_ADC_SWRST; 
    698                
    699               // AT91C_BASE_ADC->ADC_CHDR = (1<< Channel);
    700              return odp;
   \   00000068   0848               LDR      R0,??ReadADC_1+0x18  ;; odp
   \   0000006A   0088               LDRH     R0,[R0, #+0]
   \   0000006C   08BC               POP      {R3}
   \   0000006E   02BC               POP      {R1}
   \   00000070   0847               BX       R1               ;; return
   \   00000072   C046               Nop      
   \                     ??ReadADC_1:
   \   00000074   0080FDFF           DC32     0xfffd8000
   \   00000078   0480FDFF           DC32     0xfffd8004
   \   0000007C   01040B00           DC32     0xb0401
   \   00000080   1480FDFF           DC32     0xfffd8014
   \   00000084   1080FDFF           DC32     0xfffd8010
   \   00000088   1C80FDFF           DC32     0xfffd801c
   \   0000008C   ........           DC32     odp
   \   00000090   3080FDFF           DC32     0xfffd8030
   \   00000094   3480FDFF           DC32     0xfffd8034
   \   00000098   3880FDFF           DC32     0xfffd8038
   \   0000009C   3C80FDFF           DC32     0xfffd803c
   \   000000A0   4080FDFF           DC32     0xfffd8040
   \   000000A4   4480FDFF           DC32     0xfffd8044
    701          }
    702          //*-----------------------------------------------------------------------------   
    703             
    704          
    705          
    706          //*-----------------------------------------------------------------------------
    707          //* Nazwa funkcji :    InitTS
    708          //* Funkcja inicjalizacji obs³ugi touchopanel`a
    709          //*-----------------------------------------------------------------------------
    710          //*-----------------------------------------------------------------------------

   \                                 In section Debug.txt, align 4, keep-with-next
    711          void Init_LCD_TS(void) 
    712          { 
   \                     Init_LCD_TS:
   \   00000000   01B5               PUSH     {R0,LR}
    713          //LCD panel ----------------------------------------------------------  
    714           AT91F_PIO_ClearOutput(LCD_PIO,(unsigned int)LightLCD);
   \   00000002   0120               MOVS     R0,#+1
   \   00000004   1349               LDR      R1,??Init_LCD_TS_0  ;; 0xfffff434
   \   00000006   0860               STR      R0,[R1, #+0]
    715            AT91F_PIO_CfgOutput(LCD_PIO,(unsigned int)LightLCD);      //AT91PS_PIO pPio, unsigned int pioEnable
   \   00000008   1349               LDR      R1,??Init_LCD_TS_0+0x4  ;; 0xfffff400
   \   0000000A   0860               STR      R0,[R1, #+0]
   \   0000000C   1349               LDR      R1,??Init_LCD_TS_0+0x8  ;; 0xfffff410
   \   0000000E   0860               STR      R0,[R1, #+0]
    716          
    717            at91DisplayOnOff(1);     // 0-OFF, 1-ON   
   \   00000010   ........           BL       at91DisplayOnOff
    718            at91DisplayStartPage(0);
   \   00000014   0020               MOVS     R0,#+0
   \   00000016   ........           BL       at91DisplayStartPage
    719            at91DisplayStartLine();  // set start line 
   \   0000001A   ........           BL       at91DisplayStartLine
    720             //  at91DisplayStartPage(0);
    721             //at91DisplayYAdress(0);
    722            
    723          //Touth panel ----------------------------------------------------------   
    724             
    725          AT91C_BASE_PIOA->PIO_PPUDR|= TS_PIO_CH0;    //Pull-up enable enable reg.
   \   0000001E   1048               LDR      R0,??Init_LCD_TS_0+0xC  ;; 0xfffff460
   \   00000020   0168               LDR      R1,[R0, #+0]
   \   00000022   8022               MOVS     R2,#+128
   \   00000024   9202               LSLS     R2,R2,#+10       ;; #+131072
   \   00000026   0A43               ORRS     R2,R2,R1
   \   00000028   0260               STR      R2,[R0, #+0]
    726          AT91C_BASE_PIOA->PIO_PPUDR|= TS_PIO_CH1;    //Pull-up enable enable reg.
   \   0000002A   0168               LDR      R1,[R0, #+0]
   \   0000002C   8022               MOVS     R2,#+128
   \   0000002E   D202               LSLS     R2,R2,#+11       ;; #+262144
   \   00000030   0A43               ORRS     R2,R2,R1
   \   00000032   0260               STR      R2,[R0, #+0]
    727          AT91C_BASE_PIOA->PIO_PPUDR|= TS_PIO_CH2;    //Pull-up enable enable reg.
   \   00000034   0168               LDR      R1,[R0, #+0]
   \   00000036   8022               MOVS     R2,#+128
   \   00000038   1203               LSLS     R2,R2,#+12       ;; #+524288
   \   0000003A   0A43               ORRS     R2,R2,R1
   \   0000003C   0260               STR      R2,[R0, #+0]
    728          AT91C_BASE_PIOA->PIO_PPUDR|= TS_PIO_CH3;    //Pull-up enable enable reg.
   \   0000003E   0168               LDR      R1,[R0, #+0]
   \   00000040   8022               MOVS     R2,#+128
   \   00000042   5203               LSLS     R2,R2,#+13       ;; #+1048576
   \   00000044   0A43               ORRS     R2,R2,R1
   \   00000046   0260               STR      R2,[R0, #+0]
    729            
    730          AT91C_BASE_ADC->ADC_MR = (3<24)|(11<<16)|(4<<8); 
   \   00000048   0648               LDR      R0,??Init_LCD_TS_0+0x10  ;; 0xfffd8004
   \   0000004A   0749               LDR      R1,??Init_LCD_TS_0+0x14  ;; 0xb0401
   \   0000004C   0160               STR      R1,[R0, #+0]
    731          
    732          }//_______________________ Koniec funkcji InitTS __________________________
   \   0000004E   08BC               POP      {R3}
   \   00000050   01BC               POP      {R0}
   \   00000052   0047               BX       R0               ;; return
   \                     ??Init_LCD_TS_0:
   \   00000054   34F4FFFF           DC32     0xfffff434
   \   00000058   00F4FFFF           DC32     0xfffff400
   \   0000005C   10F4FFFF           DC32     0xfffff410
   \   00000060   60F4FFFF           DC32     0xfffff460
   \   00000064   0480FDFF           DC32     0xfffd8004
   \   00000068   01040B00           DC32     0xb0401
    733          
    734          
    735          
    736          
    737          
    738          
    739          
    740          
    741          
    742          
    743          

   \                                 In section .rodata, align 4
    744          const char Arial_7[101][10] = {
   \                     Arial_7:
   \   00000000   077F7F3E3E3E       DC8 7, 127, 127, 62, 62, 62, 28, 28, 8, 8, 7, 8, 8, 28, 28, 62, 62, 62
   \              1C1C08080708
   \              081C1C3E3E3E
   \   00000012   7F7F00000000       DC8 127, 127, 0, 0, 0, 0, 0, 0, 0, 0, 0, 0, 1, 0, 1, 0, 1, 1, 1, 1, 1
   \              000000000000
   \              010001000101
   \              010101      
   \   00000027   000300000000       DC8 0, 3, 0, 0, 0, 0, 0, 0, 5, 5, 0, 6, 3, 7, 15, 31, 63, 31, 15, 7, 3
   \              000005050006
   \              03070F1F3F1F
   \              0F0703      
   \   0000003C   0630383C3E3F       DC8 6, 48, 56, 60, 62, 63, 62, 60, 56, 48, 8, 228, 164, 232, 8, 16, 16
   \              3E3C383008E4
   \              A4E8081010  
   \   0000004D   172527050004       DC8 23, 37, 39, 5, 0, 4, 14, 21, 12, 6, 21, 14, 4, 5, 0, 0, 0, 0, 0, 0
   \              0E150C06150E
   \              040500000000
   \              0000        
   \   00000061   110A04030402       DC8 17, 10, 4, 3, 4, 2, 1, 1, 1, 1, 1, 2, 4, 3, 1, 2, 4, 4, 4, 4, 4, 2
   \              010101010102
   \              040301020404
   \              04040402    
   \   00000077   010300000005       DC8 1, 3, 0, 0, 0, 5, 2, 5, 0, 0, 0, 5, 0, 4, 4, 31, 4, 4, 0, 0, 0, 1
   \              020500000005
   \              0004041F0404
   \              00000001    
   \   0000008D   010100000000       DC8 1, 1, 0, 0, 0, 0, 0, 0, 0, 2, 0, 0, 0, 3, 0, 0, 0, 0, 0, 1, 0, 1, 0
   \              000000020000
   \              000300000000
   \              0001000100  
   \   000000A4   000000000000       DC8 0, 0, 0, 0, 0, 0, 3, 0, 1, 1, 2, 2, 2, 4, 4, 0, 4, 0, 6, 9, 9, 9, 9
   \              030001010202
   \              020404000400
   \              0609090909  
   \   000000BB   090600020002       DC8 9, 6, 0, 2, 0, 2, 2, 2, 2, 2, 3, 2, 0, 4, 0, 15, 2, 4, 4, 8, 9, 6
   \              020202020302
   \              0004000F0204
   \              04080906    
   \   000000D1   000400060908       DC8 0, 4, 0, 6, 9, 8, 4, 8, 9, 6, 0, 4, 0, 8, 8, 31, 9, 10, 12, 8, 0, 4
   \              040809060004
   \              0008081F090A
   \              0C080004    
   \   000000E7   000609080807       DC8 0, 6, 9, 8, 8, 7, 1, 15, 0, 4, 0, 6, 9, 9, 9, 7, 9, 6, 0, 4, 0, 2
   \              010F00040006
   \              090909070906
   \              00040002    
   \   000000FD   02020404080F       DC8 2, 2, 4, 4, 8, 15, 0, 4, 0, 6, 9, 9, 6, 9, 9, 6, 0, 4, 0, 6, 9, 14
   \              000400060909
   \              060909060004
   \              0006090E    
   \   00000113   090909060001       DC8 9, 9, 9, 6, 0, 1, 0, 1, 0, 0, 0, 1, 0, 0, 0, 1, 1, 1, 0, 0, 0, 1, 0
   \              000100000001
   \              000000010101
   \              0000000100  
   \   0000012A   000003000004       DC8 0, 0, 3, 0, 0, 4, 2, 1, 2, 4, 0, 0, 4, 0, 0, 0, 15, 0, 15, 0, 0, 0
   \              020102040000
   \              040000000F00
   \              0F000000    
   \   00000140   030000010204       DC8 3, 0, 0, 1, 2, 4, 2, 1, 0, 0, 5, 0, 4, 0, 4, 12, 16, 17, 14, 0, 8
   \              020100000500
   \              0400040C1011
   \              0E0008      
   \   00000155   C23D5595B5A9       DC8 194, 61, 85, 149, 181, 169, 66, 60, 0, 7, 0, 65, 34, 62, 34, 20, 20
   \              423C00070041
   \              223E221414  
   \   00000166   080004000709       DC8 8, 0, 4, 0, 7, 9, 9, 15, 9, 9, 7, 0, 5, 0, 14, 17, 1, 1, 1, 17, 14
   \              090F09090700
   \              05000E110101
   \              01110E      
   \   0000017B   0005000F1111       DC8 0, 5, 0, 15, 17, 17, 17, 17, 17, 15, 0, 5, 0, 31, 1, 1, 31, 1, 1
   \              1111110F0005
   \              001F01011F01
   \              01          
   \   0000018E   1F0004000101       DC8 31, 0, 4, 0, 1, 1, 1, 7, 1, 1, 15, 0, 5, 0, 14, 17, 17, 25, 1, 17
   \              010701010F00
   \              05000E111119
   \              0111        
   \   000001A2   0E0005001111       DC8 14, 0, 5, 0, 17, 17, 17, 31, 17, 17, 17, 0, 3, 0, 7, 2, 2, 2, 2, 2
   \              111F11111100
   \              030007020202
   \              0202        
   \   000001B6   070004000709       DC8 7, 0, 4, 0, 7, 9, 8, 8, 8, 8, 8, 0, 5, 0, 17, 9, 5, 3, 5, 9, 17, 0
   \              080808080800
   \              050011090503
   \              05091100    
   \   000001CC   04000F010101       DC8 4, 0, 15, 1, 1, 1, 1, 1, 1, 0, 7, 0, 73, 85, 85, 85, 99, 99, 65, 0
   \              010101000700
   \              495555556363
   \              4100        
   \   000001E0   050011191915       DC8 5, 0, 17, 25, 25, 21, 19, 19, 17, 0, 5, 0, 14, 17, 17, 17, 17, 17
   \              131311000500
   \              0E1111111111
   \   000001F2   0E0004000101       DC8 14, 0, 4, 0, 1, 1, 1, 15, 9, 9, 15, 0, 5, 0, 30, 9, 17, 17, 17, 17
   \              010F09090F00
   \              05001E091111
   \              1111        
   \   00000206   0E0005001111       DC8 14, 0, 5, 0, 17, 17, 9, 15, 17, 17, 15, 0, 4, 0, 6, 9, 8, 6, 1, 9
   \              090F11110F00
   \              040006090806
   \              0109        
   \   0000021A   060005000404       DC8 6, 0, 5, 0, 4, 4, 4, 4, 4, 4, 31, 0, 5, 0, 14, 17, 17, 17, 17, 17
   \              040404041F00
   \              05000E111111
   \              1111        
   \   0000022E   11000500040A       DC8 17, 0, 5, 0, 4, 10, 10, 10, 17, 17, 17, 0, 7, 0, 34, 34, 85, 73, 73
   \              0A0A11111100
   \              070022225549
   \              49          
   \   00000241   41410005110A       DC8 65, 65, 0, 5, 17, 10, 10, 4, 10, 10, 17, 0, 0, 5, 0, 4, 4, 4, 4, 10
   \              0A040A0A1100
   \              000500040404
   \              040A        
   \   00000255   0A110006003F       DC8 10, 17, 0, 6, 0, 63, 1, 2, 4, 8, 16, 63, 0, 2, 1, 1, 1, 1, 1, 1, 1
   \              01020408103F
   \              000201010101
   \              010101      
   \   0000026A   030003000404       DC8 3, 0, 3, 0, 4, 4, 2, 2, 2, 1, 1, 0, 2, 2, 2, 2, 2, 2, 2, 2, 3, 0, 3
   \              020202010100
   \              020202020202
   \              0202030003  
   \   00000281   000000000005       DC8 0, 0, 0, 0, 0, 5, 5, 2, 0, 5, 0, 31, 0, 0, 0, 0, 0, 0, 0, 2, 0, 0
   \              05020005001F
   \              000000000000
   \              00020000    
   \   00000297   000000000201       DC8 0, 0, 0, 0, 2, 1, 0, 4, 0, 15, 9, 14, 8, 15, 0, 0, 0, 4, 0, 7, 9, 9
   \              0004000F090E
   \              080F00000004
   \              00070909    
   \   000002AD   090701010004       DC8 9, 7, 1, 1, 0, 4, 0, 6, 9, 1, 9, 6, 0, 0, 0, 4, 0, 14, 9, 9, 9, 14
   \              000609010906
   \              00000004000E
   \              0909090E    
   \   000002C3   08080004000E       DC8 8, 8, 0, 4, 0, 14, 1, 15, 9, 6, 0, 0, 0, 3, 0, 2, 2, 2, 2, 7, 2, 4
   \              010F09060000
   \              000300020202
   \              02070204    
   \   000002D9   000406090E09       DC8 0, 4, 6, 9, 14, 9, 9, 14, 0, 0, 0, 4, 0, 9, 9, 9, 9, 7, 1, 1, 0, 1
   \              090E00000004
   \              000909090907
   \              01010001    
   \   000002EF   000909090905       DC8 0, 9, 9, 9, 9, 5, 0, 1, 0, 1, 1, 9, 9, 9, 9, 5, 0, 1, 0, 4, 0, 9, 5
   \              000100010109
   \              090909050001
   \              0004000905  
   \   00000306   070509010100       DC8 7, 5, 9, 1, 1, 0, 1, 0, 1, 1, 1, 1, 1, 1, 1, 0, 7, 0, 73, 73, 73
   \              010001010101
   \              010101000700
   \              494949      
   \   0000031B   493F00000004       DC8 73, 63, 0, 0, 0, 4, 0, 9, 9, 9, 9, 7, 0, 0, 0, 4, 0, 70, 73, 73, 73
   \              000909090907
   \              000000040046
   \              494949      
   \   00000330   260000000401       DC8 38, 0, 0, 0, 4, 1, 71, 73, 73, 73, 39, 0, 0, 0, 4, 8, 78, 73, 73
   \              474949492700
   \              000004084E49
   \              49          
   \   00000343   492E00000003       DC8 73, 46, 0, 0, 0, 3, 0, 1, 1, 1, 1, 7, 0, 0, 0, 4, 0, 71, 72, 70, 65
   \              000101010107
   \              000000040047
   \              484641      
   \   00000358   2E0000000200       DC8 46, 0, 0, 0, 2, 0, 67, 73, 65, 65, 43, 1, 0, 0, 4, 0, 14, 9, 9, 9
   \              434941412B01
   \              000004000E09
   \              0909        
   \   0000036C   090000000500       DC8 9, 0, 0, 0, 5, 0, 68, 74, 74, 74, 17, 0, 0, 0, 5, 0, 10, 21, 21, 21
   \              444A4A4A1100
   \              000005000A15
   \              1515        
   \   00000380   150000000400       DC8 21, 0, 0, 0, 4, 0, 73, 70, 70, 70, 9, 0, 0, 0, 5, 4, 4, 10, 10, 10
   \              494646460900
   \              00000504040A
   \              0A0A        
   \   00000394   110000000300       DC8 17, 0, 0, 0, 3, 0, 71, 65, 66, 68, 23, 0, 0, 0, 3, 2, 66, 66, 65
   \              474142441700
   \              000003024242
   \              41          
   \   000003A7   421202060001       DC8 66, 18, 2, 6, 0, 1, 1, 1, 1, 1, 1, 1, 1, 1, 0, 3, 2, 2, 2, 4, 2, 2
   \              010101010101
   \              010100030202
   \              02040202    
   \   000003BD   020300040000       DC8 2, 3, 0, 4, 0, 0, 0, 13, 11, 0, 0, 0, 0, 8, 0, 96, 144, 16, 16, 18
   \              000D0B000000
   \              000800609010
   \              1012        
   \   000003D1   95620005001E       DC8 149, 98, 0, 5, 0, 30, 1, 31, 1, 31, 1, 30, 0, 5, 0, 17, 10, 10, 4
   \              011F011F011E
   \              000500110A0A
   \              04          
   \   000003E4   0A0A11000700       DC8 10, 10, 17, 0, 7, 0, 28, 34, 65, 73, 73, 42, 8, 0, 0, 0
   \              1C224149492A
   \              08000000    
    745                            {7,127,127,62,62,62,28,28,8,8},        //30   ""
    746                            {7,8,8,28,28,62,62,62,127,127},        //31   ""
    747                            {0,0,0,0,0,0,0,0,0,0},        //32   " "
    748                            {1,0,1,0,1,1,1,1,1,0},        //33   "!"
    749                            {3,0,0,0,0,0,0,5,5,0},        //34   """
    750                            {6,3,7,15,31,63,31,15,7,3},        //35   "Strza³ka w prawo"
    751                            {6,48,56,60,62,63,62,60,56,48},        //36   "Strza³ka w lewo"
    752                            {8,228,164,232,8,16,16,23,37,39},        //37   "%"
    753                            {5,0,4,14,21,12,6,21,14,4},        //38   "$"
    754                            {5,0,0,0,0,0,0,17,10,4},        //39   "^"
    755                            {3,4,2,1,1,1,1,1,2,4},        //40   "("
    756                            {3,1,2,4,4,4,4,4,2,1},        //41   ")"
    757                            {3,0,0,0,5,2,5,0,0,0},        //42   "*"
    758                            {5,0,4,4,31,4,4,0,0,0},        //43   "+"//{5,0,36,4,63,4,4,0,0,0}, 
    759                            {1,1,1,0,0,0,0,0,0,0},        //44   ","
    760                            {2,0,0,0,3,0,0,0,0,0},        //45   "-"
    761                            {1,0,1,0,0,0,0,0,0,0},        //46   "."
    762                            {3,0,1,1,2,2,2,4,4,0},        //47   "/"
    763                            {4,0,6,9,9,9,9,9,6,0},    //0
    764                            {2,0,2,2,2,2,2,3,2,0},    //1
    765                            {4,0,15,2,4,4,8,9,6,0},   //2
    766                            {4,0,6,9,8,4,8,9,6,0},    //3
    767                            {4,0,8,8,31,9,10,12,8,0}, //4
    768                            {4,0,6,9,8,8,7,1,15,0},   //5
    769                            {4,0,6,9,9,9,7,9,6,0},    //6
    770                            {4,0,2,2,2,4,4,8,15,0},   //7
    771                            {4,0,6,9,9,6,9,9,6,0},    //8
    772                            {4,0,6,9,14,9,9,9,6,0},    //9  
    773                            {1,0,1,0,0,0,1,0,0,0},        //58   ":"
    774                            {1,1,1,0,0,0,1,0,0,0},        //59   ";"
    775                            {3,0,0,4,2,1,2,4,0,0},        //60   "<"
    776                            {4,0,0,0,15,0,15,0,0,0},        //61   "="
    777                            {3,0,0,1,2,4,2,1,0,0},        //62   ">"
    778                            {5,0,4,0,4,12,16,17,14,0},        //63   "?"
    779                            {8,194,61,85,149,181,169,66,60,0},        //64   "@"
    780                            {7,0,65,34,62,34,20,20,8,0},        //65   "A"
    781                            {4,0,7,9,9,15,9,9,7,0},        //66   "B"
    782                            {5,0,14,17,1,1,1,17,14,0},        //67   "C"
    783                            {5,0,15,17,17,17,17,17,15,0},        //68   "D"
    784                            {5,0,31,1,1,31,1,1,31,0},        //69   "E"
    785                            {4,0,1,1,1,7,1,1,15,0},        //70   "F"
    786                            {5,0,14,17,17,25,1,17,14,0},        //71   "G"
    787                            {5,0,17,17,17,31,17,17,17,0},        //72   "H"
    788                            {3,0,7,2,2,2,2,2,7,0},        //73   "I"
    789                            {4,0,7,9,8,8,8,8,8,0},        //74   "J"
    790                            {5,0,17,9,5,3,5,9,17,0},        //75   "K"
    791                            {4,0,15,1,1,1,1,1,1,0},        //76   "L"
    792                            {7,0,73,85,85,85,99,99,65,0},        //77   "M"
    793                            {5,0,17,25,25,21,19,19,17,0},        //78   "N"
    794                            {5,0,14,17,17,17,17,17,14,0},        //79   "O"
    795                            {4,0,1,1,1,15,9,9,15,0},        //80   "P"
    796                            {5,0,30,9,17,17,17,17,14,0},        //81   "Q"
    797                            {5,0,17,17,9,15,17,17,15,0},        //82   "R"
    798                            {4,0,6,9,8,6,1,9,6,0},        //83   "S"
    799                            {5,0,4,4,4,4,4,4,31,0},        //84   "T"
    800                            {5,0,14,17,17,17,17,17,17,0},        //85   "U"
    801                            {5,0,4,10,10,10,17,17,17,0},        //86   "V"
    802                            {7,0,34,34,85,73,73,65,65,0},        //87   "W"
    803                            {5,17,10,10,4,10,10,17,0},        //88   "X"
    804                            {5,0,4,4,4,4,10,10,17,0},        //89   "Y"
    805                            {6,0,63,1,2,4,8,16,63,0},        //90   "Z"
    806                            {2,1,1,1,1,1,1,1,3,0},        //91   "["
    807                            {3,0,4,4,2,2,2,1,1,0},        //92   "\"
    808                            {2,2,2,2,2,2,2,2,3,0},        //93   "]"
    809                            {3,0,0,0,0,0,5,5,2,0},        //94   "^"
    810                            {5,0,31,0,0,0,0,0,0,0},        //95   "_"
    811                            {2,0,0,0,0,0,0,2,1,0},        //96   "`"
    812                            {4,0,15,9,14,8,15,0,0,0},        //97   "a"
    813                            {4,0,7,9,9,9,7,1,1,0},        //98   "b"
    814                            {4,0,6,9,1,9,6,0,0,0},        //99   "c"
    815                            {4,0,14,9,9,9,14,8,8,0},        //100   "d"
    816                            {4,0,14,1,15,9,6,0,0,0},        //101   "e"
    817                            {3,0,2,2,2,2,7,2,4,0},        //102   "f"
    818                            {4,6,9,14,9,9,14,0,0,0},        //103   "g"
    819                            {4,0,9,9,9,9,7,1,1,0},        //104   "h"
    820                            {1,0,9,9,9,9,5,0,1,0},        //105   "i"
    821                            {1,1,9,9,9,9,5,0,1,0},        //106   "j"
    822                            {4,0,9,5,7,5,9,1,1,0},        //107   "k"
    823                            {1,0,1,1,1,1,1,1,1,0},        //108   "l"
    824                            {7,0,73,73,73,73,63,0,0,0},        //109   "m"
    825                            {4,0,9,9,9,9,7,0,0,0},        //110   "n"
    826                            {4,0,70,73,73,73,38,0,0,0},        //111   "o"
    827                            {4,1,71,73,73,73,39,0,0,0},        //112   "p"
    828                            {4,8,78,73,73,73,46,0,0,0},        //113   "q"
    829                            {3,0,1,1,1,1,7,0,0,0},             //114   "r"
    830                            {4,0,71,72,70,65,46,0,0,0},        //115   "s"
    831                            {2,0,67,73,65,65,43,1,0,0},        //116   "t"
    832                            {4,0,14,9,9,9,9,0,0,0},            //117   "u"
    833                            {5,0,68,74,74,74,17,0,0,0},        //118   "v"
    834                            {5,0,10,21,21,21,21,0,0,0},         //119   "w"
    835                            {4,0,73,70,70,70,9,0,0,0},         //120   "x"
    836                            {5,4,4,10,10,10,17,0,0,0},         //121   "y"
    837                            {3,0,71,65,66,68,23,0,0,0},        //122   "z"
    838                            {3,2,66,66,65,66,18,2,6,0},        //123   "{"
    839                            {1,1,1,1,1,1,1,1,1,0},        //124   "|"
    840                            {3,2,2,2,4,2,2,2,3,0},        //125   "}"
    841                            {4,0,0,0,13,11,0,0,0,0},        //126   "~"
    842                            {8,0,96,144,16,16,18,149,98,0},        //127   "*C"
    843                            {5,0,30,1,31,1,31,1,30,0},        //128   "€"
    844                            {5,0,17,10,10,4,10,10,17,0},        //129   X
    845                            {7,0,28,34,65,73,73,42,8,0}  //130 OnOff
    846                            };
    847          
    848          
    849          

   \                                 In section .rodata, align 4
    850          const unsigned short Arial_18[100][26] = {
   \                     Arial_18:
   \   00000000   100000000000       DC16 16, 0, 0, 0, 32771, 32771, 32771, 32771, 32771, 32771, 32771
   \              000003800380
   \              038003800380
   \              03800380    
   \   00000016   038003800380       DC16 32771, 32771, 32771, 32771, 32771, 32771, 32771, 32771, 32771
   \              038003800380
   \              038003800380
   \   00000028   038003800380       DC16 32771, 32771, 32771, 0, 0, 0, 16, 0, 0, 0, 32771, 32771, 32771
   \              000000000000
   \              100000000000
   \              000003800380
   \              0380        
   \   00000042   038003800380       DC16 32771, 32771, 32771, 32771, 32771, 32771, 32771, 32771, 32771
   \              038003800380
   \              038003800380
   \   00000054   038003800380       DC16 32771, 32771, 32771, 32771, 32771, 32771, 32771, 0, 0, 0, 0, 0, 0
   \              038003800380
   \              038000000000
   \              000000000000
   \              0000        
   \   0000006E   000000000000       DC16 0, 0, 0, 0, 0, 0, 0, 0, 0, 0, 0, 0, 0, 0, 0, 0, 0, 0, 0, 0, 0, 0
   \              000000000000
   \              000000000000
   \              000000000000
   \              000000000000
   \              000000000000
   \              000000000000
   \              0000        
   \   0000009A   00001000FFFF       DC16 0, 16, 65535, 65535, 65535, 65535, 65535, 65535, 65535, 65535
   \              FFFFFFFFFFFF
   \              FFFFFFFFFFFF
   \              FFFF        
   \   000000AE   FFFFFFFFFFFF       DC16 65535, 65535, 65535, 65535, 65535, 65535, 65535, 65535, 65535
   \              FFFFFFFFFFFF
   \              FFFFFFFFFFFF
   \   000000C0   FFFFFFFFFFFF       DC16 65535, 65535, 65535, 65534, 65534, 65534, 65534, 65534, 16, 65535
   \              FEFFFEFFFEFF
   \              FEFFFEFF1000
   \              FFFF        
   \   000000D4   FFFFFFFFFFFF       DC16 65535, 65535, 65535, 65535, 65535, 65535, 65535, 65535, 65535
   \              FFFFFFFFFFFF
   \              FFFFFFFFFFFF
   \   000000E6   FFFFFFFFFFFF       DC16 65535, 65535, 65535, 65535, 65535, 65535, 65535, 65535, 65535
   \              FFFFFFFFFFFF
   \              FFFFFFFFFFFF
   \   000000F8   FFFFFFFFDEFF       DC16 65535, 65535, 65502, 65502, 65502, 65502, 16, 0, 0, 0, 903, 1927
   \              DEFFDEFFDEFF
   \              100000000000
   \              000087038707
   \   00000110   8F070F070E07       DC16 1935, 1807, 1806, 65535, 65535, 65535, 3614, 3612, 7708, 7740
   \              FFFFFFFFFFFF
   \              1E0E1C0E1C1E
   \              3C1E        
   \   00000124   3C1EFFFFFFFF       DC16 7740, 65535, 65535, 65535, 15480, 14456, 14448, 30832, 30960
   \              FFFF783C7838
   \              70387078F078
   \   00000136   F0780F00C001       DC16 30960, 15, 448, 448, 448, 2032, 8188, 16382, 32767, 32223, 31183
   \              C001C001F007
   \              FC1FFE3FFF7F
   \              DF7DCF79    
   \   0000014C   CF79C079C079       DC16 31183, 31168, 31168, 32704, 16320, 8176, 2044, 510, 479, 463, 463
   \              C07FC03FF01F
   \              FC07FE01DF01
   \              CF01CF01    
   \   00000162   CF7DFF3FFE3F       DC16 32207, 16383, 16382, 8188, 2040, 16, 0, 0, 0, 480, 448, 33728
   \              FC1FF8071000
   \              000000000000
   \              E001C001C083
   \   0000017A   80838087008F       DC16 33664, 34688, 36608, 36608, 40448, 39936, 48128, 14584, 31742
   \              008F009E009C
   \              00BCF838FE7B
   \   0000018C   DEF38FF78FE7       DC16 62430, 63375, 59279, 51087, 51087, 34703, 34703, 990, 1022, 248
   \              8FC78FC78F87
   \              8F87DE03FE03
   \              F800        
   \   000001A0   100000000000       DC16 16, 0, 0, 0, 2032, 57340, 65534, 65087, 63519, 63503, 64527, 65039
   \              0000F007FCDF
   \              FEFF3FFE1FF8
   \              0FF80FFC0FFE
   \   000001B8   1FFF1EDFFE0F       DC16 65311, 57118, 4094, 2040, 2032, 4080, 16376, 15608, 30840, 30844
   \              F807F007F00F
   \              F83FF83C7878
   \              7C78        
   \   000001CC   F87CF83FF03F       DC16 31992, 16376, 16368, 4064, 16, 65535, 65535, 65535, 65535, 65535
   \              E00F1000FFFF
   \              FFFFFFFFFFFF
   \              FFFF        
   \   000001E0   FFFFFFFFFFFF       DC16 65535, 65535, 65535, 65535, 65535, 65535, 65535, 65279, 65535
   \              FFFFFFFFFFFF
   \              FFFFFFFEFFFF
   \   000001F2   FFFFFFFFFFFF       DC16 65535, 65535, 65535, 65535, 65535, 63487, 63487, 65534, 65534
   \              FFFFFFFFFFF7
   \              FFF7FEFFFEFF
   \   00000204   FEFFFEFF1000       DC16 65534, 65534, 16, 120, 60, 60, 1084, 56350, 64542, 64542, 63519
   \              78003C003C00
   \              3C041EDC1EFC
   \              1EFC1FF8    
   \   0000021A   0FF80FFC0FFC       DC16 63503, 64527, 64527, 64527, 56335, 3087, 1055, 1054, 3102, 15390
   \              0FFC0FDC0F0C
   \              1F041E041E0C
   \              1E3C        
   \   0000022E   3C3C3C783C78       DC16 15420, 30780, 30780, 31864, 15472, 15600, 3296, 16, 65535, 65535
   \              787C703CF03C
   \              E00C1000FFFF
   \              FFFF        
   \   00000242   FFFFFFFFFFFF       DC16 65535, 65535, 65535, 65535, 65535, 65535, 65519, 65535, 65535
   \              FFFFFFFFFFFF
   \              EFFFFFFFFFFF
   \   00000254   FFFFFFFFEFFF       DC16 65535, 65535, 65519, 65519, 65535, 65535, 65535, 65527, 65535
   \              EFFFFFFFFFFF
   \              FFFFF7FFFFFF
   \   00000266   FFFFFFFFFFFF       DC16 65535, 65535, 65535, 65535, 65534, 16, 0, 0, 0, 0, 53248, 61440
   \              FFFFFEFF1000
   \              000000000000
   \              000000D000F0
   \   0000027E   00F000F000F0       DC16 61440, 61440, 61440, 61440, 61440, 61440, 53248, 0, 0, 0, 460
   \              00F000F000F0
   \              00D000000000
   \              0000CC01    
   \   00000294   FE33FC31FC70       DC16 13310, 12796, 28924, 29182, 30719, 14335, 12408, 120, 16, 0, 0, 0
   \              FE71FF77FF37
   \              783078001000
   \              000000000000
   \   000002AC   000000000000       DC16 0, 0, 0, 960, 960, 960, 960, 960, 960, 65535, 65535, 65535, 960
   \              C003C003C003
   \              C003C003C003
   \              FFFFFFFFFFFF
   \              C003        
   \   000002C6   C003C003C003       DC16 960, 960, 960, 960, 960, 0, 0, 0, 0, 5, 14, 28, 28, 31, 31, 31, 0
   \              C003C0030000
   \              000000000000
   \              05000E001C00
   \              1C001F001F00
   \              1F000000    
   \   000002E8   000000000000       DC16 0, 0, 0, 0, 0, 0, 0, 0, 0, 0, 0, 0, 0, 0, 0, 0, 0, 0, 9, 0, 0, 0
   \              000000000000
   \              000000000000
   \              000000000000
   \              000000000000
   \              000000000000
   \              090000000000
   \              0000        
   \   00000314   000000000000       DC16 0, 0, 0, 0, 0, 0, 0, 511, 511, 511, 0, 0, 0, 0, 0, 0, 0, 0, 0, 0
   \              000000000000
   \              0000FF01FF01
   \              FF0100000000
   \              000000000000
   \              000000000000
   \              00000000    
   \   0000033C   000000000300       DC16 0, 0, 3, 0, 0, 0, 7, 7, 7, 0, 0, 0, 0, 0, 0, 0, 0, 0, 0, 0, 0, 0
   \              000000000000
   \              070007000700
   \              000000000000
   \              000000000000
   \              000000000000
   \              000000000000
   \              0000        
   \   00000368   000000000000       DC16 0, 0, 0, 0, 0, 0, 8, 0, 0, 0, 3, 3, 7, 7, 7, 7, 15, 14, 14, 30, 30
   \              000000000000
   \              080000000000
   \              000003000300
   \              070007000700
   \              07000F000E00
   \              0E001E001E00
   \   00000392   1C003C003C00       DC16 28, 60, 60, 56, 120, 120, 112, 112, 240, 224, 224, 15, 0, 0, 0
   \              380078007800
   \              70007000F000
   \              E000E0000F00
   \              000000000000
   \   000003B0   F007FC1FFC1F       DC16 2032, 8188, 8188, 15934, 31775, 31775, 30735, 30735, 30735, 30735
   \              3E3E1F7C1F7C
   \              0F780F780F78
   \              0F78        
   \   000003C4   0F780F780F78       DC16 30735, 30735, 30735, 30735, 30735, 30735, 31775, 31775, 15934
   \              0F780F780F78
   \              1F7C1F7C3E3E
   \   000003D6   FC1FFC1FF007       DC16 8188, 8188, 2032, 9, 0, 0, 0, 480, 480, 480, 480, 480, 480, 480
   \              090000000000
   \              0000E001E001
   \              E001E001E001
   \              E001E001    
   \   000003F2   E001E001E001       DC16 480, 480, 480, 480, 480, 480, 480, 483, 495, 511, 510, 504, 496
   \              E001E001E001
   \              E001E301EF01
   \              FF01FE01F801
   \              F001        
   \   0000040C   E001C0010F00       DC16 480, 448, 15, 0, 0, 0, 32767, 32767, 32767, 31, 62, 124, 248, 496
   \              000000000000
   \              FF7FFF7FFF7F
   \              1F003E007C00
   \              F800F001    
   \   00000428   C0038007000F       DC16 960, 1920, 3840, 7680, 15360, 31744, 30720, 30735, 30735, 31775
   \              001E003C007C
   \              00780F780F78
   \              1F7C        
   \   0000043C   3E7EFE3FFC1F       DC16 32318, 16382, 8188, 2032, 15, 0, 0, 0, 2032, 8188, 16382, 15935
   \              F0070F000000
   \              00000000F007
   \              FC1FFE3F3F3E
   \   00000454   1F7C0F780078       DC16 31775, 30735, 30720, 30720, 30720, 31744, 31744, 16352, 4064, 4064
   \              00780078007C
   \              007CE03FE00F
   \              E00F        
   \   00000468   001F003C0F3C       DC16 7936, 15360, 15375, 15391, 15934, 8190, 4092, 2032, 15, 0, 0, 0
   \              1F3C3E3EFE1F
   \              FC0FF0070F00
   \              000000000000
   \   00000480   000F000F000F       DC16 3840, 3840, 3840, 3840, 3840, 32767, 32767, 32767, 3847, 3855
   \              000F000FFF7F
   \              FF7FFF7F070F
   \              0F0F        
   \   00000494   1E0F1E0F3C0F       DC16 3870, 3870, 3900, 3960, 3960, 4080, 4064, 4032, 4032, 3968, 3840
   \              780F780FF00F
   \              E00FC00FC00F
   \              800F000F    
   \   000004AA   000F0F000000       DC16 3840, 15, 0, 0, 0, 2032, 8188, 16382, 15903, 31759, 30735, 30720
   \              00000000F007
   \              FC1FFE3F1F3E
   \              0F7C0F780078
   \   000004C2   007800780078       DC16 30720, 30720, 30720, 31744, 32287, 16383, 8190, 2046, 30, 30, 62
   \              007C1F7EFF3F
   \              FE1FFE071E00
   \              1E003E00    
   \   000004D8   3C00FC3FFC3F       DC16 60, 16380, 16380, 16380, 15, 0, 0, 0, 2032, 8188, 16382, 15934
   \              FC3F0F000000
   \              00000000F007
   \              FC1FFE3F3E3E
   \   000004F0   1F7C0F780F78       DC16 31775, 30735, 30735, 30735, 30735, 30751, 32319, 16383, 8191, 2031
   \              0F780F781F78
   \              3F7EFF3FFF1F
   \              EF07        
   \   00000504   0F000F001F78       DC16 15, 15, 30751, 31774, 15934, 16380, 8184, 2032, 14, 0, 0, 0, 120
   \              1E7C3E3EFC3F
   \              F81FF0070E00
   \              000000000000
   \              7800        
   \   0000051E   780078007800       DC16 120, 120, 120, 120, 240, 240, 240, 224, 224, 480, 448, 960, 896
   \              7800F000F000
   \              F000E000E000
   \              E001C001C003
   \              8003        
   \   00000538   80070007000F       DC16 1920, 1792, 3840, 7680, 16383, 16383, 16383, 16383, 16, 0, 0, 0
   \              001EFF3FFF3F
   \              FF3FFF3F1000
   \              000000000000
   \   00000550   F007FC1FFE3F       DC16 2032, 8188, 16382, 32319, 31775, 63503, 63503, 63503, 30735, 31775
   \              3F7E1F7C0FF8
   \              0FF80FF80F78
   \              1F7C        
   \   00000564   3E7EFC3FF80F       DC16 32318, 16380, 4088, 8188, 15934, 31774, 31775, 31775, 15934, 16382
   \              FC1F3E3E1E7C
   \              1F7C1F7C3E3E
   \              FE3F        
   \   00000578   FC1FF0070F00       DC16 8188, 2032, 15, 0, 0, 0, 1016, 4092, 8190, 16190, 15903, 31759
   \              000000000000
   \              F803FC0FFE1F
   \              3E3F1F3E0F7C
   \   00000590   007C0078F87B       DC16 31744, 30720, 31736, 32764, 32766, 32319, 31775, 30735, 30735
   \              FC7FFE7F3F7E
   \              1F7C0F780F78
   \   000005A2   0F780F781F7C       DC16 30735, 30735, 31775, 15935, 8190, 4092, 2032, 5, 0, 0, 0, 31, 31
   \              3F3EFE1FFC0F
   \              F00705000000
   \              000000001F00
   \              1F00        
   \   000005BC   1F0000000000       DC16 31, 0, 0, 0, 0, 0, 0, 0, 0, 0, 0, 31, 31, 31, 0, 0, 0, 0, 0, 0, 5
   \              000000000000
   \              000000000000
   \              000000001F00
   \              1F001F000000
   \              000000000000
   \              000000000500
   \   000005E6   0E001E001C00       DC16 14, 30, 28, 31, 31, 31, 0, 0, 0, 0, 0, 0, 0, 0, 0, 0, 31, 31, 31
   \              1F001F001F00
   \              000000000000
   \              000000000000
   \              000000000000
   \              00001F001F00
   \              1F00        
   \   0000060C   000000000000       DC16 0, 0, 0, 0, 0, 0, 16, 0, 0, 0, 0, 0, 0, 57344, 63488, 65280, 32704
   \              000000000000
   \              100000000000
   \              000000000000
   \              000000E000F8
   \              00FFC07F    
   \   0000062E   F00FFE037F00       DC16 4080, 1022, 127, 31, 127, 1022, 4080, 32704, 65280, 63488, 57344
   \              1F007F00FE03
   \              F00FC07F00FF
   \              00F800E0    
   \   00000644   000000000000       DC16 0, 0, 0, 0, 16, 0, 0, 0, 0, 0, 0, 0, 0, 0, 65535, 65535, 65535, 0
   \              000010000000
   \              000000000000
   \              000000000000
   \              00000000FFFF
   \              FFFFFFFF0000
   \   00000668   00000000FFFF       DC16 0, 0, 65535, 65535, 65535, 0, 0, 0, 0, 0, 0, 0, 16, 0, 0, 0, 0, 0
   \              FFFFFFFF0000
   \              000000000000
   \              000000000000
   \              100000000000
   \              000000000000
   \   0000068C   000007001F00       DC16 0, 7, 31, 255, 1022, 4080, 32704, 65024, 63488, 65024, 32704, 4080
   \              FF00FE03F00F
   \              C07F00FE00F8
   \              00FEC07FF00F
   \   000006A4   FE03FF001F00       DC16 1022, 255, 31, 7, 0, 0, 0, 0, 15, 0, 0, 0, 480, 480, 480, 0, 0
   \              070000000000
   \              000000000F00
   \              000000000000
   \              E001E001E001
   \              00000000    
   \   000006C6   E001E003E003       DC16 480, 992, 992, 960, 1984, 3968, 7936, 15872, 31744, 30720, 30720
   \              C003C007800F
   \              001F003E007C
   \              00780078    
   \   000006DC   0F781F783F7E       DC16 30735, 30751, 32319, 16382, 8188, 2032, 16, 504, 124, 60, 32286
   \              FE3FFC1FF007
   \              1000F8017C00
   \              3C001E7E    
   \   000006F2   9EFF8FFFCFE7       DC16 65438, 65423, 59343, 33743, 975, 975, 975, 975, 975, 1999, 3998
   \              CF83CF03CF03
   \              CF03CF03CF03
   \              CF079E0F    
   \   00000708   9E9F1EFF3CFE       DC16 40862, 65310, 65084, 63612, 248, 1008, 4064, 65472, 65280, 64512
   \              7CF8F800F003
   \              E00FC0FF00FF
   \              00FC        
   \   0000071C   100000000000       DC16 16, 0, 0, 0, 7, 32775, 32783, 49167, 49183, 49183, 57374, 65534
   \              000007000780
   \              0F800FC01FC0
   \              1FC01EE0FEFF
   \   00000734   FCFFFCFF7CF0       DC16 65532, 65532, 61564, 63608, 30968, 31984, 15600, 15856, 16352
   \              78F8F878F07C
   \              F03CF03DE03F
   \   00000746   E01FC01FC00F       DC16 8160, 8128, 4032, 3968, 1920, 16, 65535, 65535, 65535, 65534
   \              800F80071000
   \              FFFFFFFFFFFF
   \              FEFF        
   \   0000075A   FEFFFEFFFEEF       DC16 65534, 65534, 61438, 65534, 65534, 65534, 65534, 65534, 61438
   \              FEFFFEFFFEFF
   \              FEFFFEFFFEEF
   \   0000076C   FEFFFEFFFEFF       DC16 65534, 65534, 65534, 65534, 65534, 65534, 65534, 65534, 65534
   \              FEFFFEFFFEFF
   \              FEFFFEFFFEFF
   \   0000077E   FEFFFEFFFEFF       DC16 65534, 65534, 65534, 16, 0, 0, 0, 32704, 65520, 65528, 57852
   \              100000000000
   \              0000C07FF0FF
   \              F8FFFCE1    
   \   00000794   7EC03E801F00       DC16 49278, 32830, 31, 31, 15, 15, 15, 15, 15, 15, 31, 31, 32830, 49278
   \              1F000F000F00
   \              0F000F000F00
   \              0F001F001F00
   \              3E807EC0    
   \   000007B0   FCE0F8FFF0FF       DC16 57596, 65528, 65520, 32640, 16, 65535, 65535, 65535, 65534, 65534
   \              807F1000FFFF
   \              FFFFFFFFFEFF
   \              FEFF        
   \   000007C4   FEFFFEFFFEFF       DC16 65534, 65534, 65534, 65534, 65534, 65534, 65534, 65534, 32766
   \              FEFFFEFFFEFF
   \              FEFFFEFFFE7F
   \   000007D6   FE7FFEFFFEFF       DC16 32766, 65534, 65534, 65534, 65534, 65534, 65534, 65534, 65534
   \              FEFFFEFFFEFF
   \              FEFFFEFFFEFF
   \   000007E8   FEFFFEFF1000       DC16 65534, 65534, 16, 65535, 65535, 65535, 65534, 65534, 65534, 65534
   \              FFFFFFFFFFFF
   \              FEFFFEFFFEFF
   \              FEFF        
   \   000007FC   FEFFFEFFFEFF       DC16 65534, 65534, 65534, 65534, 65534, 65534, 65534, 65534, 65534
   \              FEFFFEFFFEFF
   \              FEFFFEFFFEFF
   \   0000080E   FEFFFEFFFEFF       DC16 65534, 65534, 65534, 65534, 65534, 65534, 65534, 65534, 65534, 16
   \              FEFFFEFFFEFF
   \              FEFFFEFFFEFF
   \              1000        
   \   00000822   FFFFFFFFFFFF       DC16 65535, 65535, 65535, 65534, 65534, 65534, 65534, 65534, 65534
   \              FEFFFEFFFEFF
   \              FEFFFEFFFEFF
   \   00000834   FEFFFEFFFEFF       DC16 65534, 65534, 65534, 65534, 65534, 65534, 65534, 65534, 65534
   \              FEFFFEFFFEFF
   \              FEFFFEFFFEFF
   \   00000846   FEFFFEFFFEFF       DC16 65534, 65534, 65534, 65534, 65534, 65534, 65534, 16, 0, 0, 0
   \              FEFFFEFFFEFF
   \              FEFF10000000
   \              00000000    
   \   0000085C   80FFE0FFF8FF       DC16 65408, 65504, 65528, 33276, 126, 62, 31, 31, 63503, 63503, 63503
   \              FC817E003E00
   \              1F001F000FF8
   \              0FF80FF8    
   \   00000872   0F000F000F00       DC16 15, 15, 15, 31, 30, 62, 126, 49660, 65528, 65504, 65408, 16, 65535
   \              1F001E003E00
   \              7E00FCC1F8FF
   \              E0FF80FF1000
   \              FFFF        
   \   0000088C   FFFFFFFFFEFF       DC16 65535, 65535, 65534, 65534, 65534, 65534, 65534, 65534, 65534
   \              FEFFFEFFFEFF
   \              FEFFFEFFFEFF
   \   0000089E   FEFFFEFFFEFF       DC16 65534, 65534, 65534, 65534, 65534, 65534, 65534, 65534, 65534
   \              FEFFFEFFFEFF
   \              FEFFFEFFFEFF
   \   000008B0   FEFFFEFFFEFF       DC16 65534, 65534, 65534, 65534, 65534, 65534, 16, 65535, 65535, 65535
   \              FEFFFEFFFEFF
   \              1000FFFFFFFF
   \              FFFF        
   \   000008C4   FEFFFEFFFEFF       DC16 65534, 65534, 65534, 65534, 65534, 65534, 65534, 65534, 65534
   \              FEFFFEFFFEFF
   \              FEFFFEFFFEFF
   \   000008D6   FEFFFEFFFEFF       DC16 65534, 65534, 65534, 65534, 65534, 65534, 65534, 65534, 65534
   \              FEFFFEFFFEFF
   \              FEFFFEFFFEFF
   \   000008E8   FEFFFEFFFEFF       DC16 65534, 65534, 65534, 65534, 13, 0, 0, 0, 1016, 2046, 4095, 8095
   \              FEFF0D000000
   \              00000000F803
   \              FE07FF0F9F1F
   \   00000900   0F1F0F1E0F1E       DC16 7951, 7695, 7695, 7680, 7680, 7680, 7680, 7680, 7680, 7680, 7680
   \              001E001E001E
   \              001E001E001E
   \              001E001E    
   \   00000916   001E001E001E       DC16 7680, 7680, 7680, 7680, 7680, 7680, 7680, 16, 65535, 65535, 65535
   \              001E001E001E
   \              001E1000FFFF
   \              FFFFFFFF    
   \   0000092C   FEFFFEFFFEDF       DC16 65534, 65534, 57342, 65534, 65534, 65534, 64510, 65534, 65534
   \              FEFFFEFFFEFF
   \              FEFBFEFFFEFF
   \   0000093E   FEFFFEFFFEFF       DC16 65534, 65534, 65534, 65518, 65502, 65534, 65534, 65534, 65534
   \              EEFFDEFFFEFF
   \              FEFFFEFFFEFF
   \   00000950   FEFFFEFFFEFF       DC16 65534, 65534, 65534, 65534, 16, 65535, 65535, 65535, 65534, 65534
   \              FEFF1000FFFF
   \              FFFFFFFFFEFF
   \              FEFF        
   \   00000964   FEFFFEFFFEFF       DC16 65534, 65534, 65534, 65534, 65534, 65534, 65534, 65534, 65534
   \              FEFFFEFFFEFF
   \              FEFFFEFFFEFF
   \   00000976   FEFFFEFFFEFF       DC16 65534, 65534, 65534, 65534, 65534, 65534, 65534, 65534, 65534
   \              FEFFFEFFFEFF
   \              FEFFFEFFFEFF
   \   00000988   FEFFFEFF1000       DC16 65534, 65534, 16, 65535, 65535, 65535, 65534, 65534, 65534, 65534
   \              FFFFFFFFFFFF
   \              FEFFFEFFFEFF
   \              FEFF        
   \   0000099C   FEFFFEFFFEFF       DC16 65534, 65534, 65534, 65534, 65534, 65534, 65534, 65534, 65534
   \              FEFFFEFFFEFF
   \              FEFFFEFFFEFF
   \   000009AE   FEFFFEFFFEFF       DC16 65534, 65534, 65534, 65534, 65534, 65534, 65534, 65534, 65534, 16
   \              FEFFFEFFFEFF
   \              FEFFFEFFFEFF
   \              1000        
   \   000009C2   FFFFFFFFFFFF       DC16 65535, 65535, 65535, 65534, 65534, 65534, 65534, 65534, 65534
   \              FEFFFEFFFEFF
   \              FEFFFEFFFEFF
   \   000009D4   FEFFFEFFFEFF       DC16 65534, 65534, 65534, 65534, 65534, 65534, 65534, 65534, 65534
   \              FEFFFEFFFEFF
   \              FEFFFEFFFEFF
   \   000009E6   FEFFFEFFFEFF       DC16 65534, 65534, 65534, 65534, 65534, 65534, 65534, 16, 0, 0, 0
   \              FEFFFEFFFEFF
   \              FEFF10000000
   \              00000000    
   \   000009FC   807FE0FFF8FF       DC16 32640, 65504, 65528, 57852, 32894, 62, 31, 31, 15, 15, 15, 15, 15
   \              FCE17E803E00
   \              1F001F000F00
   \              0F000F000F00
   \              0F00        
   \   00000A16   1F001F001F00       DC16 31, 31, 31, 62, 32894, 57852, 65528, 65504, 32640, 16, 65535
   \              3E007E80FCE1
   \              F8FFE0FF807F
   \              1000FFFF    
   \   00000A2C   FFFFFFFFFEFF       DC16 65535, 65535, 65534, 65534, 65534, 65534, 65534, 65534, 65534
   \              FEFFFEFFFEFF
   \              FEFFFEFFFEFF
   \   00000A3E   FEFFFEFFFEFF       DC16 65534, 65534, 65534, 65534, 65534, 61438, 65534, 65534, 65534
   \              FEFFFEFFFEEF
   \              FEFFFEFFFEFF
   \   00000A50   FEFFFEFFFEFF       DC16 65534, 65534, 65534, 65534, 65534, 65534, 16, 0, 0, 0, 32640
   \              FEFFFEFFFEFF
   \              100000000000
   \              0000807F    
   \   00000A66   E0FFF8FFFCE1       DC16 65504, 65528, 57852, 63614, 30782, 6175, 31, 15, 15, 15, 15, 15
   \              7EF83E781F18
   \              1F000F000F00
   \              0F000F000F00
   \   00000A7E   0F001F001F00       DC16 15, 31, 31, 62, 32894, 57852, 65528, 65520, 32640, 16, 65535
   \              3E007E80FCE1
   \              F8FFF0FF807F
   \              1000FFFF    
   \   00000A94   FFFFFFFFFEFF       DC16 65535, 65535, 65534, 65534, 65534, 65534, 65534, 61438, 65534
   \              FEFFFEFFFEFF
   \              FEFFFEEFFEFF
   \   00000AA6   FEFFFEFFFEFF       DC16 65534, 65534, 65534, 65534, 65534, 65534, 65534, 65534, 65534
   \              FEFFFEFFFEFF
   \              FEFFFEFFFEFF
   \   00000AB8   FEFFFEFFFEFF       DC16 65534, 65534, 65534, 65534, 65534, 65534, 16, 0, 0, 0, 16352
   \              FEFFFEFFFEFF
   \              100000000000
   \              0000E03F    
   \   00000ACE   F8FFFCFF7EF0       DC16 65528, 65532, 61566, 49183, 32783, 32783, 49152, 57344, 64512
   \              1FC00F800F80
   \              00C000E000FC
   \   00000AE0   C0FFF8FFFC1F       DC16 65472, 65528, 8188, 254, 62, 30, 49182, 57374, 61566, 65532, 65528
   \              FE003E001E00
   \              1EC01EE07EF0
   \              FCFFF8FF    
   \   00000AF6   E03F1000FFFF       DC16 16352, 16, 65535, 65535, 65535, 65535, 65535, 65535, 65535, 65535
   \              FFFFFFFFFFFF
   \              FFFFFFFFFFFF
   \              FFFF        
   \   00000B0A   FFFFFFFFFFFF       DC16 65535, 65535, 65535, 65535, 65535, 65535, 65535, 65535, 65535
   \              FFFFFFFFFFFF
   \              FFFFFFFFFFFF
   \   00000B1C   FFFFFFFFFFFF       DC16 65535, 65535, 65535, 65535, 65535, 65534, 65534, 65534, 16, 65535
   \              FFFFFFFFFEFF
   \              FEFFFEFF1000
   \              FFFF        
   \   00000B30   FFFFFFFFFFFF       DC16 65535, 65535, 65535, 65535, 65535, 65533, 57343, 65535, 49151
   \              FFFFFFFFFDFF
   \              FFDFFFFFFFBF
   \   00000B42   FEFFFEFFFEFF       DC16 65534, 65534, 65534, 65534, 65534, 65534, 65534, 65534, 65534
   \              FEFFFEFFFEFF
   \              FEFFFEFFFEFF
   \   00000B54   FEFFFEFFFEFF       DC16 65534, 65534, 65534, 65534, 65534, 65534, 16, 65535, 65535, 65535
   \              FEFFFEFFFEFF
   \              1000FFFFFFFF
   \              FFFF        
   \   00000B68   FFFCFFF8FFFA       DC16 64767, 63743, 64255, 62335, 63359, 63295, 61375, 61375, 53151
   \              7FF37FF73FF7
   \              BFEFBFEF9FCF
   \   00000B7A   DFDFCFDFEF9F       DC16 57311, 57295, 40943, 49135, 16359, 32759, 32755, 32755, 65531
   \              EFBFE73FF77F
   \              F37FF37FFBFF
   \   00000B8C   F9FFF9FFFCFF       DC16 65529, 65529, 65532, 65532, 16, 65535, 65535, 65535, 65087, 65087
   \              FCFF1000FFFF
   \              FFFFFFFF3FFE
   \              3FFE        
   \   00000BA0   3FFEBFFEDFFD       DC16 65087, 65215, 64991, 64991, 64991, 63951, 64495, 64495, 62447
   \              DFFDDFFDCFF9
   \              EFFBEFFBEFF3
   \   00000BB2   E7F7F7F7F7E7       DC16 63463, 63479, 59383, 61427, 61427, 61435, 53241, 57337, 8185, 8189
   \              F3EFF3EFFBEF
   \              F9CFF9DFF91F
   \              FD1F        
   \   00000BC6   FC3F1000FFFF       DC16 16380, 16, 65535, 65535, 65535, 65535, 65535, 65535, 57343, 65531
   \              FFFFFFFFFFFF
   \              FFFFFFFFFFDF
   \              FBFF        
   \   00000BDA   FFFFFFFFFFFF       DC16 65535, 65535, 65535, 65535, 65535, 65535, 65535, 65535, 65535
   \              FFFFFFFFFFFF
   \              FFFFFFFFFFFF
   \   00000BEC   FFFFFFFFFFFF       DC16 65535, 65535, 65535, 61431, 65535, 65535, 65535, 32766, 16, 65535
   \              F7EFFFFFFFFF
   \              FFFFFE7F1000
   \              FFFF        
   \   00000C00   FFFFFFFFFFFD       DC16 65535, 65535, 65023, 65023, 65023, 65023, 65023, 65023, 65023
   \              FFFDFFFDFFFD
   \              FFFDFFFDFFFD
   \   00000C12   FFFDFFFDFFFC       DC16 65023, 65023, 64767, 63743, 63615, 62271, 59199, 61343, 53199
   \              FFF87FF83FF3
   \              3FE79FEFCFCF
   \   00000C24   CF9FE73FF33F       DC16 40911, 16359, 16371, 32755, 65529, 65532, 16, 65535, 65535, 65535
   \              F37FF9FFFCFF
   \              1000FFFFFFFF
   \              FFFF        
   \   00000C38   FFFFFFFFFFFF       DC16 65535, 65535, 65535, 65535, 65535, 65535, 65535, 65535, 65535
   \              FFFFFFFFFFFF
   \              FFFFFFFFFFFF
   \   00000C4A   FFFFDFFFFFFF       DC16 65535, 65503, 65535, 65535, 65535, 65535, 65535, 64511, 65535
   \              FFFFFFFFFFFF
   \              FFFFFFFBFFFF
   \   00000C5C   FFFFFEFFFEFF       DC16 65535, 65534, 65534, 65534, 16, 65535, 65535, 65535, 65535, 65535
   \              FEFF1000FFFF
   \              FFFFFFFFFFFF
   \              FFFF        
   \   00000C70   FFFFFFFFFFFF       DC16 65535, 65535, 65535, 65535, 65535, 65535, 65535, 65535, 65535
   \              FFFFFFFFFFFF
   \              FFFFFFFFFFFF
   \   00000C82   FFFFFFFFFFFF       DC16 65535, 65535, 65535, 65535, 65535, 65535, 65535, 65535, 65528
   \              FFFFFFFFFFFF
   \              FFFFFFFFF8FF
   \   00000C94   F8FFF8FF1000       DC16 65528, 65528, 16, 65535, 65535, 65535, 65471, 65471, 65535, 65535
   \              FFFFFFFFFFFF
   \              BFFFBFFFFFFF
   \              FFFF        
   \   00000CA8   DFFFFFFFFFFF       DC16 65503, 65535, 65535, 65519, 65519, 65535, 65527, 65527, 65535
   \              EFFFEFFFFFFF
   \              F7FFF7FFFFFF
   \   00000CBA   FBFFFBFFFFFF       DC16 65531, 65531, 65535, 65535, 65533, 65535, 65535, 65534, 65534, 16
   \              FFFFFDFFFFFF
   \              FFFFFEFFFEFF
   \              1000        
   \   00000CCE   FFFFFFFFFFFF       DC16 65535, 65535, 65535, 65535, 65535, 65535, 65535, 65535, 65535
   \              FFFFFFFFFFFF
   \              FFFFFFFFFFFF
   \   00000CE0   FFFFFFFFFFFF       DC16 65535, 65535, 65535, 65535, 65535, 65535, 65535, 65535, 65535
   \              FFFFFFFFFFFF
   \              FFFFFFFFFFFF
   \   00000CF2   FFFFFFFFFFFF       DC16 65535, 65535, 65535, 65535, 65534, 65534, 65534, 13, 0, 0, 0, 0, 0
   \              FFFFFEFFFEFF
   \              FEFF0D000000
   \              000000000000
   \              0000        
   \   00000D0C   000000000000       DC16 0, 0, 0, 0, 0, 0, 0, 0, 0, 7687, 3855, 3855, 3999, 1950, 1950
   \              000000000000
   \              000000000000
   \              071E0F0F0F0F
   \              9F0F9E079E07
   \   00000D2A   FC03FC03F801       DC16 1020, 1020, 504, 504, 504, 0, 0, 0, 0, 0, 0, 0, 0, 0, 0, 0, 0, 0
   \              F801F8010000
   \              000000000000
   \              000000000000
   \              000000000000
   \              000000000000
   \   00000D4E   000000000000       DC16 0, 0, 0, 0, 0, 0, 0, 0, 0, 0, 0, 0, 0, 16, 65535, 65535, 65535
   \              000000000000
   \              000000000000
   \              000000000000
   \              00001000FFFF
   \              FFFFFFFF    
   \   00000D70   FFFFFFFFFFFF       DC16 65535, 65535, 65535, 65535, 65535, 65535, 65535, 65535, 65535
   \              FFFFFFFFFFFF
   \              FFFFFFFFFFFF
   \   00000D82   FFFFFFFFFFFF       DC16 65535, 65535, 65535, 65535, 65535, 65535, 65535, 65535, 65535
   \              FFFFFFFFFFFF
   \              FFFFFFFFFFFF
   \   00000D94   FFFFFFFFFFFF       DC16 65535, 65535, 65535, 65534, 15, 0, 0, 0, 32252, 16383, 16383
   \              FEFF0F000000
   \              00000000FC7D
   \              FF3FFF3F    
   \   00000DAA   8F3F0F3E0F3E       DC16 16271, 15887, 15887, 15375, 15870, 16380, 16128, 15360, 15887
   \              0F3CFE3DFC3F
   \              003F003C0F3E
   \   00000DBC   1F3EFE1FFE1F       DC16 15903, 8190, 8190, 2040, 0, 0, 0, 0, 0, 0, 16, 65535, 65535, 65535
   \              F80700000000
   \              000000000000
   \              00001000FFFF
   \              FFFFFFFF    
   \   00000DD8   DEFFFEFFFEFF       DC16 65502, 65534, 65534, 65534, 64510, 65534, 63486, 63486, 63486
   \              FEFFFEFBFEFF
   \              FEF7FEF7FEF7
   \   00000DEA   FEF7FEFFFEFF       DC16 63486, 65534, 65534, 65022, 65534, 65534, 65502, 65534, 65534
   \              FEFDFEFFFEFF
   \              DEFFFEFFFEFF
   \   00000DFC   FEFFFEFFFEFF       DC16 65534, 65534, 65534, 65534, 14, 0, 0, 0, 2032, 4092, 8190, 15935
   \              FEFF0E000000
   \              00000000F007
   \              FC0FFE1F3F3E
   \   00000E14   1F3C0F3C0F00       DC16 15391, 15375, 15, 15, 15, 15, 15, 15391, 15935, 8190, 4092, 2032
   \              0F000F000F00
   \              0F001F3C3F3E
   \              FE1FFC0FF007
   \   00000E2C   000000000000       DC16 0, 0, 0, 0, 0, 0, 15, 0, 0, 0, 32248, 32764, 32766, 32575, 32287
   \              000000000000
   \              0F0000000000
   \              0000F87DFC7F
   \              FE7F3F7F1F7E
   \   00000E4A   0F7C0F7C077C       DC16 31759, 31759, 31751, 31751, 31759, 31759, 32271, 32575, 32766
   \              077C0F7C0F7C
   \              0F7E3F7FFE7F
   \   00000E5C   FC7FF87D007C       DC16 32764, 32248, 31744, 31744, 31744, 31744, 31744, 31744, 15, 0, 0
   \              007C007C007C
   \              007C007C0F00
   \              00000000    
   \   00000E72   0000F807FC1F       DC16 0, 2040, 8188, 16382, 15935, 31759, 15, 7, 32767, 32767, 31751
   \              FE3F3F3E0F7C
   \              0F000700FF7F
   \              FF7F077C    
   \   00000E88   0F7C0F3C3F3F       DC16 31759, 15375, 16191, 8190, 4092, 1016, 0, 0, 0, 0, 0, 0, 15, 0, 0
   \              FE1FFC0FF803
   \              000000000000
   \              000000000000
   \              0F0000000000
   \   00000EA6   00001E041E1C       DC16 0, 1054, 7198, 15390, 15390, 31774, 30, 30, 31774, 31774, 31774
   \              1E3C1E3C1E7C
   \              1E001E001E7C
   \              1E7C1E7C    
   \   00000EBC   1E7C1E3C1E3C       DC16 31774, 15390, 15390, 7423, 3327, 255, 30, 30, 30, 510, 508, 504
   \              FF1CFF0CFF00
   \              1E001E001E00
   \              FE01FC01F801
   \   00000ED4   0F001F3E0F3C       DC16 15, 15903, 15375, 15360, 16376, 32764, 32766, 32575, 32271, 31759
   \              003CF83FFC7F
   \              FE7F3F7F0F7E
   \              0F7C        
   \   00000EE8   0F7C077C077C       DC16 31759, 31751, 31751, 31759, 31759, 32271, 32575, 32766, 32764
   \              0F7C0F7C0F7E
   \              3F7FFE7FFC7F
   \   00000EFA   F87F00000000       DC16 32760, 0, 0, 0, 0, 0, 0, 16, 65535, 65535, 65535, 65534, 65534
   \              000000000000
   \              00001000FFFF
   \              FFFFFFFFFEFF
   \              FEFF        
   \   00000F14   FEFFFEFFFEFF       DC16 65534, 65534, 65534, 65534, 65534, 65534, 65534, 65534, 65534
   \              FEFFFEFFFEFF
   \              FEFFFEFFFEFF
   \   00000F26   FEFFFEFFFEFF       DC16 65534, 65534, 65534, 65534, 65534, 65534, 65534, 65534, 65534
   \              FEFFFEFFFEFF
   \              FEFFFEFFFEFF
   \   00000F38   FEFFFEFF1000       DC16 65534, 65534, 16, 65535, 65535, 65535, 64510, 64510, 64510, 64510
   \              FFFFFFFFFFFF
   \              FEFBFEFBFEFB
   \              FEFB        
   \   00000F4C   FEFBFEFBFEFB       DC16 64510, 64510, 64510, 64510, 64510, 64510, 64510, 65534, 65534
   \              FEFBFEFBFEFB
   \              FEFBFEFFFEFF
   \   00000F5E   FEFFFEFFFEFF       DC16 65534, 65534, 65534, 65535, 65535, 65535, 65534, 65534, 65534, 16
   \              FFFFFFFFFFFF
   \              FEFFFEFFFEFF
   \              1000        
   \   00000F72   FFFFFFFFFFFF       DC16 65535, 65535, 65535, 65534, 65534, 65534, 65534, 65534, 65534
   \              FEFFFEFFFEFF
   \              FEFFFEFFFEFF
   \   00000F84   FEFFFEFFFEFF       DC16 65534, 65534, 65534, 65534, 65534, 65534, 65534, 65534, 65534
   \              FEFFFEFFFEFF
   \              FEFFFEFFFEFF
   \   00000F96   FEFFFFFFFFFF       DC16 65534, 65535, 65535, 65535, 65534, 65534, 65534, 16, 65535, 65535
   \              FFFFFEFFFEFF
   \              FEFF1000FFFF
   \              FFFF        
   \   00000FAA   FFFFFEFFFEFF       DC16 65535, 65534, 65534, 65278, 65534, 65534, 65534, 65534, 65534
   \              FEFEFEFFFEFF
   \              FEFFFEFFFEFF
   \   00000FBC   FEFFFEFFFEFF       DC16 65534, 65534, 65534, 65534, 65534, 65534, 65534, 65534, 65534
   \              FEFFFEFFFEFF
   \              FEFFFEFFFEFF
   \   00000FCE   FEFFFEFFFEFF       DC16 65534, 65534, 65534, 65534, 65534, 16, 65535, 65535, 65535, 65022
   \              FEFFFEFF1000
   \              FFFFFFFFFFFF
   \              FEFD        
   \   00000FE2   FEFFFEFF7EFF       DC16 65534, 65534, 65406, 65534, 65534, 65534, 65534, 65534, 65534
   \              FEFFFEFFFEFF
   \              FEFFFEFFFEFF
   \   00000FF4   FEFFFEFFFEFF       DC16 65534, 65534, 65534, 65534, 65534, 65278, 65534, 65534, 65534
   \              FEFFFEFFFEFE
   \              FEFFFEFFFEFF
   \   00001006   FEFFFEFFFEFF       DC16 65534, 65534, 65534, 16, 0, 0, 0, 31775, 31775, 31775, 31775
   \              100000000000
   \              00001F7C1F7C
   \              1F7C1F7C    
   \   0000101C   1F7C1F7C1F7C       DC16 31775, 31775, 31775, 31775, 31775, 31775, 31775, 31775, 65151
   \              1F7C1F7C1F7C
   \              1F7C1F7C7FFE
   \   0000102E   FFFFFFDFCF0F       DC16 65535, 57343, 4047, 0, 0, 0, 0, 0, 0, 15, 0, 0, 0, 31775, 31775
   \              000000000000
   \              000000000000
   \              0F0000000000
   \              00001F7C1F7C
   \   0000104C   1F7C1F7C1F7C       DC16 31775, 31775, 31775, 31775, 31775, 31775, 31775, 31775, 31775
   \              1F7C1F7C1F7C
   \              1F7C1F7C1F7C
   \   0000105E   1F7C7F3EFF3F       DC16 31775, 15999, 16383, 8191, 4095, 0, 0, 0, 0, 0, 0, 15, 0, 0, 0
   \              FF1FFF0F0000
   \              000000000000
   \              000000000F00
   \              000000000000
   \   0000107C   F803FC0FFE1F       DC16 1016, 4092, 8190, 16191, 15903, 15375, 31759, 31759, 31759, 31759
   \              3F3F1F3E0F3C
   \              0F7C0F7C0F7C
   \              0F7C        
   \   00001090   0F3C1F3E3F3F       DC16 15375, 15903, 16191, 8190, 4092, 2032, 0, 0, 0, 0, 0, 0, 15, 15
   \              FE1FFC0FF007
   \              000000000000
   \              000000000000
   \              0F000F00    
   \   000010AC   0F000F00EF07       DC16 15, 15, 2031, 8191, 16383, 15935, 31775, 30751, 30735, 30735
   \              FF1FFF3F3F3E
   \              1F7C1F780F78
   \              0F78        
   \   000010C0   0F780F781F78       DC16 30735, 30735, 30751, 31775, 15999, 16383, 8191, 2031, 0, 0, 0, 0
   \              1F7C7F3EFF3F
   \              FF1FEF070000
   \              000000000000
   \   000010D8   000000000F00       DC16 0, 0, 15, 31744, 31744, 31744, 32752, 32764, 32766, 32575, 32271
   \              007C007C007C
   \              F07FFC7FFE7F
   \              3F7F0F7E    
   \   000010EE   0F7C0F7C077C       DC16 31759, 31759, 31751, 31751, 31759, 31759, 32271, 32575, 32766
   \              077C0F7C0F7C
   \              0F7E3F7FFE7F
   \   00001100   FC7FF87D0000       DC16 32764, 32248, 0, 0, 0, 0, 0, 0, 15, 30720, 30720, 30720, 30751
   \              000000000000
   \              000000000F00
   \              007800780078
   \              1F78        
   \   0000111A   1F781F781F78       DC16 30751, 30751, 30751, 30751, 30751, 30751, 30751, 30751, 30751
   \              1F781F781F78
   \              1F781F781F78
   \   0000112C   1F781F783F78       DC16 30751, 30751, 30783, 31231, 31743, 31743, 0, 0, 0, 0, 0, 0, 14, 0
   \              FF79FF7BFF7B
   \              000000000000
   \              000000000000
   \              0E000000    
   \   00001148   00000000F803       DC16 0, 0, 1016, 4094, 8191, 7967, 15887, 15872, 8064, 8184, 4094, 511
   \              FE0FFF1F1F1F
   \              0F3E003E801F
   \              F81FFE0FFF01
   \   00001160   1F000F000F1F       DC16 31, 15, 7951, 3999, 4094, 1020, 0, 0, 0, 0, 0, 0, 14, 0, 0, 0, 764
   \              9F0FFE0FFC03
   \              000000000000
   \              000000000000
   \              0E0000000000
   \              0000FC02    
   \   00001182   FE0EFE1E1E1E       DC16 3838, 7934, 7710, 15902, 15902, 7710, 7710, 3614, 30, 30, 30, 7710
   \              1E3E1E3E1E1E
   \              1E1E1E0E1E00
   \              1E001E001E1E
   \   0000119A   FF0EFF0EFF02       DC16 3839, 3839, 767, 30, 30, 30, 30, 28, 16, 15, 0, 0, 0, 32248, 32764
   \              1E001E001E00
   \              1E001C001000
   \              0F0000000000
   \              0000F87DFC7F
   \   000011B8   FE7F3E7F1F7C       DC16 32766, 32574, 31775, 31775, 31775, 31775, 31775, 31775, 31775
   \              1F7C1F7C1F7C
   \              1F7C1F7C1F7C
   \   000011CA   1F7C1F7C1F7C       DC16 31775, 31775, 31775, 31775, 31775, 0, 0, 0, 0, 0, 0, 14, 0, 0, 0
   \              1F7C1F7C0000
   \              000000000000
   \              000000000E00
   \              000000000000
   \   000011E8   F001F001F003       DC16 496, 496, 1008, 1016, 1016, 2044, 1980, 1980, 3870, 3870, 7967
   \              F803F803FC07
   \              BC07BC071E0F
   \              1E0F1F1F    
   \   000011FE   0F1E0F1E0F3E       DC16 7695, 7695, 15887, 15367, 15367, 0, 0, 0, 0, 0, 0, 16, 0, 0, 0
   \              073C073C0000
   \              000000000000
   \              000000001000
   \              000000000000
   \   0000121C   F8E0F8E0F8F0       DC16 57592, 57592, 61688, 61948, 61948, 63996, 63966, 31710, 31710
   \              FCF1FCF1FCF9
   \              DEF9DE7BDE7B
   \   0000122E   CF3F8F3F8F3F       DC16 16335, 16271, 16271, 16271, 7943, 7943, 7943, 0, 0, 0, 0, 0, 0, 16
   \              8F3F071F071F
   \              071F00000000
   \              000000000000
   \              00001000    
   \   0000124A   000000000000       DC16 0, 0, 0, 56839, 57103, 53007, 51102, 51198, 50172, 49656, 16888
   \              07DE0FDF0FCF
   \              9EC7FEC7FCC3
   \              F8C1F841    
   \   00001260   F040F801FC03       DC16 16624, 504, 1020, 1020, 2046, 3999, 3855, 7951, 0, 0, 0, 0, 0, 0
   \              FC03FE079F0F
   \              0F0F0F1F0000
   \              000000000000
   \              00000000    
   \   0000127C   1000F800F000       DC16 16, 248, 240, 240, 33248, 33264, 33264, 33776, 33784, 34808, 34748
   \              F000E081F081
   \              F081F083F883
   \              F887BC87    
   \   00001292   BC073C0F1E0F       DC16 1980, 3900, 3870, 3870, 7711, 7695, 15887, 15375, 15367, 0, 0, 0
   \              1E0F1F1E0F1E
   \              0F3E0F3C073C
   \              000000000000
   \   000012AA   000000000000       DC16 0, 0, 0, 16, 0, 0, 0, 49151, 49151, 49151, 32783, 32799, 32830
   \              100000000000
   \              0000FFBFFFBF
   \              FFBF0F801F80
   \              3E80        
   \   000012C4   7C80F800F001       DC16 32892, 248, 496, 992, 1984, 3968, 7936, 8191, 8191, 8191, 0, 0, 0
   \              E003C007800F
   \              001FFF1FFF1F
   \              FF1F00000000
   \              0000        
   \   000012DE   000000000000       DC16 0, 0, 0, 16, 124, 60, 60, 48188, 48188, 48188, 32828, 32828, 32830
   \              10007C003C00
   \              3C003CBC3CBC
   \              3CBC3C803C80
   \              3E80        
   \   000012F8   1E800F000700       DC16 32798, 15, 7, 15, 1054, 3134, 7228, 7228, 7228, 7228, 60, 60, 60
   \              0F001E043E0C
   \              3C1C3C1C3C1C
   \              3C1C3C003C00
   \              3C00        
   \   00001312   FC01F801F001       DC16 508, 504, 496, 0, 0, 0, 0, 0, 0, 0, 0, 0, 0, 0, 0, 0, 0, 0, 0, 0
   \              000000000000
   \              000000000000
   \              000000000000
   \              000000000000
   \              000000000000
   \              00000000    
   \   0000133A   000000000000       DC16 0, 0, 0, 0, 0, 0, 0, 0, 0, 16, 65511, 65519, 65519, 65519, 65519
   \              000000000000
   \              000000000000
   \              1000E7FFEFFF
   \              EFFFEFFFEFFF
   \   00001358   EFFFEFFFEFFF       DC16 65519, 65519, 65519, 65519, 65487, 65311, 65407, 65311, 65487
   \              EFFFCFFF1FFF
   \              7FFF1FFFCFFF
   \   0000136A   EFFFE7FFE7FF       DC16 65519, 65511, 65511, 65511, 65511, 65511, 65511, 65527, 65520
   \              E7FFE7FFE7FF
   \              E7FFF7FFF0FF
   \   0000137C   F0FFF8FF1000       DC16 65520, 65528, 16, 0, 0, 0, 0, 0, 0, 0, 0, 0, 0, 15873, 32643
   \              000000000000
   \              000000000000
   \              000000000000
   \              0000013E837F
   \   0000139A   E7FFFFE7FEC1       DC16 65511, 59391, 49662, 32892, 0, 0, 0, 0, 0, 0, 0, 0, 0, 8, 0, 0, 0
   \              7C8000000000
   \              000000000000
   \              000000000000
   \              000008000000
   \              00000000    
   \   000013BC   000000000000       DC16 0, 0, 0, 0, 0, 0, 0, 0, 0, 0, 56, 124, 110, 6, 6, 110, 124, 56, 2
   \              000000000000
   \              000000000000
   \              000038007C00
   \              6E0006000600
   \              6E007C003800
   \              0200        
   \   000013E2   05000200           DC16 5, 2
   \   000013E6   0000               DC8 0, 0
   \   000013E8   100000000000       DC16 16, 0, 0, 0, 32704, 65520, 65528, 57596, 126, 62, 30, 31, 16383
   \              0000C07FF0FF
   \              F8FFFCE07E00
   \              3E001E001F00
   \              FF3F        
   \   00001402   FF3F0F000F00       DC16 16383, 15, 15, 16383, 32767, 31, 31, 62, 126, 57596, 65528, 65520
   \              FF3FFF7F1F00
   \              1F003E007E00
   \              FCE0F8FFF0FF
   \   0000141A   807F10000000       DC16 32640, 16, 0, 0, 0, 32771, 32771, 32771, 32771, 32771, 32771
   \              000000000380
   \              038003800380
   \              03800380    
   \   00001430   038003800380       DC16 32771, 32771, 32771, 32771, 32771, 32771, 32771, 32771, 32771
   \              038003800380
   \              038003800380
   \   00001442   038003800380       DC16 32771, 32771, 32771, 32771, 0, 0, 0
   \              038000000000
   \              0000        
    851           {16,0,0,0,32771,32771,32771,32771,32771,32771,32771,32771,32771,32771,32771,32771,32771,32771,32771,32771,32771,32771,32771,0,0,0},        //30   ""
    852                            {16,0,0,0,32771,32771,32771,32771,32771,32771,32771,32771,32771,32771,32771,32771,32771,32771,32771,32771,32771,32771,32771,0,0,0},        //31   ""
    853                            {0,0,0,0,0,0,0,0,0,0,0,0,0,0,0,0,0,0,0,0,0,0,0,0,0,0},        //32   " "
    854                            {16,65535,65535,65535,65535,65535,65535,65535,65535,65535,65535,65535,65535,65535,65535,65535,65535,65535,65535,65535,65535,65534,65534,65534,65534,65534},        //33   "!"
    855                            {16,65535,65535,65535,65535,65535,65535,65535,65535,65535,65535,65535,65535,65535,65535,65535,65535,65535,65535,65535,65535,65535,65502,65502,65502,65502},        //34   """
    856                            {16,0,0,0,903,1927,1935,1807,1806,65535,65535,65535,3614,3612,7708,7740,7740,65535,65535,65535,15480,14456,14448,30832,30960,30960},        //35   "#"
    857                            {15,448,448,448,2032,8188,16382,32767,32223,31183,31183,31168,31168,32704,16320,8176,2044,510,479,463,463,32207,16383,16382,8188,2040},        //36   "$"
    858                            {16,0,0,0,480,448,33728,33664,34688,36608,36608,40448,39936,48128,14584,31742,62430,63375,59279,51087,51087,34703,34703,990,1022,248},        //37   "%"
    859                            {16,0,0,0,2032,57340,65534,65087,63519,63503,64527,65039,65311,57118,4094,2040,2032,4080,16376,15608,30840,30844,31992,16376,16368,4064},        //38   "&"
    860                            {16,65535,65535,65535,65535,65535,65535,65535,65535,65535,65535,65535,65535,65279,65535,65535,65535,65535,65535,65535,63487,63487,65534,65534,65534,65534},        //39   "'"
    861                            {16,120,60,60,1084,56350,64542,64542,63519,63503,64527,64527,64527,56335,3087,1055,1054,3102,15390,15420,30780,30780,31864,15472,15600,3296},        //40   "("
    862                            {16,65535,65535,65535,65535,65535,65535,65535,65535,65519,65535,65535,65535,65535,65519,65519,65535,65535,65535,65527,65535,65535,65535,65535,65535,65534},        //41   ")"
    863                            {16,0,0,0,0,53248,61440,61440,61440,61440,61440,61440,61440,53248,0,0,0,460,13310,12796,28924,29182,30719,14335,12408,120},        //42   "*"
    864                            {16,0,0,0,0,0,0,960,960,960,960,960,960,65535,65535,65535,960,960,960,960,960,960,0,0,0,0},        //43   "+"
    865                            {5,14,28,28,31,31,31,0,0,0,0,0,0,0,0,0,0,0,0,0,0,0,0,0,0,0},        //44   ","
    866                            {9,0,0,0,0,0,0,0,0,0,0,511,511,511,0,0,0,0,0,0,0,0,0,0,0,0},        //45   "-"
    867                            {3,0,0,0,7,7,7,0,0,0,0,0,0,0,0,0,0,0,0,0,0,0,0,0,0,0},        //46   "."
    868                            {8,0,0,0,3,3,7,7,7,7,15,14,14,30,30,28,60,60,56,120,120,112,112,240,224,224},        //47   "/"
    869                            {15,0,0,0,2032,8188,8188,15934,31775,31775,30735,30735,30735,30735,30735,30735,30735,30735,30735,30735,31775,31775,15934,8188,8188,2032},        //48   "0"
    870                            {9,0,0,0,480,480,480,480,480,480,480,480,480,480,480,480,480,480,483,495,511,510,504,496,480,448},        //49   "1"
    871                            {15,0,0,0,32767,32767,32767,31,62,124,248,496,960,1920,3840,7680,15360,31744,30720,30735,30735,31775,32318,16382,8188,2032},        //50   "2"
    872                            {15,0,0,0,2032,8188,16382,15935,31775,30735,30720,30720,30720,31744,31744,16352,4064,4064,7936,15360,15375,15391,15934,8190,4092,2032},        //51   "3"
    873                            {15,0,0,0,3840,3840,3840,3840,3840,32767,32767,32767,3847,3855,3870,3870,3900,3960,3960,4080,4064,4032,4032,3968,3840,3840},        //52   "4"
    874                            {15,0,0,0,2032,8188,16382,15903,31759,30735,30720,30720,30720,30720,31744,32287,16383,8190,2046,30,30,62,60,16380,16380,16380},        //53   "5"
    875                            {15,0,0,0,2032,8188,16382,15934,31775,30735,30735,30735,30735,30751,32319,16383,8191,2031,15,15,30751,31774,15934,16380,8184,2032},        //54   "6"
    876                            //{16,65535,65535,65535,65527,65535,65535,65535,65535,65535,65535,65535,65535,65535,65535,65471,65535,65407,65535,65279,65535,65535,65535,65534,65534,65534},        //55   "7"
    877                           // 0,0,0,0,120,120,120,120,120,240,240,240,224,224,224,192,192,128,128,   0,0,0,255,255,255,255},
    878                            {14,0,0,0,120,120,120,120,120,240,240,240,224,224,480,448,960,896,1920,1792,3840, 7680,16383,16383,16383,16383},
    879                           //{0,0,0,0,0,    0,  0,  0,  0,  0,  0,  0,  0,  1,  1,  1,  3,  3,  7,  7, 15,30,63 ,63 , 63, 63},
    880                            {16,0,0,0,2032,8188,16382,32319,31775,63503,63503,63503,30735,31775,32318,16380,4088,8188,15934,31774,31775,31775,15934,16382,8188,2032},        //56   "8"
    881                            {15,0,0,0,1016,4092,8190,16190,15903,31759,31744,30720,31736,32764,32766,32319,31775,30735,30735,30735,30735,31775,15935,8190,4092,2032},        //57   "9"
    882                            {5,0,0,0,31,31,31,0,0,0,0,0,0,0,0,0,0,31,31,31,0,0,0,0,0,0},        //58   ":"
    883                            {5,14,30,28,31,31,31,0,0,0,0,0,0,0,0,0,0,31,31,31,0,0,0,0,0,0},        //59   ";"
    884                            {16,0,0,0,0,0,0,57344,63488,65280,32704,4080,1022,127,31,127,1022,4080,32704,65280,63488,57344,0,0,0,0},        //60   "<"
    885                            {16,0,0,0,0,0,0,0,0,0,65535,65535,65535,0,0,0,65535,65535,65535,0,0,0,0,0,0,0},        //61   "="
    886                            {16,0,0,0,0,0,0,7,31,255,1022,4080,32704,65024,63488,65024,32704,4080,1022,255,31,7,0,0,0,0},        //62   ">"
    887                            {15,0,0,0,480,480,480,0,0,480,992,992,960,1984,3968,7936,15872,31744,30720,30720,30735,30751,32319,16382,8188,2032},        //63   "?"
    888                            {16,504,124,60,32286,65438,65423,59343,33743,975,975,975,975,975,1999,3998,40862,65310,65084,63612,248,1008,4064,65472,65280,64512},        //64   "@"
    889                            {16,0,0,0,7,32775,32783,49167,49183,49183,57374,65534,65532,65532,61564,63608,30968,31984,15600,15856,16352,8160,8128,4032,3968,1920},        //65   "A"
    890                            {16,65535,65535,65535,65534,65534,65534,61438,65534,65534,65534,65534,65534,61438,65534,65534,65534,65534,65534,65534,65534,65534,65534,65534,65534,65534},        //66   "B"
    891                            {16,0,0,0,32704,65520,65528,57852,49278,32830,31,31,15,15,15,15,15,15,31,31,32830,49278,57596,65528,65520,32640},        //67   "C"
    892                            {16,65535,65535,65535,65534,65534,65534,65534,65534,65534,65534,65534,65534,65534,32766,32766,65534,65534,65534,65534,65534,65534,65534,65534,65534,65534},        //68   "D"
    893                            {16,65535,65535,65535,65534,65534,65534,65534,65534,65534,65534,65534,65534,65534,65534,65534,65534,65534,65534,65534,65534,65534,65534,65534,65534,65534},        //69   "E"
    894                            {16,65535,65535,65535,65534,65534,65534,65534,65534,65534,65534,65534,65534,65534,65534,65534,65534,65534,65534,65534,65534,65534,65534,65534,65534,65534},        //70   "F"
    895                            {16,0,0,0,65408,65504,65528,33276,126,62,31,31,63503,63503,63503,15,15,15,31,30,62,126,49660,65528,65504,65408},        //71   "G"
    896                            {16,65535,65535,65535,65534,65534,65534,65534,65534,65534,65534,65534,65534,65534,65534,65534,65534,65534,65534,65534,65534,65534,65534,65534,65534,65534},        //72   "H"
    897                            {16,65535,65535,65535,65534,65534,65534,65534,65534,65534,65534,65534,65534,65534,65534,65534,65534,65534,65534,65534,65534,65534,65534,65534,65534,65534},        //73   "I"
    898                            {13,0,0,0,1016,2046,4095,8095,7951,7695,7695,7680,7680,7680,7680,7680,7680,7680,7680,7680,7680,7680,7680,7680,7680,7680},        //74   "J"
    899                            {16,65535,65535,65535,65534,65534,57342,65534,65534,65534,64510,65534,65534,65534,65534,65534,65518,65502,65534,65534,65534,65534,65534,65534,65534,65534},        //75   "K"
    900                            {16,65535,65535,65535,65534,65534,65534,65534,65534,65534,65534,65534,65534,65534,65534,65534,65534,65534,65534,65534,65534,65534,65534,65534,65534,65534},        //76   "L"
    901                            {16,65535,65535,65535,65534,65534,65534,65534,65534,65534,65534,65534,65534,65534,65534,65534,65534,65534,65534,65534,65534,65534,65534,65534,65534,65534},        //77   "M"
    902                            {16,65535,65535,65535,65534,65534,65534,65534,65534,65534,65534,65534,65534,65534,65534,65534,65534,65534,65534,65534,65534,65534,65534,65534,65534,65534},        //78   "N"
    903                            {16,0,0,0,32640,65504,65528,57852,32894,62,31,31,15,15,15,15,15,31,31,31,62,32894,57852,65528,65504,32640},        //79   "O"
    904                            {16,65535,65535,65535,65534,65534,65534,65534,65534,65534,65534,65534,65534,65534,65534,65534,61438,65534,65534,65534,65534,65534,65534,65534,65534,65534},        //80   "P"
    905                            {16,0,0,0,32640,65504,65528,57852,63614,30782,6175,31,15,15,15,15,15,15,31,31,62,32894,57852,65528,65520,32640},        //81   "Q"
    906                            {16,65535,65535,65535,65534,65534,65534,65534,65534,61438,65534,65534,65534,65534,65534,65534,65534,65534,65534,65534,65534,65534,65534,65534,65534,65534},        //82   "R"
    907                            {16,0,0,0,16352,65528,65532,61566,49183,32783,32783,49152,57344,64512,65472,65528,8188,254,62,30,49182,57374,61566,65532,65528,16352},        //83   "S"
    908                            {16,65535,65535,65535,65535,65535,65535,65535,65535,65535,65535,65535,65535,65535,65535,65535,65535,65535,65535,65535,65535,65535,65535,65534,65534,65534},        //84   "T"
    909                            {16,65535,65535,65535,65535,65535,65535,65533,57343,65535,49151,65534,65534,65534,65534,65534,65534,65534,65534,65534,65534,65534,65534,65534,65534,65534},        //85   "U"
    910                            {16,65535,65535,65535,64767,63743,64255,62335,63359,63295,61375,61375,53151,57311,57295,40943,49135,16359,32759,32755,32755,65531,65529,65529,65532,65532},        //86   "V"
    911                            {16,65535,65535,65535,65087,65087,65087,65215,64991,64991,64991,63951,64495,64495,62447,63463,63479,59383,61427,61427,61435,53241,57337,8185,8189,16380},        //87   "W"
    912                            {16,65535,65535,65535,65535,65535,65535,57343,65531,65535,65535,65535,65535,65535,65535,65535,65535,65535,65535,65535,65535,61431,65535,65535,65535,32766},        //88   "X"
    913                            {16,65535,65535,65535,65023,65023,65023,65023,65023,65023,65023,65023,65023,64767,63743,63615,62271,59199,61343,53199,40911,16359,16371,32755,65529,65532},        //89   "Y"
    914                            {16,65535,65535,65535,65535,65535,65535,65535,65535,65535,65535,65535,65535,65535,65503,65535,65535,65535,65535,65535,64511,65535,65535,65534,65534,65534},        //90   "Z"
    915                            {16,65535,65535,65535,65535,65535,65535,65535,65535,65535,65535,65535,65535,65535,65535,65535,65535,65535,65535,65535,65535,65535,65535,65528,65528,65528},        //91   "["
    916                            {16,65535,65535,65535,65471,65471,65535,65535,65503,65535,65535,65519,65519,65535,65527,65527,65535,65531,65531,65535,65535,65533,65535,65535,65534,65534},        //92   "\"
    917                            {16,65535,65535,65535,65535,65535,65535,65535,65535,65535,65535,65535,65535,65535,65535,65535,65535,65535,65535,65535,65535,65535,65535,65534,65534,65534},        //93   "]"
    918                            {13,0,0,0,0,0,0,0,0,0,0,0,0,0,0,7687,3855,3855,3999,1950,1950,1020,1020,504,504,504},        //94   "^"
    919                            {0,0,0,0,0,0,0,0,0,0,0,0,0,0,0,0,0,0,0,0,0,0,0,0,0,0},        //95   "_"
    920                            {16,65535,65535,65535,65535,65535,65535,65535,65535,65535,65535,65535,65535,65535,65535,65535,65535,65535,65535,65535,65535,65535,65535,65535,65535,65534},        //96   "`"
    921                            {15,0,0,0,32252,16383,16383,16271,15887,15887,15375,15870,16380,16128,15360,15887,15903,8190,8190,2040,0,0,0,0,0,0},        //97   "a"
    922                            {16,65535,65535,65535,65502,65534,65534,65534,64510,65534,63486,63486,63486,63486,65534,65534,65022,65534,65534,65502,65534,65534,65534,65534,65534,65534},        //98   "b"
    923                            {14,0,0,0,2032,4092,8190,15935,15391,15375,15,15,15,15,15,15391,15935,8190,4092,2032,0,0,0,0,0,0},        //99   "c"
    924                            {15,0,0,0,32248,32764,32766,32575,32287,31759,31759,31751,31751,31759,31759,32271,32575,32766,32764,32248,31744,31744,31744,31744,31744,31744},        //100   "d"
    925                            {15,0,0,0,2040,8188,16382,15935,31759,15,7,32767,32767,31751,31759,15375,16191,8190,4092,1016,0,0,0,0,0,0},        //101   "e"
    926                            {15,0,0,0,1054,7198,15390,15390,31774,30,30,31774,31774,31774,31774,15390,15390,7423,3327,255,30,30,30,510,508,504},        //102   "f"
    927                            {15,15903,15375,15360,16376,32764,32766,32575,32271,31759,31759,31751,31751,31759,31759,32271,32575,32766,32764,32760,0,0,0,0,0,0},        //103   "g"
    928                            {16,65535,65535,65535,65534,65534,65534,65534,65534,65534,65534,65534,65534,65534,65534,65534,65534,65534,65534,65534,65534,65534,65534,65534,65534,65534},        //104   "h"
    929                            {16,65535,65535,65535,64510,64510,64510,64510,64510,64510,64510,64510,64510,64510,64510,65534,65534,65534,65534,65534,65535,65535,65535,65534,65534,65534},        //105   "i"
    930                            {16,65535,65535,65535,65534,65534,65534,65534,65534,65534,65534,65534,65534,65534,65534,65534,65534,65534,65534,65534,65535,65535,65535,65534,65534,65534},        //106   "j"
    931                            {16,65535,65535,65535,65534,65534,65278,65534,65534,65534,65534,65534,65534,65534,65534,65534,65534,65534,65534,65534,65534,65534,65534,65534,65534,65534},        //107   "k"
    932                            {16,65535,65535,65535,65022,65534,65534,65406,65534,65534,65534,65534,65534,65534,65534,65534,65534,65534,65534,65278,65534,65534,65534,65534,65534,65534},        //108   "l"
    933                            {16,0,0,0,31775,31775,31775,31775,31775,31775,31775,31775,31775,31775,31775,31775,65151,65535,57343,4047,0,0,0,0,0,0},        //109   "m"
    934                            {15,0,0,0,31775,31775,31775,31775,31775,31775,31775,31775,31775,31775,31775,31775,15999,16383,8191,4095,0,0,0,0,0,0},        //110   "n"
    935                            {15,0,0,0,1016,4092,8190,16191,15903,15375,31759,31759,31759,31759,15375,15903,16191,8190,4092,2032,0,0,0,0,0,0},        //111   "o"
    936                            {15,15,15,15,2031,8191,16383,15935,31775,30751,30735,30735,30735,30735,30751,31775,15999,16383,8191,2031,0,0,0,0,0,0},        //112   "p"
    937                            {15,31744,31744,31744,32752,32764,32766,32575,32271,31759,31759,31751,31751,31759,31759,32271,32575,32766,32764,32248,0,0,0,0,0,0},        //113   "q"
    938                            {15,30720,30720,30720,30751,30751,30751,30751,30751,30751,30751,30751,30751,30751,30751,30751,30783,31231,31743,31743,0,0,0,0,0,0},        //114   "r"
    939                            {14,0,0,0,1016,4094,8191,7967,15887,15872,8064,8184,4094,511,31,15,7951,3999,4094,1020,0,0,0,0,0,0},        //115   "s"
    940                            {14,0,0,0,764,3838,7934,7710,15902,15902,7710,7710,3614,30,30,30,7710,3839,3839,767,30,30,30,30,28,16},        //116   "t"
    941                            {15,0,0,0,32248,32764,32766,32574,31775,31775,31775,31775,31775,31775,31775,31775,31775,31775,31775,31775,0,0,0,0,0,0},        //117   "u"
    942                            {14,0,0,0,496,496,1008,1016,1016,2044,1980,1980,3870,3870,7967,7695,7695,15887,15367,15367,0,0,0,0,0,0},        //118   "v"
    943                            {16,0,0,0,57592,57592,61688,61948,61948,63996,63966,31710,31710,16335,16271,16271,16271,7943,7943,7943,0,0,0,0,0,0},        //119   "w"
    944                            {16,0,0,0,56839,57103,53007,51102,51198,50172,49656,16888,16624,504,1020,1020,2046,3999,3855,7951,0,0,0,0,0,0},        //120   "x"
    945                            {16,248,240,240,33248,33264,33264,33776,33784,34808,34748,1980,3900,3870,3870,7711,7695,15887,15375,15367,0,0,0,0,0,0},        //121   "y"
    946                            {16,0,0,0,49151,49151,49151,32783,32799,32830,32892,248,496,992,1984,3968,7936,8191,8191,8191,0,0,0,0,0,0},        //122   "z"
    947                            {16,124,60,60,48188,48188,48188,32828,32828,32830,32798,15,7,15,1054,3134,7228,7228,7228,7228,60,60,60,508,504,496},        //123   "{"
    948                            {0,0,0,0,0,0,0,0,0,0,0,0,0,0,0,0,0,0,0,0,0,0,0,0,0,0},        //124   "|"
    949                            {16,65511,65519,65519,65519,65519,65519,65519,65519,65519,65487,65311,65407,65311,65487,65519,65511,65511,65511,65511,65511,65511,65527,65520,65520,65528},        //125   "}"
    950                            {16,0,0,0,0,0,0,0,0,0,0,15873,32643,65511,59391,49662,32892,0,0,0,0,0,0,0,0,0},        //126   "~"
    951                            //{16,0,0,0,32771,32771,32771,32771,32771,32771,32771,32771,32771,32771,32771,32771,32771,32771,32771,32771,32771,32771,32771,0,0,0},        //127   ""
    952                            {8,0,0,0,0,0,0,0,0,0,0,0,0,0,56,124,110,6,6,110,124,56,2,5,2},  //127   "*C"
    953                            {16,0,0,0,32704,65520,65528,57596,126,62,30,31,16383,16383,15,15,16383,32767,31,31,62,126,57596,65528,65520,32640},        //128   "€"
    954                            {16,0,0,0,32771,32771,32771,32771,32771,32771,32771,32771,32771,32771,32771,32771,32771,32771,32771,32771,32771,32771,32771,0,0,0},        //129   ""
    955                            };
    956          
    957          
    958          //*-----------------------------------------------------------------------------
    959          //* Nazwa funkcji :    Label
    960          //* Funkcja wrysowania napisu
    961          //*-----------------------------------------------------------------------------
    962          //*  Vstring    - wskaŸnik do tablicy znaków
    963          //*  alig       - wyrównanie -0=do lewej, 1=do prawej, 2=wyœrodkowany
    964          //*  X          - wspó³¿êdna X zale¿na od wyrównania 
    965          //*  Y          - wspó³¿êdna Y do³u napisu
    966          //*  maxChar    - maksymalna d³ugoœæ napisu w znakach 
    967          //*  clean      - d³ugoœæ (w pikselach) obszaru czyszczenia t³a 
    968          //*  minY, maxY - obszar roboczy
    969          //*  negatyw    - 0-brak, 1-negatyw
    970          //*  funkcja zwraca d³ugoœæ napisu w pikselach
    971          //*-----------------------------------------------------------------------------
    972          

   \                                 In section Debug.txt, align 4, keep-with-next
    973          char Label (char *Vstring, char alig, char X, int Y, char maxChar, char clean, char minY, char maxY, char negatyw) 
    974          { 
   \                     Label:
   \   00000000   FFB5               PUSH     {R0-R7,LR}
   \   00000002   8DB0               SUB      SP,SP,#+52
   \   00000004   16A8               ADD      R0,SP,#+88
   \   00000006   0178               LDRB     R1,[R0, #+0]
   \   00000008   0020               MOVS     R0,#+0
    975            //char offset=43;
    976            char offset=30;
    977            
    978            
    979            int kol=0;
    980            char linia=0;
    981            char bit=0;
    982            char ill_znak=0;
    983            
    984            char pocz_X=X;
   \   0000000A   0FAA               ADD      R2,SP,#+60
   \   0000000C   1278               LDRB     R2,[R2, #+0]
   \   0000000E   0992               STR      R2,[SP, #+36]
    985            
    986            kol=X/8;
    987            bit=X%8;
    988            linia=Y;
    989             
    990            char dlugosc=0;
   \   00000010   0022               MOVS     R2,#+0
    991            char clean_offset=0;
   \   00000012   0590               STR      R0,[SP, #+20]
    992            
    993            
    994          
    995            
    996            
    997            
    998            if (alig==1)
   \   00000014   0EAB               ADD      R3,SP,#+56
   \   00000016   1B78               LDRB     R3,[R3, #+0]
   \   00000018   012B               CMP      R3,#+1
   \   0000001A   24D1               BNE      ??Label_0
    999            {
   1000              do {       
   1001                 
   1002                 if (Vstring[ill_znak]>=offset)  
   \                     ??Label_1:
   \   0000001C   0D9C               LDR      R4,[SP, #+52]
   \   0000001E   2418               ADDS     R4,R4,R0
   \   00000020   2378               LDRB     R3,[R4, #+0]
   \   00000022   1E2B               CMP      R3,#+30
   \   00000024   08D3               BCC      ??Label_2
   1003                  {
   1004                    dlugosc += Arial_7[Vstring[ill_znak]-offset][0];
   \   00000026   CD4B               LDR      R3,??Label_3     ;; 0xfffffed4
   \   00000028   2478               LDRB     R4,[R4, #+0]
   \   0000002A   0A25               MOVS     R5,#+10
   \   0000002C   6C43               MULS     R4,R5,R4
   \   0000002E   CC4D               LDR      R5,??Label_3+0x4  ;; Arial_7
   \   00000030   2C19               ADDS     R4,R5,R4
   \   00000032   E35C               LDRB     R3,[R4, R3]
   \   00000034   D218               ADDS     R2,R2,R3
   \   00000036   00E0               B.N      ??Label_4
   1005                  }
   1006                 else
   1007                 {
   1008                   dlugosc++;
   1009                   dlugosc++;
   1010                   dlugosc++;
   \                     ??Label_2:
   \   00000038   D21C               ADDS     R2,R2,#+3
   \                     ??Label_4:
   \   0000003A   1206               LSLS     R2,R2,#+24
   \   0000003C   120E               LSRS     R2,R2,#+24
   1011                 }
   1012                 dlugosc++;
   \   0000003E   521C               ADDS     R2,R2,#+1
   \   00000040   1206               LSLS     R2,R2,#+24
   \   00000042   120E               LSRS     R2,R2,#+24
   1013                 ill_znak++;
   \   00000044   401C               ADDS     R0,R0,#+1
   \   00000046   0006               LSLS     R0,R0,#+24
   \   00000048   000E               LSRS     R0,R0,#+24
   1014                } while ((Vstring[ill_znak]) && (ill_znak<maxChar) && (X-dlugosc>=0) );
   \   0000004A   0D9C               LDR      R4,[SP, #+52]
   \   0000004C   235C               LDRB     R3,[R4, R0]
   \   0000004E   002B               CMP      R3,#+0
   \   00000050   05D0               BEQ      ??Label_5
   \   00000052   8842               CMP      R0,R1
   \   00000054   03D2               BCS      ??Label_5
   \   00000056   0FAB               ADD      R3,SP,#+60
   \   00000058   1B78               LDRB     R3,[R3, #+0]
   \   0000005A   9B1A               SUBS     R3,R3,R2
   \   0000005C   DED5               BPL      ??Label_1
   1015           
   1016              clean_offset=clean;
   \                     ??Label_5:
   \   0000005E   17A9               ADD      R1,SP,#+92
   \   00000060   0978               LDRB     R1,[R1, #+0]
   \   00000062   0591               STR      R1,[SP, #+20]
   \   00000064   23E0               B        ??Label_6
   1017            }
   1018            else
   1019            {
   1020              do {   
   1021                 
   1022                 
   1023                 if (Vstring[ill_znak]>=offset)  
   \                     ??Label_0:
   \   00000066   0D9C               LDR      R4,[SP, #+52]
   \   00000068   2418               ADDS     R4,R4,R0
   \   0000006A   2378               LDRB     R3,[R4, #+0]
   \   0000006C   1E2B               CMP      R3,#+30
   \   0000006E   08D3               BCC      ??Label_7
   1024                  {
   1025                    dlugosc += Arial_7[Vstring[ill_znak]-offset][0];
   \   00000070   BA4B               LDR      R3,??Label_3     ;; 0xfffffed4
   \   00000072   2478               LDRB     R4,[R4, #+0]
   \   00000074   0A25               MOVS     R5,#+10
   \   00000076   6C43               MULS     R4,R5,R4
   \   00000078   B94D               LDR      R5,??Label_3+0x4  ;; Arial_7
   \   0000007A   2C19               ADDS     R4,R5,R4
   \   0000007C   E35C               LDRB     R3,[R4, R3]
   \   0000007E   D218               ADDS     R2,R2,R3
   \   00000080   00E0               B.N      ??Label_8
   1026                  }
   1027                 else
   1028                 {
   1029                   dlugosc++;
   1030                   dlugosc++;
   1031                   dlugosc++;
   \                     ??Label_7:
   \   00000082   D21C               ADDS     R2,R2,#+3
   \                     ??Label_8:
   \   00000084   1206               LSLS     R2,R2,#+24
   \   00000086   120E               LSRS     R2,R2,#+24
   1032                 }
   1033                 
   1034                 
   1035                 dlugosc++;
   \   00000088   521C               ADDS     R2,R2,#+1
   \   0000008A   1206               LSLS     R2,R2,#+24
   \   0000008C   120E               LSRS     R2,R2,#+24
   1036                 ill_znak++;
   \   0000008E   401C               ADDS     R0,R0,#+1
   \   00000090   0006               LSLS     R0,R0,#+24
   \   00000092   000E               LSRS     R0,R0,#+24
   1037               } while ((Vstring[ill_znak]) && (ill_znak<maxChar) && (X+dlugosc<=64));
   \   00000094   0D9C               LDR      R4,[SP, #+52]
   \   00000096   235C               LDRB     R3,[R4, R0]
   \   00000098   002B               CMP      R3,#+0
   \   0000009A   08D0               BEQ      ??Label_6
   \   0000009C   8842               CMP      R0,R1
   \   0000009E   06D2               BCS      ??Label_6
   \   000000A0   0FAB               ADD      R3,SP,#+60
   \   000000A2   1B78               LDRB     R3,[R3, #+0]
   \   000000A4   9B18               ADDS     R3,R3,R2
   \   000000A6   1B04               LSLS     R3,R3,#+16
   \   000000A8   1B0C               LSRS     R3,R3,#+16
   \   000000AA   412B               CMP      R3,#+65
   \   000000AC   DBD3               BCC      ??Label_0
   1038              
   1039            }
   1040              
   1041            dlugosc--;
   \                     ??Label_6:
   \   000000AE   511E               SUBS     R1,R2,#+1
   \   000000B0   0906               LSLS     R1,R1,#+24
   \   000000B2   090E               LSRS     R1,R1,#+24
   \   000000B4   0791               STR      R1,[SP, #+28]
   \   000000B6   1099               LDR      R1,[SP, #+64]
   \   000000B8   0906               LSLS     R1,R1,#+24
   \   000000BA   090E               LSRS     R1,R1,#+24
   1042            
   1043             //Czyszczenie obszaru ----------------------
   1044            linia=Y;
   1045            for (int i=1; i<=9; i++)
   \   000000BC   A94A               LDR      R2,??Label_3+0x8  ;; LCD_Canvas
   \   000000BE   5218               ADDS     R2,R2,R1
   \   000000C0   0692               STR      R2,[SP, #+24]
   \   000000C2   069A               LDR      R2,[SP, #+24]
   \   000000C4   0192               STR      R2,[SP, #+4]
   \   000000C6   0922               MOVS     R2,#+9
   \   000000C8   0092               STR      R2,[SP, #+0]
   \   000000CA   059A               LDR      R2,[SP, #+20]
   \   000000CC   1206               LSLS     R2,R2,#+24
   \   000000CE   120E               LSRS     R2,R2,#+24
   \   000000D0   0892               STR      R2,[SP, #+32]
   \   000000D2   0FAA               ADD      R2,SP,#+60
   \   000000D4   1278               LDRB     R2,[R2, #+0]
   \   000000D6   089B               LDR      R3,[SP, #+32]
   \   000000D8   D21A               SUBS     R2,R2,R3
   \   000000DA   0392               STR      R2,[SP, #+12]
   1046             {
   1047              if ((linia>=minY) && (linia<=maxY))
   \                     ??Label_9:
   \   000000DC   18AB               ADD      R3,SP,#+96
   \   000000DE   1B78               LDRB     R3,[R3, #+0]
   \   000000E0   9942               CMP      R1,R3
   \   000000E2   27D3               BCC      ??Label_10
   \   000000E4   19AA               ADD      R2,SP,#+100
   \   000000E6   1278               LDRB     R2,[R2, #+0]
   \   000000E8   8A42               CMP      R2,R1
   \   000000EA   23D3               BCC      ??Label_10
   1048              {
   1049               kol=(X-clean_offset)/8;
   \   000000EC   039A               LDR      R2,[SP, #+12]
   \   000000EE   9310               ASRS     R3,R2,#+2
   \   000000F0   5B0F               LSRS     R3,R3,#+29
   \   000000F2   9A18               ADDS     R2,R3,R2
   \   000000F4   D210               ASRS     R2,R2,#+3
   \   000000F6   1300               MOVS     R3,R2
   1050               bit=(X-clean_offset)%8;
   \   000000F8   0FAD               ADD      R5,SP,#+60
   \   000000FA   2D78               LDRB     R5,[R5, #+0]
   \   000000FC   059E               LDR      R6,[SP, #+20]
   \   000000FE   AD1B               SUBS     R5,R5,R6
   \   00000100   D200               LSLS     R2,R2,#+3
   \   00000102   AA1A               SUBS     R2,R5,R2
   \   00000104   1206               LSLS     R2,R2,#+24
   \   00000106   120E               LSRS     R2,R2,#+24
   1051                 
   1052                for (int j=0; j<=clean; j++)
   \   00000108   17AD               ADD      R5,SP,#+92
   \   0000010A   2D78               LDRB     R5,[R5, #+0]
   \   0000010C   6D1C               ADDS     R5,R5,#+1
   1053                {
   1054                  LCD_Canvas[kol][linia] &=~(1<<bit);
   \                     ??Label_11:
   \   0000010E   DC01               LSLS     R4,R3,#+7
   \   00000110   019E               LDR      R6,[SP, #+4]
   \   00000112   3419               ADDS     R4,R6,R4
   \   00000114   0494               STR      R4,[SP, #+16]
   \   00000116   2678               LDRB     R6,[R4, #+0]
   \   00000118   0127               MOVS     R7,#+1
   \   0000011A   9740               LSLS     R7,R7,R2
   \   0000011C   BE43               BICS     R6,R6,R7
   \   0000011E   2670               STRB     R6,[R4, #+0]
   1055                  
   1056                  if (bit<7) { bit++;} else {bit=0;  kol++; }
   \   00000120   072A               CMP      R2,#+7
   \   00000122   03D2               BCS      ??Label_12
   \   00000124   521C               ADDS     R2,R2,#+1
   \   00000126   1206               LSLS     R2,R2,#+24
   \   00000128   120E               LSRS     R2,R2,#+24
   \   0000012A   01E0               B        ??Label_13
   \                     ??Label_12:
   \   0000012C   0022               MOVS     R2,#+0
   \   0000012E   5B1C               ADDS     R3,R3,#+1
   1057                }   
   \                     ??Label_13:
   \   00000130   6D1E               SUBS     R5,R5,#+1
   \   00000132   ECD1               BNE      ??Label_11
   1058          
   1059          
   1060             }
   1061              linia++;
   \                     ??Label_10:
   \   00000134   491C               ADDS     R1,R1,#+1
   \   00000136   0906               LSLS     R1,R1,#+24
   \   00000138   090E               LSRS     R1,R1,#+24
   1062            }
   \   0000013A   019A               LDR      R2,[SP, #+4]
   \   0000013C   521C               ADDS     R2,R2,#+1
   \   0000013E   0192               STR      R2,[SP, #+4]
   \   00000140   009A               LDR      R2,[SP, #+0]
   \   00000142   521E               SUBS     R2,R2,#+1
   \   00000144   0092               STR      R2,[SP, #+0]
   \   00000146   C9D1               BNE      ??Label_9
   1063            //------------------------------------------------------
   1064              
   1065            if (alig==1)
   \   00000148   0EA9               ADD      R1,SP,#+56
   \   0000014A   0978               LDRB     R1,[R1, #+0]
   \   0000014C   0129               CMP      R1,#+1
   \   0000014E   05D1               BNE      ??Label_14
   1066            {  
   1067              X-=dlugosc;
   \   00000150   0FA9               ADD      R1,SP,#+60
   \   00000152   0FAA               ADD      R2,SP,#+60
   \   00000154   1278               LDRB     R2,[R2, #+0]
   \   00000156   079B               LDR      R3,[SP, #+28]
   \   00000158   D21A               SUBS     R2,R2,R3
   \   0000015A   19E0               B.N      ??Label_15
   1068            }  
   1069           
   1070            if (alig==2)
   \                     ??Label_14:
   \   0000015C   0EA9               ADD      R1,SP,#+56
   \   0000015E   0978               LDRB     R1,[R1, #+0]
   \   00000160   0229               CMP      R1,#+2
   \   00000162   16D1               BNE      ??Label_16
   \   00000164   17A9               ADD      R1,SP,#+92
   \   00000166   0978               LDRB     R1,[R1, #+0]
   \   00000168   079A               LDR      R2,[SP, #+28]
   \   0000016A   1206               LSLS     R2,R2,#+24
   \   0000016C   120E               LSRS     R2,R2,#+24
   \   0000016E   891A               SUBS     R1,R1,R2
   \   00000170   CA0F               LSRS     R2,R1,#+31
   \   00000172   5218               ADDS     R2,R2,R1
   \   00000174   5210               ASRS     R2,R2,#+1
   \   00000176   0FAB               ADD      R3,SP,#+60
   \   00000178   0FAC               ADD      R4,SP,#+60
   \   0000017A   2478               LDRB     R4,[R4, #+0]
   \   0000017C   A418               ADDS     R4,R4,R2
   \   0000017E   1C70               STRB     R4,[R3, #+0]
   1071            {  
   1072              X+=(clean-dlugosc)/2;
   1073              
   1074              if (((clean-dlugosc)%2)>0) X++;
   \   00000180   5200               LSLS     R2,R2,#+1
   \   00000182   8A1A               SUBS     R2,R1,R2
   \   00000184   012A               CMP      R2,#+1
   \   00000186   04DB               BLT      ??Label_16
   \   00000188   0FA9               ADD      R1,SP,#+60
   \   0000018A   0FAA               ADD      R2,SP,#+60
   \   0000018C   1278               LDRB     R2,[R2, #+0]
   \   0000018E   521C               ADDS     R2,R2,#+1
   \                     ??Label_15:
   \   00000190   0A70               STRB     R2,[R1, #+0]
   1075            }  
   1076          
   1077              
   1078            //wklejanie napisu do LCD_Canvas ----------------------
   1079            linia=Y;
   \                     ??Label_16:
   \   00000192   1099               LDR      R1,[SP, #+64]
   \   00000194   0906               LSLS     R1,R1,#+24
   \   00000196   090E               LSRS     R1,R1,#+24
   \   00000198   0291               STR      R1,[SP, #+8]
   1080            for (int i=1; i<=9; i++)
   \   0000019A   0699               LDR      R1,[SP, #+24]
   \   0000019C   0191               STR      R1,[SP, #+4]
   \   0000019E   7049               LDR      R1,??Label_3+0x4  ;; Arial_7
   \   000001A0   714A               LDR      R2,??Label_3+0xC  ;; 0xfffffed5
   \   000001A2   8A18               ADDS     R2,R1,R2
   \   000001A4   0392               STR      R2,[SP, #+12]
   \   000001A6   0922               MOVS     R2,#+9
   \   000001A8   0492               STR      R2,[SP, #+16]
   \   000001AA   0FAA               ADD      R2,SP,#+60
   \   000001AC   1278               LDRB     R2,[R2, #+0]
   \   000001AE   D308               LSRS     R3,R2,#+3
   \   000001B0   DB00               LSLS     R3,R3,#+3
   \   000001B2   D21A               SUBS     R2,R2,R3
   \   000001B4   1206               LSLS     R2,R2,#+24
   \   000001B6   120E               LSRS     R2,R2,#+24
   \   000001B8   0A92               STR      R2,[SP, #+40]
   \   000001BA   0200               MOVS     R2,R0
   \   000001BC   521E               SUBS     R2,R2,#+1
   \   000001BE   0B92               STR      R2,[SP, #+44]
   \   000001C0   664A               LDR      R2,??Label_3     ;; 0xfffffed4
   \   000001C2   8918               ADDS     R1,R1,R2
   \   000001C4   0C91               STR      R1,[SP, #+48]
   1081             {
   1082              if ((linia>=minY) && (linia<=maxY))
   \                     ??Label_17:
   \   000001C6   0299               LDR      R1,[SP, #+8]
   \   000001C8   18AA               ADD      R2,SP,#+96
   \   000001CA   1278               LDRB     R2,[R2, #+0]
   \   000001CC   0906               LSLS     R1,R1,#+24
   \   000001CE   090E               LSRS     R1,R1,#+24
   \   000001D0   9142               CMP      R1,R2
   \   000001D2   56D3               BCC      ??Label_18
   \   000001D4   19A9               ADD      R1,SP,#+100
   \   000001D6   0978               LDRB     R1,[R1, #+0]
   \   000001D8   029A               LDR      R2,[SP, #+8]
   \   000001DA   1206               LSLS     R2,R2,#+24
   \   000001DC   120E               LSRS     R2,R2,#+24
   \   000001DE   9142               CMP      R1,R2
   \   000001E0   4FD3               BCC      ??Label_18
   1083              {
   1084               kol=X/8;
   \   000001E2   0FA9               ADD      R1,SP,#+60
   \   000001E4   0978               LDRB     R1,[R1, #+0]
   \   000001E6   CB08               LSRS     R3,R1,#+3
   1085               bit=X%8;
   \   000001E8   0A9A               LDR      R2,[SP, #+40]
   1086              for (int k=0; k<=(ill_znak-1); k++)
   \   000001EA   0B99               LDR      R1,[SP, #+44]
   \   000001EC   0029               CMP      R1,#+0
   \   000001EE   48D4               BMI      ??Label_18
   \   000001F0   0D99               LDR      R1,[SP, #+52]
   \   000001F2   0091               STR      R1,[SP, #+0]
   \   000001F4   0100               MOVS     R1,R0
   1087              {     
   1088                
   1089                if ((Vstring[k]>=offset) &&  (Vstring[k]!=32))
   \                     ??Label_19:
   \   000001F6   009C               LDR      R4,[SP, #+0]
   \   000001F8   2478               LDRB     R4,[R4, #+0]
   \   000001FA   1E2C               CMP      R4,#+30
   \   000001FC   24D3               BCC      ??Label_20
   \   000001FE   202C               CMP      R4,#+32
   \   00000200   22D0               BEQ      ??Label_20
   1090                {
   1091                  for (int j=0; j<=Arial_7[Vstring[k]-offset][0]; j++)
   \   00000202   0024               MOVS     R4,#+0
   \   00000204   02E0               B        ??Label_21
   1092                  {
   1093                      LCD_Canvas[kol][linia] |= (((Arial_7[Vstring[k]-offset][i])>>j)&0x1)<<bit;
   1094                      if (bit<7) { bit++;} else {bit=0;  kol++; } 
   \                     ??Label_22:
   \   00000206   0022               MOVS     R2,#+0
   \   00000208   5B1C               ADDS     R3,R3,#+1
   \                     ??Label_23:
   \   0000020A   641C               ADDS     R4,R4,#+1
   \                     ??Label_21:
   \   0000020C   009D               LDR      R5,[SP, #+0]
   \   0000020E   2F78               LDRB     R7,[R5, #+0]
   \   00000210   0A25               MOVS     R5,#+10
   \   00000212   6F43               MULS     R7,R5,R7
   \   00000214   0C9D               LDR      R5,[SP, #+48]
   \   00000216   ED5D               LDRB     R5,[R5, R7]
   \   00000218   A542               CMP      R5,R4
   \   0000021A   2DDB               BLT      ??Label_24
   \   0000021C   DD01               LSLS     R5,R3,#+7
   \   0000021E   019E               LDR      R6,[SP, #+4]
   \   00000220   7519               ADDS     R5,R6,R5
   \   00000222   2E78               LDRB     R6,[R5, #+0]
   \   00000224   B446               MOV      R12,R6
   \   00000226   039E               LDR      R6,[SP, #+12]
   \   00000228   F75D               LDRB     R7,[R6, R7]
   \   0000022A   2741               ASRS     R7,R7,R4
   \   0000022C   0126               MOVS     R6,#+1
   \   0000022E   3E40               ANDS     R6,R6,R7
   \   00000230   9640               LSLS     R6,R6,R2
   \   00000232   6746               MOV      R7,R12
   \   00000234   3E43               ORRS     R6,R6,R7
   \   00000236   2E70               STRB     R6,[R5, #+0]
   \   00000238   1506               LSLS     R5,R2,#+24
   \   0000023A   2D0E               LSRS     R5,R5,#+24
   \   0000023C   072D               CMP      R5,#+7
   \   0000023E   E2D2               BCS      ??Label_22
   \   00000240   521C               ADDS     R2,R2,#+1
   \   00000242   1206               LSLS     R2,R2,#+24
   \   00000244   120E               LSRS     R2,R2,#+24
   \   00000246   E0E7               B        ??Label_23
   1095                  }
   1096                }
   1097                else 
   1098                {
   1099                     if (bit<7) { bit++;} else {bit=0;  kol++; } 
   \                     ??Label_20:
   \   00000248   1406               LSLS     R4,R2,#+24
   \   0000024A   240E               LSRS     R4,R4,#+24
   \   0000024C   072C               CMP      R4,#+7
   \   0000024E   0AD2               BCS      ??Label_25
   \   00000250   521C               ADDS     R2,R2,#+1
   \   00000252   1206               LSLS     R2,R2,#+24
   \   00000254   120E               LSRS     R2,R2,#+24
   1100                     if (bit<7) { bit++;} else {bit=0;  kol++; } 
   \   00000256   072A               CMP      R2,#+7
   \   00000258   07D3               BCC      ??Label_26
   \   0000025A   0022               MOVS     R2,#+0
   \   0000025C   5B1C               ADDS     R3,R3,#+1
   1101                     if (bit<7) { bit++;} else {bit=0;  kol++; } 
   \                     ??Label_27:
   \   0000025E   521C               ADDS     R2,R2,#+1
   \   00000260   1206               LSLS     R2,R2,#+24
   \   00000262   120E               LSRS     R2,R2,#+24
   \   00000264   08E0               B        ??Label_24
   \                     ??Label_25:
   \   00000266   0022               MOVS     R2,#+0
   \   00000268   5B1C               ADDS     R3,R3,#+1
   \                     ??Label_26:
   \   0000026A   521C               ADDS     R2,R2,#+1
   \   0000026C   1206               LSLS     R2,R2,#+24
   \   0000026E   120E               LSRS     R2,R2,#+24
   \   00000270   072A               CMP      R2,#+7
   \   00000272   F4D3               BCC      ??Label_27
   \   00000274   0022               MOVS     R2,#+0
   \   00000276   5B1C               ADDS     R3,R3,#+1
   1102          
   1103                }
   1104                
   1105                
   1106              }
   \                     ??Label_24:
   \   00000278   009C               LDR      R4,[SP, #+0]
   \   0000027A   641C               ADDS     R4,R4,#+1
   \   0000027C   0094               STR      R4,[SP, #+0]
   \   0000027E   491E               SUBS     R1,R1,#+1
   \   00000280   B9D1               BNE      ??Label_19
   1107             }
   1108              linia++;
   \                     ??Label_18:
   \   00000282   0299               LDR      R1,[SP, #+8]
   \   00000284   491C               ADDS     R1,R1,#+1
   \   00000286   0906               LSLS     R1,R1,#+24
   \   00000288   090E               LSRS     R1,R1,#+24
   \   0000028A   0291               STR      R1,[SP, #+8]
   1109            }
   \   0000028C   0399               LDR      R1,[SP, #+12]
   \   0000028E   491C               ADDS     R1,R1,#+1
   \   00000290   0391               STR      R1,[SP, #+12]
   \   00000292   0199               LDR      R1,[SP, #+4]
   \   00000294   491C               ADDS     R1,R1,#+1
   \   00000296   0191               STR      R1,[SP, #+4]
   \   00000298   0499               LDR      R1,[SP, #+16]
   \   0000029A   491E               SUBS     R1,R1,#+1
   \   0000029C   0491               STR      R1,[SP, #+16]
   \   0000029E   92D1               BNE      ??Label_17
   1110            //------------------------------------------------------
   1111              
   1112          
   1113            //negatyw obszaru ----------------------
   1114           if (negatyw)
   \   000002A0   1AA8               ADD      R0,SP,#+104
   \   000002A2   0078               LDRB     R0,[R0, #+0]
   \   000002A4   0028               CMP      R0,#+0
   \   000002A6   51D0               BEQ      ??Label_28
   1115           {
   1116            linia=Y;
   \   000002A8   1098               LDR      R0,[SP, #+64]
   \   000002AA   0006               LSLS     R0,R0,#+24
   \   000002AC   000E               LSRS     R0,R0,#+24
   \   000002AE   0290               STR      R0,[SP, #+8]
   1117            for (int i=1; i<=9; i++)
   \   000002B0   0698               LDR      R0,[SP, #+24]
   \   000002B2   0090               STR      R0,[SP, #+0]
   \   000002B4   0920               MOVS     R0,#+9
   \   000002B6   0999               LDR      R1,[SP, #+36]
   \   000002B8   0906               LSLS     R1,R1,#+24
   \   000002BA   090E               LSRS     R1,R1,#+24
   \   000002BC   089A               LDR      R2,[SP, #+32]
   \   000002BE   891A               SUBS     R1,R1,R2
   \   000002C0   0191               STR      R1,[SP, #+4]
   1118             {
   1119              if ((linia>=minY) && (linia<=maxY))
   \                     ??Label_29:
   \   000002C2   0299               LDR      R1,[SP, #+8]
   \   000002C4   18AA               ADD      R2,SP,#+96
   \   000002C6   1278               LDRB     R2,[R2, #+0]
   \   000002C8   0906               LSLS     R1,R1,#+24
   \   000002CA   090E               LSRS     R1,R1,#+24
   \   000002CC   9142               CMP      R1,R2
   \   000002CE   33D3               BCC      ??Label_30
   \   000002D0   19A9               ADD      R1,SP,#+100
   \   000002D2   0978               LDRB     R1,[R1, #+0]
   \   000002D4   029A               LDR      R2,[SP, #+8]
   \   000002D6   1206               LSLS     R2,R2,#+24
   \   000002D8   120E               LSRS     R2,R2,#+24
   \   000002DA   9142               CMP      R1,R2
   \   000002DC   2CD3               BCC      ??Label_30
   1120              {
   1121               
   1122               kol=(pocz_X-clean_offset)/8;
   \   000002DE   0199               LDR      R1,[SP, #+4]
   \   000002E0   8A10               ASRS     R2,R1,#+2
   \   000002E2   520F               LSRS     R2,R2,#+29
   \   000002E4   5118               ADDS     R1,R2,R1
   \   000002E6   CA10               ASRS     R2,R1,#+3
   \   000002E8   1300               MOVS     R3,R2
   1123               bit=(pocz_X-clean_offset)%8;
   \   000002EA   099C               LDR      R4,[SP, #+36]
   \   000002EC   059D               LDR      R5,[SP, #+20]
   \   000002EE   641B               SUBS     R4,R4,R5
   \   000002F0   D200               LSLS     R2,R2,#+3
   \   000002F2   A21A               SUBS     R2,R4,R2
   \   000002F4   1206               LSLS     R2,R2,#+24
   \   000002F6   120E               LSRS     R2,R2,#+24
   1124                 
   1125                for (int j=0; j<=clean; j++)
   \   000002F8   17AC               ADD      R4,SP,#+92
   \   000002FA   2478               LDRB     R4,[R4, #+0]
   \   000002FC   641C               ADDS     R4,R4,#+1
   1126                {
   1127                 
   1128                  if (((LCD_Canvas[kol][linia]>>bit)&0x1)>0)
   \                     ??Label_31:
   \   000002FE   D901               LSLS     R1,R3,#+7
   \   00000300   009D               LDR      R5,[SP, #+0]
   \   00000302   6D18               ADDS     R5,R5,R1
   \   00000304   2978               LDRB     R1,[R5, #+0]
   \   00000306   0E00               MOVS     R6,R1
   \   00000308   1641               ASRS     R6,R6,R2
   \   0000030A   0127               MOVS     R7,#+1
   \   0000030C   3740               ANDS     R7,R7,R6
   \   0000030E   012F               CMP      R7,#+1
   \   00000310   04DB               BLT      ??Label_32
   1129                  {
   1130                     LCD_Canvas[kol][linia] &=~(1<<bit);   
   \   00000312   0126               MOVS     R6,#+1
   \   00000314   9640               LSLS     R6,R6,R2
   \   00000316   B143               BICS     R1,R1,R6
   \   00000318   2970               STRB     R1,[R5, #+0]
   \   0000031A   03E0               B        ??Label_33
   1131                    
   1132                  }
   1133                  else
   1134                  {
   1135                    LCD_Canvas[kol][linia] |=(1<<bit); 
   \                     ??Label_32:
   \   0000031C   0126               MOVS     R6,#+1
   \   0000031E   9640               LSLS     R6,R6,R2
   \   00000320   0E43               ORRS     R6,R6,R1
   \   00000322   2E70               STRB     R6,[R5, #+0]
   1136                    
   1137                  }
   1138                  
   1139                  
   1140                  
   1141                  if (bit<7) { bit++;} else {bit=0;  kol++; }
   \                     ??Label_33:
   \   00000324   072A               CMP      R2,#+7
   \   00000326   03D2               BCS      ??Label_34
   \   00000328   521C               ADDS     R2,R2,#+1
   \   0000032A   1206               LSLS     R2,R2,#+24
   \   0000032C   120E               LSRS     R2,R2,#+24
   \   0000032E   01E0               B        ??Label_35
   \                     ??Label_34:
   \   00000330   0022               MOVS     R2,#+0
   \   00000332   5B1C               ADDS     R3,R3,#+1
   1142                }   
   \                     ??Label_35:
   \   00000334   641E               SUBS     R4,R4,#+1
   \   00000336   E2D1               BNE      ??Label_31
   1143          
   1144          
   1145             }
   1146              linia++;
   \                     ??Label_30:
   \   00000338   0299               LDR      R1,[SP, #+8]
   \   0000033A   491C               ADDS     R1,R1,#+1
   \   0000033C   0906               LSLS     R1,R1,#+24
   \   0000033E   090E               LSRS     R1,R1,#+24
   \   00000340   0291               STR      R1,[SP, #+8]
   1147            }
   \   00000342   0099               LDR      R1,[SP, #+0]
   \   00000344   491C               ADDS     R1,R1,#+1
   \   00000346   0091               STR      R1,[SP, #+0]
   \   00000348   401E               SUBS     R0,R0,#+1
   \   0000034A   BAD1               BNE      ??Label_29
   1148            }
   1149            //------------------------------------------------------
   1150             
   1151           return dlugosc;
   \                     ??Label_28:
   \   0000034C   0798               LDR      R0,[SP, #+28]
   \   0000034E   0006               LSLS     R0,R0,#+24
   \   00000350   000E               LSRS     R0,R0,#+24
   \   00000352   11B0               ADD      SP,SP,#+68
   \   00000354   F0BC               POP      {R4-R7}
   \   00000356   02BC               POP      {R1}
   \   00000358   0847               BX       R1               ;; return
   \   0000035A   C046               Nop      
   \                     ??Label_3:
   \   0000035C   D4FEFFFF           DC32     0xfffffed4
   \   00000360   ........           DC32     Arial_7
   \   00000364   ........           DC32     LCD_Canvas
   \   00000368   D5FEFFFF           DC32     0xfffffed5
   1152            
   1153          }//_______________________ Koniec funkcji Label __________________________
   1154          
   1155          
   1156          
   1157          
   1158          
   1159          
   1160          
   1161          
   1162          //*-----------------------------------------------------------------------------
   1163          //* Nazwa funkcji :    LabelLength
   1164          //* Funkcja wrysowania napisu
   1165          //*-----------------------------------------------------------------------------
   1166          //*  Vstring    - wskaŸnik do tablicy znaków
   1167          //*  maxChar    - maksymalna d³ugoœæ napisu w znakach 
   1168          //*  funkcja zwraca d³ugoœæ napisu w pikselach
   1169          //*-----------------------------------------------------------------------------
   1170          

   \                                 In section Debug.txt, align 4, keep-with-next
   1171          char LabelLength (char *Vstring, char maxChar)
   1172          { 
   \                     LabelLength:
   \   00000000   70B5               PUSH     {R4-R6,LR}
   1173            //char offset=43;
   1174            char offset=30;
   1175            
   1176            
   1177            int kol=0;
                       ^
Warning[Pe177]: variable "kol" was declared but never referenced
   1178            char linia=0;
                        ^
Warning[Pe177]: variable "linia" was declared but never referenced
   1179            char bit=0;
                        ^
Warning[Pe177]: variable "bit" was declared but never referenced
   1180            char ill_znak=0;
   \   00000002   0023               MOVS     R3,#+0
   1181          
   1182             
   1183            char dlugosc=0;
   \   00000004   0024               MOVS     R4,#+0
   1184            char clean_offset=0;
                        ^
Warning[Pe177]: variable "clean_offset" was declared but never referenced
   \   00000006   0E4A               LDR      R2,??LabelLength_0  ;; Arial_7 - 300
   1185            
   1186           
   1187              do {   
   1188                 
   1189                 
   1190                 if (Vstring[ill_znak]>=offset)  
   \                     ??LabelLength_1:
   \   00000008   C518               ADDS     R5,R0,R3
   \   0000000A   2E78               LDRB     R6,[R5, #+0]
   \   0000000C   1E2E               CMP      R6,#+30
   \   0000000E   05D3               BCC      ??LabelLength_2
   1191                  {
   1192                    dlugosc += Arial_7[Vstring[ill_znak]-offset][0];
   \   00000010   3500               MOVS     R5,R6
   \   00000012   0A26               MOVS     R6,#+10
   \   00000014   7543               MULS     R5,R6,R5
   \   00000016   555D               LDRB     R5,[R2, R5]
   \   00000018   6419               ADDS     R4,R4,R5
   \   0000001A   00E0               B.N      ??LabelLength_3
   1193                  }
   1194                 else
   1195                 {
   1196                   dlugosc++;
   1197                   dlugosc++;
   1198                   dlugosc++;
   \                     ??LabelLength_2:
   \   0000001C   E41C               ADDS     R4,R4,#+3
   \                     ??LabelLength_3:
   \   0000001E   2406               LSLS     R4,R4,#+24
   \   00000020   240E               LSRS     R4,R4,#+24
   1199                 }
   1200                 
   1201                 
   1202                 dlugosc++;
   \   00000022   641C               ADDS     R4,R4,#+1
   \   00000024   2406               LSLS     R4,R4,#+24
   \   00000026   240E               LSRS     R4,R4,#+24
   1203                 ill_znak++;
   \   00000028   5B1C               ADDS     R3,R3,#+1
   \   0000002A   1B06               LSLS     R3,R3,#+24
   \   0000002C   1B0E               LSRS     R3,R3,#+24
   1204               } while ((Vstring[ill_znak]) && (ill_znak<maxChar) && (dlugosc<=64));
   \   0000002E   C55C               LDRB     R5,[R0, R3]
   \   00000030   002D               CMP      R5,#+0
   \   00000032   03D0               BEQ      ??LabelLength_4
   \   00000034   8B42               CMP      R3,R1
   \   00000036   01D2               BCS      ??LabelLength_4
   \   00000038   412C               CMP      R4,#+65
   \   0000003A   E5D3               BCC      ??LabelLength_1
   1205              
   1206            
   1207              
   1208            dlugosc--;
   1209            
   1210             
   1211           return dlugosc;
   \                     ??LabelLength_4:
   \   0000003C   601E               SUBS     R0,R4,#+1
   \   0000003E   ....               B.N      ?Subroutine2
   \                     ??LabelLength_0:
   \   00000040   ........           DC32     Arial_7 - 300
   1212            
   1213          }//_______________________ Koniec funkcji LabelLength __________________________

   \                                 In section Debug.txt, align 4, keep-with-next
   \                     ?Subroutine2:
   \   00000000   0006               LSLS     R0,R0,#+24
   \   00000002   000E               LSRS     R0,R0,#+24
   \   00000004   70BC               POP      {R4-R6}
   \   00000006   02BC               POP      {R1}
   \   00000008   0847               BX       R1               ;; return
   1214          
   1215          
   1216          
   1217          
   1218          
   1219          
   1220          
   1221          
   1222          //*-----------------------------------------------------------------------------
   1223          //* Nazwa funkcji :    Label
   1224          //* Funkcja wrysowania napisu
   1225          //*-----------------------------------------------------------------------------
   1226          //*  Vstring    - wskaŸnik do tablicy znaków
   1227          //*  alig       - wyrównanie -0=do lewej, 1=do prawej, 2=wyœrodkowany
   1228          //*  X          - wspó³¿êdna X zale¿na od wyrównania 
   1229          //*  Y          - wspó³¿êdna Y do³u napisu
   1230          //*  maxChar    - maksymalna d³ugoœæ napisu w znakach 
   1231          //*  clean      - d³ugoœæ (w pikselach) obszaru czyszczenia t³a 
   1232          //*  minY, maxY - obszar roboczy
   1233          //*  negatyw    - 0-brak, 1-negatyw
   1234          //*-----------------------------------------------------------------------------
   1235          

   \                                 In section Debug.txt, align 4, keep-with-next
   1236          void Label20 (char *Vstring, char alig, char X, int Y, char maxChar, char clean, char minY, char maxY, char negatyw) 
   1237          { 
   \                     Label20:
   \   00000000   FFB5               PUSH     {R0-R7,LR}
   \   00000002   8DB0               SUB      SP,SP,#+52
   \   00000004   16A8               ADD      R0,SP,#+88
   \   00000006   0178               LDRB     R1,[R0, #+0]
   \   00000008   0020               MOVS     R0,#+0
   1238            //char offset=43;
   1239            char offset=30;
   1240            
   1241            
   1242            int kol=0;
   1243            char linia=0;
   1244            char bit=0;
   1245            char ill_znak=0;
   1246            
   1247            char pocz_X=X;
   \   0000000A   0FAA               ADD      R2,SP,#+60
   \   0000000C   1278               LDRB     R2,[R2, #+0]
   \   0000000E   0992               STR      R2,[SP, #+36]
   1248            
   1249            kol=X/8;
   1250            bit=X%8;
   1251            linia=Y;
   1252             
   1253            char dlugosc=0;
   \   00000010   0022               MOVS     R2,#+0
   1254            char clean_offset=0;
   \   00000012   0690               STR      R0,[SP, #+24]
   1255            
   1256            
   1257          
   1258            
   1259            
   1260            
   1261            if (alig==1)
   \   00000014   0EAB               ADD      R3,SP,#+56
   \   00000016   1B78               LDRB     R3,[R3, #+0]
   \   00000018   012B               CMP      R3,#+1
   \   0000001A   24D1               BNE      ??Label20_0
   1262            {
   1263              do {       
   1264                 
   1265                 if (Vstring[ill_znak]>=offset)  
   \                     ??Label20_1:
   \   0000001C   0D9C               LDR      R4,[SP, #+52]
   \   0000001E   2418               ADDS     R4,R4,R0
   \   00000020   2378               LDRB     R3,[R4, #+0]
   \   00000022   1E2B               CMP      R3,#+30
   \   00000024   08D3               BCC      ??Label20_2
   1266                  {
   1267                    dlugosc += Arial_18[Vstring[ill_znak]-offset][0];
   \   00000026   CB4B               LDR      R3,??Label20_3   ;; 0xfffff9e8
   \   00000028   2478               LDRB     R4,[R4, #+0]
   \   0000002A   3425               MOVS     R5,#+52
   \   0000002C   6C43               MULS     R4,R5,R4
   \   0000002E   CA4D               LDR      R5,??Label20_3+0x4  ;; Arial_18
   \   00000030   2C19               ADDS     R4,R5,R4
   \   00000032   E35A               LDRH     R3,[R4, R3]
   \   00000034   D218               ADDS     R2,R2,R3
   \   00000036   00E0               B.N      ??Label20_4
   1268                  }
   1269                 else
   1270                 {
   1271                   dlugosc++;
   1272                   dlugosc++;
   1273                   dlugosc++;
   \                     ??Label20_2:
   \   00000038   D21C               ADDS     R2,R2,#+3
   \                     ??Label20_4:
   \   0000003A   1206               LSLS     R2,R2,#+24
   \   0000003C   120E               LSRS     R2,R2,#+24
   1274                 }
   1275                 dlugosc++;
   \   0000003E   521C               ADDS     R2,R2,#+1
   \   00000040   1206               LSLS     R2,R2,#+24
   \   00000042   120E               LSRS     R2,R2,#+24
   1276                 ill_znak++;
   \   00000044   401C               ADDS     R0,R0,#+1
   \   00000046   0006               LSLS     R0,R0,#+24
   \   00000048   000E               LSRS     R0,R0,#+24
   1277                } while ((Vstring[ill_znak]) && (ill_znak<maxChar) && (X-dlugosc>=0) );
   \   0000004A   0D9C               LDR      R4,[SP, #+52]
   \   0000004C   235C               LDRB     R3,[R4, R0]
   \   0000004E   002B               CMP      R3,#+0
   \   00000050   05D0               BEQ      ??Label20_5
   \   00000052   8842               CMP      R0,R1
   \   00000054   03D2               BCS      ??Label20_5
   \   00000056   0FAB               ADD      R3,SP,#+60
   \   00000058   1B78               LDRB     R3,[R3, #+0]
   \   0000005A   9B1A               SUBS     R3,R3,R2
   \   0000005C   DED5               BPL      ??Label20_1
   1278           
   1279              clean_offset=clean;
   \                     ??Label20_5:
   \   0000005E   17A9               ADD      R1,SP,#+92
   \   00000060   0978               LDRB     R1,[R1, #+0]
   \   00000062   0691               STR      R1,[SP, #+24]
   \   00000064   23E0               B        ??Label20_6
   1280            }
   1281            else
   1282            {
   1283              do {   
   1284                 
   1285                 
   1286                 if (Vstring[ill_znak]>=offset)  
   \                     ??Label20_0:
   \   00000066   0D9C               LDR      R4,[SP, #+52]
   \   00000068   2418               ADDS     R4,R4,R0
   \   0000006A   2378               LDRB     R3,[R4, #+0]
   \   0000006C   1E2B               CMP      R3,#+30
   \   0000006E   08D3               BCC      ??Label20_7
   1287                  {
   1288                    dlugosc += Arial_18[Vstring[ill_znak]-offset][0];
   \   00000070   B84B               LDR      R3,??Label20_3   ;; 0xfffff9e8
   \   00000072   2478               LDRB     R4,[R4, #+0]
   \   00000074   3425               MOVS     R5,#+52
   \   00000076   6C43               MULS     R4,R5,R4
   \   00000078   B74D               LDR      R5,??Label20_3+0x4  ;; Arial_18
   \   0000007A   2C19               ADDS     R4,R5,R4
   \   0000007C   E35A               LDRH     R3,[R4, R3]
   \   0000007E   D218               ADDS     R2,R2,R3
   \   00000080   00E0               B.N      ??Label20_8
   1289                  }
   1290                 else
   1291                 {
   1292                   dlugosc++;
   1293                   dlugosc++;
   1294                   dlugosc++;
   \                     ??Label20_7:
   \   00000082   D21C               ADDS     R2,R2,#+3
   \                     ??Label20_8:
   \   00000084   1206               LSLS     R2,R2,#+24
   \   00000086   120E               LSRS     R2,R2,#+24
   1295                 }
   1296                 
   1297                 
   1298                 dlugosc++;
   \   00000088   521C               ADDS     R2,R2,#+1
   \   0000008A   1206               LSLS     R2,R2,#+24
   \   0000008C   120E               LSRS     R2,R2,#+24
   1299                 ill_znak++;
   \   0000008E   401C               ADDS     R0,R0,#+1
   \   00000090   0006               LSLS     R0,R0,#+24
   \   00000092   000E               LSRS     R0,R0,#+24
   1300               } while ((Vstring[ill_znak]) && (ill_znak<maxChar) && (X+dlugosc<=64));
   \   00000094   0D9C               LDR      R4,[SP, #+52]
   \   00000096   235C               LDRB     R3,[R4, R0]
   \   00000098   002B               CMP      R3,#+0
   \   0000009A   08D0               BEQ      ??Label20_6
   \   0000009C   8842               CMP      R0,R1
   \   0000009E   06D2               BCS      ??Label20_6
   \   000000A0   0FAB               ADD      R3,SP,#+60
   \   000000A2   1B78               LDRB     R3,[R3, #+0]
   \   000000A4   9B18               ADDS     R3,R3,R2
   \   000000A6   1B04               LSLS     R3,R3,#+16
   \   000000A8   1B0C               LSRS     R3,R3,#+16
   \   000000AA   412B               CMP      R3,#+65
   \   000000AC   DBD3               BCC      ??Label20_0
   1301              
   1302            }
   1303              
   1304            dlugosc--;
   \                     ??Label20_6:
   \   000000AE   511E               SUBS     R1,R2,#+1
   \   000000B0   0906               LSLS     R1,R1,#+24
   \   000000B2   090E               LSRS     R1,R1,#+24
   \   000000B4   0391               STR      R1,[SP, #+12]
   \   000000B6   1099               LDR      R1,[SP, #+64]
   \   000000B8   0906               LSLS     R1,R1,#+24
   \   000000BA   090E               LSRS     R1,R1,#+24
   1305            
   1306             //Czyszczenie obszaru ----------------------
   1307            linia=Y;
   1308            for (int i=1; i<=25; i++)
   \   000000BC   A74A               LDR      R2,??Label20_3+0x8  ;; LCD_Canvas
   \   000000BE   5218               ADDS     R2,R2,R1
   \   000000C0   0792               STR      R2,[SP, #+28]
   \   000000C2   079A               LDR      R2,[SP, #+28]
   \   000000C4   0192               STR      R2,[SP, #+4]
   \   000000C6   1922               MOVS     R2,#+25
   \   000000C8   0092               STR      R2,[SP, #+0]
   \   000000CA   069A               LDR      R2,[SP, #+24]
   \   000000CC   1206               LSLS     R2,R2,#+24
   \   000000CE   120E               LSRS     R2,R2,#+24
   \   000000D0   0892               STR      R2,[SP, #+32]
   \   000000D2   0FAA               ADD      R2,SP,#+60
   \   000000D4   1278               LDRB     R2,[R2, #+0]
   \   000000D6   089B               LDR      R3,[SP, #+32]
   \   000000D8   D21A               SUBS     R2,R2,R3
   \   000000DA   0492               STR      R2,[SP, #+16]
   1309             {
   1310              if ((linia>=minY) && (linia<=maxY))
   \                     ??Label20_9:
   \   000000DC   18AB               ADD      R3,SP,#+96
   \   000000DE   1B78               LDRB     R3,[R3, #+0]
   \   000000E0   9942               CMP      R1,R3
   \   000000E2   27D3               BCC      ??Label20_10
   \   000000E4   19AA               ADD      R2,SP,#+100
   \   000000E6   1278               LDRB     R2,[R2, #+0]
   \   000000E8   8A42               CMP      R2,R1
   \   000000EA   23D3               BCC      ??Label20_10
   1311              {
   1312               kol=(X-clean_offset)/8;
   \   000000EC   049A               LDR      R2,[SP, #+16]
   \   000000EE   9310               ASRS     R3,R2,#+2
   \   000000F0   5B0F               LSRS     R3,R3,#+29
   \   000000F2   9A18               ADDS     R2,R3,R2
   \   000000F4   D210               ASRS     R2,R2,#+3
   \   000000F6   1300               MOVS     R3,R2
   1313               bit=(X-clean_offset)%8;
   \   000000F8   0FAD               ADD      R5,SP,#+60
   \   000000FA   2D78               LDRB     R5,[R5, #+0]
   \   000000FC   069E               LDR      R6,[SP, #+24]
   \   000000FE   AD1B               SUBS     R5,R5,R6
   \   00000100   D200               LSLS     R2,R2,#+3
   \   00000102   AA1A               SUBS     R2,R5,R2
   \   00000104   1206               LSLS     R2,R2,#+24
   \   00000106   120E               LSRS     R2,R2,#+24
   1314                 
   1315                for (int j=0; j<=clean; j++)
   \   00000108   17AD               ADD      R5,SP,#+92
   \   0000010A   2D78               LDRB     R5,[R5, #+0]
   \   0000010C   6D1C               ADDS     R5,R5,#+1
   1316                {
   1317                  LCD_Canvas[kol][linia] &=~(1<<bit);
   \                     ??Label20_11:
   \   0000010E   DC01               LSLS     R4,R3,#+7
   \   00000110   019E               LDR      R6,[SP, #+4]
   \   00000112   3419               ADDS     R4,R6,R4
   \   00000114   0594               STR      R4,[SP, #+20]
   \   00000116   2678               LDRB     R6,[R4, #+0]
   \   00000118   0127               MOVS     R7,#+1
   \   0000011A   9740               LSLS     R7,R7,R2
   \   0000011C   BE43               BICS     R6,R6,R7
   \   0000011E   2670               STRB     R6,[R4, #+0]
   1318                  
   1319                  if (bit<7) { bit++;} else {bit=0;  kol++; }
   \   00000120   072A               CMP      R2,#+7
   \   00000122   03D2               BCS      ??Label20_12
   \   00000124   521C               ADDS     R2,R2,#+1
   \   00000126   1206               LSLS     R2,R2,#+24
   \   00000128   120E               LSRS     R2,R2,#+24
   \   0000012A   01E0               B        ??Label20_13
   \                     ??Label20_12:
   \   0000012C   0022               MOVS     R2,#+0
   \   0000012E   5B1C               ADDS     R3,R3,#+1
   1320                }   
   \                     ??Label20_13:
   \   00000130   6D1E               SUBS     R5,R5,#+1
   \   00000132   ECD1               BNE      ??Label20_11
   1321          
   1322          
   1323             }
   1324              linia++;
   \                     ??Label20_10:
   \   00000134   491C               ADDS     R1,R1,#+1
   \   00000136   0906               LSLS     R1,R1,#+24
   \   00000138   090E               LSRS     R1,R1,#+24
   1325            }
   \   0000013A   019A               LDR      R2,[SP, #+4]
   \   0000013C   521C               ADDS     R2,R2,#+1
   \   0000013E   0192               STR      R2,[SP, #+4]
   \   00000140   009A               LDR      R2,[SP, #+0]
   \   00000142   521E               SUBS     R2,R2,#+1
   \   00000144   0092               STR      R2,[SP, #+0]
   \   00000146   C9D1               BNE      ??Label20_9
   1326            //------------------------------------------------------
   1327              
   1328            if (alig==1)
   \   00000148   0EA9               ADD      R1,SP,#+56
   \   0000014A   0978               LDRB     R1,[R1, #+0]
   \   0000014C   0129               CMP      R1,#+1
   \   0000014E   05D1               BNE      ??Label20_14
   1329            {  
   1330              X-=dlugosc;
   \   00000150   0FA9               ADD      R1,SP,#+60
   \   00000152   0FAA               ADD      R2,SP,#+60
   \   00000154   1278               LDRB     R2,[R2, #+0]
   \   00000156   039B               LDR      R3,[SP, #+12]
   \   00000158   D21A               SUBS     R2,R2,R3
   \   0000015A   19E0               B.N      ??Label20_15
   1331            }  
   1332           
   1333            if (alig==2)
   \                     ??Label20_14:
   \   0000015C   0EA9               ADD      R1,SP,#+56
   \   0000015E   0978               LDRB     R1,[R1, #+0]
   \   00000160   0229               CMP      R1,#+2
   \   00000162   16D1               BNE      ??Label20_16
   \   00000164   17A9               ADD      R1,SP,#+92
   \   00000166   0978               LDRB     R1,[R1, #+0]
   \   00000168   039A               LDR      R2,[SP, #+12]
   \   0000016A   1206               LSLS     R2,R2,#+24
   \   0000016C   120E               LSRS     R2,R2,#+24
   \   0000016E   891A               SUBS     R1,R1,R2
   \   00000170   CA0F               LSRS     R2,R1,#+31
   \   00000172   5218               ADDS     R2,R2,R1
   \   00000174   5210               ASRS     R2,R2,#+1
   \   00000176   0FAB               ADD      R3,SP,#+60
   \   00000178   0FAC               ADD      R4,SP,#+60
   \   0000017A   2478               LDRB     R4,[R4, #+0]
   \   0000017C   A418               ADDS     R4,R4,R2
   \   0000017E   1C70               STRB     R4,[R3, #+0]
   1334            {  
   1335              X+=(clean-dlugosc)/2;
   1336              
   1337              if (((clean-dlugosc)%2)>0) X++;
   \   00000180   5200               LSLS     R2,R2,#+1
   \   00000182   8A1A               SUBS     R2,R1,R2
   \   00000184   012A               CMP      R2,#+1
   \   00000186   04DB               BLT      ??Label20_16
   \   00000188   0FA9               ADD      R1,SP,#+60
   \   0000018A   0FAA               ADD      R2,SP,#+60
   \   0000018C   1278               LDRB     R2,[R2, #+0]
   \   0000018E   521C               ADDS     R2,R2,#+1
   \                     ??Label20_15:
   \   00000190   0A70               STRB     R2,[R1, #+0]
   1338            }  
   1339          
   1340              
   1341            //wklejanie napisu do LCD_Canvas ----------------------
   1342            linia=Y;
   \                     ??Label20_16:
   \   00000192   1099               LDR      R1,[SP, #+64]
   \   00000194   0906               LSLS     R1,R1,#+24
   \   00000196   090E               LSRS     R1,R1,#+24
   \   00000198   0291               STR      R1,[SP, #+8]
   1343            for (int i=1; i<=25; i++)
   \   0000019A   0799               LDR      R1,[SP, #+28]
   \   0000019C   0191               STR      R1,[SP, #+4]
   \   0000019E   6E49               LDR      R1,??Label20_3+0x4  ;; Arial_18
   \   000001A0   6F4A               LDR      R2,??Label20_3+0xC  ;; 0xfffff9ea
   \   000001A2   8A18               ADDS     R2,R1,R2
   \   000001A4   0392               STR      R2,[SP, #+12]
   \   000001A6   1922               MOVS     R2,#+25
   \   000001A8   0492               STR      R2,[SP, #+16]
   \   000001AA   0FAA               ADD      R2,SP,#+60
   \   000001AC   1278               LDRB     R2,[R2, #+0]
   \   000001AE   D308               LSRS     R3,R2,#+3
   \   000001B0   DB00               LSLS     R3,R3,#+3
   \   000001B2   D21A               SUBS     R2,R2,R3
   \   000001B4   1206               LSLS     R2,R2,#+24
   \   000001B6   120E               LSRS     R2,R2,#+24
   \   000001B8   0592               STR      R2,[SP, #+20]
   \   000001BA   0200               MOVS     R2,R0
   \   000001BC   521E               SUBS     R2,R2,#+1
   \   000001BE   0A92               STR      R2,[SP, #+40]
   \   000001C0   644A               LDR      R2,??Label20_3   ;; 0xfffff9e8
   \   000001C2   8918               ADDS     R1,R1,R2
   \   000001C4   0B91               STR      R1,[SP, #+44]
   1344             {
   1345              if ((linia>=minY) && (linia<=maxY))
   \                     ??Label20_17:
   \   000001C6   0299               LDR      R1,[SP, #+8]
   \   000001C8   18AA               ADD      R2,SP,#+96
   \   000001CA   1278               LDRB     R2,[R2, #+0]
   \   000001CC   0906               LSLS     R1,R1,#+24
   \   000001CE   090E               LSRS     R1,R1,#+24
   \   000001D0   9142               CMP      R1,R2
   \   000001D2   56D3               BCC      ??Label20_18
   \   000001D4   19A9               ADD      R1,SP,#+100
   \   000001D6   0978               LDRB     R1,[R1, #+0]
   \   000001D8   029A               LDR      R2,[SP, #+8]
   \   000001DA   1206               LSLS     R2,R2,#+24
   \   000001DC   120E               LSRS     R2,R2,#+24
   \   000001DE   9142               CMP      R1,R2
   \   000001E0   4FD3               BCC      ??Label20_18
   1346              {
   1347               kol=X/8;
   \   000001E2   0FA9               ADD      R1,SP,#+60
   \   000001E4   0978               LDRB     R1,[R1, #+0]
   \   000001E6   CB08               LSRS     R3,R1,#+3
   1348               bit=X%8;
   \   000001E8   059A               LDR      R2,[SP, #+20]
   1349              for (int k=0; k<=(ill_znak-1); k++)
   \   000001EA   0A99               LDR      R1,[SP, #+40]
   \   000001EC   0029               CMP      R1,#+0
   \   000001EE   48D4               BMI      ??Label20_18
   \   000001F0   0D99               LDR      R1,[SP, #+52]
   \   000001F2   0091               STR      R1,[SP, #+0]
   \   000001F4   0100               MOVS     R1,R0
   1350              {     
   1351                
   1352                if ((Vstring[k]>=offset) &&  (Vstring[k]!=32))
   \                     ??Label20_19:
   \   000001F6   009C               LDR      R4,[SP, #+0]
   \   000001F8   2478               LDRB     R4,[R4, #+0]
   \   000001FA   1E2C               CMP      R4,#+30
   \   000001FC   24D3               BCC      ??Label20_20
   \   000001FE   202C               CMP      R4,#+32
   \   00000200   22D0               BEQ      ??Label20_20
   1353                {
   1354                  for (int j=0; j<=Arial_18[Vstring[k]-offset][0]; j++)
   \   00000202   0024               MOVS     R4,#+0
   \   00000204   02E0               B        ??Label20_21
   1355                  {
   1356                      LCD_Canvas[kol][linia] |= (((Arial_18[Vstring[k]-offset][i])>>j)&0x1)<<bit;
   1357                      if (bit<7) { bit++;} else {bit=0;  kol++; } 
   \                     ??Label20_22:
   \   00000206   0022               MOVS     R2,#+0
   \   00000208   5B1C               ADDS     R3,R3,#+1
   \                     ??Label20_23:
   \   0000020A   641C               ADDS     R4,R4,#+1
   \                     ??Label20_21:
   \   0000020C   009D               LDR      R5,[SP, #+0]
   \   0000020E   2F78               LDRB     R7,[R5, #+0]
   \   00000210   3425               MOVS     R5,#+52
   \   00000212   6F43               MULS     R7,R5,R7
   \   00000214   0B9D               LDR      R5,[SP, #+44]
   \   00000216   ED5B               LDRH     R5,[R5, R7]
   \   00000218   A542               CMP      R5,R4
   \   0000021A   2DDB               BLT      ??Label20_24
   \   0000021C   DD01               LSLS     R5,R3,#+7
   \   0000021E   019E               LDR      R6,[SP, #+4]
   \   00000220   7519               ADDS     R5,R6,R5
   \   00000222   2E78               LDRB     R6,[R5, #+0]
   \   00000224   B446               MOV      R12,R6
   \   00000226   039E               LDR      R6,[SP, #+12]
   \   00000228   F75B               LDRH     R7,[R6, R7]
   \   0000022A   2741               ASRS     R7,R7,R4
   \   0000022C   0126               MOVS     R6,#+1
   \   0000022E   3E40               ANDS     R6,R6,R7
   \   00000230   9640               LSLS     R6,R6,R2
   \   00000232   6746               MOV      R7,R12
   \   00000234   3E43               ORRS     R6,R6,R7
   \   00000236   2E70               STRB     R6,[R5, #+0]
   \   00000238   1506               LSLS     R5,R2,#+24
   \   0000023A   2D0E               LSRS     R5,R5,#+24
   \   0000023C   072D               CMP      R5,#+7
   \   0000023E   E2D2               BCS      ??Label20_22
   \   00000240   521C               ADDS     R2,R2,#+1
   \   00000242   1206               LSLS     R2,R2,#+24
   \   00000244   120E               LSRS     R2,R2,#+24
   \   00000246   E0E7               B        ??Label20_23
   1358                  }
   1359                }
   1360                else 
   1361                {
   1362                     if (bit<7) { bit++;} else {bit=0;  kol++; } 
   \                     ??Label20_20:
   \   00000248   1406               LSLS     R4,R2,#+24
   \   0000024A   240E               LSRS     R4,R4,#+24
   \   0000024C   072C               CMP      R4,#+7
   \   0000024E   0AD2               BCS      ??Label20_25
   \   00000250   521C               ADDS     R2,R2,#+1
   \   00000252   1206               LSLS     R2,R2,#+24
   \   00000254   120E               LSRS     R2,R2,#+24
   1363                     if (bit<7) { bit++;} else {bit=0;  kol++; } 
   \   00000256   072A               CMP      R2,#+7
   \   00000258   07D3               BCC      ??Label20_26
   \   0000025A   0022               MOVS     R2,#+0
   \   0000025C   5B1C               ADDS     R3,R3,#+1
   1364                     if (bit<7) { bit++;} else {bit=0;  kol++; } 
   \                     ??Label20_27:
   \   0000025E   521C               ADDS     R2,R2,#+1
   \   00000260   1206               LSLS     R2,R2,#+24
   \   00000262   120E               LSRS     R2,R2,#+24
   \   00000264   08E0               B        ??Label20_24
   \                     ??Label20_25:
   \   00000266   0022               MOVS     R2,#+0
   \   00000268   5B1C               ADDS     R3,R3,#+1
   \                     ??Label20_26:
   \   0000026A   521C               ADDS     R2,R2,#+1
   \   0000026C   1206               LSLS     R2,R2,#+24
   \   0000026E   120E               LSRS     R2,R2,#+24
   \   00000270   072A               CMP      R2,#+7
   \   00000272   F4D3               BCC      ??Label20_27
   \   00000274   0022               MOVS     R2,#+0
   \   00000276   5B1C               ADDS     R3,R3,#+1
   1365          
   1366                }
   1367                
   1368                
   1369              }
   \                     ??Label20_24:
   \   00000278   009C               LDR      R4,[SP, #+0]
   \   0000027A   641C               ADDS     R4,R4,#+1
   \   0000027C   0094               STR      R4,[SP, #+0]
   \   0000027E   491E               SUBS     R1,R1,#+1
   \   00000280   B9D1               BNE      ??Label20_19
   1370             }
   1371              linia++;
   \                     ??Label20_18:
   \   00000282   0299               LDR      R1,[SP, #+8]
   \   00000284   491C               ADDS     R1,R1,#+1
   \   00000286   0906               LSLS     R1,R1,#+24
   \   00000288   090E               LSRS     R1,R1,#+24
   \   0000028A   0291               STR      R1,[SP, #+8]
   1372            }
   \   0000028C   0399               LDR      R1,[SP, #+12]
   \   0000028E   891C               ADDS     R1,R1,#+2
   \   00000290   0391               STR      R1,[SP, #+12]
   \   00000292   0199               LDR      R1,[SP, #+4]
   \   00000294   491C               ADDS     R1,R1,#+1
   \   00000296   0191               STR      R1,[SP, #+4]
   \   00000298   0499               LDR      R1,[SP, #+16]
   \   0000029A   491E               SUBS     R1,R1,#+1
   \   0000029C   0491               STR      R1,[SP, #+16]
   \   0000029E   92D1               BNE      ??Label20_17
   1373            //------------------------------------------------------
   1374              
   1375          
   1376            //negatyw obszaru ----------------------
   1377           if (negatyw)
   \   000002A0   1AA8               ADD      R0,SP,#+104
   \   000002A2   0078               LDRB     R0,[R0, #+0]
   \   000002A4   0028               CMP      R0,#+0
   \   000002A6   51D0               BEQ      ??Label20_28
   1378           {
   1379            linia=Y;
   \   000002A8   1098               LDR      R0,[SP, #+64]
   \   000002AA   0006               LSLS     R0,R0,#+24
   \   000002AC   000E               LSRS     R0,R0,#+24
   \   000002AE   0290               STR      R0,[SP, #+8]
   1380            for (int i=1; i<=9; i++)
   \   000002B0   0798               LDR      R0,[SP, #+28]
   \   000002B2   0090               STR      R0,[SP, #+0]
   \   000002B4   0920               MOVS     R0,#+9
   \   000002B6   0999               LDR      R1,[SP, #+36]
   \   000002B8   0906               LSLS     R1,R1,#+24
   \   000002BA   090E               LSRS     R1,R1,#+24
   \   000002BC   089A               LDR      R2,[SP, #+32]
   \   000002BE   891A               SUBS     R1,R1,R2
   \   000002C0   0191               STR      R1,[SP, #+4]
   1381             {
   1382              if ((linia>=minY) && (linia<=maxY))
   \                     ??Label20_29:
   \   000002C2   0299               LDR      R1,[SP, #+8]
   \   000002C4   18AA               ADD      R2,SP,#+96
   \   000002C6   1278               LDRB     R2,[R2, #+0]
   \   000002C8   0906               LSLS     R1,R1,#+24
   \   000002CA   090E               LSRS     R1,R1,#+24
   \   000002CC   9142               CMP      R1,R2
   \   000002CE   33D3               BCC      ??Label20_30
   \   000002D0   19A9               ADD      R1,SP,#+100
   \   000002D2   0978               LDRB     R1,[R1, #+0]
   \   000002D4   029A               LDR      R2,[SP, #+8]
   \   000002D6   1206               LSLS     R2,R2,#+24
   \   000002D8   120E               LSRS     R2,R2,#+24
   \   000002DA   9142               CMP      R1,R2
   \   000002DC   2CD3               BCC      ??Label20_30
   1383              {
   1384               
   1385               kol=(pocz_X-clean_offset)/8;
   \   000002DE   0199               LDR      R1,[SP, #+4]
   \   000002E0   8A10               ASRS     R2,R1,#+2
   \   000002E2   520F               LSRS     R2,R2,#+29
   \   000002E4   5118               ADDS     R1,R2,R1
   \   000002E6   CA10               ASRS     R2,R1,#+3
   \   000002E8   1300               MOVS     R3,R2
   1386               bit=(pocz_X-clean_offset)%8;
   \   000002EA   099C               LDR      R4,[SP, #+36]
   \   000002EC   069D               LDR      R5,[SP, #+24]
   \   000002EE   641B               SUBS     R4,R4,R5
   \   000002F0   D200               LSLS     R2,R2,#+3
   \   000002F2   A21A               SUBS     R2,R4,R2
   \   000002F4   1206               LSLS     R2,R2,#+24
   \   000002F6   120E               LSRS     R2,R2,#+24
   1387                 
   1388                for (int j=0; j<=clean; j++)
   \   000002F8   17AC               ADD      R4,SP,#+92
   \   000002FA   2478               LDRB     R4,[R4, #+0]
   \   000002FC   641C               ADDS     R4,R4,#+1
   1389                {
   1390                 
   1391                  if (((LCD_Canvas[kol][linia]>>bit)&0x1)>0)
   \                     ??Label20_31:
   \   000002FE   D901               LSLS     R1,R3,#+7
   \   00000300   009D               LDR      R5,[SP, #+0]
   \   00000302   6D18               ADDS     R5,R5,R1
   \   00000304   2978               LDRB     R1,[R5, #+0]
   \   00000306   0E00               MOVS     R6,R1
   \   00000308   1641               ASRS     R6,R6,R2
   \   0000030A   0127               MOVS     R7,#+1
   \   0000030C   3740               ANDS     R7,R7,R6
   \   0000030E   012F               CMP      R7,#+1
   \   00000310   04DB               BLT      ??Label20_32
   1392                  {
   1393                     LCD_Canvas[kol][linia] &=~(1<<bit);   
   \   00000312   0126               MOVS     R6,#+1
   \   00000314   9640               LSLS     R6,R6,R2
   \   00000316   B143               BICS     R1,R1,R6
   \   00000318   2970               STRB     R1,[R5, #+0]
   \   0000031A   03E0               B        ??Label20_33
   1394                    
   1395                  }
   1396                  else
   1397                  {
   1398                    LCD_Canvas[kol][linia] |=(1<<bit); 
   \                     ??Label20_32:
   \   0000031C   0126               MOVS     R6,#+1
   \   0000031E   9640               LSLS     R6,R6,R2
   \   00000320   0E43               ORRS     R6,R6,R1
   \   00000322   2E70               STRB     R6,[R5, #+0]
   1399                    
   1400                  }
   1401                  
   1402                  
   1403                  
   1404                  if (bit<7) { bit++;} else {bit=0;  kol++; }
   \                     ??Label20_33:
   \   00000324   072A               CMP      R2,#+7
   \   00000326   03D2               BCS      ??Label20_34
   \   00000328   521C               ADDS     R2,R2,#+1
   \   0000032A   1206               LSLS     R2,R2,#+24
   \   0000032C   120E               LSRS     R2,R2,#+24
   \   0000032E   01E0               B        ??Label20_35
   \                     ??Label20_34:
   \   00000330   0022               MOVS     R2,#+0
   \   00000332   5B1C               ADDS     R3,R3,#+1
   1405                }   
   \                     ??Label20_35:
   \   00000334   641E               SUBS     R4,R4,#+1
   \   00000336   E2D1               BNE      ??Label20_31
   1406          
   1407          
   1408             }
   1409              linia++;
   \                     ??Label20_30:
   \   00000338   0299               LDR      R1,[SP, #+8]
   \   0000033A   491C               ADDS     R1,R1,#+1
   \   0000033C   0906               LSLS     R1,R1,#+24
   \   0000033E   090E               LSRS     R1,R1,#+24
   \   00000340   0291               STR      R1,[SP, #+8]
   1410            }
   \   00000342   0099               LDR      R1,[SP, #+0]
   \   00000344   491C               ADDS     R1,R1,#+1
   \   00000346   0091               STR      R1,[SP, #+0]
   \   00000348   401E               SUBS     R0,R0,#+1
   \   0000034A   BAD1               BNE      ??Label20_29
   1411            }
   1412            //------------------------------------------------------
   1413             
   1414          
   1415            
   1416          }//_______________________ Koniec funkcji Label __________________________
   \                     ??Label20_28:
   \   0000034C   11B0               ADD      SP,SP,#+68
   \   0000034E   F0BC               POP      {R4-R7}
   \   00000350   01BC               POP      {R0}
   \   00000352   0047               BX       R0               ;; return
   \                     ??Label20_3:
   \   00000354   E8F9FFFF           DC32     0xfffff9e8
   \   00000358   ........           DC32     Arial_18
   \   0000035C   ........           DC32     LCD_Canvas
   \   00000360   EAF9FFFF           DC32     0xfffff9ea
   1417          
   1418          
   1419          
   1420          
   1421          
   1422          
   1423          
   1424          
   1425          
   1426          //*-----------------------------------------------------------------------------
   1427          //* Nazwa funkcji :    TimeToStr
   1428          //* Funkcja Czasu na string
   1429          //*-----------------------------------------------------------------------------
   1430          //*-----------------------------------------------------------------------------

   \                                 In section Debug.txt, align 4, keep-with-next
   1431          void TimeToStr (char godz, char min, char sek, char Vstring[8]) 
   1432          { 
   \                     TimeToStr:
   \   00000000   F1B5               PUSH     {R0,R4-R7,LR}
   \   00000002   0600               MOVS     R6,R0
   \   00000004   0F00               MOVS     R7,R1
   \   00000006   1400               MOVS     R4,R2
   \   00000008   1D00               MOVS     R5,R3
   1433                 if (godz<10) 
   \   0000000A   0A2E               CMP      R6,#+10
   \   0000000C   04D2               BCS      ??TimeToStr_0
   1434                 {
   1435                   Vstring[0]=48;
   \   0000000E   3020               MOVS     R0,#+48
   \   00000010   2870               STRB     R0,[R5, #+0]
   1436                   Vstring[1]=godz+48;
   \   00000012   3036               ADDS     R6,R6,#+48
   \   00000014   6E70               STRB     R6,[R5, #+1]
   \   00000016   0AE0               B        ??TimeToStr_1
   1437                 }
   1438                 else
   1439                 {
   1440                   Vstring[0]=godz/10+48;
   \                     ??TimeToStr_0:
   \   00000018   0A21               MOVS     R1,#+10
   \   0000001A   ........           BL       __aeabi_idivmod
   \   0000001E   3030               ADDS     R0,R0,#+48
   \   00000020   2870               STRB     R0,[R5, #+0]
   1441                   Vstring[1]=godz%10+48;
   \   00000022   3000               MOVS     R0,R6
   \   00000024   0A21               MOVS     R1,#+10
   \   00000026   ........           BL       __aeabi_idivmod
   \   0000002A   3031               ADDS     R1,R1,#+48
   \   0000002C   6970               STRB     R1,[R5, #+1]
   1442                 }
   1443                 Vstring[2]=58;
   \                     ??TimeToStr_1:
   \   0000002E   3A26               MOVS     R6,#+58
   \   00000030   ....               B.N      ?Subroutine0
   1444                 
   1445                 if (min<10) 
   1446                 {
   1447                   Vstring[3]=48;
   1448                   Vstring[4]=min+48;
   1449                 }
   1450                 else
   1451                 {
   1452                   Vstring[3]=min/10+48;
   1453                   Vstring[4]=min%10+48;
   1454                 }
   1455                 Vstring[5]=58;
   1456                 
   1457                 
   1458                 if (sek<10) 
   1459                 {
   1460                   Vstring[6]=48;
   1461                   Vstring[7]=sek+48;
   1462                 }
   1463                 else
   1464                 {
   1465                   Vstring[6]=sek/10+48;
   1466                   Vstring[7]=sek%10+48;
   1467                 }
   1468          
   1469                 
   1470          }//_______________________ Koniec funkcji TimeToStr____________________________
   1471          
   1472          
   1473          
   1474          //*-----------------------------------------------------------------------------
   1475          //* Nazwa funkcji :    DateToStr
   1476          //* Funkcja Daty na string
   1477          //*-----------------------------------------------------------------------------
   1478          //*-----------------------------------------------------------------------------

   \                                 In section Debug.txt, align 4, keep-with-next
   1479          void DateToStr (char dzin, char mies, char rok, char Vstring[8]) 
   1480          { 
   \                     DateToStr:
   \   00000000   F1B5               PUSH     {R0,R4-R7,LR}
   \   00000002   0600               MOVS     R6,R0
   \   00000004   0F00               MOVS     R7,R1
   \   00000006   1400               MOVS     R4,R2
   \   00000008   1D00               MOVS     R5,R3
   1481                 if (dzin<10) 
   \   0000000A   0A2E               CMP      R6,#+10
   \   0000000C   04D2               BCS      ??DateToStr_0
   1482                 {
   1483                   Vstring[0]=48;
   \   0000000E   3020               MOVS     R0,#+48
   \   00000010   2870               STRB     R0,[R5, #+0]
   1484                   Vstring[1]=dzin+48;
   \   00000012   3036               ADDS     R6,R6,#+48
   \   00000014   6E70               STRB     R6,[R5, #+1]
   \   00000016   0AE0               B        ??DateToStr_1
   1485                 }
   1486                 else
   1487                 {
   1488                   Vstring[0]=dzin/10+48;
   \                     ??DateToStr_0:
   \   00000018   0A21               MOVS     R1,#+10
   \   0000001A   ........           BL       __aeabi_idivmod
   \   0000001E   3030               ADDS     R0,R0,#+48
   \   00000020   2870               STRB     R0,[R5, #+0]
   1489                   Vstring[1]=dzin%10+48;
   \   00000022   3000               MOVS     R0,R6
   \   00000024   0A21               MOVS     R1,#+10
   \   00000026   ........           BL       __aeabi_idivmod
   \   0000002A   3031               ADDS     R1,R1,#+48
   \   0000002C   6970               STRB     R1,[R5, #+1]
   1490                 }
   1491                 Vstring[2]=45; //"-"
   \                     ??DateToStr_1:
   \   0000002E   2D26               MOVS     R6,#+45
   \   00000030                      REQUIRE ?Subroutine0
   \   00000030                      ;; // Fall through to label ?Subroutine0
   1492                 
   1493                 if (mies<10) 
   1494                 {
   1495                   Vstring[3]=48;
   1496                   Vstring[4]=mies+48;
   1497                 }
   1498                 else
   1499                 {
   1500                   Vstring[3]=mies/10+48;
   1501                   Vstring[4]=mies%10+48;
   1502                 }
   1503                 Vstring[5]=45; //"-"
   1504                 
   1505                 
   1506                 if (rok<10) 
   1507                 {
   1508                   Vstring[6]=48;
   1509                   Vstring[7]=rok+48;
   1510                 }
   1511                 else
   1512                 {
   1513                   Vstring[6]=rok/10+48;
   1514                   Vstring[7]=rok%10+48;
   1515                 }
   1516          
   1517                 
   1518          }//_______________________ Koniec funkcji DateToStr ____________________________
   1519          
   1520          
   1521          
   1522          
   1523          //*-----------------------------------------------------------------------------
   1524          //* Nazwa funkcji :    CharToStr
   1525          //* Funkcja konwersji zmiennej float na ³añcuch string   
   1526          //*-----------------------------------------------------------------------------
   1527          //*  Value   - zmienna typu float
   1528          //*  Vstring - tablica znaków
   1529          //*  ill     - liloœæ znaków (max=9) , ostatnia wartoœæ zapisanego ³añcucha to zawsze 0
   1530          //* return   - iloœæ cyfr w stringu
   1531          //*-----------------------------------------------------------------------------

   \                                 In section Debug.txt, align 4, keep-with-next
   1532          char CharToStr (char Value, char *Vstring, char ill) 
   1533          { 
   \                     CharToStr:
   \   00000000   70B5               PUSH     {R4-R6,LR}
   \   00000002   0600               MOVS     R6,R0
   \   00000004   0C00               MOVS     R4,R1
   \   00000006   1100               MOVS     R1,R2
   1534                char set=0;
   1535                char dzies=0;
   1536                char jedn=0;
   1537                char ind;
   1538                
   1539                for (int i=0; i<ill; i++) Vstring[i]=0;
   \   00000008   02D0               BEQ      ??CharToStr_0
   \   0000000A   2000               MOVS     R0,R4
   \   0000000C   ........           BL       __aeabi_memclr
   1540                  
   1541                
   1542                set= Value/100;
   \                     ??CharToStr_0:
   \   00000010   3000               MOVS     R0,R6
   \   00000012   6421               MOVS     R1,#+100
   \   00000014   ........           BL       __aeabi_idivmod
   \   00000018   0506               LSLS     R5,R0,#+24
   \   0000001A   2D0E               LSRS     R5,R5,#+24
   1543                dzies= (Value%100)/10;
   \   0000001C   3000               MOVS     R0,R6
   \   0000001E   6421               MOVS     R1,#+100
   \   00000020   ........           BL       __aeabi_idivmod
   \   00000024   0800               MOVS     R0,R1
   \   00000026   0A21               MOVS     R1,#+10
   \   00000028   ........           BL       __aeabi_idivmod
   \   0000002C   0106               LSLS     R1,R0,#+24
   \   0000002E   090E               LSRS     R1,R1,#+24
   1544                jedn = Value- (set*100) - (dzies*10);
   \   00000030   2800               MOVS     R0,R5
   \   00000032   6422               MOVS     R2,#+100
   \   00000034   5043               MULS     R0,R2,R0
   \   00000036   301A               SUBS     R0,R6,R0
   \   00000038   0A00               MOVS     R2,R1
   \   0000003A   0A23               MOVS     R3,#+10
   \   0000003C   5A43               MULS     R2,R3,R2
   \   0000003E   821A               SUBS     R2,R0,R2
   1545                
   1546                if (ill==0) ill=1; 
   1547                ill--;
   1548                 
   1549                ind=0;
   \   00000040   0020               MOVS     R0,#+0
   1550                if (set>0) 
   \   00000042   2B00               MOVS     R3,R5
   \   00000044   03D0               BEQ      ??CharToStr_1
   1551                {
   1552                  Vstring[ind]=set+48;
   \   00000046   2800               MOVS     R0,R5
   \   00000048   3030               ADDS     R0,R0,#+48
   \   0000004A   2070               STRB     R0,[R4, #+0]
   1553                  ind++;
   \   0000004C   0120               MOVS     R0,#+1
   1554                }
   1555                if (set+dzies>0) 
   \                     ??CharToStr_1:
   \   0000004E   0B00               MOVS     R3,R1
   \   00000050   EB18               ADDS     R3,R5,R3
   \   00000052   1B04               LSLS     R3,R3,#+16
   \   00000054   04D0               BEQ      ??CharToStr_2
   1556                {
   1557                  Vstring[ind]=dzies+48;
   \   00000056   3031               ADDS     R1,R1,#+48
   \   00000058   2154               STRB     R1,[R4, R0]
   1558                  ind++;
   \   0000005A   401C               ADDS     R0,R0,#+1
   \   0000005C   0006               LSLS     R0,R0,#+24
   \   0000005E   000E               LSRS     R0,R0,#+24
   1559                }
   1560                Vstring[ind]=jedn+48;
   \                     ??CharToStr_2:
   \   00000060   3032               ADDS     R2,R2,#+48
   \   00000062   2254               STRB     R2,[R4, R0]
   1561          
   1562                ind++;
   1563                return ind;
   \   00000064   401C               ADDS     R0,R0,#+1
   \   00000066   C046               Nop      
   \   00000068                      REQUIRE ?Subroutine2
   \   00000068                      ;; // Fall through to label ?Subroutine2
   1564                
   1565                 
   1566          }//_______________________ Koniec funkcji konwersji float na string ____________________________
   1567          
   1568          
   1569          
   1570          
   1571          
   1572          
   1573          //*-----------------------------------------------------------------------------
   1574          //* Nazwa funkcji :    CharToStr2
   1575          //* Funkcja konwersji zmiennej float na ³añcuch string  w formacie 00 
   1576          //*-----------------------------------------------------------------------------
   1577          //*  Value   - zmienna typu float
   1578          //*  Vstring - tablica znaków
   1579          //*-----------------------------------------------------------------------------

   \                                 In section Debug.txt, align 4, keep-with-next
   1580          void CharToStr2 (char Value, char *Vstring) 
   1581          { 
   \                     CharToStr2:
   \   00000000   70B5               PUSH     {R4-R6,LR}
   \   00000002   0600               MOVS     R6,R0
   \   00000004   0C00               MOVS     R4,R1
   1582                char set=0;
   1583                char dzies=0;
   1584                char jedn=0;
   1585          
   1586                set= Value/100;
   1587                dzies= (Value%100)/10;
   \   00000006   6421               MOVS     R1,#+100
   \   00000008   ........           BL       __aeabi_idivmod
   \   0000000C   0800               MOVS     R0,R1
   \   0000000E   0A21               MOVS     R1,#+10
   \   00000010   ........           BL       __aeabi_idivmod
   \   00000014   0506               LSLS     R5,R0,#+24
   \   00000016   2D0E               LSRS     R5,R5,#+24
   1588                jedn = Value- (set*100) - (dzies*10);      
   1589                
   1590                Vstring[1]=jedn+48;
   \   00000018   3000               MOVS     R0,R6
   \   0000001A   6421               MOVS     R1,#+100
   \   0000001C   ........           BL       __aeabi_idivmod
   \   00000020   6421               MOVS     R1,#+100
   \   00000022   4843               MULS     R0,R1,R0
   \   00000024   301A               SUBS     R0,R6,R0
   \   00000026   2900               MOVS     R1,R5
   \   00000028   0A22               MOVS     R2,#+10
   \   0000002A   5143               MULS     R1,R2,R1
   \   0000002C   401A               SUBS     R0,R0,R1
   \   0000002E   3030               ADDS     R0,R0,#+48
   \   00000030   6070               STRB     R0,[R4, #+1]
   1591                Vstring[0]=dzies+48;        
   \   00000032   3035               ADDS     R5,R5,#+48
   \   00000034   2570               STRB     R5,[R4, #+0]
   1592          }//_______________________ Koniec funkcji konwersji float na string ____________________________
   \   00000036   ........           BL       ??Subroutine1_0
   1593          
   1594          
   1595          
   1596          
   1597          
   1598          
   1599          
   1600          
   1601          //*-----------------------------------------------------------------------------
   1602          //* Nazwa funkcji :    CharToStr
   1603          //* Funkcja konwersji zmiennej char na ³añcuch znakowy string -2 elementowy   
   1604          //*-----------------------------------------------------------------------------
   1605          //*  Value   - zmienna typu float
   1606          //*  Vstring - tablica znaków
   1607          //*-----------------------------------------------------------------------------

   \                                 In section Debug.txt, align 4, keep-with-next
   1608          void CharToStrData (char Value, char *Vstring) 
   1609          { 
   \                     CharToStrData:
   \   00000000   31B5               PUSH     {R0,R4,R5,LR}
   \   00000002   0400               MOVS     R4,R0
   \   00000004   0D00               MOVS     R5,R1
   1610          
   1611                
   1612                for (int i=0; i<2; i++) Vstring[i]=0;
   \   00000006   0020               MOVS     R0,#+0
   \   00000008   2870               STRB     R0,[R5, #0]
   \   0000000A   6870               STRB     R0,[R5, #+1]
   1613                
   1614                Vstring[0]=(Value/10)+48;
   \   0000000C   2000               MOVS     R0,R4
   \   0000000E   0A21               MOVS     R1,#+10
   \   00000010   ........           BL       __aeabi_idivmod
   \   00000014   3030               ADDS     R0,R0,#+48
   \   00000016   2870               STRB     R0,[R5, #+0]
   1615                Vstring[1]=(Value%10)+48;
   \   00000018   2000               MOVS     R0,R4
   \   0000001A   0A21               MOVS     R1,#+10
   \   0000001C   ........           BL       __aeabi_idivmod
   \   00000020   3031               ADDS     R1,R1,#+48
   \   00000022   6970               STRB     R1,[R5, #+1]
   1616          
   1617          }//_______________________ Koniec funkcji konwersji char na string ____________________________
   \   00000024   38BC               POP      {R3-R5}
   \   00000026   01BC               POP      {R0}
   \   00000028   0047               BX       R0               ;; return
   1618          
   1619          
   1620          
   1621          
   1622          
   1623          //*-----------------------------------------------------------------------------
   1624          //* Nazwa funkcji :    sIntToStr
   1625          //* Funkcja konwersji zmiennej short int na ³añcuch string  wed³óg schematu dla zmiennej analogowej systemu (-3276.8 + 3276.7)
   1626          //*-----------------------------------------------------------------------------
   1627          //*  Value   - zmienna typu float
   1628          //*  Vstring - tablica znaków
   1629          //* return   - iloœæ cyfr w stringu
   1630          //*-----------------------------------------------------------------------------

   \                                 In section Debug.txt, align 4, keep-with-next
   1631          char sIntToStr (signed short int Value, char *Vstring) 
   1632          { 
   \                     sIntToStr:
   \   00000000   F7B5               PUSH     {R0-R2,R4-R7,LR}
   \   00000002   0C00               MOVS     R4,R1
   1633                char znak=0;
   \   00000004   0026               MOVS     R6,#+0
   \   00000006   6946               MOV      R1,SP
   \   00000008   0E72               STRB     R6,[R1, #+8]
   1634                char ind=0;
   \   0000000A   0025               MOVS     R5,#+0
   1635                if (Value<0) znak='-';
   \   0000000C   0028               CMP      R0,#+0
   \   0000000E   01D5               BPL      ??sIntToStr_0
   \   00000010   2D22               MOVS     R2,#+45
   \   00000012   0A72               STRB     R2,[R1, #+8]
   1636                
   1637                short int ValueTmp=abs(Value);
                                          ^
Warning[Pe223]: function "abs" declared implicitly
   \                     ??sIntToStr_0:
   \   00000014   ........           BL       abs
   \   00000018   0704               LSLS     R7,R0,#+16
   \   0000001A   3F14               ASRS     R7,R7,#+16
   1638                
   1639                char wartosc[6];
   1640                
   1641                for (int i=0; i<5; i++) 
   1642                {
   1643                  Vstring[i]=0;
   \   0000001C   2670               STRB     R6,[R4, #+0]
   1644                  wartosc[i]=0;
   \   0000001E   6846               MOV      R0,SP
   \   00000020   0660               STR      R6,[R0, #+0]
   \   00000022   6670               STRB     R6,[R4, #+1]
   \   00000024   A670               STRB     R6,[R4, #+2]
   \   00000026   E670               STRB     R6,[R4, #+3]
   \   00000028   2671               STRB     R6,[R4, #+4]
   \   0000002A   0671               STRB     R6,[R0, #+4]
   \   0000002C   3800               MOVS     R0,R7
   \   0000002E   3E49               LDR      R1,??sIntToStr_1  ;; 0x2710
   \   00000030   ........           BL       __aeabi_idivmod
   \   00000034   6946               MOV      R1,SP
   \   00000036   0870               STRB     R0,[R1, #+0]
   1645                }
   1646                  
   1647                
   1648                wartosc[0]   = ValueTmp/10000;
   1649                wartosc[1]   = (ValueTmp-(wartosc[0]*10000))/1000;
   \   00000038   6846               MOV      R0,SP
   \   0000003A   0078               LDRB     R0,[R0, #+0]
   \   0000003C   3A49               LDR      R1,??sIntToStr_1  ;; 0x2710
   \   0000003E   4843               MULS     R0,R1,R0
   \   00000040   3F1A               SUBS     R7,R7,R0
   \   00000042   3800               MOVS     R0,R7
   \   00000044   FA21               MOVS     R1,#+250
   \   00000046   8900               LSLS     R1,R1,#+2        ;; #+1000
   \   00000048   ........           BL       __aeabi_idivmod
   \   0000004C   6946               MOV      R1,SP
   \   0000004E   4870               STRB     R0,[R1, #+1]
   \   00000050   6846               MOV      R0,SP
   \   00000052   4078               LDRB     R0,[R0, #+1]
   \   00000054   FA21               MOVS     R1,#+250
   \   00000056   8900               LSLS     R1,R1,#+2        ;; #+1000
   \   00000058   4843               MULS     R0,R1,R0
   \   0000005A   3F1A               SUBS     R7,R7,R0
   \   0000005C   3800               MOVS     R0,R7
   \   0000005E   6421               MOVS     R1,#+100
   \   00000060   ........           BL       __aeabi_idivmod
   \   00000064   6946               MOV      R1,SP
   \   00000066   8870               STRB     R0,[R1, #+2]
   \   00000068   6846               MOV      R0,SP
   \   0000006A   8078               LDRB     R0,[R0, #+2]
   \   0000006C   6421               MOVS     R1,#+100
   \   0000006E   4843               MULS     R0,R1,R0
   \   00000070   3F1A               SUBS     R7,R7,R0
   \   00000072   3800               MOVS     R0,R7
   \   00000074   0A21               MOVS     R1,#+10
   \   00000076   ........           BL       __aeabi_idivmod
   \   0000007A   6946               MOV      R1,SP
   \   0000007C   C870               STRB     R0,[R1, #+3]
   \   0000007E   6846               MOV      R0,SP
   \   00000080   2E21               MOVS     R1,#+46
   \   00000082   0171               STRB     R1,[R0, #+4]
   1650                wartosc[2]   = (ValueTmp-(wartosc[0]*10000)-(wartosc[1]*1000))/100;
   1651                wartosc[3]   = (ValueTmp-(wartosc[0]*10000)-(wartosc[1]*1000)-(wartosc[2]*100))/10;
   1652                wartosc[4]   = '.';
   1653                wartosc[5]   = (ValueTmp-(wartosc[0]*10000)-(wartosc[1]*1000)-(wartosc[2]*100)-(wartosc[3]*10));
   \   00000084   6946               MOV      R1,SP
   \   00000086   C978               LDRB     R1,[R1, #+3]
   \   00000088   0A22               MOVS     R2,#+10
   \   0000008A   5143               MULS     R1,R2,R1
   \   0000008C   791A               SUBS     R1,R7,R1
   \   0000008E   4171               STRB     R1,[R0, #+5]
   1654                
   1655                char PP=0;
   1656                for (char i=0; i<5; i++) 
   \   00000090   0020               MOVS     R0,#+0
   \   00000092   6946               MOV      R1,SP
   1657                  if ((wartosc[i]>0) && (PP==0)) 
   \                     ??sIntToStr_2:
   \   00000094   0A78               LDRB     R2,[R1, #+0]
   \   00000096   002A               CMP      R2,#+0
   \   00000098   07D0               BEQ      ??sIntToStr_3
   \   0000009A   3306               LSLS     R3,R6,#+24
   \   0000009C   05D1               BNE      ??sIntToStr_3
   1658                  {
   1659                    if (wartosc[i]=='.') PP=i; else PP=i+1;
   \   0000009E   2E2A               CMP      R2,#+46
   \   000000A0   01D1               BNE      ??sIntToStr_4
   \   000000A2   0600               MOVS     R6,R0
   \   000000A4   01E0               B        ??sIntToStr_3
   \                     ??sIntToStr_4:
   \   000000A6   0600               MOVS     R6,R0
   \   000000A8   761C               ADDS     R6,R6,#+1
   1660                  
   1661                  }
   \                     ??sIntToStr_3:
   \   000000AA   401C               ADDS     R0,R0,#+1
   \   000000AC   491C               ADDS     R1,R1,#+1
   \   000000AE   0206               LSLS     R2,R0,#+24
   \   000000B0   120E               LSRS     R2,R2,#+24
   \   000000B2   052A               CMP      R2,#+5
   \   000000B4   EED3               BCC      ??sIntToStr_2
   1662                
   1663                if ((PP==0) && (wartosc[5]==0))
   \   000000B6   3006               LSLS     R0,R6,#+24
   \   000000B8   07D1               BNE      ??sIntToStr_5
   \   000000BA   6846               MOV      R0,SP
   \   000000BC   4079               LDRB     R0,[R0, #+5]
   \   000000BE   0028               CMP      R0,#+0
   \   000000C0   03D1               BNE      ??sIntToStr_5
   1664                {
   1665                  ind=1;
   \   000000C2   0120               MOVS     R0,#+1
   1666                  Vstring[0]='0';
   \   000000C4   3021               MOVS     R1,#+48
   \   000000C6   2170               STRB     R1,[R4, #+0]
   \   000000C8   2BE0               B        ??sIntToStr_6
   1667                }
   1668                else
   1669                {
   1670                  if (znak) 
   \                     ??sIntToStr_5:
   \   000000CA   6846               MOV      R0,SP
   \   000000CC   007A               LDRB     R0,[R0, #+8]
   \   000000CE   0028               CMP      R0,#+0
   \   000000D0   02D0               BEQ      ??sIntToStr_7
   1671                  {
   1672                    Vstring[ind++]='-';
   \   000000D2   2D20               MOVS     R0,#+45
   \   000000D4   2070               STRB     R0,[R4, #+0]
   \   000000D6   0125               MOVS     R5,#+1
   1673                  }
   1674                  if (PP>0)
   \                     ??sIntToStr_7:
   \   000000D8   3006               LSLS     R0,R6,#+24
   \   000000DA   16D0               BEQ      ??sIntToStr_8
   1675                  for (char i=PP-1; i<4; i++)
   \   000000DC   711E               SUBS     R1,R6,#+1
   \   000000DE   0906               LSLS     R1,R1,#+24
   \   000000E0   090E               LSRS     R1,R1,#+24
   \   000000E2   0800               MOVS     R0,R1
   \   000000E4   0429               CMP      R1,#+4
   \   000000E6   10D2               BCS      ??sIntToStr_8
   \   000000E8   6119               ADDS     R1,R4,R5
   \   000000EA   6A46               MOV      R2,SP
   \   000000EC   1218               ADDS     R2,R2,R0
   \   000000EE   08E0               B        ??sIntToStr_9
   1676                  {
   1677                    Vstring[ind]=48+wartosc[i];
   \                     ??sIntToStr_10:
   \   000000F0   1378               LDRB     R3,[R2, #+0]
   \   000000F2   3033               ADDS     R3,R3,#+48
   \   000000F4   0B70               STRB     R3,[R1, #+0]
   1678                    ind++;
   \   000000F6   6D1C               ADDS     R5,R5,#+1
   \   000000F8   2D06               LSLS     R5,R5,#+24
   \   000000FA   2D0E               LSRS     R5,R5,#+24
   1679                  }
   \   000000FC   401C               ADDS     R0,R0,#+1
   \   000000FE   521C               ADDS     R2,R2,#+1
   \   00000100   491C               ADDS     R1,R1,#+1
   \                     ??sIntToStr_9:
   \   00000102   0306               LSLS     R3,R0,#+24
   \   00000104   1B0E               LSRS     R3,R3,#+24
   \   00000106   042B               CMP      R3,#+4
   \   00000108   F2D3               BCC      ??sIntToStr_10
   1680                  
   1681                    Vstring[ind]='.';
   \                     ??sIntToStr_8:
   \   0000010A   2E21               MOVS     R1,#+46
   \   0000010C   6155               STRB     R1,[R4, R5]
   1682                    Vstring[++ind]=48+wartosc[5];
   \   0000010E   6D1C               ADDS     R5,R5,#+1
   \   00000110   2806               LSLS     R0,R5,#+24
   \   00000112   000E               LSRS     R0,R0,#+24
   \   00000114   6A46               MOV      R2,SP
   \   00000116   5279               LDRB     R2,[R2, #+5]
   \   00000118   3032               ADDS     R2,R2,#+48
   \   0000011A   2254               STRB     R2,[R4, R0]
   1683                    ind++;
   \   0000011C   401C               ADDS     R0,R0,#+1
   \   0000011E   0006               LSLS     R0,R0,#+24
   \   00000120   000E               LSRS     R0,R0,#+24
   1684                }
   1685                
   1686                return ind;
   \                     ??sIntToStr_6:
   \   00000122   FEBC               POP      {R1-R7}
   \   00000124   02BC               POP      {R1}
   \   00000126   0847               BX       R1               ;; return
   \                     ??sIntToStr_1:
   \   00000128   10270000           DC32     0x2710
   1687                
   1688                 
   1689          }//_______________________ Koniec funkcji konwersji float na string ____________________________
   1690          
   1691          
   1692          
   1693          
   1694          
   1695          
   1696          
   1697          //*-----------------------------------------------------------------------------
   1698          //* Nazwa funkcji :    FloToStr
   1699          //* Funkcja konwersji zmiennej float na ³añcuch string   
   1700          //*-----------------------------------------------------------------------------
   1701          //*  Value   - zmienna typu float
   1702          //*  Vstring - tablica znaków
   1703          //*  ill     - liloœæ znaków (max=9) , ostatnia wartoœæ zapisanego ³añcucha to zawsze 0
   1704          //*  Funkcja zwraca d³ugoœæ ³añcucha
   1705          //*-----------------------------------------------------------------------------

   \                                 In section Debug.txt, align 4, keep-with-next
   1706          void HexToStr (int Value, char Vstring[8],char length) 
   1707          { 
   \                     HexToStr:
   \   00000000   70B5               PUSH     {R4-R6,LR}
   \   00000002   0500               MOVS     R5,R0
   \   00000004   0E00               MOVS     R6,R1
   1708                length=length-1; 
   \   00000006   541E               SUBS     R4,R2,#+1
   1709                for (int i=0; i<=length; i++) Vstring[i]=0;
   \   00000008   2406               LSLS     R4,R4,#+24
   \   0000000A   240E               LSRS     R4,R4,#+24
   \   0000000C   2100               MOVS     R1,R4
   \   0000000E   491C               ADDS     R1,R1,#+1
   \   00000010   3000               MOVS     R0,R6
   \   00000012   ........           BL       __aeabi_memclr
   1710                 
   1711                 for (int i=0; i<=length; i++)
   \   00000016   0020               MOVS     R0,#+0
   \   00000018   3119               ADDS     R1,R6,R4
   \   0000001A   0F22               MOVS     R2,#+15
   1712                 {
   1713                    Vstring[length-i]=((Value>>(4*i))&0xf)+48;  
   \                     ??HexToStr_0:
   \   0000001C   8600               LSLS     R6,R0,#+2
   \   0000001E   2B00               MOVS     R3,R5
   \   00000020   3341               ASRS     R3,R3,R6
   \   00000022   1340               ANDS     R3,R3,R2
   \   00000024   3033               ADDS     R3,R3,#+48
   \   00000026   0B70               STRB     R3,[R1, #+0]
   1714                    
   1715                    if (Vstring[length-i]>57) {Vstring[length-i]+=7;}
   \   00000028   1B06               LSLS     R3,R3,#+24
   \   0000002A   1B0E               LSRS     R3,R3,#+24
   \   0000002C   3A2B               CMP      R3,#+58
   \   0000002E   01D3               BCC      ??HexToStr_1
   \   00000030   DB1D               ADDS     R3,R3,#+7
   \   00000032   0B70               STRB     R3,[R1, #+0]
   1716          
   1717                    
   1718                 }   
   \                     ??HexToStr_1:
   \   00000034   401C               ADDS     R0,R0,#+1
   \   00000036   491E               SUBS     R1,R1,#+1
   \   00000038   8442               CMP      R4,R0
   \   0000003A   EFDA               BGE      ??HexToStr_0
   1719             
   1720             
   1721             
   1722          }//_______________________ Koniec funkcji konwersji float na string ____________________________
   \   0000003C   ........           BL       ??Subroutine1_0
   1723          
   1724          
   1725          
   1726          
   1727          
   1728          
   1729          
   1730          
   1731          
   1732          
   1733          //*-----------------------------------------------------------------------------
   1734          //* Nazwa funkcji :    List_Paint
   1735          //* Funkcja rysowania listy
   1736          //*-----------------------------------------------------------------------------
   1737          //* name[7]   -  Nazwa listy
   1738          //* Rows      -  ilosc wierszy
   1739          //* RowWith   -  szerokosc wiersza
   1740          //* Y         -  odsuniecie od górnej krawêdzi
   1741          //* FormStyle -  rodzaj formy 0-zwyk³a 1..-coraz mniejsze
   1742          //* Algin     - wyrównanie 0-pion œrodek, poziom lowo, 1-pion góra, poziom lowo, 2 pion dó³, poziom lowo, 3-pion œrodek, poziom wyœrodkowanie
   1743          //* p1...p8   - nazwy kolejnych pól
   1744          //*-----------------------------------------------------------------------------
   1745          
   1746          char RealRows;
   1747          char RowsPoz;

   \                                 In section Debug.txt, align 4, keep-with-next
   1748          void List_Paint(char name[10], char Rows, char RowWith, char Y, char FormStyle, char Algin, __String p,...)
   1749          {
   \                     List_Paint:
   \   00000000   FAB5               PUSH     {R1,R3-R7,LR}
   \   00000002   C1B0               SUB      SP,SP,#+260
   \   00000004   0600               MOVS     R6,R0
   \   00000006   1400               MOVS     R4,R2
   \   00000008   48A8               ADD      R0,SP,#+288
   \   0000000A   0578               LDRB     R5,[R0, #+0]
   \   0000000C   4A99               LDR      R1,[SP, #+296]
   1750            
   1751            
   1752           va_list parg; 
   1753           va_start( parg, p);// pocz¹tek pracy ze zmienn¹ list¹ parametrów 
   \   0000000E   4BA8               ADD      R0,SP,#+300
   1754          char *par[20];
   1755          char idf=0;
   1756          par[0] =p;
   \   00000010   2D91               STR      R1,[SP, #+180]
   \   00000012   41A9               ADD      R1,SP,#+260
   \   00000014   0978               LDRB     R1,[R1, #+0]
   \   00000016   0029               CMP      R1,#+0
   \   00000018   0AD0               BEQ      ??List_Paint_0
   \   0000001A   2DA9               ADD      R1,SP,#+180
   \   0000001C   091D               ADDS     R1,R1,#+4
   \   0000001E   41AA               ADD      R2,SP,#+260
   \   00000020   1278               LDRB     R2,[R2, #+0]
   1757          while(idf<Rows) {par[++idf] = va_arg( parg, char*);} 
   \                     ??List_Paint_1:
   \   00000022   0300               MOVS     R3,R0
   \   00000024   001D               ADDS     R0,R0,#+4
   \   00000026   1B68               LDR      R3,[R3, #+0]
   \   00000028   0B60               STR      R3,[R1, #+0]
   \   0000002A   091D               ADDS     R1,R1,#+4
   \   0000002C   521E               SUBS     R2,R2,#+1
   \   0000002E   F8D1               BNE      ??List_Paint_1
   \                     ??List_Paint_0:
   \   00000030   9048               LDR      R0,??List_Paint_2  ;; RealRows
   \   00000032   41A9               ADD      R1,SP,#+260
   \   00000034   0978               LDRB     R1,[R1, #+0]
   \   00000036   0170               STRB     R1,[R0, #+0]
   1758          va_end(parg); 
   1759            
   1760          
   1761            RealRows=Rows;
   1762            if ((Rows>7) && (RowWith>13)) Rows=6;
   \   00000038   41A8               ADD      R0,SP,#+260
   \   0000003A   0078               LDRB     R0,[R0, #+0]
   \   0000003C   0828               CMP      R0,#+8
   \   0000003E   04D3               BCC      ??List_Paint_3
   \   00000040   0E2C               CMP      R4,#+14
   \   00000042   02D3               BCC      ??List_Paint_3
   \   00000044   41A8               ADD      R0,SP,#+260
   \   00000046   0621               MOVS     R1,#+6
   \   00000048   05E0               B.N      ??List_Paint_4
   1763            if ((Rows>8) && (RowWith<=13)) Rows=7;
   \                     ??List_Paint_3:
   \   0000004A   0929               CMP      R1,#+9
   \   0000004C   04D3               BCC      ??List_Paint_5
   \   0000004E   0E2C               CMP      R4,#+14
   \   00000050   02D2               BCS      ??List_Paint_5
   \   00000052   41A8               ADD      R0,SP,#+260
   \   00000054   0721               MOVS     R1,#+7
   \                     ??List_Paint_4:
   \   00000056   0170               STRB     R1,[R0, #+0]
   1764            
   1765            if (FormStyle<4) 
   \                     ??List_Paint_5:
   \   00000058   042D               CMP      R5,#+4
   \   0000005A   7AD2               BCS      ??List_Paint_6
   1766            {
   1767              CleanCanvas();
   \   0000005C   ........           BL       CleanCanvas
   1768            }
   1769            else
   1770            {
   1771              //  HalfCleanCanvas();
   1772              if (FormStyle)
   1773              {     
   1774                CleanCanvasArea(FormStyle-1, 127-(Y+18+(RowWith*Rows))-2, 62-2*FormStyle+4,(RowWith*Rows)+5,0);
   1775              
   1776              }
   1777              else
   1778              {
   1779                CleanCanvasArea(0, 127-(18+(RowWith*Rows))+Y, 62,(RowWith*Rows),0);
   1780          
   1781              }
   1782            }
   1783            
   1784             
   1785            
   1786           
   1787            if (FormStyle==0)
   \   00000060   002D               CMP      R5,#+0
   \   00000062   26D1               BNE      ??List_Paint_7
   1788            {
   1789            char ekran_tab[8][18] = {
   1790                            {255,1,255,255,255,255,255,255,255,255,255,255,255,255,255,255,254,252},
   1791                            {255,0,255,255,255,255,255,255,255,255,255,255,255,255,255,255,255,255},
   1792                            {255,0,255,255,255,255,255,255,255,255,255,255,255,255,255,255,255,255},
   1793                            {255,0,255,255,255,255,255,255,255,255,255,255,255,255,255,255,255,255},
   1794                            {255,0,255,255,255,255,255,255,255,255,255,255,255,255,255,255,255,255},
   1795                            {255,0,255,255,127,127,127,127,127,127,127,127,127,127,127,127,255,255},
   1796                            {255,0,255,0,254,255,251,247,111,159,159,111,247,251,255,254,0,255},
   1797                            {255,128,255,240,231,239,237,238,239,239,239,239,238,237,111,103,48,31}
   1798                            };
   \   00000064   09A8               ADD      R0,SP,#+36
   \   00000066   8449               LDR      R1,??List_Paint_2+0x4  ;; `?<Constant {{255, 1, 255, 255, 255, 255, 255, `
   \   00000068   9022               MOVS     R2,#+144
   \   0000006A   ........           BL       __aeabi_memcpy4
   1799              
   1800              CopyToCanvasPoint((char *)ekran_tab,0,109-Y,64,18); 
   \   0000006E   82B0               SUB      SP,SP,#+8
   \   00000070   1220               MOVS     R0,#+18
   \   00000072   0090               STR      R0,[SP, #+0]
   \   00000074   4023               MOVS     R3,#+64
   \   00000076   6D20               MOVS     R0,#+109
   \   00000078   44A9               ADD      R1,SP,#+272
   \   0000007A   0978               LDRB     R1,[R1, #+0]
   \   0000007C   421A               SUBS     R2,R0,R1
   \   0000007E   1206               LSLS     R2,R2,#+24
   \   00000080   120E               LSRS     R2,R2,#+24
   \   00000082   0021               MOVS     R1,#+0
   \   00000084   0BA8               ADD      R0,SP,#+44
   \   00000086   ........           BL       CopyToCanvasPoint
   \   0000008A   02B0               ADD      SP,SP,#+8
   1801              Label(name,0,2,114-Y,10,42,0,127,1);  //(char *Vstring, char alig, char X, int Y, char maxChar, char clean, char minY, char maxY, char negatyw) 
   \   0000008C   82B0               SUB      SP,SP,#+8
   \   0000008E   0120               MOVS     R0,#+1
   \   00000090   0090               STR      R0,[SP, #+0]
   \   00000092   7F21               MOVS     R1,#+127
   \   00000094   0020               MOVS     R0,#+0
   \   00000096   03B4               PUSH     {R0,R1}
   \   00000098   2A21               MOVS     R1,#+42
   \   0000009A   0A20               MOVS     R0,#+10
   \   0000009C   03B4               PUSH     {R0,R1}
   \   0000009E   7220               MOVS     R0,#+114
   \   000000A0   48A9               ADD      R1,SP,#+288
   \   000000A2   0978               LDRB     R1,[R1, #+0]
   \   000000A4   431A               SUBS     R3,R0,R1
   \   000000A6   0222               MOVS     R2,#+2
   \   000000A8   0021               MOVS     R1,#+0
   \   000000AA   3000               MOVS     R0,R6
   \   000000AC   ........           BL       Label
   \   000000B0   06B0               ADD      SP,SP,#+24
   1802              
   1803             } 
   1804              
   1805           if (Rows>0)
   \                     ??List_Paint_7:
   \   000000B2   41A8               ADD      R0,SP,#+260
   \   000000B4   0078               LDRB     R0,[R0, #+0]
   \   000000B6   0028               CMP      R0,#+0
   \   000000B8   00D1               BNE      .+4
   \   000000BA   CAE1               B        ??List_Paint_8
   1806           {
   1807              
   1808              char napis1_Y=110-Y-(RowWith/2)-5;
   \   000000BC   6E20               MOVS     R0,#+110
   \   000000BE   42A9               ADD      R1,SP,#+264
   \   000000C0   0978               LDRB     R1,[R1, #+0]
   \   000000C2   401A               SUBS     R0,R0,R1
   \   000000C4   6108               LSRS     R1,R4,#+1
   \   000000C6   401A               SUBS     R0,R0,R1
   \   000000C8   401F               SUBS     R0,R0,#+5
   \   000000CA   0006               LSLS     R0,R0,#+24
   \   000000CC   000E               LSRS     R0,R0,#+24
   \   000000CE   0190               STR      R0,[SP, #+4]
   \   000000D0   0026               MOVS     R6,#+0
   \   000000D2   6800               LSLS     R0,R5,#+1
   \   000000D4   0490               STR      R0,[SP, #+16]
   \   000000D6   3A20               MOVS     R0,#+58
   \   000000D8   0499               LDR      R1,[SP, #+16]
   \   000000DA   401A               SUBS     R0,R0,R1
   \   000000DC   0390               STR      R0,[SP, #+12]
   \   000000DE   41A8               ADD      R0,SP,#+260
   \   000000E0   0078               LDRB     R0,[R0, #+0]
   \   000000E2   0590               STR      R0,[SP, #+20]
   \   000000E4   401E               SUBS     R0,R0,#+1
   \   000000E6   0690               STR      R0,[SP, #+24]
   \   000000E8   42A8               ADD      R0,SP,#+264
   \   000000EA   0078               LDRB     R0,[R0, #+0]
   \   000000EC   0290               STR      R0,[SP, #+8]
   \   000000EE   6420               MOVS     R0,#+100
   \   000000F0   0299               LDR      R1,[SP, #+8]
   \   000000F2   401A               SUBS     R0,R0,R1
   \   000000F4   0790               STR      R0,[SP, #+28]
   \   000000F6   6F20               MOVS     R0,#+111
   \   000000F8   401A               SUBS     R0,R0,R1
   \   000000FA   0890               STR      R0,[SP, #+32]
   \   000000FC   2700               MOVS     R7,R4
   1809          
   1810              
   1811          
   1812              for (char i=0; i<=Rows-1; i++)
   1813              {
   1814                 if (par[i+RowsPoz]>0)
   \                     ??List_Paint_9:
   \   000000FE   5F48               LDR      R0,??List_Paint_2+0x8  ;; RealRows + 1
   \   00000100   0078               LDRB     R0,[R0, #+0]
   \   00000102   3018               ADDS     R0,R6,R0
   \   00000104   8000               LSLS     R0,R0,#+2
   \   00000106   2DA9               ADD      R1,SP,#+180
   \   00000108   0858               LDR      R0,[R1, R0]
   \   0000010A   0090               STR      R0,[SP, #+0]
   \   0000010C   0028               CMP      R0,#+0
   \   0000010E   00D1               BNE      .+4
   \   00000110   81E0               B        ??List_Paint_10
   1815                 switch (Algin)
   \   00000112   49A8               ADD      R0,SP,#+292
   \   00000114   0078               LDRB     R0,[R0, #+0]
   \   00000116   0028               CMP      R0,#+0
   \   00000118   06D0               BEQ      ??List_Paint_11
   \   0000011A   0128               CMP      R0,#+1
   \   0000011C   39D0               BEQ      ??List_Paint_12
   \   0000011E   0228               CMP      R0,#+2
   \   00000120   4BD0               BEQ      ??List_Paint_13
   \   00000122   0328               CMP      R0,#+3
   \   00000124   5ED0               BEQ      ??List_Paint_14
   \   00000126   76E0               B        ??List_Paint_10
   1816                 {
   1817                    case 0: Label(par[i+RowsPoz],0,2+FormStyle,napis1_Y-RowWith*i,15,58-2*FormStyle,0,127,0);     break; //(char *Vstring, char alig, char X, int Y, char maxChar, char clean, char minY, char maxY, char negatyw) 
   \                     ??List_Paint_11:
   \   00000128   82B0               SUB      SP,SP,#+8
   \   0000012A   0090               STR      R0,[SP, #+0]
   \   0000012C   7F21               MOVS     R1,#+127
   \   0000012E   03B4               PUSH     {R0,R1}
   \   00000130   0799               LDR      R1,[SP, #+28]
   \   00000132   0F20               MOVS     R0,#+15
   \   00000134   0906               LSLS     R1,R1,#+24
   \   00000136   090E               LSRS     R1,R1,#+24
   \   00000138   03B4               PUSH     {R0,R1}
   \   0000013A   0799               LDR      R1,[SP, #+28]
   \   0000013C   0906               LSLS     R1,R1,#+24
   \   0000013E   090E               LSRS     R1,R1,#+24
   \   00000140   3800               MOVS     R0,R7
   \   00000142   7043               MULS     R0,R6,R0
   \   00000144   0B1A               SUBS     R3,R1,R0
   \   00000146   2A00               MOVS     R2,R5
   \   00000148   921C               ADDS     R2,R2,#+2
   \   0000014A   1206               LSLS     R2,R2,#+24
   \   0000014C   120E               LSRS     R2,R2,#+24
   \   0000014E   0021               MOVS     R1,#+0
   \   00000150   5DE0               B.N      ??List_Paint_15
   \                     ??List_Paint_6:
   \   00000152   82B0               SUB      SP,SP,#+8
   \   00000154   0020               MOVS     R0,#+0
   \   00000156   0090               STR      R0,[SP, #+0]
   \   00000158   43A8               ADD      R0,SP,#+268
   \   0000015A   0378               LDRB     R3,[R0, #+0]
   \   0000015C   6343               MULS     R3,R4,R3
   \   0000015E   5B1D               ADDS     R3,R3,#+5
   \   00000160   1B06               LSLS     R3,R3,#+24
   \   00000162   1B0E               LSRS     R3,R3,#+24
   \   00000164   4220               MOVS     R0,#+66
   \   00000166   6900               LSLS     R1,R5,#+1
   \   00000168   421A               SUBS     R2,R0,R1
   \   0000016A   1206               LSLS     R2,R2,#+24
   \   0000016C   120E               LSRS     R2,R2,#+24
   \   0000016E   7F20               MOVS     R0,#+127
   \   00000170   44A9               ADD      R1,SP,#+272
   \   00000172   0978               LDRB     R1,[R1, #+0]
   \   00000174   401A               SUBS     R0,R0,R1
   \   00000176   43A9               ADD      R1,SP,#+268
   \   00000178   0978               LDRB     R1,[R1, #+0]
   \   0000017A   6143               MULS     R1,R4,R1
   \   0000017C   411A               SUBS     R1,R0,R1
   \   0000017E   1439               SUBS     R1,R1,#+20
   \   00000180   0906               LSLS     R1,R1,#+24
   \   00000182   090E               LSRS     R1,R1,#+24
   \   00000184   681E               SUBS     R0,R5,#+1
   \   00000186   0006               LSLS     R0,R0,#+24
   \   00000188   000E               LSRS     R0,R0,#+24
   \   0000018A   ........           BL       CleanCanvasArea
   \   0000018E   02B0               ADD      SP,SP,#+8
   \   00000190   8FE7               B        ??List_Paint_7
   1818                    case 1: Label(par[i+RowsPoz],0,2+FormStyle,110-Y-10-RowWith*i,15,58-2*FormStyle,0,127,0);     break; //(char *Vstring, char alig, char X, int Y, char maxChar, char clean, char minY, char maxY, char negatyw) 
   \                     ??List_Paint_12:
   \   00000192   82B0               SUB      SP,SP,#+8
   \   00000194   0020               MOVS     R0,#+0
   \   00000196   0090               STR      R0,[SP, #+0]
   \   00000198   7F21               MOVS     R1,#+127
   \   0000019A   03B4               PUSH     {R0,R1}
   \   0000019C   0799               LDR      R1,[SP, #+28]
   \   0000019E   0F20               MOVS     R0,#+15
   \   000001A0   0906               LSLS     R1,R1,#+24
   \   000001A2   090E               LSRS     R1,R1,#+24
   \   000001A4   03B4               PUSH     {R0,R1}
   \   000001A6   0D99               LDR      R1,[SP, #+52]
   \   000001A8   3800               MOVS     R0,R7
   \   000001AA   7043               MULS     R0,R6,R0
   \   000001AC   0B1A               SUBS     R3,R1,R0
   \   000001AE   2A00               MOVS     R2,R5
   \   000001B0   921C               ADDS     R2,R2,#+2
   \   000001B2   1206               LSLS     R2,R2,#+24
   \   000001B4   120E               LSRS     R2,R2,#+24
   \   000001B6   0021               MOVS     R1,#+0
   \   000001B8   29E0               B.N      ??List_Paint_15
   1819                    case 2: Label(par[i+RowsPoz],0,2+FormStyle,110-Y+1-RowWith*(i+1),15,58-2*FormStyle,0,127,0);  break; //(char *Vstring, char alig, char X, int Y, char maxChar, char clean, char minY, char maxY, char negatyw)   
   \                     ??List_Paint_13:
   \   000001BA   82B0               SUB      SP,SP,#+8
   \   000001BC   0020               MOVS     R0,#+0
   \   000001BE   0090               STR      R0,[SP, #+0]
   \   000001C0   7F21               MOVS     R1,#+127
   \   000001C2   03B4               PUSH     {R0,R1}
   \   000001C4   0799               LDR      R1,[SP, #+28]
   \   000001C6   0F20               MOVS     R0,#+15
   \   000001C8   0906               LSLS     R1,R1,#+24
   \   000001CA   090E               LSRS     R1,R1,#+24
   \   000001CC   03B4               PUSH     {R0,R1}
   \   000001CE   0E99               LDR      R1,[SP, #+56]
   \   000001D0   3000               MOVS     R0,R6
   \   000001D2   401C               ADDS     R0,R0,#+1
   \   000001D4   7843               MULS     R0,R7,R0
   \   000001D6   0B1A               SUBS     R3,R1,R0
   \   000001D8   2A00               MOVS     R2,R5
   \   000001DA   921C               ADDS     R2,R2,#+2
   \   000001DC   1206               LSLS     R2,R2,#+24
   \   000001DE   120E               LSRS     R2,R2,#+24
   \   000001E0   0021               MOVS     R1,#+0
   \   000001E2   14E0               B.N      ??List_Paint_15
   1820                    case 3: Label(par[i+RowsPoz],2,2+FormStyle,napis1_Y-RowWith*i,15,58-2*FormStyle,0,127,0);     break; //(char *Vstring, char alig, char X, int Y, char maxChar, char clean, char minY, char maxY, char negatyw) 
   \                     ??List_Paint_14:
   \   000001E4   82B0               SUB      SP,SP,#+8
   \   000001E6   0020               MOVS     R0,#+0
   \   000001E8   0090               STR      R0,[SP, #+0]
   \   000001EA   7F21               MOVS     R1,#+127
   \   000001EC   03B4               PUSH     {R0,R1}
   \   000001EE   0799               LDR      R1,[SP, #+28]
   \   000001F0   0F20               MOVS     R0,#+15
   \   000001F2   0906               LSLS     R1,R1,#+24
   \   000001F4   090E               LSRS     R1,R1,#+24
   \   000001F6   03B4               PUSH     {R0,R1}
   \   000001F8   0799               LDR      R1,[SP, #+28]
   \   000001FA   0906               LSLS     R1,R1,#+24
   \   000001FC   090E               LSRS     R1,R1,#+24
   \   000001FE   3800               MOVS     R0,R7
   \   00000200   7043               MULS     R0,R6,R0
   \   00000202   0B1A               SUBS     R3,R1,R0
   \   00000204   2A00               MOVS     R2,R5
   \   00000206   921C               ADDS     R2,R2,#+2
   \   00000208   1206               LSLS     R2,R2,#+24
   \   0000020A   120E               LSRS     R2,R2,#+24
   \   0000020C   0221               MOVS     R1,#+2
   \                     ??List_Paint_15:
   \   0000020E   0698               LDR      R0,[SP, #+24]
   \   00000210   ........           BL       Label
   \   00000214   06B0               ADD      SP,SP,#+24
   1821                 }   
   1822              }
   \                     ??List_Paint_10:
   \   00000216   761C               ADDS     R6,R6,#+1
   \   00000218   0698               LDR      R0,[SP, #+24]
   \   0000021A   B042               CMP      R0,R6
   \   0000021C   00DB               BLT      .+4
   \   0000021E   6EE7               B        ??List_Paint_9
   1823              
   1824              
   1825              if (~FormStyle) H_line(2,127-(17)-Y,54,0); 
   \   00000220   0023               MOVS     R3,#+0
   \   00000222   3622               MOVS     R2,#+54
   \   00000224   6E20               MOVS     R0,#+110
   \   00000226   0299               LDR      R1,[SP, #+8]
   \   00000228   411A               SUBS     R1,R0,R1
   \   0000022A   0220               MOVS     R0,#+2
   \   0000022C   ........           BL       H_line
   1826              
   1827              V_line(62-FormStyle,127-(18+(Rows*RowWith))-Y,(Rows*RowWith),1);
   \   00000230   0598               LDR      R0,[SP, #+20]
   \   00000232   7843               MULS     R0,R7,R0
   \   00000234   0190               STR      R0,[SP, #+4]
   \   00000236   6D20               MOVS     R0,#+109
   \   00000238   0199               LDR      R1,[SP, #+4]
   \   0000023A   401A               SUBS     R0,R0,R1
   \   0000023C   0299               LDR      R1,[SP, #+8]
   \   0000023E   471A               SUBS     R7,R0,R1
   \   00000240   41A8               ADD      R0,SP,#+260
   \   00000242   0678               LDRB     R6,[R0, #+0]
   \   00000244   6643               MULS     R6,R4,R6
   \   00000246   0123               MOVS     R3,#+1
   \   00000248   3206               LSLS     R2,R6,#+24
   \   0000024A   120E               LSRS     R2,R2,#+24
   \   0000024C   3900               MOVS     R1,R7
   \   0000024E   3E20               MOVS     R0,#+62
   \   00000250   401B               SUBS     R0,R0,R5
   \   00000252   0006               LSLS     R0,R0,#+24
   \   00000254   000E               LSRS     R0,R0,#+24
   \   00000256   ........           BL       V_line
   1828              if (FormStyle)
   \   0000025A   002D               CMP      R5,#+0
   \   0000025C   10D0               BEQ      ??List_Paint_16
   1829              {
   1830                  V_line(63-FormStyle,127-(18+(Rows*RowWith))-Y,(Rows*RowWith)-2,1);
   \   0000025E   0123               MOVS     R3,#+1
   \   00000260   019A               LDR      R2,[SP, #+4]
   \   00000262   921E               SUBS     R2,R2,#+2
   \   00000264   1206               LSLS     R2,R2,#+24
   \   00000266   120E               LSRS     R2,R2,#+24
   \   00000268   3900               MOVS     R1,R7
   \   0000026A   3F20               MOVS     R0,#+63
   \   0000026C   401B               SUBS     R0,R0,R5
   \   0000026E   0006               LSLS     R0,R0,#+24
   \   00000270   000E               LSRS     R0,R0,#+24
   \   00000272   0AE0               B.N      ??List_Paint_17
   \                     ??List_Paint_2:
   \   00000274   ........           DC32     RealRows
   \   00000278   ........           DC32     `?<Constant {{255, 1, 255, 255, 255, 255, 255, `
   \   0000027C   ........           DC32     RealRows + 1
   1831              }
   1832              else
   1833              {
   1834                  V_line(63-FormStyle,127-(18+(Rows*RowWith))-Y,(Rows*RowWith),1); 
   \                     ??List_Paint_16:
   \   00000280   0123               MOVS     R3,#+1
   \   00000282   3206               LSLS     R2,R6,#+24
   \   00000284   120E               LSRS     R2,R2,#+24
   \   00000286   3900               MOVS     R1,R7
   \   00000288   3F20               MOVS     R0,#+63
   \                     ??List_Paint_17:
   \   0000028A   ........           BL       V_line
   1835              }
   1836              
   1837              V_line(FormStyle,127-(18+(Rows*RowWith))-Y,(Rows*RowWith),1);
   \   0000028E   0123               MOVS     R3,#+1
   \   00000290   3206               LSLS     R2,R6,#+24
   \   00000292   120E               LSRS     R2,R2,#+24
   \   00000294   3900               MOVS     R1,R7
   \   00000296   2800               MOVS     R0,R5
   \   00000298   ........           BL       V_line
   1838              
   1839              if (FormStyle) H_line(FormStyle,127-18-Y,63-2*FormStyle,1); 
   \   0000029C   002D               CMP      R5,#+0
   \   0000029E   0BD0               BEQ      ??List_Paint_18
   \   000002A0   0123               MOVS     R3,#+1
   \   000002A2   3F20               MOVS     R0,#+63
   \   000002A4   0499               LDR      R1,[SP, #+16]
   \   000002A6   421A               SUBS     R2,R0,R1
   \   000002A8   1206               LSLS     R2,R2,#+24
   \   000002AA   120E               LSRS     R2,R2,#+24
   \   000002AC   6D20               MOVS     R0,#+109
   \   000002AE   0299               LDR      R1,[SP, #+8]
   \   000002B0   411A               SUBS     R1,R0,R1
   \   000002B2   2800               MOVS     R0,R5
   \   000002B4   ........           BL       H_line
   1840              
   1841              for (char i=18+RowWith; i<=18+(Rows*RowWith); i=i+RowWith)
   \                     ??List_Paint_18:
   \   000002B8   2700               MOVS     R7,R4
   \   000002BA   1237               ADDS     R7,R7,#+18
   \   000002BC   3F06               LSLS     R7,R7,#+24
   \   000002BE   3F0E               LSRS     R7,R7,#+24
   \   000002C0   0198               LDR      R0,[SP, #+4]
   \   000002C2   1230               ADDS     R0,R0,#+18
   \   000002C4   0090               STR      R0,[SP, #+0]
   \   000002C6   B842               CMP      R0,R7
   \   000002C8   17DB               BLT      ??List_Paint_19
   \   000002CA   3D20               MOVS     R0,#+61
   \   000002CC   0499               LDR      R1,[SP, #+16]
   \   000002CE   401A               SUBS     R0,R0,R1
   \   000002D0   0390               STR      R0,[SP, #+12]
   1842              {
   1843                H_line(1+FormStyle,127-i-Y,61-2*FormStyle,1); 
   \                     ??List_Paint_20:
   \   000002D2   0123               MOVS     R3,#+1
   \   000002D4   039A               LDR      R2,[SP, #+12]
   \   000002D6   1206               LSLS     R2,R2,#+24
   \   000002D8   120E               LSRS     R2,R2,#+24
   \   000002DA   7F20               MOVS     R0,#+127
   \   000002DC   C01B               SUBS     R0,R0,R7
   \   000002DE   0299               LDR      R1,[SP, #+8]
   \   000002E0   411A               SUBS     R1,R0,R1
   \   000002E2   2800               MOVS     R0,R5
   \   000002E4   401C               ADDS     R0,R0,#+1
   \   000002E6   0006               LSLS     R0,R0,#+24
   \   000002E8   000E               LSRS     R0,R0,#+24
   \   000002EA   ........           BL       H_line
   1844              }
   \   000002EE   3F19               ADDS     R7,R7,R4
   \   000002F0   3F06               LSLS     R7,R7,#+24
   \   000002F2   3F0E               LSRS     R7,R7,#+24
   \   000002F4   0098               LDR      R0,[SP, #+0]
   \   000002F6   B842               CMP      R0,R7
   \   000002F8   EBDA               BGE      ??List_Paint_20
   1845              
   1846              H_line(4+FormStyle,127-(18+(Rows*RowWith))-1-Y,60-(2*FormStyle),1); 
   \                     ??List_Paint_19:
   \   000002FA   0123               MOVS     R3,#+1
   \   000002FC   3C20               MOVS     R0,#+60
   \   000002FE   0499               LDR      R1,[SP, #+16]
   \   00000300   421A               SUBS     R2,R0,R1
   \   00000302   1206               LSLS     R2,R2,#+24
   \   00000304   120E               LSRS     R2,R2,#+24
   \   00000306   6C20               MOVS     R0,#+108
   \   00000308   0199               LDR      R1,[SP, #+4]
   \   0000030A   401A               SUBS     R0,R0,R1
   \   0000030C   0299               LDR      R1,[SP, #+8]
   \   0000030E   411A               SUBS     R1,R0,R1
   \   00000310   2D1D               ADDS     R5,R5,#+4
   \   00000312   2806               LSLS     R0,R5,#+24
   \   00000314   000E               LSRS     R0,R0,#+24
   \   00000316   ........           BL       H_line
   1847            
   1848           
   1849              if (RealRows!=Rows) //je¿eli wiêcej pozycji ni¿ na ekranie
   \   0000031A   5E48               LDR      R0,??List_Paint_21  ;; RealRows
   \   0000031C   0078               LDRB     R0,[R0, #+0]
   \   0000031E   41A9               ADD      R1,SP,#+260
   \   00000320   0978               LDRB     R1,[R1, #+0]
   \   00000322   8842               CMP      R0,R1
   \   00000324   61D0               BEQ      ??List_Paint_22
   1850              {
   1851                 char LabelButt1[2], LabelButt2[2];
   1852                 LabelButt1[1]=0; LabelButt2[1]=0;  //LabelButt1 -góra, LabelButt2-dó³
   \   00000326   6846               MOV      R0,SP
   \   00000328   0021               MOVS     R1,#+0
   \   0000032A   4170               STRB     R1,[R0, #+1]
   \   0000032C   01A9               ADD      R1,SP,#+4
   \   0000032E   0022               MOVS     R2,#+0
   \   00000330   4A70               STRB     R2,[R1, #+1]
   1853                 LabelButt1[0]=30; LabelButt2[0]=31;
   \   00000332   1E22               MOVS     R2,#+30
   \   00000334   0270               STRB     R2,[R0, #+0]
   \   00000336   1F20               MOVS     R0,#+31
   \   00000338   0870               STRB     R0,[R1, #+0]
   1854                 
   1855                 if (RowsPoz==0)
   \   0000033A   5748               LDR      R0,??List_Paint_21+0x4  ;; RealRows + 1
   \   0000033C   0078               LDRB     R0,[R0, #+0]
   \   0000033E   0028               CMP      R0,#+0
   \   00000340   10D1               BNE      ??List_Paint_23
   1856                 {
   1857                    Button(LabelButt2,0,127-(18+(Rows*RowWith))-1-Y-15,64,16); //(etykieta char poz_X , char poz_Y ,char width, char height) 
   \   00000342   82B0               SUB      SP,SP,#+8
   \   00000344   1020               MOVS     R0,#+16
   \   00000346   0090               STR      R0,[SP, #+0]
   \   00000348   4023               MOVS     R3,#+64
   \   0000034A   6C20               MOVS     R0,#+108
   \   0000034C   801B               SUBS     R0,R0,R6
   \   0000034E   44A9               ADD      R1,SP,#+272
   \   00000350   0978               LDRB     R1,[R1, #+0]
   \   00000352   421A               SUBS     R2,R0,R1
   \   00000354   0F3A               SUBS     R2,R2,#+15
   \   00000356   1206               LSLS     R2,R2,#+24
   \   00000358   120E               LSRS     R2,R2,#+24
   \   0000035A   0021               MOVS     R1,#+0
   \   0000035C   03A8               ADD      R0,SP,#+12
   \   0000035E   ........           BL       Button
   \   00000362   02B0               ADD      SP,SP,#+8
   1858                 } 
   1859                 if ((RowsPoz>0) && (RowsPoz<RealRows-Rows))
   \                     ??List_Paint_23:
   \   00000364   4C48               LDR      R0,??List_Paint_21+0x4  ;; RealRows + 1
   \   00000366   0078               LDRB     R0,[R0, #+0]
   \   00000368   0028               CMP      R0,#+0
   \   0000036A   21D0               BEQ      ??List_Paint_24
   \   0000036C   4949               LDR      R1,??List_Paint_21  ;; RealRows
   \   0000036E   0978               LDRB     R1,[R1, #+0]
   \   00000370   059A               LDR      R2,[SP, #+20]
   \   00000372   891A               SUBS     R1,R1,R2
   \   00000374   8842               CMP      R0,R1
   \   00000376   1FDA               BGE      ??List_Paint_25
   \   00000378   6C20               MOVS     R0,#+108
   \   0000037A   801B               SUBS     R0,R0,R6
   \   0000037C   42A9               ADD      R1,SP,#+264
   \   0000037E   0978               LDRB     R1,[R1, #+0]
   \   00000380   441A               SUBS     R4,R0,R1
   \   00000382   0F3C               SUBS     R4,R4,#+15
   \   00000384   82B0               SUB      SP,SP,#+8
   \   00000386   1020               MOVS     R0,#+16
   \   00000388   0090               STR      R0,[SP, #+0]
   \   0000038A   2023               MOVS     R3,#+32
   \   0000038C   2206               LSLS     R2,R4,#+24
   \   0000038E   120E               LSRS     R2,R2,#+24
   \   00000390   0021               MOVS     R1,#+0
   \   00000392   02A8               ADD      R0,SP,#+8
   1860                 {
   1861                   Button(LabelButt1,0,127-(18+(Rows*RowWith))-1-Y-15,32,16); //(etykieta ,char poz_X , char poz_Y ,char width, char height)
   \   00000394   ........           BL       Button
   \   00000398   02B0               ADD      SP,SP,#+8
   1862                   Button(LabelButt2,32,127-(18+(Rows*RowWith))-1-Y-15,32,16); //(etykieta char poz_X , char poz_Y ,char width, char height) 
   \   0000039A   82B0               SUB      SP,SP,#+8
   \   0000039C   1020               MOVS     R0,#+16
   \   0000039E   0090               STR      R0,[SP, #+0]
   \   000003A0   2023               MOVS     R3,#+32
   \   000003A2   2206               LSLS     R2,R4,#+24
   \   000003A4   120E               LSRS     R2,R2,#+24
   \   000003A6   2021               MOVS     R1,#+32
   \   000003A8   03A8               ADD      R0,SP,#+12
   \   000003AA   ........           BL       Button
   \   000003AE   02B0               ADD      SP,SP,#+8
   1863                 }
   1864                 if ((RowsPoz>0) && (RowsPoz>=RealRows-Rows))
   \                     ??List_Paint_24:
   \   000003B0   3948               LDR      R0,??List_Paint_21+0x4  ;; RealRows + 1
   \   000003B2   0078               LDRB     R0,[R0, #+0]
   \   000003B4   0028               CMP      R0,#+0
   \   000003B6   18D0               BEQ      ??List_Paint_22
   \                     ??List_Paint_25:
   \   000003B8   3748               LDR      R0,??List_Paint_21+0x4  ;; RealRows + 1
   \   000003BA   0078               LDRB     R0,[R0, #+0]
   \   000003BC   3549               LDR      R1,??List_Paint_21  ;; RealRows
   \   000003BE   0978               LDRB     R1,[R1, #+0]
   \   000003C0   059A               LDR      R2,[SP, #+20]
   \   000003C2   891A               SUBS     R1,R1,R2
   \   000003C4   8842               CMP      R0,R1
   \   000003C6   10DB               BLT      ??List_Paint_22
   1865                 {
   1866                   Button(LabelButt1,0,127-(18+(Rows*RowWith))-1-Y-15,64,16); //(etykieta ,char poz_X , char poz_Y ,char width, char height)
   \   000003C8   82B0               SUB      SP,SP,#+8
   \   000003CA   1020               MOVS     R0,#+16
   \   000003CC   0090               STR      R0,[SP, #+0]
   \   000003CE   4023               MOVS     R3,#+64
   \   000003D0   6C20               MOVS     R0,#+108
   \   000003D2   801B               SUBS     R0,R0,R6
   \   000003D4   44A9               ADD      R1,SP,#+272
   \   000003D6   0978               LDRB     R1,[R1, #+0]
   \   000003D8   421A               SUBS     R2,R0,R1
   \   000003DA   0F3A               SUBS     R2,R2,#+15
   \   000003DC   1206               LSLS     R2,R2,#+24
   \   000003DE   120E               LSRS     R2,R2,#+24
   \   000003E0   0021               MOVS     R1,#+0
   \   000003E2   02A8               ADD      R0,SP,#+8
   \   000003E4   ........           BL       Button
   \   000003E8   02B0               ADD      SP,SP,#+8
   1867                 }
   1868                 
   1869                
   1870              }
   1871              
   1872              
   1873              
   1874              //bar poziomy
   1875              if (RealRows!=Rows)
   \                     ??List_Paint_22:
   \   000003EA   2A48               LDR      R0,??List_Paint_21  ;; RealRows
   \   000003EC   0178               LDRB     R1,[R0, #+0]
   \   000003EE   41A8               ADD      R0,SP,#+260
   \   000003F0   0078               LDRB     R0,[R0, #+0]
   \   000003F2   8142               CMP      R1,R0
   \   000003F4   4AD0               BEQ      ??List_Paint_26
   1876              {
   1877                 char MaxPoz = 127-19;
   1878                 char MinPoz = 127-(18+(Rows*RowWith))-1-Y+2;
   \   000003F6   6C20               MOVS     R0,#+108
   \   000003F8   801B               SUBS     R0,R0,R6
   \   000003FA   42AA               ADD      R2,SP,#+264
   \   000003FC   1278               LDRB     R2,[R2, #+0]
   \   000003FE   841A               SUBS     R4,R0,R2
   \   00000400   A41C               ADDS     R4,R4,#+2
   \   00000402   2406               LSLS     R4,R4,#+24
   \   00000404   240E               LSRS     R4,R4,#+24
   1879                 char Zakres =MaxPoz-MinPoz;
   \   00000406   6C20               MOVS     R0,#+108
   \   00000408   051B               SUBS     R5,R0,R4
   \   0000040A   2D06               LSLS     R5,R5,#+24
   \   0000040C   2D0E               LSRS     R5,R5,#+24
   1880                 char DlOdc=RealRows-Rows;
   1881                 DlOdc=RealRows-Rows+1;
   1882                 DlOdc=Zakres/DlOdc;
   \   0000040E   2800               MOVS     R0,R5
   \   00000410   41AA               ADD      R2,SP,#+260
   \   00000412   1278               LDRB     R2,[R2, #+0]
   \   00000414   891A               SUBS     R1,R1,R2
   \   00000416   491C               ADDS     R1,R1,#+1
   \   00000418   0906               LSLS     R1,R1,#+24
   \   0000041A   090E               LSRS     R1,R1,#+24
   \   0000041C   ........           BL       __aeabi_idivmod
   \   00000420   0606               LSLS     R6,R0,#+24
   \   00000422   360E               LSRS     R6,R6,#+24
   1883                 char poz=RowsPoz*DlOdc;
   1884                 poz=MaxPoz-poz-DlOdc;
   1885                 V_line (61, MinPoz,Zakres+1, 1);  //V_line (char X, int Y, char lenght, char typ) 
   \   00000424   0123               MOVS     R3,#+1
   \   00000426   6D1C               ADDS     R5,R5,#+1
   \   00000428   2A06               LSLS     R2,R5,#+24
   \   0000042A   120E               LSRS     R2,R2,#+24
   \   0000042C   2100               MOVS     R1,R4
   \   0000042E   3D20               MOVS     R0,#+61
   \   00000430   ........           BL       V_line
   1886                 V_line (62, poz,DlOdc, 0);  //V_line (char X, int Y, char lenght, char typ) 
   \   00000434   0023               MOVS     R3,#+0
   \   00000436   3200               MOVS     R2,R6
   \   00000438   6C20               MOVS     R0,#+108
   \   0000043A   1749               LDR      R1,??List_Paint_21+0x4  ;; RealRows + 1
   \   0000043C   0978               LDRB     R1,[R1, #+0]
   \   0000043E   3400               MOVS     R4,R6
   \   00000440   6143               MULS     R1,R4,R1
   \   00000442   401A               SUBS     R0,R0,R1
   \   00000444   811B               SUBS     R1,R0,R6
   \   00000446   0906               LSLS     R1,R1,#+24
   \   00000448   090E               LSRS     R1,R1,#+24
   \   0000044A   3E20               MOVS     R0,#+62
   \   0000044C   ........           BL       V_line
   \   00000450   1CE0               B        ??List_Paint_26
   1887              }
   1888              
   1889           }else{
   1890             V_line(0,1,115,1); 
   \                     ??List_Paint_8:
   \   00000452   0123               MOVS     R3,#+1
   \   00000454   7322               MOVS     R2,#+115
   \   00000456   0121               MOVS     R1,#+1
   \   00000458   ........           BL       V_line
   1891             V_line(63,0,115,1);
   \   0000045C   0123               MOVS     R3,#+1
   \   0000045E   7322               MOVS     R2,#+115
   \   00000460   0021               MOVS     R1,#+0
   \   00000462   3F20               MOVS     R0,#+63
   \   00000464   ........           BL       V_line
   1892             V_line(62,0,115,1);
   \   00000468   0123               MOVS     R3,#+1
   \   0000046A   7322               MOVS     R2,#+115
   \   0000046C   0021               MOVS     R1,#+0
   \   0000046E   3E20               MOVS     R0,#+62
   \   00000470   ........           BL       V_line
   1893             H_line(0,1,63,1);
   \   00000474   0123               MOVS     R3,#+1
   \   00000476   3F22               MOVS     R2,#+63
   \   00000478   1900               MOVS     R1,R3
   \   0000047A   0020               MOVS     R0,#+0
   \   0000047C   ........           BL       H_line
   1894             H_line(4,0,59,1);
   \   00000480   0123               MOVS     R3,#+1
   \   00000482   3B22               MOVS     R2,#+59
   \   00000484   0021               MOVS     R1,#+0
   \   00000486   0420               MOVS     R0,#+4
   \   00000488   ........           BL       H_line
   1895           }
   1896              
   1897          }//_______________________ Koniec funkcji List_Paint __________________________
   \                     ??List_Paint_26:
   \   0000048C   43B0               ADD      SP,SP,#+268
   \   0000048E   F0BC               POP      {R4-R7}
   \   00000490   01BC               POP      {R0}
   \   00000492   0047               BX       R0               ;; return
   \                     ??List_Paint_21:
   \   00000494   ........           DC32     RealRows
   \   00000498   ........           DC32     RealRows + 1
   1898          
   1899          
   1900          
   1901              
   1902          
   1903          
   1904          
   1905          
   1906          
   1907          //*-----------------------------------------------------------------------------
   1908          //* Nazwa funkcji :    List_Event
   1909          //* Funkcja rysowania listy
   1910          //*-----------------------------------------------------------------------------
   1911          //* name[7]   -  Nazwa listy
   1912          //* Rows      -  ilosc wierszy
   1913          //* RowWith   -  szerokosc wiersza
   1914          //* Y         -  odsuniecie od górnej krawêdzi
   1915          //* p1...p8   - nazwy kolejnych pól
   1916          //*-----------------------------------------------------------------------------
   1917          

   \                                 In section Debug.txt, align 4, keep-with-next
   1918          int List_Event(int X_up, int Y_up, int X_down, int Y_down, char Rows, char RowWith, char FormStyle, char Y)
   1919          {
   \                     List_Event:
   \   00000000   FFB5               PUSH     {R0-R7,LR}
   \   00000002   85B0               SUB      SP,SP,#+20
   \   00000004   0EA8               ADD      R0,SP,#+56
   \   00000006   0478               LDRB     R4,[R0, #+0]
   \   00000008   10A8               ADD      R0,SP,#+64
   \   0000000A   0578               LDRB     R5,[R0, #+0]
   \   0000000C   6846               MOV      R0,SP
   \   0000000E   0021               MOVS     R1,#+0
   \   00000010   0172               STRB     R1,[R0, #+8]
   1920            static char SelectRow; 
   1921            char podswietl=0;
   1922            int ans = 0;
   \   00000012   0191               STR      R1,[SP, #+4]
   1923            char AnsDown;
   1924             static char DownAction=0;
   1925          char Y_up_tmp=127-Y_up;
   \   00000014   7F20               MOVS     R0,#+127
   \   00000016   0699               LDR      R1,[SP, #+24]
   \   00000018   401A               SUBS     R0,R0,R1
   \   0000001A   0006               LSLS     R0,R0,#+24
   \   0000001C   000E               LSRS     R0,R0,#+24
   \   0000001E   0390               STR      R0,[SP, #+12]
   1926          
   1927              static char Xdown=0;
   1928          
   1929            //zdarzenie typu down "X"
   1930              if ((FormStyle==0) && (X_down>46) && (X_down<63) && (Y_down>112-Y) && (Y_down<127-Y))    //"X"
   \   00000020   002D               CMP      R5,#+0
   \   00000022   6ED1               BNE      ??List_Event_0
   \   00000024   2F2A               CMP      R2,#+47
   \   00000026   41DB               BLT      ??List_Event_1
   \   00000028   3F2A               CMP      R2,#+63
   \   0000002A   3FDA               BGE      ??List_Event_1
   \   0000002C   11A8               ADD      R0,SP,#+68
   \   0000002E   0678               LDRB     R6,[R0, #+0]
   \   00000030   7020               MOVS     R0,#+112
   \   00000032   801B               SUBS     R0,R0,R6
   \   00000034   9842               CMP      R0,R3
   \   00000036   39DA               BGE      ??List_Event_1
   \   00000038   7F21               MOVS     R1,#+127
   \   0000003A   891B               SUBS     R1,R1,R6
   \   0000003C   8B42               CMP      R3,R1
   \   0000003E   35DA               BGE      ??List_Event_1
   1931              {
   1932                MenuPaint();
                       ^
Warning[Pe223]: function "MenuPaint" declared implicitly
   \   00000040   ........           BL       MenuPaint
   1933                H_line(49,114-Y,10,0);
   \   00000044   7220               MOVS     R0,#+114
   \   00000046   871B               SUBS     R7,R0,R6
   \   00000048   0023               MOVS     R3,#+0
   \   0000004A   0A22               MOVS     R2,#+10
   \   0000004C   3900               MOVS     R1,R7
   \   0000004E   3120               MOVS     R0,#+49
   \   00000050   ........           BL       H_line
   1934                H_line(49,123-Y,10,0); 
   \   00000054   0023               MOVS     R3,#+0
   \   00000056   0A22               MOVS     R2,#+10
   \   00000058   7B20               MOVS     R0,#+123
   \   0000005A   811B               SUBS     R1,R0,R6
   \   0000005C   3120               MOVS     R0,#+49
   \   0000005E   ........           BL       H_line
   1935                V_line(49,114-Y,10,0); 
   \   00000062   0023               MOVS     R3,#+0
   \   00000064   0A22               MOVS     R2,#+10
   \   00000066   3900               MOVS     R1,R7
   \   00000068   3120               MOVS     R0,#+49
   \   0000006A   ........           BL       V_line
   1936                V_line(58,114-Y,10,0); 
   \   0000006E   0023               MOVS     R3,#+0
   \   00000070   0A22               MOVS     R2,#+10
   \   00000072   3900               MOVS     R1,R7
   \   00000074   3A20               MOVS     R0,#+58
   \   00000076   ........           BL       V_line
   1937                podswietl=1;
   \   0000007A   0122               MOVS     R2,#+1
   \   0000007C   6846               MOV      R0,SP
   \   0000007E   0272               STRB     R2,[R0, #+8]
   1938          
   1939                DownAction=1;
   1940                AnsDown=0xFF;
   \   00000080   FF27               MOVS     R7,#+255
   1941                
   1942                if ((!(AT91C_IFLASH_MEM->Config.SoundOff)) && (Xdown==0)) {
   \   00000082   994E               LDR      R6,??List_Event_2  ;; RealRows
   \   00000084   9948               LDR      R0,??List_Event_2+0x4  ;; 0x13d7e9
   \   00000086   0078               LDRB     R0,[R0, #+0]
   \   00000088   F178               LDRB     R1,[R6, #+3]
   \   0000008A   0143               ORRS     R1,R1,R0
   \   0000008C   0DD1               BNE      ??List_Event_3
   1943                  ButtonBipCounter=g_counter+8;
   \   0000008E   3300               MOVS     R3,R6
   \   00000090   1033               ADDS     R3,R3,#+16
   \   00000092   9C46               MOV      R12,R3
   \   00000094   9648               LDR      R0,??List_Event_2+0x8  ;; g_counter
   \   00000096   03C8               LDM      R0!,{R0,R1}
   \   00000098   0023               MOVS     R3,#+0
   \   0000009A   0830               ADDS     R0,R0,#+8
   \   0000009C   5941               ADCS     R1,R1,R3
   \   0000009E   6346               MOV      R3,R12
   \   000000A0   03C3               STM      R3!,{R0,R1}
   1944                    AT91C_BASE_PIOA->PIO_SODR =SpeakerPin;
                                                      ^
Warning[Pe068]: integer conversion resulted in a change of sign
   \   000000A2   9448               LDR      R0,??List_Event_2+0xC  ;; 0xfffff430
   \   000000A4   8021               MOVS     R1,#+128
   \   000000A6   0906               LSLS     R1,R1,#+24       ;; #-2147483648
   \   000000A8   0160               STR      R1,[R0, #+0]
   1945                  } 
   1946                Xdown=1;
   \                     ??List_Event_3:
   \   000000AA   F270               STRB     R2,[R6, #+3]
   \                     ??List_Event_1:
   \   000000AC   0598               LDR      R0,[SP, #+20]
   \   000000AE   2F28               CMP      R0,#+47
   \   000000B0   27DB               BLT      ??List_Event_0
   \   000000B2   3F28               CMP      R0,#+63
   \   000000B4   25DA               BGE      ??List_Event_0
   \   000000B6   11A8               ADD      R0,SP,#+68
   \   000000B8   0678               LDRB     R6,[R0, #+0]
   \   000000BA   7020               MOVS     R0,#+112
   \   000000BC   801B               SUBS     R0,R0,R6
   \   000000BE   0699               LDR      R1,[SP, #+24]
   \   000000C0   8842               CMP      R0,R1
   \   000000C2   1EDA               BGE      ??List_Event_0
   \   000000C4   0800               MOVS     R0,R1
   \   000000C6   7F21               MOVS     R1,#+127
   \   000000C8   891B               SUBS     R1,R1,R6
   \   000000CA   8842               CMP      R0,R1
   \   000000CC   19DA               BGE      ??List_Event_0
   1947                
   1948              }
   1949            
   1950              
   1951              if ((FormStyle==0) && (X_up>46) && (X_up<63) && (Y_up>112-Y) && (Y_up<127-Y))                    //"X"
   1952              {
   1953                RowsPoz=0;
   \   000000CE   864E               LDR      R6,??List_Event_2  ;; RealRows
   \   000000D0   0020               MOVS     R0,#+0
   \   000000D2   7070               STRB     R0,[R6, #+1]
   1954                ans = -1;
   \   000000D4   C043               MVNS     R0,R0            ;; #-1
   \   000000D6   0190               STR      R0,[SP, #+4]
   1955                      if ((!(AT91C_IFLASH_MEM->Config.SoundOff)) && (Xdown==1)) 
   \   000000D8   8448               LDR      R0,??List_Event_2+0x4  ;; 0x13d7e9
   \   000000DA   0078               LDRB     R0,[R0, #+0]
   \   000000DC   0028               CMP      R0,#+0
   \   000000DE   0ED1               BNE      ??List_Event_4
   \   000000E0   F078               LDRB     R0,[R6, #+3]
   \   000000E2   0128               CMP      R0,#+1
   \   000000E4   0BD1               BNE      ??List_Event_4
   1956                      {
   1957                        ButtonBipCounter=g_counter+8;
   \   000000E6   3200               MOVS     R2,R6
   \   000000E8   1032               ADDS     R2,R2,#+16
   \   000000EA   8148               LDR      R0,??List_Event_2+0x8  ;; g_counter
   \   000000EC   03C8               LDM      R0!,{R0,R1}
   \   000000EE   0023               MOVS     R3,#+0
   \   000000F0   0830               ADDS     R0,R0,#+8
   \   000000F2   5941               ADCS     R1,R1,R3
   \   000000F4   03C2               STM      R2!,{R0,R1}
   1958                        AT91C_BASE_PIOA->PIO_SODR =SpeakerPin;
                                                          ^
Warning[Pe068]: integer conversion resulted in a change of sign
   \   000000F6   7F48               LDR      R0,??List_Event_2+0xC  ;; 0xfffff430
   \   000000F8   8021               MOVS     R1,#+128
   \   000000FA   0906               LSLS     R1,R1,#+24       ;; #-2147483648
   \   000000FC   0160               STR      R1,[R0, #+0]
   1959                      } 
   1960                      Xdown=0;
   \                     ??List_Event_4:
   \   000000FE   0020               MOVS     R0,#+0
   \   00000100   F070               STRB     R0,[R6, #+3]
   1961              }  
   1962          
   1963              
   1964              if (Rows>0)
   \                     ??List_Event_0:
   \   00000102   002C               CMP      R4,#+0
   \   00000104   00D1               BNE      .+4
   \   00000106   73E1               B        ??List_Event_5
   1965              {
   1966          
   1967          
   1968              if ((Rows>7) && (RowWith>13)) Rows=6;
   \   00000108   082C               CMP      R4,#+8
   \   0000010A   05D3               BCC      ??List_Event_6
   \   0000010C   0FA8               ADD      R0,SP,#+60
   \   0000010E   0078               LDRB     R0,[R0, #+0]
   \   00000110   0E28               CMP      R0,#+14
   \   00000112   01D3               BCC      ??List_Event_6
   \   00000114   0624               MOVS     R4,#+6
   \   00000116   06E0               B        ??List_Event_7
   1969              if ((Rows>8) && (RowWith<=13)) Rows=7;
   \                     ??List_Event_6:
   \   00000118   092C               CMP      R4,#+9
   \   0000011A   04D3               BCC      ??List_Event_7
   \   0000011C   0FA8               ADD      R0,SP,#+60
   \   0000011E   0078               LDRB     R0,[R0, #+0]
   \   00000120   0E28               CMP      R0,#+14
   \   00000122   00D2               BCS      ??List_Event_7
   \   00000124   0724               MOVS     R4,#+7
   \                     ??List_Event_7:
   \   00000126   0798               LDR      R0,[SP, #+28]
   \   00000128   8542               CMP      R5,R0
   \   0000012A   00DB               BLT      .+4
   \   0000012C   80E0               B        ??List_Event_8
   \   0000012E   3F21               MOVS     R1,#+63
   \   00000130   491B               SUBS     R1,R1,R5
   \   00000132   8842               CMP      R0,R1
   \   00000134   7CDA               BGE      ??List_Event_8
   \   00000136   0FA8               ADD      R0,SP,#+60
   \   00000138   0078               LDRB     R0,[R0, #+0]
   \   0000013A   0090               STR      R0,[SP, #+0]
   \   0000013C   11A8               ADD      R0,SP,#+68
   \   0000013E   0678               LDRB     R6,[R0, #+0]
   \   00000140   6E20               MOVS     R0,#+110
   \   00000142   0099               LDR      R1,[SP, #+0]
   \   00000144   6143               MULS     R1,R4,R1
   \   00000146   401A               SUBS     R0,R0,R1
   \   00000148   801B               SUBS     R0,R0,R6
   \   0000014A   0899               LDR      R1,[SP, #+32]
   \   0000014C   8842               CMP      R0,R1
   \   0000014E   6FDA               BGE      ??List_Event_8
   \   00000150   0800               MOVS     R0,R1
   \   00000152   6E21               MOVS     R1,#+110
   \   00000154   891B               SUBS     R1,R1,R6
   \   00000156   8842               CMP      R0,R1
   \   00000158   6ADA               BGE      ??List_Event_8
   \   0000015A   0FA8               ADD      R0,SP,#+60
   \   0000015C   0078               LDRB     R0,[R0, #+0]
   \   0000015E   0028               CMP      R0,#+0
   \   00000160   66D0               BEQ      ??List_Event_8
   1970          
   1971            //zdarzenie typu down
   1972              if ((X_down>FormStyle) && (X_down<63-FormStyle) && (Y_down>127-(17+(Rows*RowWith))-Y) && (Y_down<127-(17)-Y) && (RowWith))   
   1973              {
   1974                char Y_down_tmp=127-Y_down;
   \   00000162   7F20               MOVS     R0,#+127
   \   00000164   0899               LDR      R1,[SP, #+32]
   \   00000166   471A               SUBS     R7,R0,R1
   \   00000168   3F06               LSLS     R7,R7,#+24
   \   0000016A   3F0E               LSRS     R7,R7,#+24
   1975                MenuPaint();
                       ^
Warning[Pe223]: function "MenuPaint" declared implicitly
   \   0000016C   ........           BL       MenuPaint
   1976                H_line(2+FormStyle,127-(  (((Y_down_tmp-18-Y) / RowWith)*RowWith)    +18+Y)-1,61-2*FormStyle,1);
   \   00000170   123F               SUBS     R7,R7,#+18
   \   00000172   B81B               SUBS     R0,R7,R6
   \   00000174   0099               LDR      R1,[SP, #+0]
   \   00000176   ........           BL       __aeabi_idivmod
   \   0000017A   0700               MOVS     R7,R0
   \   0000017C   7F20               MOVS     R0,#+127
   \   0000017E   0099               LDR      R1,[SP, #+0]
   \   00000180   7943               MULS     R1,R7,R1
   \   00000182   401A               SUBS     R0,R0,R1
   \   00000184   861B               SUBS     R6,R0,R6
   \   00000186   6846               MOV      R0,SP
   \   00000188   3D21               MOVS     R1,#+61
   \   0000018A   6A00               LSLS     R2,R5,#+1
   \   0000018C   891A               SUBS     R1,R1,R2
   \   0000018E   4172               STRB     R1,[R0, #+9]
   \   00000190   0123               MOVS     R3,#+1
   \   00000192   427A               LDRB     R2,[R0, #+9]
   \   00000194   3100               MOVS     R1,R6
   \   00000196   1339               SUBS     R1,R1,#+19
   \   00000198   2800               MOVS     R0,R5
   \   0000019A   801C               ADDS     R0,R0,#+2
   \   0000019C   0006               LSLS     R0,R0,#+24
   \   0000019E   000E               LSRS     R0,R0,#+24
   \   000001A0   ........           BL       H_line
   1977                H_line(2+FormStyle,127-(  (((Y_down_tmp-18-Y) / RowWith)*RowWith)    +18+Y)-(RowWith-1),61-2*FormStyle,1);
   \   000001A4   123E               SUBS     R6,R6,#+18
   \   000001A6   0098               LDR      R0,[SP, #+0]
   \   000001A8   361A               SUBS     R6,R6,R0
   \   000001AA   0123               MOVS     R3,#+1
   \   000001AC   6846               MOV      R0,SP
   \   000001AE   427A               LDRB     R2,[R0, #+9]
   \   000001B0   3100               MOVS     R1,R6
   \   000001B2   491C               ADDS     R1,R1,#+1
   \   000001B4   2800               MOVS     R0,R5
   \   000001B6   801C               ADDS     R0,R0,#+2
   \   000001B8   0006               LSLS     R0,R0,#+24
   \   000001BA   000E               LSRS     R0,R0,#+24
   \   000001BC   ........           BL       H_line
   1978                V_line(1+FormStyle,127-(  (((Y_down_tmp-18-Y) / RowWith)*RowWith)    +18+Y)-(RowWith-1),RowWith-1,1);
   \   000001C0   0123               MOVS     R3,#+1
   \   000001C2   0FA8               ADD      R0,SP,#+60
   \   000001C4   0078               LDRB     R0,[R0, #+0]
   \   000001C6   421E               SUBS     R2,R0,#+1
   \   000001C8   1206               LSLS     R2,R2,#+24
   \   000001CA   120E               LSRS     R2,R2,#+24
   \   000001CC   3100               MOVS     R1,R6
   \   000001CE   491C               ADDS     R1,R1,#+1
   \   000001D0   2800               MOVS     R0,R5
   \   000001D2   401C               ADDS     R0,R0,#+1
   \   000001D4   0006               LSLS     R0,R0,#+24
   \   000001D6   000E               LSRS     R0,R0,#+24
   \   000001D8   ........           BL       V_line
   1979                V_line(61-FormStyle,127-(  (((Y_down_tmp-18-Y) / RowWith)*RowWith)    +18+Y)-(RowWith-2),RowWith-3,1);
   \   000001DC   0123               MOVS     R3,#+1
   \   000001DE   0FA8               ADD      R0,SP,#+60
   \   000001E0   0078               LDRB     R0,[R0, #+0]
   \   000001E2   C21E               SUBS     R2,R0,#+3
   \   000001E4   1206               LSLS     R2,R2,#+24
   \   000001E6   120E               LSRS     R2,R2,#+24
   \   000001E8   B11C               ADDS     R1,R6,#+2
   \   000001EA   3D20               MOVS     R0,#+61
   \   000001EC   401B               SUBS     R0,R0,R5
   \   000001EE   0006               LSLS     R0,R0,#+24
   \   000001F0   000E               LSRS     R0,R0,#+24
   \   000001F2   ........           BL       V_line
   1980                podswietl=1;
   \   000001F6   6846               MOV      R0,SP
   \   000001F8   0121               MOVS     R1,#+1
   \   000001FA   0172               STRB     R1,[R0, #+8]
   1981                DownAction=1;
   1982                
   1983                DownAction=1;
   1984                AnsDown=((Y_down_tmp-18-Y) / RowWith)+1;
   \   000001FC   7F1C               ADDS     R7,R7,#+1
   \   000001FE   3F06               LSLS     R7,R7,#+24
   \   00000200   3F0E               LSRS     R7,R7,#+24
   1985                
   1986                //dzwiêk przyciœniêcia
   1987                    static char LastAnsD=-1;
                                                ^
Warning[Pe068]: integer conversion resulted in a change of sign
   1988                    if ((AnsDown>=0) && (AnsDown!=LastAnsD))
                                       ^
Warning[Pe186]: pointless comparison of unsigned integer with zero
   \   00000202   394E               LDR      R6,??List_Event_2  ;; RealRows
   \   00000204   3179               LDRB     R1,[R6, #+4]
   \   00000206   8F42               CMP      R7,R1
   \   00000208   0FD0               BEQ      ??List_Event_9
   1989                    {
   1990                      if ((!(AT91C_IFLASH_MEM->Config.SoundOff))) {
   \   0000020A   3848               LDR      R0,??List_Event_2+0x4  ;; 0x13d7e9
   \   0000020C   0078               LDRB     R0,[R0, #+0]
   \   0000020E   0028               CMP      R0,#+0
   \   00000210   0BD1               BNE      ??List_Event_9
   1991                          ButtonBipCounter=g_counter+8;
   \   00000212   3200               MOVS     R2,R6
   \   00000214   1032               ADDS     R2,R2,#+16
   \   00000216   3648               LDR      R0,??List_Event_2+0x8  ;; g_counter
   \   00000218   03C8               LDM      R0!,{R0,R1}
   \   0000021A   0023               MOVS     R3,#+0
   \   0000021C   0830               ADDS     R0,R0,#+8
   \   0000021E   5941               ADCS     R1,R1,R3
   \   00000220   03C2               STM      R2!,{R0,R1}
   1992                          AT91C_BASE_PIOA->PIO_SODR =SpeakerPin;
                                                            ^
Warning[Pe068]: integer conversion resulted in a change of sign
   \   00000222   3448               LDR      R0,??List_Event_2+0xC  ;; 0xfffff430
   \   00000224   8021               MOVS     R1,#+128
   \   00000226   0906               LSLS     R1,R1,#+24       ;; #-2147483648
   \   00000228   0160               STR      R1,[R0, #+0]
   1993                          
   1994                        } 
   1995                    }
   1996                    LastAnsD=AnsDown;
   \                     ??List_Event_9:
   \   0000022A   3771               STRB     R7,[R6, #+4]
   1997                    Xdown=0;
   \   0000022C   0020               MOVS     R0,#+0
   \   0000022E   F070               STRB     R0,[R6, #+3]
   1998                
   1999           }
   2000              
   2001          
   2002          
   2003              
   2004              
   2005              
   2006              if ((RowWith) &(X_up>3) && (X_up<59) && (Y_up<127-(  (((Y_up_tmp-18-Y) / RowWith)*RowWith)    +18+Y)-1) && (Y_up>127-(  (((Y_up_tmp-18-Y) / RowWith)*RowWith)    +18+Y)-(RowWith-1)))                        //ustawienia
   \                     ??List_Event_8:
   \   00000230   0598               LDR      R0,[SP, #+20]
   \   00000232   0428               CMP      R0,#+4
   \   00000234   01DB               BLT      ??List_Event_10
   \   00000236   0120               MOVS     R0,#+1
   \   00000238   00E0               B        ??List_Event_11
   \                     ??List_Event_10:
   \   0000023A   0020               MOVS     R0,#+0
   \                     ??List_Event_11:
   \   0000023C   0FA9               ADD      R1,SP,#+60
   \   0000023E   0978               LDRB     R1,[R1, #+0]
   \   00000240   0122               MOVS     R2,#+1
   \   00000242   0A40               ANDS     R2,R2,R1
   \   00000244   0242               TST      R2,R0
   \   00000246   22D0               BEQ      ??List_Event_12
   \   00000248   0598               LDR      R0,[SP, #+20]
   \   0000024A   3B28               CMP      R0,#+59
   \   0000024C   1FDA               BGE      ??List_Event_12
   \   0000024E   0091               STR      R1,[SP, #+0]
   \   00000250   11A8               ADD      R0,SP,#+68
   \   00000252   0678               LDRB     R6,[R0, #+0]
   \   00000254   0398               LDR      R0,[SP, #+12]
   \   00000256   0006               LSLS     R0,R0,#+24
   \   00000258   000E               LSRS     R0,R0,#+24
   \   0000025A   1238               SUBS     R0,R0,#+18
   \   0000025C   801B               SUBS     R0,R0,R6
   \   0000025E   ........           BL       __aeabi_idivmod
   \   00000262   0100               MOVS     R1,R0
   \   00000264   7F20               MOVS     R0,#+127
   \   00000266   009A               LDR      R2,[SP, #+0]
   \   00000268   4A43               MULS     R2,R1,R2
   \   0000026A   801A               SUBS     R0,R0,R2
   \   0000026C   821B               SUBS     R2,R0,R6
   \   0000026E   069B               LDR      R3,[SP, #+24]
   \   00000270   1000               MOVS     R0,R2
   \   00000272   1338               SUBS     R0,R0,#+19
   \   00000274   8342               CMP      R3,R0
   \   00000276   0ADA               BGE      ??List_Event_12
   \   00000278   123A               SUBS     R2,R2,#+18
   \   0000027A   0098               LDR      R0,[SP, #+0]
   \   0000027C   101A               SUBS     R0,R2,R0
   \   0000027E   401C               ADDS     R0,R0,#+1
   \   00000280   9842               CMP      R0,R3
   \   00000282   04DA               BGE      ??List_Event_12
   2007              {
   2008                ans=RowsPoz+((Y_up_tmp-18-Y) / RowWith)+1;
   \   00000284   6F48               LDR      R0,??List_Event_13  ;; RealRows + 1
   \   00000286   0078               LDRB     R0,[R0, #+0]
   \   00000288   4018               ADDS     R0,R0,R1
   \   0000028A   401C               ADDS     R0,R0,#+1
   \   0000028C   0190               STR      R0,[SP, #+4]
   2009               // MenuPaint();
   2010              }
   2011              
   2012              if ((FormStyle==0) && (X_up>46) && (X_up<63) && (Y_up>112-Y) && (Y_up<127-Y))                    //"X"
   \                     ??List_Event_12:
   \   0000028E   002D               CMP      R5,#+0
   \   00000290   13D1               BNE      ??List_Event_14
   \   00000292   0598               LDR      R0,[SP, #+20]
   \   00000294   2F28               CMP      R0,#+47
   \   00000296   10DB               BLT      ??List_Event_14
   \   00000298   3F28               CMP      R0,#+63
   \   0000029A   0EDA               BGE      ??List_Event_14
   \   0000029C   11A8               ADD      R0,SP,#+68
   \   0000029E   0678               LDRB     R6,[R0, #+0]
   \   000002A0   7020               MOVS     R0,#+112
   \   000002A2   801B               SUBS     R0,R0,R6
   \   000002A4   0699               LDR      R1,[SP, #+24]
   \   000002A6   8842               CMP      R0,R1
   \   000002A8   07DA               BGE      ??List_Event_14
   \   000002AA   0800               MOVS     R0,R1
   \   000002AC   7F21               MOVS     R1,#+127
   \   000002AE   891B               SUBS     R1,R1,R6
   \   000002B0   8842               CMP      R0,R1
   \   000002B2   02DA               BGE      ??List_Event_14
   2013              {
   2014                ans = -1;
   \   000002B4   0020               MOVS     R0,#+0
   \   000002B6   C043               MVNS     R0,R0            ;; #-1
   \   000002B8   0190               STR      R0,[SP, #+4]
   2015             
   2016              }   
   2017              if ((podswietl==0)) MenuPaint();
                                         ^
Warning[Pe223]: function "MenuPaint" declared implicitly
   \                     ??List_Event_14:
   \   000002BA   6846               MOV      R0,SP
   \   000002BC   007A               LDRB     R0,[R0, #+8]
   \   000002BE   0028               CMP      R0,#+0
   \   000002C0   01D1               BNE      ??List_Event_15
   \   000002C2   ........           BL       MenuPaint
   2018              
   2019              if (ans>RowsPoz+Rows) ans=0;  
   \                     ??List_Event_15:
   \   000002C6   084E               LDR      R6,??List_Event_2  ;; RealRows
   \   000002C8   7078               LDRB     R0,[R6, #+1]
   \   000002CA   0119               ADDS     R1,R0,R4
   \   000002CC   019A               LDR      R2,[SP, #+4]
   \   000002CE   9142               CMP      R1,R2
   \   000002D0   01DA               BGE      ??List_Event_16
   \   000002D2   0021               MOVS     R1,#+0
   \   000002D4   0191               STR      R1,[SP, #+4]
   2020           
   2021          
   2022              if ((AnsDown>0) && (SelectRow!=AnsDown))
   \                     ??List_Event_16:
   \   000002D6   3906               LSLS     R1,R7,#+24
   \   000002D8   0ED0               BEQ      ??List_Event_17
   \   000002DA   B178               LDRB     R1,[R6, #+2]
   \   000002DC   3A06               LSLS     R2,R7,#+24
   \   000002DE   120E               LSRS     R2,R2,#+24
   \   000002E0   9142               CMP      R1,R2
   \   000002E2   09D0               BEQ      ??List_Event_17
   2023              {
   2024                 SelectRow=AnsDown;
   \   000002E4   B770               STRB     R7,[R6, #+2]
   \   000002E6   0CE0               B        ??List_Event_18
   \                     ??List_Event_2:
   \   000002E8   ........           DC32     RealRows
   \   000002EC   E9D71300           DC32     0x13d7e9
   \   000002F0   ........           DC32     g_counter
   \   000002F4   30F4FFFF           DC32     0xfffff430
   2025                  
   2026              }else if (ans<0)
   \                     ??List_Event_17:
   \   000002F8   0199               LDR      R1,[SP, #+4]
   \   000002FA   0029               CMP      R1,#+0
   \   000002FC   01D5               BPL      ??List_Event_18
   2027              {
   2028                SelectRow=0;
   \   000002FE   0021               MOVS     R1,#+0
   \   00000300   B170               STRB     R1,[R6, #+2]
   2029              }
   2030              
   2031              char Button1Action=0;
   \                     ??List_Event_18:
   \   00000302   0025               MOVS     R5,#+0
   2032              char Button2Action=0;
   \   00000304   0027               MOVS     R7,#+0
   2033              if (RealRows!=Rows) //je¿eli wiêcej pozycji ni¿ na ekranie
   \   00000306   3178               LDRB     R1,[R6, #+0]
   \   00000308   A142               CMP      R1,R4
   \   0000030A   71D0               BEQ      ??List_Event_5
   2034              {
   2035                 char LabelButt1[2], LabelButt2[2];
   2036                 LabelButt1[1]=0; LabelButt2[1]=0;
   \   0000030C   6946               MOV      R1,SP
   \   0000030E   4D70               STRB     R5,[R1, #+1]
   \   00000310   03AA               ADD      R2,SP,#+12
   \   00000312   5570               STRB     R5,[R2, #+1]
   2037                 LabelButt1[0]=30; LabelButt2[0]=31;
   \   00000314   1E23               MOVS     R3,#+30
   \   00000316   0B70               STRB     R3,[R1, #+0]
   \   00000318   1F21               MOVS     R1,#+31
   \   0000031A   1170               STRB     R1,[R2, #+0]
   2038                 //LabelButt1 -góra, LabelButt2-dó³
   2039                 if (RowsPoz==0)
   \   0000031C   0028               CMP      R0,#+0
   \   0000031E   14D1               BNE      ??List_Event_19
   2040                 {
   2041                    Button2Action=Button(LabelButt2,0,127-(18+(Rows*RowWith))-1-Y-15,64,16); //(etykieta char poz_X , char poz_Y ,char width, char height) 
   \   00000320   82B0               SUB      SP,SP,#+8
   \   00000322   1020               MOVS     R0,#+16
   \   00000324   0090               STR      R0,[SP, #+0]
   \   00000326   4023               MOVS     R3,#+64
   \   00000328   6C20               MOVS     R0,#+108
   \   0000032A   11A9               ADD      R1,SP,#+68
   \   0000032C   0978               LDRB     R1,[R1, #+0]
   \   0000032E   6143               MULS     R1,R4,R1
   \   00000330   401A               SUBS     R0,R0,R1
   \   00000332   13A9               ADD      R1,SP,#+76
   \   00000334   0978               LDRB     R1,[R1, #+0]
   \   00000336   421A               SUBS     R2,R0,R1
   \   00000338   0F3A               SUBS     R2,R2,#+15
   \   0000033A   1206               LSLS     R2,R2,#+24
   \   0000033C   120E               LSRS     R2,R2,#+24
   \   0000033E   0021               MOVS     R1,#+0
   \   00000340   05A8               ADD      R0,SP,#+20
   \   00000342   ........           BL       Button
   \   00000346   02B0               ADD      SP,SP,#+8
   \   00000348   0700               MOVS     R7,R0
   2042                 } 
   2043                 if ((RowsPoz>0) && (RowsPoz<RealRows-Rows))
   \                     ??List_Event_19:
   \   0000034A   7078               LDRB     R0,[R6, #+1]
   \   0000034C   0028               CMP      R0,#+0
   \   0000034E   24D0               BEQ      ??List_Event_20
   \   00000350   3178               LDRB     R1,[R6, #+0]
   \   00000352   091B               SUBS     R1,R1,R4
   \   00000354   8842               CMP      R0,R1
   \   00000356   23DA               BGE      ??List_Event_21
   2044                 {
   2045                   Button1Action=Button(LabelButt1,0,127-(18+(Rows*RowWith))-1-Y-15,32,16); //(etykieta ,char poz_X , char poz_Y ,char width, char height)
   \   00000358   6C20               MOVS     R0,#+108
   \   0000035A   0FA9               ADD      R1,SP,#+60
   \   0000035C   0978               LDRB     R1,[R1, #+0]
   \   0000035E   6143               MULS     R1,R4,R1
   \   00000360   401A               SUBS     R0,R0,R1
   \   00000362   11A9               ADD      R1,SP,#+68
   \   00000364   0978               LDRB     R1,[R1, #+0]
   \   00000366   471A               SUBS     R7,R0,R1
   \   00000368   0F3F               SUBS     R7,R7,#+15
   \   0000036A   82B0               SUB      SP,SP,#+8
   \   0000036C   1020               MOVS     R0,#+16
   \   0000036E   0090               STR      R0,[SP, #+0]
   \   00000370   2023               MOVS     R3,#+32
   \   00000372   3A06               LSLS     R2,R7,#+24
   \   00000374   120E               LSRS     R2,R2,#+24
   \   00000376   0021               MOVS     R1,#+0
   \   00000378   02A8               ADD      R0,SP,#+8
   \   0000037A   ........           BL       Button
   \   0000037E   02B0               ADD      SP,SP,#+8
   \   00000380   0500               MOVS     R5,R0
   2046                   Button2Action=Button(LabelButt2,32,127-(18+(Rows*RowWith))-1-Y-15,32,16); //(etykieta char poz_X , char poz_Y ,char width, char height) 
   \   00000382   82B0               SUB      SP,SP,#+8
   \   00000384   1020               MOVS     R0,#+16
   \   00000386   0090               STR      R0,[SP, #+0]
   \   00000388   2023               MOVS     R3,#+32
   \   0000038A   3A06               LSLS     R2,R7,#+24
   \   0000038C   120E               LSRS     R2,R2,#+24
   \   0000038E   1900               MOVS     R1,R3
   \   00000390   05A8               ADD      R0,SP,#+20
   \   00000392   ........           BL       Button
   \   00000396   02B0               ADD      SP,SP,#+8
   \   00000398   0700               MOVS     R7,R0
   2047                 }
   2048                 if ((RowsPoz>0) && (RowsPoz>=RealRows-Rows))
   \                     ??List_Event_20:
   \   0000039A   7078               LDRB     R0,[R6, #+1]
   \   0000039C   0028               CMP      R0,#+0
   \   0000039E   19D0               BEQ      ??List_Event_22
   \                     ??List_Event_21:
   \   000003A0   7078               LDRB     R0,[R6, #+1]
   \   000003A2   3178               LDRB     R1,[R6, #+0]
   \   000003A4   091B               SUBS     R1,R1,R4
   \   000003A6   8842               CMP      R0,R1
   \   000003A8   14DB               BLT      ??List_Event_22
   2049                 {
   2050                   Button1Action=Button(LabelButt1,0,127-(18+(Rows*RowWith))-1-Y-15,64,16); //(etykieta ,char poz_X , char poz_Y ,char width, char height)
   \   000003AA   82B0               SUB      SP,SP,#+8
   \   000003AC   1020               MOVS     R0,#+16
   \   000003AE   0090               STR      R0,[SP, #+0]
   \   000003B0   4023               MOVS     R3,#+64
   \   000003B2   6C20               MOVS     R0,#+108
   \   000003B4   11A9               ADD      R1,SP,#+68
   \   000003B6   0978               LDRB     R1,[R1, #+0]
   \   000003B8   4C43               MULS     R4,R1,R4
   \   000003BA   001B               SUBS     R0,R0,R4
   \   000003BC   13A9               ADD      R1,SP,#+76
   \   000003BE   0978               LDRB     R1,[R1, #+0]
   \   000003C0   421A               SUBS     R2,R0,R1
   \   000003C2   0F3A               SUBS     R2,R2,#+15
   \   000003C4   1206               LSLS     R2,R2,#+24
   \   000003C6   120E               LSRS     R2,R2,#+24
   \   000003C8   0021               MOVS     R1,#+0
   \   000003CA   02A8               ADD      R0,SP,#+8
   \   000003CC   ........           BL       Button
   \   000003D0   02B0               ADD      SP,SP,#+8
   \   000003D2   0500               MOVS     R5,R0
   2051                 }
   2052              
   2053                 if (Button1Action==1) {RowsPoz--;  MenuPaint(); }
   \                     ??List_Event_22:
   \   000003D4   012D               CMP      R5,#+1
   \   000003D6   04D1               BNE      ??List_Event_23
   \   000003D8   7078               LDRB     R0,[R6, #+1]
   \   000003DA   401E               SUBS     R0,R0,#+1
   \   000003DC   7070               STRB     R0,[R6, #+1]
   \   000003DE   ........           BL       MenuPaint
   2054                 if (Button2Action==1) {RowsPoz++;  MenuPaint(); }
   \                     ??List_Event_23:
   \   000003E2   012F               CMP      R7,#+1
   \   000003E4   04D1               BNE      ??List_Event_5
   \   000003E6   7078               LDRB     R0,[R6, #+1]
   \   000003E8   401C               ADDS     R0,R0,#+1
   \   000003EA   7070               STRB     R0,[R6, #+1]
   \   000003EC   ........           BL       MenuPaint
   2055              }
   2056              
   2057              }
   2058              
   2059             // if (ans>0) RowsPoz=0;
   2060              static char LastAns=-1;
                                         ^
Warning[Pe068]: integer conversion resulted in a change of sign
   2061              if ((ans>=0) && (ans!=LastAns))
   \                     ??List_Event_5:
   \   000003F0   0198               LDR      R0,[SP, #+4]
   \   000003F2   0028               CMP      R0,#+0
   \   000003F4   14D4               BMI      ??List_Event_24
   \   000003F6   144E               LDR      R6,??List_Event_13+0x4  ;; RealRows
   \   000003F8   7179               LDRB     R1,[R6, #+5]
   \   000003FA   8842               CMP      R0,R1
   \   000003FC   10D0               BEQ      ??List_Event_24
   2062              {
   2063                Xdown=0;
   \   000003FE   0020               MOVS     R0,#+0
   \   00000400   F070               STRB     R0,[R6, #+3]
   2064                if ((!(AT91C_IFLASH_MEM->Config.SoundOff))) {
   \   00000402   1248               LDR      R0,??List_Event_13+0x8  ;; 0x13d7e9
   \   00000404   0078               LDRB     R0,[R0, #+0]
   \   00000406   0028               CMP      R0,#+0
   \   00000408   0AD1               BNE      ??List_Event_24
   2065                  ButtonBipCounter=g_counter+8;
   \   0000040A   1036               ADDS     R6,R6,#+16
   \   0000040C   1048               LDR      R0,??List_Event_13+0xC  ;; g_counter
   \   0000040E   03C8               LDM      R0!,{R0,R1}
   \   00000410   0022               MOVS     R2,#+0
   \   00000412   0830               ADDS     R0,R0,#+8
   \   00000414   5141               ADCS     R1,R1,R2
   \   00000416   03C6               STM      R6!,{R0,R1}
   2066                    AT91C_BASE_PIOA->PIO_SODR =SpeakerPin;
                                                      ^
Warning[Pe068]: integer conversion resulted in a change of sign

     static char DownAction=0;
                 ^
"D:\Zeuron\Projekty\S300\S300-program v1.3 - 04.06.2013\Framework\lcd.c",1924  Warning[Pe550]: 
          variable "DownAction" was set but never used
   \   00000418   0E48               LDR      R0,??List_Event_13+0x10  ;; 0xfffff430
   \   0000041A   8021               MOVS     R1,#+128
   \   0000041C   0906               LSLS     R1,R1,#+24       ;; #-2147483648
   \   0000041E   0160               STR      R1,[R0, #+0]
   2067                  } 
   2068              }
   2069              
   2070              if ((X_up>0)|| (Y_up>0)) Xdown=0;
   \                     ??List_Event_24:
   \   00000420   0598               LDR      R0,[SP, #+20]
   \   00000422   0128               CMP      R0,#+1
   \   00000424   02DA               BGE      ??List_Event_25
   \   00000426   0698               LDR      R0,[SP, #+24]
   \   00000428   0128               CMP      R0,#+1
   \   0000042A   02DB               BLT      ??List_Event_26
   \                     ??List_Event_25:
   \   0000042C   0A48               LDR      R0,??List_Event_13+0x14  ;; RealRows + 3
   \   0000042E   0021               MOVS     R1,#+0
   \   00000430   0170               STRB     R1,[R0, #+0]
   2071              LastAns=ans;
   \                     ??List_Event_26:
   \   00000432   0A48               LDR      R0,??List_Event_13+0x18  ;; RealRows + 5
   \   00000434   0199               LDR      R1,[SP, #+4]
   \   00000436   0170               STRB     R1,[R0, #+0]
   2072              return ans;
   \   00000438   0198               LDR      R0,[SP, #+4]
   \   0000043A   09B0               ADD      SP,SP,#+36
   \   0000043C   F0BC               POP      {R4-R7}
   \   0000043E   02BC               POP      {R1}
   \   00000440   0847               BX       R1               ;; return
   \   00000442   C046               Nop      
   \                     ??List_Event_13:
   \   00000444   ........           DC32     RealRows + 1
   \   00000448   ........           DC32     RealRows
   \   0000044C   E9D71300           DC32     0x13d7e9
   \   00000450   ........           DC32     g_counter
   \   00000454   30F4FFFF           DC32     0xfffff430
   \   00000458   ........           DC32     RealRows + 3
   \   0000045C   ........           DC32     RealRows + 5
   2073            
   2074              
   2075              
   2076          }//_______________________ Koniec funkcji List_Event __________________________
   2077          
   2078          
   2079          
   2080          
   2081          //*-----------------------------------------------------------------------------
   2082          //* Nazwa funkcji :    ScrollList_Paint
   2083          //* Funkcja rysowania listy
   2084          //*-----------------------------------------------------------------------------
   2085          //* name[7]   -  Nazwa listy
   2086          //* Size_scroll  -  wielkosc listy
   2087          //* poz   -1 -  poziome linie rozdzielaj¹ce
   2088          
   2089          //*-----------------------------------------------------------------------------
   2090          

   \                                 In section Debug.txt, align 4, keep-with-next
   2091          void ScrollList_Paint(char name[15], int Size_scroll, int *_Suw_poz, char poz)
   2092              {
   \                     ScrollList_Paint:
   \   00000000   F5B5               PUSH     {R0,R2,R4-R7,LR}
   \   00000002   334C               LDR      R4,??ScrollList_Paint_0  ;; 0xfffffbec
   \   00000004   A544               ADD      SP,SP,R4
   \   00000006   0D00               MOVS     R5,R1
   \   00000008   1E00               MOVS     R6,R3
   2093          
   2094                 char ekran_tab[8][128] = {
   2095                            {254,1,1,1,1,1,1,1,1,1,1,1,1,1,1,1,1,1,1,1,1,1,1,1,1,1,1,1,1,1,1,1,1,1,1,1,1,1,1,1,1,1,1,1,1,1,1,1,1,1,1,1,1,1,1,1,1,1,1,1,1,1,1,1,1,1,1,1,1,1,1,1,1,1,1,1,1,1,1,1,1,1,1,1,1,1,1,1,1,1,1,1,1,1,1,1,1,1,1,1,1,1,1,1,1,1,1,1,1,1,1,1,1,1,255,3,253,245,237,221,61,61,221,237,245,253,3,254},
   2096                            {255,0,0,0,0,0,0,0,0,0,0,0,0,0,0,0,0,0,0,0,0,0,0,0,0,0,0,0,0,0,0,0,0,0,0,0,0,0,0,0,0,0,0,0,0,0,0,0,0,0,0,0,0,0,0,0,0,0,0,0,0,0,0,0,0,0,0,0,0,0,0,0,0,0,0,0,0,0,0,0,0,0,0,0,0,0,0,0,0,0,0,0,0,0,0,0,0,0,0,0,0,0,0,0,0,0,0,0,0,0,0,0,0,0,255,240,239,235,237,238,239,239,238,237,235,239,240,255},
   2097                            {255,0,0,0,0,0,0,0,0,0,0,0,0,0,0,0,0,0,0,0,0,0,0,0,0,0,0,0,0,0,0,0,0,0,0,0,0,0,0,0,0,0,0,0,0,0,0,0,0,0,0,0,0,0,0,0,0,0,0,0,0,0,0,0,0,0,0,0,0,0,0,0,0,0,0,0,0,0,0,0,0,0,0,0,0,0,0,0,0,0,0,0,0,0,0,0,0,0,0,0,0,0,0,0,0,0,0,0,0,0,0,0,0,0,255,255,255,255,255,255,255,255,255,255,255,255,255,255},
   2098                            {255,0,0,0,0,0,0,0,0,0,0,0,0,0,0,0,0,0,0,0,0,0,0,0,0,0,0,0,0,0,0,0,0,0,0,0,0,0,0,0,0,0,0,0,0,0,0,0,0,0,0,0,0,0,0,0,0,0,0,0,0,0,0,0,0,0,0,0,0,0,0,0,0,0,0,0,0,0,0,0,0,0,0,0,0,0,0,0,0,0,0,0,0,0,0,0,0,0,0,0,0,0,0,0,0,0,0,0,0,0,0,0,0,0,255,255,255,255,255,255,255,255,255,255,255,255,255,255},
   2099                            {255,0,0,0,0,0,0,0,0,0,0,0,0,0,0,0,0,0,0,0,0,0,0,0,0,0,0,0,0,0,0,0,0,0,0,0,0,0,0,0,0,0,0,0,0,0,0,0,0,0,0,0,0,0,0,0,0,0,0,0,0,0,0,0,0,0,0,0,0,0,0,0,0,0,0,0,0,0,0,0,0,0,0,0,0,0,0,0,0,0,0,0,0,0,0,0,0,0,0,0,0,0,0,0,0,0,0,0,0,0,0,0,0,0,255,255,255,255,255,255,255,255,255,255,255,255,255,255},
   2100                            {255,0,0,0,0,0,0,0,0,0,0,0,0,0,0,0,0,0,0,0,0,0,0,0,0,0,0,0,0,0,0,0,0,0,0,0,0,0,0,0,0,0,0,0,0,0,0,0,0,0,0,0,0,0,0,0,0,0,0,0,0,0,0,0,0,0,0,0,0,0,0,0,0,0,0,0,0,0,0,0,0,0,0,0,0,0,0,0,0,0,0,0,0,0,0,0,0,0,0,0,0,0,0,0,0,0,0,0,0,0,0,0,0,0,255,255,255,255,255,255,255,255,255,255,255,255,255,255},
   2101                            {255,96,32,32,32,32,32,32,32,32,32,32,32,32,32,32,224,96,160,96,160,96,160,96,160,96,160,96,160,96,160,96,160,96,160,96,160,96,160,96,160,96,160,96,160,96,160,96,160,96,160,96,160,96,160,96,160,96,160,96,160,96,160,96,160,96,160,96,160,96,160,96,160,96,160,96,160,96,160,96,160,96,160,96,160,96,160,96,160,96,160,96,160,96,160,96,160,96,224,32,32,32,32,32,32,32,32,32,32,32,32,32,32,96,255,255,255,255,255,255,255,255,255,255,255,255,255,255},
   2102                            {127,192,128,128,128,128,132,142,159,155,128,128,128,128,128,128,255,213,170,213,170,213,170,213,170,213,170,213,170,213,170,213,170,213,170,213,170,213,170,213,170,213,170,213,170,213,170,213,170,213,170,213,170,213,170,213,170,213,170,213,170,213,170,213,170,213,170,213,170,213,170,213,170,213,170,213,170,213,170,213,170,213,170,213,170,213,170,213,170,213,170,213,170,213,170,213,170,213,255,128,128,128,128,155,159,142,132,128,128,128,128,128,128,192,255,255,255,255,255,255,255,255,255,255,255,255,127,63},
   2103                            };
   \   0000000A   324F               LDR      R7,??ScrollList_Paint_0+0x4  ;; `?<Constant {{254, 1, 1, 1, 1, 1, 1, 1, 1, 1, 1`
   \   0000000C   04A8               ADD      R0,SP,#+16
   \   0000000E   3900               MOVS     R1,R7
   \   00000010   8022               MOVS     R2,#+128
   \   00000012   D200               LSLS     R2,R2,#+3        ;; #+1024
   \   00000014   ........           BL       __aeabi_memcpy4
   2104               
   2105                 
   2106                  char suwak[14] = {128,255,255,255,255,224,238,238,224,255,255,255,255,128};
   \   00000018   6846               MOV      R0,SP
   \   0000001A   8021               MOVS     R1,#+128
   \   0000001C   C900               LSLS     R1,R1,#+3        ;; #+1024
   \   0000001E   7918               ADDS     R1,R7,R1
   \   00000020   1022               MOVS     R2,#+16
   \   00000022   ........           BL       __aeabi_memcpy4
   2107                  
   2108                  int Suw_poz_tmp;
   2109                  //rysowanie wskaŸnika po³o¿enia
   2110                  if (Size_scroll>50)
   \   00000026   332D               CMP      R5,#+51
   \   00000028   1BDB               BLT      ??ScrollList_Paint_1
   2111                  {
   2112                      Suw_poz_tmp=98-(((*_Suw_poz)*67)/Size_scroll)-14;
   \   0000002A   5424               MOVS     R4,#+84
   \   0000002C   FFA8               ADD      R0,SP,#+1020
   \   0000002E   C069               LDR      R0,[R0, #+28]
   \   00000030   0068               LDR      R0,[R0, #+0]
   \   00000032   4321               MOVS     R1,#+67
   \   00000034   4843               MULS     R0,R1,R0
   \   00000036   2900               MOVS     R1,R5
   \   00000038   ........           BL       __aeabi_idivmod
   \   0000003C   241A               SUBS     R4,R4,R0
   2113              
   2114                      for (int i=(Suw_poz_tmp); i<=Suw_poz_tmp+13; i++)
   \   0000003E   2100               MOVS     R1,R4
   \   00000040   2000               MOVS     R0,R4
   \   00000042   0D30               ADDS     R0,R0,#+13
   \   00000044   8842               CMP      R0,R1
   \   00000046   0CDB               BLT      ??ScrollList_Paint_1
   \   00000048   E022               MOVS     R2,#+224
   \   0000004A   9200               LSLS     R2,R2,#+2        ;; #+896
   \   0000004C   04AB               ADD      R3,SP,#+16
   \   0000004E   5B18               ADDS     R3,R3,R1
   \   00000050   9A18               ADDS     R2,R3,R2
   \   00000052   6B46               MOV      R3,SP
   2115                      {
   2116                        ekran_tab[7][i]=suwak[i-Suw_poz_tmp];
   \                     ??ScrollList_Paint_2:
   \   00000054   1F78               LDRB     R7,[R3, #+0]
   \   00000056   1770               STRB     R7,[R2, #+0]
   2117                      }
   \   00000058   491C               ADDS     R1,R1,#+1
   \   0000005A   5B1C               ADDS     R3,R3,#+1
   \   0000005C   521C               ADDS     R2,R2,#+1
   \   0000005E   8842               CMP      R0,R1
   \   00000060   F8DA               BGE      ??ScrollList_Paint_2
   2118                  }
   2119                  
   2120                  CopyToCanvas(ekran_tab);
   \                     ??ScrollList_Paint_1:
   \   00000062   04A8               ADD      R0,SP,#+16
   \   00000064   ........           BL       CopyToCanvas
   2121                  
   2122                  Label(name,0,15,116,15,46,0,127,1);  //(char *Vstring, char alig, char X, int Y, char maxChar, char clean, char minY, char maxY, char negatyw) 
   \   00000068   82B0               SUB      SP,SP,#+8
   \   0000006A   0120               MOVS     R0,#+1
   \   0000006C   0090               STR      R0,[SP, #+0]
   \   0000006E   7F21               MOVS     R1,#+127
   \   00000070   0020               MOVS     R0,#+0
   \   00000072   03B4               PUSH     {R0,R1}
   \   00000074   2E21               MOVS     R1,#+46
   \   00000076   0F20               MOVS     R0,#+15
   \   00000078   03B4               PUSH     {R0,R1}
   \   0000007A   7423               MOVS     R3,#+116
   \   0000007C   0F22               MOVS     R2,#+15
   \   0000007E   0021               MOVS     R1,#+0
   \   00000080   FFA8               ADD      R0,SP,#+1020
   \   00000082   006B               LDR      R0,[R0, #+48]
   \   00000084   ........           BL       Label
   \   00000088   06B0               ADD      SP,SP,#+24
   2123                  if ((poz) && (Size_scroll>50))
   \   0000008A   002E               CMP      R6,#+0
   \   0000008C   1BD0               BEQ      ??ScrollList_Paint_3
   \   0000008E   332D               CMP      R5,#+51
   \   00000090   19DB               BLT      ??ScrollList_Paint_3
   2124                  {
   2125                    H_line(54,Suw_poz_tmp,9,0);
   \   00000092   0023               MOVS     R3,#+0
   \   00000094   0922               MOVS     R2,#+9
   \   00000096   2100               MOVS     R1,R4
   \   00000098   3620               MOVS     R0,#+54
   \   0000009A   ........           BL       H_line
   2126                    H_line(54,Suw_poz_tmp+13,9,0);
   \   0000009E   0023               MOVS     R3,#+0
   \   000000A0   0922               MOVS     R2,#+9
   \   000000A2   2100               MOVS     R1,R4
   \   000000A4   0D31               ADDS     R1,R1,#+13
   \   000000A6   3620               MOVS     R0,#+54
   \   000000A8   ........           BL       H_line
   2127                    V_line(54,Suw_poz_tmp+1,12,1); 
   \   000000AC   641C               ADDS     R4,R4,#+1
   \   000000AE   0123               MOVS     R3,#+1
   \   000000B0   0C22               MOVS     R2,#+12
   \   000000B2   2100               MOVS     R1,R4
   \   000000B4   3620               MOVS     R0,#+54
   \   000000B6   ........           BL       V_line
   2128                    V_line(55,Suw_poz_tmp+1,12,1); 
   \   000000BA   0123               MOVS     R3,#+1
   \   000000BC   0C22               MOVS     R2,#+12
   \   000000BE   2100               MOVS     R1,R4
   \   000000C0   3720               MOVS     R0,#+55
   \   000000C2   ........           BL       V_line
   2129                  }
   2130              
   2131              }//_________________________________________________________________________
   \                     ??ScrollList_Paint_3:
   \   000000C6   0448               LDR      R0,??ScrollList_Paint_0+0x8  ;; 0x41c
   \   000000C8   8544               ADD      SP,SP,R0
   \   000000CA   F0BC               POP      {R4-R7}
   \   000000CC   01BC               POP      {R0}
   \   000000CE   0047               BX       R0               ;; return
   \                     ??ScrollList_Paint_0:
   \   000000D0   ECFBFFFF           DC32     0xfffffbec
   \   000000D4   ........           DC32     `?<Constant {{254, 1, 1, 1, 1, 1, 1, 1, 1, 1, 1`
   \   000000D8   1C040000           DC32     0x41c
   2132          
   2133          
   2134          
   2135          
   2136          
   2137          //*-----------------------------------------------------------------------------
   2138          //* Nazwa funkcji :    Ask_Paint
   2139          //* Funkcja rysowania listy
   2140          //*-----------------------------------------------------------------------------
   2141          //* name[7]   -  Nazwa listy
   2142          //* p1...p2   - nazwy kolejnych pól
   2143          //*-----------------------------------------------------------------------------

   \                                 In section Debug.txt, align 4, keep-with-next
   2144          void Ask_Paint(char name[10], char p1[15], char p2[15])
   2145          {
   \                     Ask_Paint:
   \   00000000   F0B5               PUSH     {R4-R7,LR}
   \   00000002   9FB0               SUB      SP,SP,#+124
   \   00000004   0700               MOVS     R7,R0
   \   00000006   0C00               MOVS     R4,R1
   \   00000008   1500               MOVS     R5,R2
   2146          
   2147          
   2148              List_Paint(name,1,47,25,0,3," "); //(char name[7], char Rows, char RowWith, char Y, char FormStyle, char back, char p1[12], char p2[12] , char p3[12] , char p4[12] , char p5[12] , char p6[12] , char p7[12] , char p8[12])
   \   0000000A   2CA6               ADR      R6,??Ask_Paint_0  ;; 0x20, 0x00, 0x00, 0x00
   \   0000000C   82B0               SUB      SP,SP,#+8
   \   0000000E   0096               STR      R6,[SP, #+0]
   \   00000010   0321               MOVS     R1,#+3
   \   00000012   0020               MOVS     R0,#+0
   \   00000014   03B4               PUSH     {R0,R1}
   \   00000016   1923               MOVS     R3,#+25
   \   00000018   2F22               MOVS     R2,#+47
   \   0000001A   0121               MOVS     R1,#+1
   \   0000001C   3800               MOVS     R0,R7
   \   0000001E   ........           BL       List_Paint
   \   00000022   04B0               ADD      SP,SP,#+16
   2149                 
   2150              
   2151             if (p1!="") Label(p1,2,2,71,15,59,0,127,0);  //(char *Vstring, char alig, char X, int Y, char maxChar, char clean, char minY, char maxY, char negatyw) 
   \   00000024   26A7               ADR      R7,??Ask_Paint_0+0x4  ;; 0x00, 0x00, 0x00, 0x00
   \   00000026   BC42               CMP      R4,R7
   \   00000028   0ED0               BEQ      ??Ask_Paint_1
   \   0000002A   82B0               SUB      SP,SP,#+8
   \   0000002C   0020               MOVS     R0,#+0
   \   0000002E   0090               STR      R0,[SP, #+0]
   \   00000030   7F21               MOVS     R1,#+127
   \   00000032   03B4               PUSH     {R0,R1}
   \   00000034   3B21               MOVS     R1,#+59
   \   00000036   0F20               MOVS     R0,#+15
   \   00000038   03B4               PUSH     {R0,R1}
   \   0000003A   4723               MOVS     R3,#+71
   \   0000003C   0222               MOVS     R2,#+2
   \   0000003E   0221               MOVS     R1,#+2
   \   00000040   2000               MOVS     R0,R4
   \   00000042   ........           BL       Label
   \   00000046   06B0               ADD      SP,SP,#+24
   2152             if (p2!="")  Label(p2,2,2,62,15,59,0,127,0);  //(char *Vstring, char alig, char X, int Y, char maxChar, char clean, char minY, char maxY, char negatyw) 
   \                     ??Ask_Paint_1:
   \   00000048   BD42               CMP      R5,R7
   \   0000004A   0ED0               BEQ      ??Ask_Paint_2
   \   0000004C   82B0               SUB      SP,SP,#+8
   \   0000004E   0020               MOVS     R0,#+0
   \   00000050   0090               STR      R0,[SP, #+0]
   \   00000052   7F21               MOVS     R1,#+127
   \   00000054   03B4               PUSH     {R0,R1}
   \   00000056   3B21               MOVS     R1,#+59
   \   00000058   0F20               MOVS     R0,#+15
   \   0000005A   03B4               PUSH     {R0,R1}
   \   0000005C   3E23               MOVS     R3,#+62
   \   0000005E   0222               MOVS     R2,#+2
   \   00000060   0221               MOVS     R1,#+2
   \   00000062   2800               MOVS     R0,R5
   \   00000064   ........           BL       Label
   \   00000068   06B0               ADD      SP,SP,#+24
   2153              Label(" ",2,2,53,15,59,0,127,0);  //(char *Vstring, char alig, char X, int Y, char maxChar, char clean, char minY, char maxY, char negatyw) 
   \                     ??Ask_Paint_2:
   \   0000006A   82B0               SUB      SP,SP,#+8
   \   0000006C   0020               MOVS     R0,#+0
   \   0000006E   0090               STR      R0,[SP, #+0]
   \   00000070   7F21               MOVS     R1,#+127
   \   00000072   03B4               PUSH     {R0,R1}
   \   00000074   3B21               MOVS     R1,#+59
   \   00000076   0F20               MOVS     R0,#+15
   \   00000078   03B4               PUSH     {R0,R1}
   \   0000007A   3523               MOVS     R3,#+53
   \   0000007C   0222               MOVS     R2,#+2
   \   0000007E   0221               MOVS     R1,#+2
   \   00000080   3000               MOVS     R0,R6
   \   00000082   ........           BL       Label
   \   00000086   06B0               ADD      SP,SP,#+24
   2154          
   2155          
   2156              
   2157              char ekran_tab[8][15] = {
   2158                            {249,13,245,245,245,245,245,245,245,245,245,245,245,13,249},
   2159                            {255,0,255,255,119,55,55,87,103,103,119,255,255,0,255},
   2160                            {255,0,255,255,199,187,187,187,187,187,199,255,255,0,255},
   2161                            {63,96,95,95,95,95,95,95,95,95,95,95,95,96,63},
   2162                            {254,3,253,253,253,253,253,253,253,253,253,253,253,3,254},
   2163                            {255,0,255,255,227,221,221,221,221,221,227,255,255,0,255},
   2164                            {255,0,255,255,238,246,250,252,250,246,238,255,255,0,255},
   2165                            {207,216,215,215,215,215,215,215,215,215,215,215,215,216,207},
   2166                            };
   \   00000088   6846               MOV      R0,SP
   \   0000008A   0E49               LDR      R1,??Ask_Paint_0+0x8  ;; `?<Constant {{249, 13, 245, 245, 245, 245, 245,`
   \   0000008C   7822               MOVS     R2,#+120
   \   0000008E   ........           BL       __aeabi_memcpy4
   2167              
   2168              CopyToCanvasPoint((char *)ekran_tab,0,40,64,15); 
   \   00000092   82B0               SUB      SP,SP,#+8
   \   00000094   0F20               MOVS     R0,#+15
   \   00000096   0090               STR      R0,[SP, #+0]
   \   00000098   4023               MOVS     R3,#+64
   \   0000009A   2822               MOVS     R2,#+40
   \   0000009C   0021               MOVS     R1,#+0
   \   0000009E   02A8               ADD      R0,SP,#+8
   \   000000A0   ........           BL       CopyToCanvasPoint
   \   000000A4   02B0               ADD      SP,SP,#+8
   2169              H_line(2,57,59,1); 
   \   000000A6   0123               MOVS     R3,#+1
   \   000000A8   3B22               MOVS     R2,#+59
   \   000000AA   3921               MOVS     R1,#+57
   \   000000AC   0220               MOVS     R0,#+2
   \   000000AE   ........           BL       H_line
   2170              
   2171              
   2172          }//_______________________ Koniec funkcji Ask_Paint __________________________
   \   000000B2   1FB0               ADD      SP,SP,#+124
   \   000000B4   F0BC               POP      {R4-R7}
   \   000000B6   01BC               POP      {R0}
   \   000000B8   0047               BX       R0               ;; return
   \   000000BA   C046               Nop      
   \                     ??Ask_Paint_0:
   \   000000BC   20000000           DC8      0x20, 0x00, 0x00, 0x00
   \   000000C0   00000000           DC8      0x00, 0x00, 0x00, 0x00
   \   000000C4   ........           DC32     `?<Constant {{249, 13, 245, 245, 245, 245, 245,`
   2173          
   2174          
   2175          
   2176          
   2177          //*-----------------------------------------------------------------------------
   2178          //* Nazwa funkcji :    List_Event
   2179          //* Funkcja rysowania listy
   2180          //*-----------------------------------------------------------------------------
   2181          //* name[7]   -  Nazwa listy
   2182          //* Rows      -  ilosc wierszy
   2183          //* RowWith   -  szerokosc wiersza
   2184          //* Y         -  odsuniecie od górnej krawêdzi
   2185          //* p1...p8   - nazwy kolejnych pól
   2186          //*-----------------------------------------------------------------------------

   \                                 In section Debug.txt, align 4, keep-with-next
   2187          int Ask_Event(int X_up, int Y_up, int X_down, int Y_down)
   2188          {
   \                     Ask_Event:
   \   00000000   F7B5               PUSH     {R0-R2,R4-R7,LR}
   \   00000002   1C00               MOVS     R4,R3
   \   00000004   0025               MOVS     R5,#+0
   2189            char Y=25;
   2190            
   2191            char podswietl=0;
                        ^
Warning[Pe550]: variable "podswietl" was set but never used
   2192            int ans = 0;
   2193            
   2194          
   2195          
   2196          
   2197            
   2198            //zdarzenie typu down 
   2199              for (char i=0; i<=30; i=i+30)
   \   00000006   0026               MOVS     R6,#+0
   2200              {
   2201            
   2202                  if ((X_down>2+i) && (X_down<51+i) &&  (Y_down>38) && (Y_down<55))   
   \                     ??Ask_Event_0:
   \   00000008   3000               MOVS     R0,R6
   \   0000000A   801C               ADDS     R0,R0,#+2
   \   0000000C   0299               LDR      R1,[SP, #+8]
   \   0000000E   8842               CMP      R0,R1
   \   00000010   29DA               BGE      ??Ask_Event_1
   \   00000012   3000               MOVS     R0,R6
   \   00000014   3330               ADDS     R0,R0,#+51
   \   00000016   8142               CMP      R1,R0
   \   00000018   25DA               BGE      ??Ask_Event_1
   \   0000001A   272C               CMP      R4,#+39
   \   0000001C   23DB               BLT      ??Ask_Event_1
   \   0000001E   372C               CMP      R4,#+55
   \   00000020   21DA               BGE      ??Ask_Event_1
   2203                  {  
   2204                    //MenuPaint();
   2205                    H_line(4+i,41,26,1);
   \   00000022   3700               MOVS     R7,R6
   \   00000024   3F1D               ADDS     R7,R7,#+4
   \   00000026   0123               MOVS     R3,#+1
   \   00000028   1A22               MOVS     R2,#+26
   \   0000002A   2921               MOVS     R1,#+41
   \   0000002C   3806               LSLS     R0,R7,#+24
   \   0000002E   000E               LSRS     R0,R0,#+24
   \   00000030   ........           BL       H_line
   2206                    H_line(4+i,53,26,1);
   \   00000034   0123               MOVS     R3,#+1
   \   00000036   1A22               MOVS     R2,#+26
   \   00000038   3521               MOVS     R1,#+53
   \   0000003A   3806               LSLS     R0,R7,#+24
   \   0000003C   000E               LSRS     R0,R0,#+24
   \   0000003E   ........           BL       H_line
   2207                    V_line(3+i,41,12,1);
   \   00000042   0123               MOVS     R3,#+1
   \   00000044   0C22               MOVS     R2,#+12
   \   00000046   2921               MOVS     R1,#+41
   \   00000048   3000               MOVS     R0,R6
   \   0000004A   C01C               ADDS     R0,R0,#+3
   \   0000004C   0006               LSLS     R0,R0,#+24
   \   0000004E   000E               LSRS     R0,R0,#+24
   \   00000050   ........           BL       V_line
   2208                    V_line(29+i,42,13,1);
   \   00000054   0123               MOVS     R3,#+1
   \   00000056   0D22               MOVS     R2,#+13
   \   00000058   2A21               MOVS     R1,#+42
   \   0000005A   3000               MOVS     R0,R6
   \   0000005C   1D30               ADDS     R0,R0,#+29
   \   0000005E   0006               LSLS     R0,R0,#+24
   \   00000060   000E               LSRS     R0,R0,#+24
   \   00000062   ........           BL       V_line
   2209                    podswietl=1;
   2210                  }
   2211              }
   \                     ??Ask_Event_1:
   \   00000066   1E36               ADDS     R6,R6,#+30
   \   00000068   3006               LSLS     R0,R6,#+24
   \   0000006A   000E               LSRS     R0,R0,#+24
   \   0000006C   1F28               CMP      R0,#+31
   \   0000006E   CBD3               BCC      ??Ask_Event_0
   2212          
   2213           
   2214            //zdarzenie typu down "X"
   2215              if ((X_down>46) && (X_down<63) && (Y_down>112-Y) && (Y_down<127-Y))    //"X"
   \   00000070   0298               LDR      R0,[SP, #+8]
   \   00000072   2F28               CMP      R0,#+47
   \   00000074   1DDB               BLT      ??Ask_Event_2
   \   00000076   3F28               CMP      R0,#+63
   \   00000078   1BDA               BGE      ??Ask_Event_2
   \   0000007A   582C               CMP      R4,#+88
   \   0000007C   19DB               BLT      ??Ask_Event_2
   \   0000007E   662C               CMP      R4,#+102
   \   00000080   17DA               BGE      ??Ask_Event_2
   2216              {
   2217                //MenuPaint();
   2218                H_line(49,114-Y,10,0);
   \   00000082   0023               MOVS     R3,#+0
   \   00000084   0A22               MOVS     R2,#+10
   \   00000086   5921               MOVS     R1,#+89
   \   00000088   3120               MOVS     R0,#+49
   \   0000008A   ........           BL       H_line
   2219                H_line(49,123-Y,10,0); 
   \   0000008E   2B00               MOVS     R3,R5
   \   00000090   0A22               MOVS     R2,#+10
   \   00000092   6221               MOVS     R1,#+98
   \   00000094   3120               MOVS     R0,#+49
   \   00000096   ........           BL       H_line
   2220                V_line(49,114-Y,10,0); 
   \   0000009A   2B00               MOVS     R3,R5
   \   0000009C   0A22               MOVS     R2,#+10
   \   0000009E   5921               MOVS     R1,#+89
   \   000000A0   3120               MOVS     R0,#+49
   \   000000A2   ........           BL       V_line
   2221                V_line(58,114-Y,10,0); 
   \   000000A6   2B00               MOVS     R3,R5
   \   000000A8   0A22               MOVS     R2,#+10
   \   000000AA   5921               MOVS     R1,#+89
   \   000000AC   3A20               MOVS     R0,#+58
   \   000000AE   ........           BL       V_line
   2222                podswietl=1;
   2223              }
   2224            
   2225              
   2226              if ((X_up>46) && (X_up<63) && (Y_up>112-Y) && (Y_up<127-Y))                    //"X"
   \                     ??Ask_Event_2:
   \   000000B2   0098               LDR      R0,[SP, #+0]
   \   000000B4   2F28               CMP      R0,#+47
   \   000000B6   07DB               BLT      ??Ask_Event_3
   \   000000B8   3F28               CMP      R0,#+63
   \   000000BA   05DA               BGE      ??Ask_Event_3
   \   000000BC   0198               LDR      R0,[SP, #+4]
   \   000000BE   5828               CMP      R0,#+88
   \   000000C0   02DB               BLT      ??Ask_Event_3
   \   000000C2   6628               CMP      R0,#+102
   \   000000C4   00DA               BGE      ??Ask_Event_3
   2227              {
   2228                ans = -1;
   \   000000C6   ED43               MVNS     R5,R5            ;; #-1
   2229              }  
   2230          
   2231              
   2232                //zdarzenie typu down 
   2233              for (char i=0; i<=1; i++)
   \                     ??Ask_Event_3:
   \   000000C8   0022               MOVS     R2,#+0
   \   000000CA   0221               MOVS     R1,#+2
   2234              {
   2235                  if ((X_up>2+(i*30)) && (X_up<51+(i*30)) &&  (Y_up>38) && (Y_up<55))   
   \                     ??Ask_Event_4:
   \   000000CC   0098               LDR      R0,[SP, #+0]
   \   000000CE   8142               CMP      R1,R0
   \   000000D0   0BDA               BGE      ??Ask_Event_5
   \   000000D2   0300               MOVS     R3,R0
   \   000000D4   0800               MOVS     R0,R1
   \   000000D6   3130               ADDS     R0,R0,#+49
   \   000000D8   8342               CMP      R3,R0
   \   000000DA   06DA               BGE      ??Ask_Event_5
   \   000000DC   0198               LDR      R0,[SP, #+4]
   \   000000DE   2728               CMP      R0,#+39
   \   000000E0   03DB               BLT      ??Ask_Event_5
   \   000000E2   3728               CMP      R0,#+55
   \   000000E4   01DA               BGE      ??Ask_Event_5
   2236                  {  
   2237                     ans=i+1;
   \   000000E6   1500               MOVS     R5,R2
   \   000000E8   6D1C               ADDS     R5,R5,#+1
   2238                  }
   2239              }
   \                     ??Ask_Event_5:
   \   000000EA   521C               ADDS     R2,R2,#+1
   \   000000EC   1E31               ADDS     R1,R1,#+30
   \   000000EE   1006               LSLS     R0,R2,#+24
   \   000000F0   000E               LSRS     R0,R0,#+24
   \   000000F2   0228               CMP      R0,#+2
   \   000000F4   EAD3               BCC      ??Ask_Event_4
   2240          
   2241             // if ((X_down>=0) && (X_down<64) && (podswietl==0)) {MenuPaint();}
   2242          
   2243          
   2244              return ans;
   \   000000F6   2800               MOVS     R0,R5
   \   000000F8   FEBC               POP      {R1-R7}
   \   000000FA   02BC               POP      {R1}
   \   000000FC   0847               BX       R1               ;; return
   2245            
   2246          }//_______________________ Koniec funkcji List_Event __________________________
   2247          
   2248          
   2249          
   2250          
   2251          //*-----------------------------------------------------------------------------
   2252          //* Nazwa funkcji :    Info_Paint
   2253          //* Funkcja info
   2254          //*-----------------------------------------------------------------------------
   2255          //* p1...p2   - nazwy kolejnych pól
   2256          //*-----------------------------------------------------------------------------

   \                                 In section Debug.txt, align 4, keep-with-next
   2257          void Message(char p1[15], char p2[15], int MenuLevelJump)
   2258          {
   \                     Message:
   \   00000000   F1B5               PUSH     {R0,R4-R7,LR}
   \   00000002   0400               MOVS     R4,R0
   \   00000004   0D00               MOVS     R5,R1
   \   00000006   1600               MOVS     R6,R2
   2259          
   2260          
   2261              List_Paint("Info ",1,47,25,0,3,0,0,0,0,0,0,0,0); //(char name[7], char Rows, char RowWith, char Y, char FormStyle, char back, char p1[12], char p2[12] , char p3[12] , char p4[12] , char p5[12] , char p6[12] , char p7[12] , char p8[12])
   \   00000008   0021               MOVS     R1,#+0
   \   0000000A   0020               MOVS     R0,#+0
   \   0000000C   03B4               PUSH     {R0,R1}
   \   0000000E   03B4               PUSH     {R0,R1}
   \   00000010   03B4               PUSH     {R0,R1}
   \   00000012   03B4               PUSH     {R0,R1}
   \   00000014   0321               MOVS     R1,#+3
   \   00000016   03B4               PUSH     {R0,R1}
   \   00000018   1923               MOVS     R3,#+25
   \   0000001A   2F22               MOVS     R2,#+47
   \   0000001C   0121               MOVS     R1,#+1
   \   0000001E   2748               LDR      R0,??Message_0   ;; `?<Constant "Info ">`
   \   00000020   ........           BL       List_Paint
   \   00000024   0AB0               ADD      SP,SP,#+40
   2262                 
   2263              
   2264             if (p1!="")  Label(p1,2,2,71,15,59,0,127,0);  //(char *Vstring, char alig, char X, int Y, char maxChar, char clean, char minY, char maxY, char negatyw) 
   \   00000026   26A7               ADR      R7,??Message_0+0x4  ;; 0x00, 0x00, 0x00, 0x00
   \   00000028   BC42               CMP      R4,R7
   \   0000002A   0ED0               BEQ      ??Message_1
   \   0000002C   82B0               SUB      SP,SP,#+8
   \   0000002E   0020               MOVS     R0,#+0
   \   00000030   0090               STR      R0,[SP, #+0]
   \   00000032   7F21               MOVS     R1,#+127
   \   00000034   03B4               PUSH     {R0,R1}
   \   00000036   3B21               MOVS     R1,#+59
   \   00000038   0F20               MOVS     R0,#+15
   \   0000003A   03B4               PUSH     {R0,R1}
   \   0000003C   4723               MOVS     R3,#+71
   \   0000003E   0222               MOVS     R2,#+2
   \   00000040   0221               MOVS     R1,#+2
   \   00000042   2000               MOVS     R0,R4
   \   00000044   ........           BL       Label
   \   00000048   06B0               ADD      SP,SP,#+24
   2265             if (p2!="")  Label(p2,2,2,62,15,59,0,127,0);  //(char *Vstring, char alig, char X, int Y, char maxChar, char clean, char minY, char maxY, char negatyw) 
   \                     ??Message_1:
   \   0000004A   BD42               CMP      R5,R7
   \   0000004C   0ED0               BEQ      ??Message_2
   \   0000004E   82B0               SUB      SP,SP,#+8
   \   00000050   0020               MOVS     R0,#+0
   \   00000052   0090               STR      R0,[SP, #+0]
   \   00000054   7F21               MOVS     R1,#+127
   \   00000056   03B4               PUSH     {R0,R1}
   \   00000058   3B21               MOVS     R1,#+59
   \   0000005A   0F20               MOVS     R0,#+15
   \   0000005C   03B4               PUSH     {R0,R1}
   \   0000005E   3E23               MOVS     R3,#+62
   \   00000060   0222               MOVS     R2,#+2
   \   00000062   0221               MOVS     R1,#+2
   \   00000064   2800               MOVS     R0,R5
   \   00000066   ........           BL       Label
   \   0000006A   06B0               ADD      SP,SP,#+24
   2266              Label(" ",2,2,53,15,59,0,127,0);  //(char *Vstring, char alig, char X, int Y, char maxChar, char clean, char minY, char maxY, char negatyw) 
   \                     ??Message_2:
   \   0000006C   82B0               SUB      SP,SP,#+8
   \   0000006E   0020               MOVS     R0,#+0
   \   00000070   0090               STR      R0,[SP, #+0]
   \   00000072   7F21               MOVS     R1,#+127
   \   00000074   03B4               PUSH     {R0,R1}
   \   00000076   3B21               MOVS     R1,#+59
   \   00000078   0F20               MOVS     R0,#+15
   \   0000007A   03B4               PUSH     {R0,R1}
   \   0000007C   3523               MOVS     R3,#+53
   \   0000007E   0222               MOVS     R2,#+2
   \   00000080   0221               MOVS     R1,#+2
   \   00000082   10A0               ADR      R0,??Message_0+0x8  ;; 0x20, 0x00, 0x00, 0x00
   \   00000084   ........           BL       Label
   \   00000088   06B0               ADD      SP,SP,#+24
   2267              H_line(2,57,59,1); 
   \   0000008A   0123               MOVS     R3,#+1
   \   0000008C   3B22               MOVS     R2,#+59
   \   0000008E   3921               MOVS     R1,#+57
   \   00000090   0220               MOVS     R0,#+2
   \   00000092   ........           BL       H_line
   2268             
   2269              if (Button("Ok ",12,40,40,15))
   \   00000096   82B0               SUB      SP,SP,#+8
   \   00000098   0F20               MOVS     R0,#+15
   \   0000009A   0090               STR      R0,[SP, #+0]
   \   0000009C   2823               MOVS     R3,#+40
   \   0000009E   1A00               MOVS     R2,R3
   \   000000A0   0C21               MOVS     R1,#+12
   \   000000A2   09A0               ADR      R0,??Message_0+0xC  ;; "Ok "
   \   000000A4   ........           BL       Button
   \   000000A8   02B0               ADD      SP,SP,#+8
   \   000000AA   0028               CMP      R0,#+0
   \   000000AC   03D0               BEQ      ??Message_3
   2270              {
   2271                MenuLevel=MenuLevelJump;
   \   000000AE   0748               LDR      R0,??Message_0+0x10  ;; MenuLevel
   \   000000B0   0660               STR      R6,[R0, #+0]
   2272                MenuPaint();
                       ^
Warning[Pe223]: function "MenuPaint" declared implicitly
   \   000000B2   ........           BL       MenuPaint
   2273              }
   2274              
   2275              
   2276          }//_______________________ Koniec funkcji Info_Paint __________________________
   \                     ??Message_3:
   \   000000B6   ........           BL       ??Subroutine0_0
   \   000000BA   C046               Nop      
   \                     ??Message_0:
   \   000000BC   ........           DC32     `?<Constant "Info ">`
   \   000000C0   00000000           DC8      0x00, 0x00, 0x00, 0x00
   \   000000C4   20000000           DC8      0x20, 0x00, 0x00, 0x00
   \   000000C8   4F6B2000           DC8      "Ok "
   \   000000CC   ........           DC32     MenuLevel
   2277          
   2278          
   2279          
   2280          
   2281          //*-----------------------------------------------------------------------------
   2282          //* Nazwa funkcji :    List_Paint
   2283          //* Funkcja rysowania listy
   2284          //*-----------------------------------------------------------------------------
   2285          //* name[7]   -  Nazwa listy
   2286          //* Rows      -  ilosc wierszy
   2287          //* RowWith   -  szerokosc wiersza
   2288          //* Y         -  odsuniecie od górnej krawêdzi
   2289          //* FormStyle -  rodzaj formy 0-zwyk³a 1..-coraz mniejsze
   2290          //* Algin     - wyrównanie 0-pion œrodek, poziom lowo, 1-pion góra, poziom lowo, 2 pion dó³, poziom lowo, 3-pion œrodek, poziom wyœrodkowanie
   2291          //* p1...p8   - nazwy kolejnych pól
   2292          //*-----------------------------------------------------------------------------

   \                                 In section Debug.txt, align 4, keep-with-next
   2293          void Number_Paint(char name[10], char p1[1], char p2[1])
   2294          {
   \                     Number_Paint:
   \   00000000   70B5               PUSH     {R4-R6,LR}
   \   00000002   224B               LDR      R3,??Number_Paint_0  ;; 0xfffffc00
   \   00000004   9D44               ADD      SP,SP,R3
   \   00000006   0600               MOVS     R6,R0
   \   00000008   0C00               MOVS     R4,R1
   \   0000000A   1500               MOVS     R5,R2
   2295           
   2296            CleanCanvas();
   \   0000000C   ........           BL       CleanCanvas
   2297          
   2298            char ekran_tab[8][128] = {
   2299                            {254,255,3,249,5,245,245,245,245,245,245,245,245,245,245,245,245,245,245,5,249,1,1,249,5,245,245,245,245,245,245,245,245,245,245,245,245,245,245,5,249,1,1,249,5,245,245,245,245,245,245,245,245,245,245,245,245,245,245,5,249,1,1,249,5,245,245,245,245,245,245,245,245,245,245,245,245,245,245,5,249,3,255,255,255,3,3,3,3,3,3,3,3,3,3,3,3,3,3,3,3,3,3,3,3,3,3,3,3,3,3,3,255,3,255,255,255,255,255,255,255,255,255,255,255,254,252,248},
   2300                            {255,255,0,255,0,255,255,255,255,255,255,255,255,255,255,255,255,255,255,0,255,0,0,255,0,255,255,249,249,249,243,243,243,231,231,207,192,255,255,0,255,0,0,255,0,255,255,231,231,192,230,229,229,227,227,231,231,255,255,0,255,0,0,255,0,255,255,231,231,231,231,231,231,229,225,227,231,255,255,0,255,0,255,255,255,0,0,0,0,0,0,0,0,0,0,0,0,0,0,0,0,0,0,0,0,0,0,0,0,0,0,0,255,0,255,255,255,255,255,255,255,255,255,255,255,255,255,255},
   2301                            {255,255,0,7,136,139,139,139,139,139,139,139,139,139,139,139,139,139,139,136,7,0,0,7,136,139,139,139,139,139,139,139,139,139,139,139,139,139,139,136,7,0,0,7,136,139,139,139,139,139,139,139,139,139,139,139,139,139,139,136,7,0,0,7,136,139,139,139,139,139,139,139,139,139,139,139,139,139,139,136,7,0,255,255,255,0,0,0,0,0,0,0,0,0,0,0,0,0,0,0,0,0,0,0,0,0,0,0,0,0,0,0,255,0,255,255,255,255,255,255,255,255,255,255,255,255,255,255},
   2302                            {255,255,0,255,0,254,254,62,158,158,158,158,158,158,158,158,62,254,254,0,255,0,0,255,0,254,254,62,158,158,158,158,62,158,158,158,62,254,254,0,255,0,0,255,0,254,254,62,158,254,254,254,158,30,158,62,62,254,254,0,255,0,0,255,0,254,254,30,158,62,126,126,254,254,254,158,62,254,254,0,255,0,255,255,255,0,0,0,0,0,0,0,0,0,0,0,0,0,0,0,0,0,0,0,0,0,0,0,0,0,0,0,255,0,255,255,255,255,255,255,255,255,255,255,255,255,255,255},
   2303                            {255,255,0,255,0,127,127,124,121,121,121,121,121,121,121,121,124,127,127,0,255,0,0,255,0,127,127,124,121,121,121,121,124,121,121,121,124,127,127,0,255,0,0,255,0,127,127,124,121,121,121,121,121,124,127,127,120,127,127,0,255,0,0,255,0,127,127,120,127,127,126,124,124,121,121,121,124,127,127,0,255,0,255,255,255,0,0,0,0,0,0,0,0,0,0,0,0,0,0,0,0,0,0,0,0,0,0,0,0,0,0,0,255,0,255,255,255,255,255,255,255,255,255,255,255,255,255,255},
   2304                            {255,255,0,224,17,209,209,209,209,209,209,209,209,209,209,209,209,209,209,17,224,0,0,224,17,209,209,209,209,209,209,209,209,209,209,209,209,209,209,17,224,0,0,224,17,209,209,209,209,209,209,209,209,209,209,209,209,209,209,17,224,0,0,224,17,209,209,209,209,209,209,209,209,209,209,209,209,209,209,17,224,0,255,255,255,0,0,0,0,0,0,0,0,0,0,0,0,0,0,0,0,0,0,0,0,0,0,0,0,0,0,0,255,192,127,127,127,127,127,127,127,127,127,127,127,127,255,255},
   2305                            {255,255,0,255,0,255,255,255,255,255,255,255,255,255,255,255,255,255,255,0,255,0,0,255,0,255,255,199,179,63,63,7,51,51,51,51,135,255,255,0,255,0,0,255,0,255,255,135,51,51,49,49,129,241,243,55,143,255,255,0,255,0,0,255,0,255,255,135,51,63,63,63,143,63,63,51,135,255,255,0,255,0,255,255,255,0,0,0,0,0,0,0,0,0,0,0,0,0,0,0,0,0,0,0,0,0,0,0,0,0,0,0,255,0,254,255,251,247,111,159,159,111,247,251,255,254,0,255},
   2306                            {127,255,192,159,160,175,175,175,175,175,175,175,175,175,175,175,175,175,175,160,159,128,128,159,160,175,175,175,175,175,175,175,175,175,175,175,175,175,175,160,159,128,128,159,160,175,175,175,175,175,175,175,175,175,175,175,175,175,175,160,159,128,128,159,160,175,175,175,175,175,175,175,175,175,175,175,175,175,175,160,159,192,255,255,255,192,192,192,192,192,192,192,192,192,192,192,192,192,192,192,192,192,192,192,192,192,192,192,192,192,192,192,255,240,231,239,237,238,239,239,239,239,238,237,239,103,48,31},
   2307                            };
   \   00000010   6846               MOV      R0,SP
   \   00000012   1F49               LDR      R1,??Number_Paint_0+0x4  ;; `?<Constant {{254, 255, 3, 249, 5, 245, 245, 24`
   \   00000014   8022               MOVS     R2,#+128
   \   00000016   D200               LSLS     R2,R2,#+3        ;; #+1024
   \   00000018   ........           BL       __aeabi_memcpy4
   2308              
   2309              CopyToCanvas(ekran_tab);
   \   0000001C   6846               MOV      R0,SP
   \   0000001E   ........           BL       CopyToCanvas
   2310              Label(name,0,2,116,10,42,0,127,1);  //(char *Vstring, char alig, char X, int Y, char maxChar, char clean, char minY, char maxY, char negatyw) 
   \   00000022   82B0               SUB      SP,SP,#+8
   \   00000024   0120               MOVS     R0,#+1
   \   00000026   0090               STR      R0,[SP, #+0]
   \   00000028   7F21               MOVS     R1,#+127
   \   0000002A   0020               MOVS     R0,#+0
   \   0000002C   03B4               PUSH     {R0,R1}
   \   0000002E   2A21               MOVS     R1,#+42
   \   00000030   0A20               MOVS     R0,#+10
   \   00000032   03B4               PUSH     {R0,R1}
   \   00000034   7423               MOVS     R3,#+116
   \   00000036   0222               MOVS     R2,#+2
   \   00000038   0021               MOVS     R1,#+0
   \   0000003A   3000               MOVS     R0,R6
   \   0000003C   ........           BL       Label
   \   00000040   06B0               ADD      SP,SP,#+24
   2311              
   2312           
   2313              
   2314          
   2315          
   2316              Label(p1,0,9,7,2,7,0,127,1);      //(char *Vstring, char alig, char X, int Y, char maxChar, char clean, char minY, char maxY, char negatyw) 
   \   00000042   82B0               SUB      SP,SP,#+8
   \   00000044   0120               MOVS     R0,#+1
   \   00000046   0090               STR      R0,[SP, #+0]
   \   00000048   7F21               MOVS     R1,#+127
   \   0000004A   0020               MOVS     R0,#+0
   \   0000004C   03B4               PUSH     {R0,R1}
   \   0000004E   0721               MOVS     R1,#+7
   \   00000050   0220               MOVS     R0,#+2
   \   00000052   03B4               PUSH     {R0,R1}
   \   00000054   0723               MOVS     R3,#+7
   \   00000056   0922               MOVS     R2,#+9
   \   00000058   0021               MOVS     R1,#+0
   \   0000005A   2000               MOVS     R0,R4
   \   0000005C   ........           BL       Label
   \   00000060   06B0               ADD      SP,SP,#+24
   2317              Label(p2,0,51,7,2,7,0,127,1);    //(char *Vstring, char alig, char X, int Y, char maxChar, char clean, char minY, char maxY, char negatyw) 
   \   00000062   82B0               SUB      SP,SP,#+8
   \   00000064   0120               MOVS     R0,#+1
   \   00000066   0090               STR      R0,[SP, #+0]
   \   00000068   7F21               MOVS     R1,#+127
   \   0000006A   0020               MOVS     R0,#+0
   \   0000006C   03B4               PUSH     {R0,R1}
   \   0000006E   0721               MOVS     R1,#+7
   \   00000070   0220               MOVS     R0,#+2
   \   00000072   03B4               PUSH     {R0,R1}
   \   00000074   0B00               MOVS     R3,R1
   \   00000076   3322               MOVS     R2,#+51
   \   00000078   0021               MOVS     R1,#+0
   \   0000007A   2800               MOVS     R0,R5
   \   0000007C   ........           BL       Label
   \   00000080   06B0               ADD      SP,SP,#+24
   2318              
   2319          }//_______________________ Koniec funkcji List_Paint __________________________
   \   00000082   8020               MOVS     R0,#+128
   \   00000084   C000               LSLS     R0,R0,#+3        ;; #+1024
   \   00000086   8544               ADD      SP,SP,R0
   \   00000088   ........           BL       ??Subroutine1_0
   \                     ??Number_Paint_0:
   \   0000008C   00FCFFFF           DC32     0xfffffc00
   \   00000090   ........           DC32     `?<Constant {{254, 255, 3, 249, 5, 245, 245, 24`
   2320          
   2321          
   2322          
   2323          
   2324          
   2325          //*-----------------------------------------------------------------------------
   2326          //* Nazwa funkcji :    Number_Event
   2327          //* Funkcja rysowania listy
   2328          //*-----------------------------------------------------------------------------
   2329          //* name[7]   -  Nazwa listy
   2330          //* Rows      -  ilosc wierszy
   2331          //* RowWith   -  szerokosc wiersza
   2332          //* Y         -  odsuniecie od górnej krawêdzi
   2333          //* p1...p8   - nazwy kolejnych pól
   2334          //*-----------------------------------------------------------------------------

   \                                 In section Debug.txt, align 4, keep-with-next
   2335          int Number_Event(int X_up, int Y_up, int X_down, int Y_down)
   2336          {
   \                     Number_Event:
   \   00000000   F1B5               PUSH     {R0,R4-R7,LR}
   \   00000002   84B0               SUB      SP,SP,#+16
   \   00000004   0E00               MOVS     R6,R1
   \   00000006   1400               MOVS     R4,R2
   \   00000008   1F00               MOVS     R7,R3
   2337          
   2338            char podswietl=0;
   \   0000000A   0020               MOVS     R0,#+0
   \   0000000C   0025               MOVS     R5,#+0
   2339            int ans = 0;
   \   0000000E   0290               STR      R0,[SP, #+8]
   2340            char kol = 0;
   2341            char row = 0;
   2342            
   2343          
   2344          
   2345            //zdarzenie typu down (najechanie na przycisk)
   2346            if ((X_down>1) && (X_down<62) && (Y_down>3) && (Y_down<81) && (X_down!=21) && (X_down!=42) && (Y_down!=61) && (Y_down!=41) && (Y_down!=21) )   
   \   00000010   022C               CMP      R4,#+2
   \   00000012   4BDB               BLT      ??Number_Event_0
   \   00000014   3E2C               CMP      R4,#+62
   \   00000016   49DA               BGE      ??Number_Event_0
   \   00000018   042F               CMP      R7,#+4
   \   0000001A   47DB               BLT      ??Number_Event_0
   \   0000001C   512F               CMP      R7,#+81
   \   0000001E   45DA               BGE      ??Number_Event_0
   \   00000020   152C               CMP      R4,#+21
   \   00000022   43D0               BEQ      ??Number_Event_0
   \   00000024   2A2C               CMP      R4,#+42
   \   00000026   41D0               BEQ      ??Number_Event_0
   \   00000028   3D2F               CMP      R7,#+61
   \   0000002A   3FD0               BEQ      ??Number_Event_0
   \   0000002C   292F               CMP      R7,#+41
   \   0000002E   3DD0               BEQ      ??Number_Event_0
   \   00000030   152F               CMP      R7,#+21
   \   00000032   3BD0               BEQ      ??Number_Event_0
   2347              {
   2348                kol = (((X_down-1)/21))*21;
   \   00000034   601E               SUBS     R0,R4,#+1
   \   00000036   1521               MOVS     R1,#+21
   \   00000038   ........           BL       __aeabi_idivmod
   \   0000003C   0500               MOVS     R5,R0
   \   0000003E   1520               MOVS     R0,#+21
   \   00000040   4543               MULS     R5,R0,R5
   \   00000042   2D06               LSLS     R5,R5,#+24
   \   00000044   2D0E               LSRS     R5,R5,#+24
   2349                row = (((Y_down-3)/20))*20;
   \   00000046   F81E               SUBS     R0,R7,#+3
   \   00000048   1421               MOVS     R1,#+20
   \   0000004A   ........           BL       __aeabi_idivmod
   \   0000004E   1421               MOVS     R1,#+20
   \   00000050   4843               MULS     R0,R1,R0
   \   00000052   0006               LSLS     R0,R0,#+24
   \   00000054   000E               LSRS     R0,R0,#+24
   \   00000056   0090               STR      R0,[SP, #+0]
   2350                
   2351                MenuPaint();   
                       ^
Warning[Pe223]: function "MenuPaint" declared implicitly
   \   00000058   ........           BL       MenuPaint
   2352                
   2353                H_line(kol+3, row+4, 16,1);
   \   0000005C   0098               LDR      R0,[SP, #+0]
   \   0000005E   0006               LSLS     R0,R0,#+24
   \   00000060   000E               LSRS     R0,R0,#+24
   \   00000062   0390               STR      R0,[SP, #+12]
   \   00000064   001D               ADDS     R0,R0,#+4
   \   00000066   0090               STR      R0,[SP, #+0]
   \   00000068   6846               MOV      R0,SP
   \   0000006A   2900               MOVS     R1,R5
   \   0000006C   C91C               ADDS     R1,R1,#+3
   \   0000006E   0171               STRB     R1,[R0, #+4]
   \   00000070   0123               MOVS     R3,#+1
   \   00000072   1022               MOVS     R2,#+16
   \   00000074   0099               LDR      R1,[SP, #+0]
   \   00000076   0079               LDRB     R0,[R0, #+4]
   \   00000078   ........           BL       H_line
   2354                H_line(kol+3, row+19, 16,1);
   \   0000007C   0123               MOVS     R3,#+1
   \   0000007E   1022               MOVS     R2,#+16
   \   00000080   0399               LDR      R1,[SP, #+12]
   \   00000082   1331               ADDS     R1,R1,#+19
   \   00000084   6846               MOV      R0,SP
   \   00000086   0079               LDRB     R0,[R0, #+4]
   \   00000088   ........           BL       H_line
   2355                V_line(kol+3, row+4, 16,1);
   \   0000008C   0123               MOVS     R3,#+1
   \   0000008E   1022               MOVS     R2,#+16
   \   00000090   0099               LDR      R1,[SP, #+0]
   \   00000092   6846               MOV      R0,SP
   \   00000094   0079               LDRB     R0,[R0, #+4]
   \   00000096   ........           BL       V_line
   2356                V_line(kol+18, row+4, 16,1);
   \   0000009A   0123               MOVS     R3,#+1
   \   0000009C   1022               MOVS     R2,#+16
   \   0000009E   0099               LDR      R1,[SP, #+0]
   \   000000A0   1235               ADDS     R5,R5,#+18
   \   000000A2   2806               LSLS     R0,R5,#+24
   \   000000A4   000E               LSRS     R0,R0,#+24
   \   000000A6   ........           BL       V_line
   2357             
   2358                podswietl=1;
   \   000000AA   0125               MOVS     R5,#+1
   2359              }
   2360           
   2361          
   2362              
   2363            //zdarzenie typu down "X"
   2364              if ((X_down>46) && (X_down<63) && (Y_down>112) && (Y_down<127))    //"X"
   \                     ??Number_Event_0:
   \   000000AC   2F2C               CMP      R4,#+47
   \   000000AE   20DB               BLT      ??Number_Event_1
   \   000000B0   3F2C               CMP      R4,#+63
   \   000000B2   1EDA               BGE      ??Number_Event_1
   \   000000B4   712F               CMP      R7,#+113
   \   000000B6   1CDB               BLT      ??Number_Event_1
   \   000000B8   7F2F               CMP      R7,#+127
   \   000000BA   1ADA               BGE      ??Number_Event_1
   2365              {
   2366                MenuPaint();
                       ^
Warning[Pe223]: function "MenuPaint" declared implicitly
   \   000000BC   ........           BL       MenuPaint
   2367                H_line(49,115,10,0);
   \   000000C0   0023               MOVS     R3,#+0
   \   000000C2   0A22               MOVS     R2,#+10
   \   000000C4   7321               MOVS     R1,#+115
   \   000000C6   3120               MOVS     R0,#+49
   \   000000C8   ........           BL       H_line
   2368                H_line(49,124,10,0); 
   \   000000CC   0023               MOVS     R3,#+0
   \   000000CE   0A22               MOVS     R2,#+10
   \   000000D0   7C21               MOVS     R1,#+124
   \   000000D2   3120               MOVS     R0,#+49
   \   000000D4   ........           BL       H_line
   2369                V_line(49,115,10,0); 
   \   000000D8   0023               MOVS     R3,#+0
   \   000000DA   0A22               MOVS     R2,#+10
   \   000000DC   7321               MOVS     R1,#+115
   \   000000DE   3120               MOVS     R0,#+49
   \   000000E0   ........           BL       V_line
   2370                V_line(58,115,10,0); 
   \   000000E4   0023               MOVS     R3,#+0
   \   000000E6   0A22               MOVS     R2,#+10
   \   000000E8   7321               MOVS     R1,#+115
   \   000000EA   3A20               MOVS     R0,#+58
   \   000000EC   ........           BL       V_line
   2371                podswietl=1;
   \   000000F0   0125               MOVS     R5,#+1
   2372              }
   2373             
   2374            
   2375             //zdarzenie typu up (naciœniêcie na "X")
   2376              if ( (X_up>46) && (X_up<63) && (Y_up>112) && (Y_up<127))                    //"X"
   \                     ??Number_Event_1:
   \   000000F2   0498               LDR      R0,[SP, #+16]
   \   000000F4   2F28               CMP      R0,#+47
   \   000000F6   4BDB               BLT      ??Number_Event_2
   \   000000F8   3F28               CMP      R0,#+63
   \   000000FA   06DA               BGE      ??Number_Event_3
   \   000000FC   712E               CMP      R6,#+113
   \   000000FE   04DB               BLT      ??Number_Event_3
   \   00000100   7F2E               CMP      R6,#+127
   \   00000102   02DA               BGE      ??Number_Event_3
   2377              {
   2378                ans = -1;
   \   00000104   0020               MOVS     R0,#+0
   \   00000106   C043               MVNS     R0,R0            ;; #-1
   \   00000108   0290               STR      R0,[SP, #+8]
   \                     ??Number_Event_3:
   \   0000010A   0498               LDR      R0,[SP, #+16]
   \   0000010C   3E28               CMP      R0,#+62
   \   0000010E   32DA               BGE      ??Number_Event_4
   \                     ??Number_Event_5:
   \   00000110   042E               CMP      R6,#+4
   \   00000112   30DB               BLT      ??Number_Event_4
   \   00000114   512E               CMP      R6,#+81
   \   00000116   2EDA               BGE      ??Number_Event_4
   \   00000118   1528               CMP      R0,#+21
   \   0000011A   2CD0               BEQ      ??Number_Event_4
   \   0000011C   2A28               CMP      R0,#+42
   \   0000011E   2AD0               BEQ      ??Number_Event_4
   \   00000120   3D2E               CMP      R6,#+61
   \   00000122   28D0               BEQ      ??Number_Event_4
   \   00000124   292E               CMP      R6,#+41
   \   00000126   26D0               BEQ      ??Number_Event_4
   \   00000128   152E               CMP      R6,#+21
   \   0000012A   24D0               BEQ      ??Number_Event_4
   2379              }  
   2380            
   2381            
   2382              if ((X_up>1) && (X_up<62) && (Y_up>3) && (Y_up<81) && (X_up!=21) && (X_up!=42) && (Y_up!=61) && (Y_up!=41) && (Y_up!=21) )   
   2383              {
   2384                kol = (((X_up-1)/21)+1);
   2385                row = 3-(((Y_up-3)/20));
   2386          
   2387                ans=(row*3)+kol;
   \   0000012C   0327               MOVS     R7,#+3
   \   0000012E   F01E               SUBS     R0,R6,#+3
   \   00000130   1421               MOVS     R1,#+20
   \   00000132   ........           BL       __aeabi_idivmod
   \   00000136   3E1A               SUBS     R6,R7,R0
   \   00000138   3606               LSLS     R6,R6,#+24
   \   0000013A   360E               LSRS     R6,R6,#+24
   \   0000013C   0320               MOVS     R0,#+3
   \   0000013E   4643               MULS     R6,R0,R6
   \   00000140   0498               LDR      R0,[SP, #+16]
   \   00000142   401E               SUBS     R0,R0,#+1
   \   00000144   1521               MOVS     R1,#+21
   \   00000146   ........           BL       __aeabi_idivmod
   \   0000014A   401C               ADDS     R0,R0,#+1
   \   0000014C   0006               LSLS     R0,R0,#+24
   \   0000014E   000E               LSRS     R0,R0,#+24
   \   00000150   3018               ADDS     R0,R6,R0
   \   00000152   0290               STR      R0,[SP, #+8]
   2388                
   2389                if ((!(AT91C_IFLASH_MEM->Config.SoundOff)) && (AlarmOn==0)) {
   \   00000154   1048               LDR      R0,??Number_Event_6  ;; 0x13d7e9
   \   00000156   0078               LDRB     R0,[R0, #+0]
   \   00000158   1049               LDR      R1,??Number_Event_6+0x4  ;; AlarmOn
   \   0000015A   0978               LDRB     R1,[R1, #+0]
   \   0000015C   0143               ORRS     R1,R1,R0
   \   0000015E   0AD1               BNE      ??Number_Event_4
   2390                  ButtonBipCounter=g_counter+8;
   \   00000160   0F4A               LDR      R2,??Number_Event_6+0x8  ;; RealRows + 16
   \   00000162   1048               LDR      R0,??Number_Event_6+0xC  ;; g_counter
   \   00000164   03C8               LDM      R0!,{R0,R1}
   \   00000166   0023               MOVS     R3,#+0
   \   00000168   0830               ADDS     R0,R0,#+8
   \   0000016A   5941               ADCS     R1,R1,R3
   \   0000016C   03C2               STM      R2!,{R0,R1}
   2391                    AT91C_BASE_PIOA->PIO_SODR =SpeakerPin;
                                                      ^
Warning[Pe068]: integer conversion resulted in a change of sign
   \   0000016E   0E48               LDR      R0,??Number_Event_6+0x10  ;; 0xfffff430
   \   00000170   8021               MOVS     R1,#+128
   \   00000172   0906               LSLS     R1,R1,#+24       ;; #-2147483648
   \   00000174   0160               STR      R1,[R0, #+0]
   2392                  } 
   2393              }
   2394          
   2395            
   2396              if ((X_down>=0) && (X_down<64) && (podswietl==0)) MenuPaint();
                                                                       ^
Warning[Pe223]: function "MenuPaint" declared implicitly
   \                     ??Number_Event_4:
   \   00000176   002C               CMP      R4,#+0
   \   00000178   05D4               BMI      ??Number_Event_7
   \   0000017A   402C               CMP      R4,#+64
   \   0000017C   03DA               BGE      ??Number_Event_7
   \   0000017E   002D               CMP      R5,#+0
   \   00000180   01D1               BNE      ??Number_Event_7
   \   00000182   ........           BL       MenuPaint
   2397          
   2398           
   2399          
   2400              return ans;
   \                     ??Number_Event_7:
   \   00000186   0298               LDR      R0,[SP, #+8]
   \   00000188   05B0               ADD      SP,SP,#+20
   \   0000018A   F0BC               POP      {R4-R7}
   \   0000018C   02BC               POP      {R1}
   \   0000018E   0847               BX       R1               ;; return
   \                     ??Number_Event_2:
   \   00000190   0228               CMP      R0,#+2
   \   00000192   F0DB               BLT      ??Number_Event_4
   \   00000194   BCE7               B        ??Number_Event_5
   \   00000196   C046               Nop      
   \                     ??Number_Event_6:
   \   00000198   E9D71300           DC32     0x13d7e9
   \   0000019C   ........           DC32     AlarmOn
   \   000001A0   ........           DC32     RealRows + 16
   \   000001A4   ........           DC32     g_counter
   \   000001A8   30F4FFFF           DC32     0xfffff430
   2401            
   2402              
   2403          }//_______________________ Koniec funkcji List_Event __________________________
   2404          
   2405          
   2406          
   2407          
   2408          
   2409          
   2410          
   2411          
   2412          
   2413          //*-----------------------------------------------------------------------------
   2414          //* Nazwa funkcji :    Message_Paint
   2415          //* Funkcja wiadomosci
   2416          //*-----------------------------------------------------------------------------
   2417          //* algin    - wyrównanie tekstu
   2418          //* p1..p3   -   napisy kolejnych lini
   2419          
   2420          //*-----------------------------------------------------------------------------
   2421          extern  char g_Message;

   \                                 In section Debug.txt, align 4, keep-with-next
   2422          void Message_Paint(char algin, char p1[15], char p2[15], char p3[15],char p4[15],char p5[15])
   2423          {
   \                     Message_Paint:
   \   00000000   FEB5               PUSH     {R1-R7,LR}
   \   00000002   3C4C               LDR      R4,??Message_Paint_0  ;; 0xfffffc00
   \   00000004   A544               ADD      SP,SP,R4
   \   00000006   0400               MOVS     R4,R0
   \   00000008   FFAD               ADD      R5,SP,#+1020
   \   0000000A   6D6A               LDR      R5,[R5, #+36]
   \   0000000C   FFAE               ADD      R6,SP,#+1020
   \   0000000E   B66A               LDR      R6,[R6, #+40]
   2424            g_Message=1;
   \   00000010   0120               MOVS     R0,#+1
   \   00000012   3949               LDR      R1,??Message_Paint_0+0x4  ;; g_Message
   \   00000014   0870               STRB     R0,[R1, #+0]
   2425            g_info=1;
   \   00000016   3949               LDR      R1,??Message_Paint_0+0x8  ;; g_info
   \   00000018   0870               STRB     R0,[R1, #+0]
   2426            
   2427            char ekran_tab[8][128] = {
   2428                            {0,0,0,0,0,0,0,0,0,0,0,0,0,0,0,0,0,0,0,0,0,0,0,0,0,0,0,0,0,0,0,255,1,253,5,5,5,5,5,5,5,5,5,5,5,5,5,5,5,5,5,5,229,5,5,5,5,5,5,5,5,5,5,5,5,5,5,5,5,5,5,5,5,5,5,5,5,5,5,5,5,5,5,5,5,5,5,5,5,5,5,5,5,5,5,5,5,5,5,5,253,1,255,0,0,0,0,0,0,0,0,0,0,0,0,0,0,0,0,0,0,0,0,0,0,0,0,0},
   2429                            {0,0,0,0,0,0,0,0,0,0,0,0,0,0,0,0,0,0,0,0,0,0,0,0,0,0,0,0,0,0,0,255,0,255,0,0,248,12,244,244,244,244,244,244,244,244,244,244,12,248,0,0,255,0,0,0,0,0,0,0,0,0,0,0,0,0,0,0,0,0,0,0,0,0,0,0,0,0,0,0,0,0,0,0,0,0,0,0,0,0,0,0,0,0,0,0,0,0,0,0,255,0,255,0,0,0,0,0,0,0,0,0,0,0,0,0,0,0,0,0,0,0,0,0,0,0,0,0},
   2430                            {0,0,0,0,0,0,0,0,0,0,0,0,0,0,0,0,0,0,0,0,0,0,0,0,0,0,0,0,0,0,0,255,0,255,0,0,255,0,255,255,255,255,255,255,255,255,255,255,0,255,0,0,255,0,0,0,0,0,0,0,0,0,0,0,0,0,0,0,0,0,0,0,0,0,0,0,0,0,0,0,0,0,0,0,0,0,0,0,0,0,0,0,0,0,0,0,0,0,0,0,255,0,255,0,0,0,0,0,0,0,0,0,0,0,0,0,0,0,0,0,0,0,0,0,0,0,0,0},
   2431                            {0,0,0,0,0,0,0,0,0,0,0,0,0,0,0,0,0,0,0,0,0,0,0,0,0,0,0,0,0,0,0,255,0,255,0,0,255,0,255,255,199,187,187,187,187,187,199,255,0,255,0,0,255,0,0,0,0,0,0,0,0,0,0,0,0,0,0,0,0,0,0,0,0,0,0,0,0,0,0,0,0,0,0,0,0,0,0,0,0,0,0,0,0,0,0,0,0,0,0,0,255,0,255,0,0,0,0,0,0,0,0,0,0,0,0,0,0,0,0,0,0,0,0,0,0,0,0,0},
   2432                            {0,0,0,0,0,0,0,0,0,0,0,0,0,0,0,0,0,0,0,0,0,0,0,0,0,0,0,0,0,0,0,255,0,255,0,0,255,0,255,255,221,237,245,249,245,237,221,255,0,255,0,0,255,0,0,0,0,0,0,0,0,0,0,0,0,0,0,0,0,0,0,0,0,0,0,0,0,0,0,0,0,0,0,0,0,0,0,0,0,0,0,0,0,0,0,0,0,0,0,0,255,0,255,0,0,0,0,0,0,0,0,0,0,0,0,0,0,0,0,0,0,0,0,0,0,0,0,0},
   2433                            {0,0,0,0,0,0,0,0,0,0,0,0,0,0,0,0,0,0,0,0,0,0,0,0,0,0,0,0,0,0,0,255,0,255,0,0,255,0,255,255,255,255,255,255,255,255,255,255,0,255,0,0,255,0,0,0,0,0,0,0,0,0,0,0,0,0,0,0,0,0,0,0,0,0,0,0,0,0,0,0,0,0,0,0,0,0,0,0,0,0,0,0,0,0,0,0,0,0,0,0,255,0,255,0,0,0,0,0,0,0,0,0,0,0,0,0,0,0,0,0,0,0,0,0,0,0,0,0},
   2434                            {0,0,0,0,0,0,0,0,0,0,0,0,0,0,0,0,0,0,0,0,0,0,0,0,0,0,0,0,0,0,0,255,0,255,0,0,63,96,95,95,95,95,95,95,95,95,95,95,96,63,0,0,255,0,0,0,0,0,0,0,0,0,0,0,0,0,0,0,0,0,0,0,0,0,0,0,0,0,0,0,0,0,0,0,0,0,0,0,0,0,0,0,0,0,0,0,0,0,0,0,255,0,255,0,0,0,0,0,0,0,0,0,0,0,0,0,0,0,0,0,0,0,0,0,0,0,0,0},
   2435                            {0,0,0,0,0,0,0,0,0,0,0,0,0,0,0,0,0,0,0,0,0,0,0,0,0,0,0,0,0,0,0,255,128,191,160,160,160,160,160,160,160,160,160,160,160,160,160,160,160,160,160,160,167,160,160,160,160,160,160,160,160,160,160,160,160,160,160,160,160,160,160,160,160,160,160,160,160,160,160,160,160,160,160,160,160,160,160,160,160,160,160,160,160,160,160,160,160,160,160,160,191,128,255,0,0,0,0,0,0,0,0,0,0,0,0,0,0,0,0,0,0,0,0,0,0,0,0,0},
   2436                            };
   \   0000001A   6846               MOV      R0,SP
   \   0000001C   3849               LDR      R1,??Message_Paint_0+0xC  ;; `?<Constant {{0, 0, 0, 0, 0, 0, 0, 0, 0, 0, 0, `
   \   0000001E   8022               MOVS     R2,#+128
   \   00000020   D200               LSLS     R2,R2,#+3        ;; #+1024
   \   00000022   ........           BL       __aeabi_memcpy4
   2437              
   2438              CopyToCanvas(ekran_tab);
   \   00000026   6846               MOV      R0,SP
   \   00000028   ........           BL       CopyToCanvas
   2439          
   2440          
   2441              if (p1!="") Label(p1,algin,4,90,15,56,0,127,0);      //(char *Vstring, char alig, char X, int Y, char maxChar, char clean, char minY, char maxY, char negatyw) 
   \   0000002C   35A7               ADR      R7,??Message_Paint_0+0x10  ;; 0x00, 0x00, 0x00, 0x00
   \   0000002E   FFA8               ADD      R0,SP,#+1020
   \   00000030   4068               LDR      R0,[R0, #+4]
   \   00000032   B842               CMP      R0,R7
   \   00000034   0FD0               BEQ      ??Message_Paint_1
   \   00000036   82B0               SUB      SP,SP,#+8
   \   00000038   0020               MOVS     R0,#+0
   \   0000003A   0090               STR      R0,[SP, #+0]
   \   0000003C   7F21               MOVS     R1,#+127
   \   0000003E   03B4               PUSH     {R0,R1}
   \   00000040   3821               MOVS     R1,#+56
   \   00000042   0F20               MOVS     R0,#+15
   \   00000044   03B4               PUSH     {R0,R1}
   \   00000046   5A23               MOVS     R3,#+90
   \   00000048   0422               MOVS     R2,#+4
   \   0000004A   2100               MOVS     R1,R4
   \   0000004C   FFA8               ADD      R0,SP,#+1020
   \   0000004E   C069               LDR      R0,[R0, #+28]
   \   00000050   ........           BL       Label
   \   00000054   06B0               ADD      SP,SP,#+24
   2442              if (p2!="") Label(p2,algin,4,90-9,15,56,0,127,0);    //(char *Vstring, char alig, char X, int Y, char maxChar, char clean, char minY, char maxY, char negatyw) 
   \                     ??Message_Paint_1:
   \   00000056   FFA8               ADD      R0,SP,#+1020
   \   00000058   8068               LDR      R0,[R0, #+8]
   \   0000005A   B842               CMP      R0,R7
   \   0000005C   0FD0               BEQ      ??Message_Paint_2
   \   0000005E   82B0               SUB      SP,SP,#+8
   \   00000060   0020               MOVS     R0,#+0
   \   00000062   0090               STR      R0,[SP, #+0]
   \   00000064   7F21               MOVS     R1,#+127
   \   00000066   03B4               PUSH     {R0,R1}
   \   00000068   3821               MOVS     R1,#+56
   \   0000006A   0F20               MOVS     R0,#+15
   \   0000006C   03B4               PUSH     {R0,R1}
   \   0000006E   5123               MOVS     R3,#+81
   \   00000070   0422               MOVS     R2,#+4
   \   00000072   2100               MOVS     R1,R4
   \   00000074   FFA8               ADD      R0,SP,#+1020
   \   00000076   006A               LDR      R0,[R0, #+32]
   \   00000078   ........           BL       Label
   \   0000007C   06B0               ADD      SP,SP,#+24
   2443              if (p3!="") Label(p3,algin,4,90-18,15,56,0,127,0);    //(char *Vstring, char alig, char X, int Y, char maxChar, char clean, char minY, char maxY, char negatyw) 
   \                     ??Message_Paint_2:
   \   0000007E   FFA8               ADD      R0,SP,#+1020
   \   00000080   C068               LDR      R0,[R0, #+12]
   \   00000082   B842               CMP      R0,R7
   \   00000084   0FD0               BEQ      ??Message_Paint_3
   \   00000086   82B0               SUB      SP,SP,#+8
   \   00000088   0020               MOVS     R0,#+0
   \   0000008A   0090               STR      R0,[SP, #+0]
   \   0000008C   7F21               MOVS     R1,#+127
   \   0000008E   03B4               PUSH     {R0,R1}
   \   00000090   3821               MOVS     R1,#+56
   \   00000092   0F20               MOVS     R0,#+15
   \   00000094   03B4               PUSH     {R0,R1}
   \   00000096   4823               MOVS     R3,#+72
   \   00000098   0422               MOVS     R2,#+4
   \   0000009A   2100               MOVS     R1,R4
   \   0000009C   FFA8               ADD      R0,SP,#+1020
   \   0000009E   406A               LDR      R0,[R0, #+36]
   \   000000A0   ........           BL       Label
   \   000000A4   06B0               ADD      SP,SP,#+24
   2444              if (p4!="") Label(p4,algin,4,90-27,15,56,0,127,0);    //(char *Vstring, char alig, char X, int Y, char maxChar, char clean, char minY, char maxY, char negatyw) 
   \                     ??Message_Paint_3:
   \   000000A6   BD42               CMP      R5,R7
   \   000000A8   0ED0               BEQ      ??Message_Paint_4
   \   000000AA   82B0               SUB      SP,SP,#+8
   \   000000AC   0020               MOVS     R0,#+0
   \   000000AE   0090               STR      R0,[SP, #+0]
   \   000000B0   7F21               MOVS     R1,#+127
   \   000000B2   03B4               PUSH     {R0,R1}
   \   000000B4   3821               MOVS     R1,#+56
   \   000000B6   0F20               MOVS     R0,#+15
   \   000000B8   03B4               PUSH     {R0,R1}
   \   000000BA   3F23               MOVS     R3,#+63
   \   000000BC   0422               MOVS     R2,#+4
   \   000000BE   2100               MOVS     R1,R4
   \   000000C0   2800               MOVS     R0,R5
   \   000000C2   ........           BL       Label
   \   000000C6   06B0               ADD      SP,SP,#+24
   2445              if (p5!="") Label(p5,algin,4,90-36,15,56,0,127,0);    //(char *Vstring, char alig, char X, int Y, char maxChar, char clean, char minY, char maxY, char negatyw) 
   \                     ??Message_Paint_4:
   \   000000C8   BE42               CMP      R6,R7
   \   000000CA   0ED0               BEQ      ??Message_Paint_5
   \   000000CC   82B0               SUB      SP,SP,#+8
   \   000000CE   0020               MOVS     R0,#+0
   \   000000D0   0090               STR      R0,[SP, #+0]
   \   000000D2   7F21               MOVS     R1,#+127
   \   000000D4   03B4               PUSH     {R0,R1}
   \   000000D6   3821               MOVS     R1,#+56
   \   000000D8   0F20               MOVS     R0,#+15
   \   000000DA   03B4               PUSH     {R0,R1}
   \   000000DC   3623               MOVS     R3,#+54
   \   000000DE   0422               MOVS     R2,#+4
   \   000000E0   2100               MOVS     R1,R4
   \   000000E2   3000               MOVS     R0,R6
   \   000000E4   ........           BL       Label
   \   000000E8   06B0               ADD      SP,SP,#+24
   2446              
   2447              
   2448          }//_______________________ Koniec funkcji Mesage_Paint __________________________
   \                     ??Message_Paint_5:
   \   000000EA   0748               LDR      R0,??Message_Paint_0+0x14  ;; 0x40c
   \   000000EC   8544               ADD      SP,SP,R0
   \   000000EE   F0BC               POP      {R4-R7}
   \   000000F0   01BC               POP      {R0}
   \   000000F2   0047               BX       R0               ;; return
   \                     ??Message_Paint_0:
   \   000000F4   00FCFFFF           DC32     0xfffffc00
   \   000000F8   ........           DC32     g_Message
   \   000000FC   ........           DC32     g_info
   \   00000100   ........           DC32     `?<Constant {{0, 0, 0, 0, 0, 0, 0, 0, 0, 0, 0, `
   \   00000104   00000000           DC8      0x00, 0x00, 0x00, 0x00
   \   00000108   0C040000           DC32     0x40c
   2449          
   2450          
   2451          
   2452          
   2453          
   2454          
   2455          
   2456          //*-----------------------------------------------------------------------------
   2457          //* Nazwa funkcji :    FloToStr
   2458          //* Funkcja konwersji zmiennej float na ³añcuch string   
   2459          //*-----------------------------------------------------------------------------
   2460          //*  Value   - zmienna typu float
   2461          //*  Vstring - tablica znaków
   2462          //*  ill     - liloœæ znaków (max=9) , ostatnia wartoœæ zapisanego ³añcucha to zawsze 0
   2463          //*  Funkcja zwraca d³ugoœæ ³añcucha
   2464          //*-----------------------------------------------------------------------------

   \                                 In section Debug.txt, align 4, keep-with-next
   2465          char FloToStr (float Value, char Vstring[8],char ill) 
   2466          { 
   \                     FloToStr:
   \   00000000   F2B5               PUSH     {R1,R4-R7,LR}
   \   00000002   98B0               SUB      SP,SP,#+96
   \   00000004   0500               MOVS     R5,R0
   \   00000006   1400               MOVS     R4,R2
   2467            float str_tmp[15]={0,0,0,0,0,0,0,0,0,0,0,0,0,0,0};        
   \   00000008   08A8               ADD      R0,SP,#+32
   \   0000000A   3C21               MOVS     R1,#+60
   \   0000000C   ........           BL       __aeabi_memclr4
   2468             int min;
   2469             ill-=1;
   \   00000010   6846               MOV      R0,SP
   \   00000012   611E               SUBS     R1,R4,#+1
   \   00000014   0171               STRB     R1,[R0, #+4]
   2470            
   2471             for (char i=0; i<=7; i++)  Vstring[i]=0;
   \   00000016   0821               MOVS     R1,#+8
   \   00000018   1898               LDR      R0,[SP, #+96]
   \   0000001A   ........           BL       __aeabi_memclr
   2472             for (char i=0; i<=14; i++)  str_tmp[i]=0;
   \   0000001E   08A8               ADD      R0,SP,#+32
   \   00000020   0F21               MOVS     R1,#+15
   \   00000022   0022               MOVS     R2,#+0
   \                     ??FloToStr_0:
   \   00000024   0260               STR      R2,[R0, #+0]
   \   00000026   001D               ADDS     R0,R0,#+4
   \   00000028   491E               SUBS     R1,R1,#+1
   \   0000002A   FBD1               BNE      ??FloToStr_0
   \   0000002C   0292               STR      R2,[SP, #+8]
   2473             
   2474             min=0;
   2475             if (Value<0)
   \   0000002E   2800               MOVS     R0,R5
   \   00000030   0021               MOVS     R1,#+0
   \   00000032   ........           BL       __aeabi_cfcmple
   \   00000036   0BD2               BCS      ??FloToStr_1
   2476             {
   2477               Value=Value*(-1); 
   \   00000038   1A48               LDR      R0,??FloToStr_2  ;; 0xbf800000
   \   0000003A   2900               MOVS     R1,R5
   \   0000003C   ........           BL       __aeabi_fmul
   \   00000040   0500               MOVS     R5,R0
   2478               min=1;
   \   00000042   0120               MOVS     R0,#+1
   \   00000044   0290               STR      R0,[SP, #+8]
   2479               ill-=1;
   \   00000046   6846               MOV      R0,SP
   \   00000048   6946               MOV      R1,SP
   \   0000004A   0979               LDRB     R1,[R1, #+4]
   \   0000004C   491E               SUBS     R1,R1,#+1
   \   0000004E   0171               STRB     R1,[R0, #+4]
   2480             }
   2481             
   2482           
   2483             int E_tmp=0;
   \                     ??FloToStr_1:
   \   00000050   0020               MOVS     R0,#+0
   \   00000052   0090               STR      R0,[SP, #+0]
   2484             int ill_tmp=0;
   \   00000054   0024               MOVS     R4,#+0
   2485             int ill_cor=0;
   \   00000056   0390               STR      R0,[SP, #+12]
   2486             
   2487             
   2488             if (Value==0)
   \   00000058   2800               MOVS     R0,R5
   \   0000005A   2100               MOVS     R1,R4
   \   0000005C   ........           BL       __aeabi_cfcmpeq
   \   00000060   05D1               BNE      ??FloToStr_3
   2489             {
   2490               Vstring[0]=48;
   \   00000062   1898               LDR      R0,[SP, #+96]
   \   00000064   3021               MOVS     R1,#+48
   \   00000066   0170               STRB     R1,[R0, #+0]
   2491               ill_tmp=1;
   \   00000068   0124               MOVS     R4,#+1
   \   0000006A   00F0F5FC           BL       ??FloToStr_4
   2492             }
   2493             else
   2494             {
   2495              if (Value>=1000000000000) 
   \                     ??FloToStr_3:
   \   0000006E   0E49               LDR      R1,??FloToStr_2+0x4  ;; 0x5368d4a5
   \   00000070   ........           BL       __aeabi_cfrcmple
   \   00000074   1AD8               BHI      ??FloToStr_5
   2496              {
   2497                 Vstring[0]=0x4C; //L
   \   00000076   1898               LDR      R0,[SP, #+96]
   \   00000078   4C21               MOVS     R1,#+76
   \   0000007A   0170               STRB     R1,[R0, #+0]
   2498                 Vstring[1]=0x4F; //O
   \   0000007C   1898               LDR      R0,[SP, #+96]
   \   0000007E   4F21               MOVS     R1,#+79
   \   00000080   4170               STRB     R1,[R0, #+1]
   2499                 Vstring[2]=0x4E; //N
   \   00000082   1898               LDR      R0,[SP, #+96]
   \   00000084   4E21               MOVS     R1,#+78
   \   00000086   8170               STRB     R1,[R0, #+2]
   2500                 Vstring[3]=0x47; //G
   \   00000088   1898               LDR      R0,[SP, #+96]
   \   0000008A   4721               MOVS     R1,#+71
   \   0000008C   C170               STRB     R1,[R0, #+3]
   2501                 Vstring[4]=0; Vstring[5]=0; Vstring[6]=0; Vstring[7]=0;
   \   0000008E   1898               LDR      R0,[SP, #+96]
   \   00000090   0471               STRB     R4,[R0, #+4]
   \   00000092   1898               LDR      R0,[SP, #+96]
   \   00000094   4471               STRB     R4,[R0, #+5]
   \   00000096   1898               LDR      R0,[SP, #+96]
   \   00000098   8471               STRB     R4,[R0, #+6]
   \   0000009A   1898               LDR      R0,[SP, #+96]
   \   0000009C   C471               STRB     R4,[R0, #+7]
   \   0000009E   00F0DBFC           BL       ??FloToStr_4
   \   000000A2   C046               Nop      
   \                     ??FloToStr_2:
   \   000000A4   000080BF           DC32     0xbf800000
   \   000000A8   A5D46853           DC32     0x5368d4a5
   2502              }  
   \                     ??FloToStr_5:
   \   000000AC   D348               LDR      R0,??FloToStr_6  ;; 0x49742400
   \   000000AE   2900               MOVS     R1,R5
   \   000000B0   ........           BL       __aeabi_fmul
   \   000000B4   ........           BL       __aeabi_f2lz
   \   000000B8   06AA               ADD      R2,SP,#+24
   \   000000BA   03C2               STM      R2!,{R0,R1}
   2503              else 
   2504              {  
   2505                long long int __Value=(long long int)(Value*1000000);
   2506                long long int __ValueRST=__Value;
   \   000000BC   06A8               ADD      R0,SP,#+24
   \   000000BE   C0C8               LDM      R0!,{R6,R7}
   \   000000C0   04AA               ADD      R2,SP,#+16
   \   000000C2   0020               MOVS     R0,#+0
   \   000000C4   0100               MOVS     R1,R0
   \   000000C6   03C2               STM      R2!,{R0,R1}
   2507                long long int NastDiel=0;
   2508               
   2509                 if (Value>=100000000000 ) {if (E_tmp==0) E_tmp=12;     if (ill_tmp<ill)                   { ill_tmp++;  str_tmp[ill_tmp]=48+__Value    / 100000000000000000; __ValueRST=__Value    % 100000000000000000; }};
   \   000000C8   2800               MOVS     R0,R5
   \   000000CA   CD49               LDR      R1,??FloToStr_6+0x4  ;; 0x51ba43b7
   \   000000CC   ........           BL       __aeabi_cfrcmple
   \   000000D0   1AD8               BHI      ??FloToStr_7
   \   000000D2   0C20               MOVS     R0,#+12
   \   000000D4   0090               STR      R0,[SP, #+0]
   \   000000D6   6846               MOV      R0,SP
   \   000000D8   0079               LDRB     R0,[R0, #+4]
   \   000000DA   0028               CMP      R0,#+0
   \   000000DC   14D0               BEQ      ??FloToStr_7
   \   000000DE   0124               MOVS     R4,#+1
   \   000000E0   06A8               ADD      R0,SP,#+24
   \   000000E2   03C8               LDM      R0!,{R0,R1}
   \   000000E4   C74A               LDR      R2,??FloToStr_6+0x8  ;; 0x5d8a0000
   \   000000E6   C84B               LDR      R3,??FloToStr_6+0xC  ;; 0x1634578
   \   000000E8   ........           BL       __aeabi_ldivmod
   \   000000EC   0022               MOVS     R2,#+0
   \   000000EE   3030               ADDS     R0,R0,#+48
   \   000000F0   5141               ADCS     R1,R1,R2
   \   000000F2   ........           BL       __aeabi_l2f
   \   000000F6   0990               STR      R0,[SP, #+36]
   \   000000F8   06A8               ADD      R0,SP,#+24
   \   000000FA   03C8               LDM      R0!,{R0,R1}
   \   000000FC   C14A               LDR      R2,??FloToStr_6+0x8  ;; 0x5d8a0000
   \   000000FE   C24B               LDR      R3,??FloToStr_6+0xC  ;; 0x1634578
   \   00000100   ........           BL       __aeabi_ldivmod
   \   00000104   1600               MOVS     R6,R2
   \   00000106   1F00               MOVS     R7,R3
   2510                 if (Value>=10000000000  ) {if (E_tmp==0) E_tmp=11;     if (ill_tmp<ill)                   { ill_tmp++;  str_tmp[ill_tmp]=48+__ValueRST / 10000000000000000 ; __ValueRST=__ValueRST % 10000000000000000 ; }};
   \                     ??FloToStr_7:
   \   00000108   2800               MOVS     R0,R5
   \   0000010A   C049               LDR      R1,??FloToStr_6+0x10  ;; 0x501502f9
   \   0000010C   ........           BL       __aeabi_cfrcmple
   \   00000110   1FD8               BHI      ??FloToStr_8
   \   00000112   0098               LDR      R0,[SP, #+0]
   \   00000114   0028               CMP      R0,#+0
   \   00000116   01D1               BNE      ??FloToStr_9
   \   00000118   0B20               MOVS     R0,#+11
   \   0000011A   0090               STR      R0,[SP, #+0]
   \                     ??FloToStr_9:
   \   0000011C   6846               MOV      R0,SP
   \   0000011E   0079               LDRB     R0,[R0, #+4]
   \   00000120   8442               CMP      R4,R0
   \   00000122   16DA               BGE      ??FloToStr_8
   \   00000124   641C               ADDS     R4,R4,#+1
   \   00000126   3000               MOVS     R0,R6
   \   00000128   3900               MOVS     R1,R7
   \   0000012A   B94A               LDR      R2,??FloToStr_6+0x14  ;; 0x6fc10000
   \   0000012C   B94B               LDR      R3,??FloToStr_6+0x18  ;; 0x2386f2
   \   0000012E   ........           BL       __aeabi_ldivmod
   \   00000132   0022               MOVS     R2,#+0
   \   00000134   3030               ADDS     R0,R0,#+48
   \   00000136   5141               ADCS     R1,R1,R2
   \   00000138   ........           BL       __aeabi_l2f
   \   0000013C   A100               LSLS     R1,R4,#+2
   \   0000013E   08AA               ADD      R2,SP,#+32
   \   00000140   5050               STR      R0,[R2, R1]
   \   00000142   3000               MOVS     R0,R6
   \   00000144   3900               MOVS     R1,R7
   \   00000146   B24A               LDR      R2,??FloToStr_6+0x14  ;; 0x6fc10000
   \   00000148   B24B               LDR      R3,??FloToStr_6+0x18  ;; 0x2386f2
   \   0000014A   ........           BL       __aeabi_ldivmod
   \   0000014E   1600               MOVS     R6,R2
   \   00000150   1F00               MOVS     R7,R3
   2511                 if (Value>=1000000000   ) {if (E_tmp==0) E_tmp=10;     if (ill_tmp<ill)                   { ill_tmp++;  str_tmp[ill_tmp]=48+__ValueRST / 1000000000000000  ; __ValueRST=__ValueRST % 1000000000000000  ; }};
   \                     ??FloToStr_8:
   \   00000152   2800               MOVS     R0,R5
   \   00000154   B049               LDR      R1,??FloToStr_6+0x1C  ;; 0x4e6e6b28
   \   00000156   ........           BL       __aeabi_cfrcmple
   \   0000015A   1FD8               BHI      ??FloToStr_10
   \   0000015C   0098               LDR      R0,[SP, #+0]
   \   0000015E   0028               CMP      R0,#+0
   \   00000160   01D1               BNE      ??FloToStr_11
   \   00000162   0A20               MOVS     R0,#+10
   \   00000164   0090               STR      R0,[SP, #+0]
   \                     ??FloToStr_11:
   \   00000166   6846               MOV      R0,SP
   \   00000168   0079               LDRB     R0,[R0, #+4]
   \   0000016A   8442               CMP      R4,R0
   \   0000016C   16DA               BGE      ??FloToStr_10
   \   0000016E   641C               ADDS     R4,R4,#+1
   \   00000170   3000               MOVS     R0,R6
   \   00000172   3900               MOVS     R1,R7
   \   00000174   A94A               LDR      R2,??FloToStr_6+0x20  ;; 0xa4c68000
   \   00000176   AA4B               LDR      R3,??FloToStr_6+0x24  ;; 0x38d7e
   \   00000178   ........           BL       __aeabi_ldivmod
   \   0000017C   0022               MOVS     R2,#+0
   \   0000017E   3030               ADDS     R0,R0,#+48
   \   00000180   5141               ADCS     R1,R1,R2
   \   00000182   ........           BL       __aeabi_l2f
   \   00000186   A100               LSLS     R1,R4,#+2
   \   00000188   08AA               ADD      R2,SP,#+32
   \   0000018A   5050               STR      R0,[R2, R1]
   \   0000018C   3000               MOVS     R0,R6
   \   0000018E   3900               MOVS     R1,R7
   \   00000190   A24A               LDR      R2,??FloToStr_6+0x20  ;; 0xa4c68000
   \   00000192   A34B               LDR      R3,??FloToStr_6+0x24  ;; 0x38d7e
   \   00000194   ........           BL       __aeabi_ldivmod
   \   00000198   1600               MOVS     R6,R2
   \   0000019A   1F00               MOVS     R7,R3
   2512                 if (Value>=100000000    ) {if (E_tmp==0) E_tmp=9;      if (ill_tmp<ill)                   { ill_tmp++;  str_tmp[ill_tmp]=48+__ValueRST / 100000000000000   ; __ValueRST=__ValueRST % 100000000000000   ; }};
   \                     ??FloToStr_10:
   \   0000019C   2800               MOVS     R0,R5
   \   0000019E   A149               LDR      R1,??FloToStr_6+0x28  ;; 0x4cbebc20
   \   000001A0   ........           BL       __aeabi_cfrcmple
   \   000001A4   1FD8               BHI      ??FloToStr_12
   \   000001A6   0098               LDR      R0,[SP, #+0]
   \   000001A8   0028               CMP      R0,#+0
   \   000001AA   01D1               BNE      ??FloToStr_13
   \   000001AC   0920               MOVS     R0,#+9
   \   000001AE   0090               STR      R0,[SP, #+0]
   \                     ??FloToStr_13:
   \   000001B0   6846               MOV      R0,SP
   \   000001B2   0079               LDRB     R0,[R0, #+4]
   \   000001B4   8442               CMP      R4,R0
   \   000001B6   16DA               BGE      ??FloToStr_12
   \   000001B8   641C               ADDS     R4,R4,#+1
   \   000001BA   3000               MOVS     R0,R6
   \   000001BC   3900               MOVS     R1,R7
   \   000001BE   9A4A               LDR      R2,??FloToStr_6+0x2C  ;; 0x107a4000
   \   000001C0   9A4B               LDR      R3,??FloToStr_6+0x30  ;; 0x5af3
   \   000001C2   ........           BL       __aeabi_ldivmod
   \   000001C6   0022               MOVS     R2,#+0
   \   000001C8   3030               ADDS     R0,R0,#+48
   \   000001CA   5141               ADCS     R1,R1,R2
   \   000001CC   ........           BL       __aeabi_l2f
   \   000001D0   A100               LSLS     R1,R4,#+2
   \   000001D2   08AA               ADD      R2,SP,#+32
   \   000001D4   5050               STR      R0,[R2, R1]
   \   000001D6   3000               MOVS     R0,R6
   \   000001D8   3900               MOVS     R1,R7
   \   000001DA   934A               LDR      R2,??FloToStr_6+0x2C  ;; 0x107a4000
   \   000001DC   934B               LDR      R3,??FloToStr_6+0x30  ;; 0x5af3
   \   000001DE   ........           BL       __aeabi_ldivmod
   \   000001E2   1600               MOVS     R6,R2
   \   000001E4   1F00               MOVS     R7,R3
   2513                 if (Value>=10000000     ) {if (E_tmp==0) E_tmp=8;      if (ill_tmp<ill)                   { ill_tmp++;  str_tmp[ill_tmp]=48+__ValueRST / 10000000000000    ; __ValueRST=__ValueRST % 10000000000000    ; }};
   \                     ??FloToStr_12:
   \   000001E6   2800               MOVS     R0,R5
   \   000001E8   9149               LDR      R1,??FloToStr_6+0x34  ;; 0x4b189680
   \   000001EA   ........           BL       __aeabi_cfrcmple
   \   000001EE   1FD8               BHI      ??FloToStr_14
   \   000001F0   0098               LDR      R0,[SP, #+0]
   \   000001F2   0028               CMP      R0,#+0
   \   000001F4   01D1               BNE      ??FloToStr_15
   \   000001F6   0820               MOVS     R0,#+8
   \   000001F8   0090               STR      R0,[SP, #+0]
   \                     ??FloToStr_15:
   \   000001FA   6846               MOV      R0,SP
   \   000001FC   0079               LDRB     R0,[R0, #+4]
   \   000001FE   8442               CMP      R4,R0
   \   00000200   16DA               BGE      ??FloToStr_14
   \   00000202   641C               ADDS     R4,R4,#+1
   \   00000204   3000               MOVS     R0,R6
   \   00000206   3900               MOVS     R1,R7
   \   00000208   8A4A               LDR      R2,??FloToStr_6+0x38  ;; 0x4e72a000
   \   0000020A   8B4B               LDR      R3,??FloToStr_6+0x3C  ;; 0x918
   \   0000020C   ........           BL       __aeabi_ldivmod
   \   00000210   0022               MOVS     R2,#+0
   \   00000212   3030               ADDS     R0,R0,#+48
   \   00000214   5141               ADCS     R1,R1,R2
   \   00000216   ........           BL       __aeabi_l2f
   \   0000021A   A100               LSLS     R1,R4,#+2
   \   0000021C   08AA               ADD      R2,SP,#+32
   \   0000021E   5050               STR      R0,[R2, R1]
   \   00000220   3000               MOVS     R0,R6
   \   00000222   3900               MOVS     R1,R7
   \   00000224   834A               LDR      R2,??FloToStr_6+0x38  ;; 0x4e72a000
   \   00000226   844B               LDR      R3,??FloToStr_6+0x3C  ;; 0x918
   \   00000228   ........           BL       __aeabi_ldivmod
   \   0000022C   1600               MOVS     R6,R2
   \   0000022E   1F00               MOVS     R7,R3
   2514                 if (Value>=1000000      ) {if (E_tmp==0) E_tmp=7;      if (ill_tmp<ill)                   { ill_tmp++;  str_tmp[ill_tmp]=48+__ValueRST / 1000000000000     ; __ValueRST=__ValueRST % 1000000000000     ; NastDiel=100000000000; }};
   \                     ??FloToStr_14:
   \   00000230   2800               MOVS     R0,R5
   \   00000232   7249               LDR      R1,??FloToStr_6  ;; 0x49742400
   \   00000234   ........           BL       __aeabi_cfrcmple
   \   00000238   23D8               BHI      ??FloToStr_16
   \   0000023A   0098               LDR      R0,[SP, #+0]
   \   0000023C   0028               CMP      R0,#+0
   \   0000023E   01D1               BNE      ??FloToStr_17
   \   00000240   0720               MOVS     R0,#+7
   \   00000242   0090               STR      R0,[SP, #+0]
   \                     ??FloToStr_17:
   \   00000244   6846               MOV      R0,SP
   \   00000246   0079               LDRB     R0,[R0, #+4]
   \   00000248   8442               CMP      R4,R0
   \   0000024A   1ADA               BGE      ??FloToStr_16
   \   0000024C   641C               ADDS     R4,R4,#+1
   \   0000024E   3000               MOVS     R0,R6
   \   00000250   3900               MOVS     R1,R7
   \   00000252   7A4A               LDR      R2,??FloToStr_6+0x40  ;; 0xd4a51000
   \   00000254   E823               MOVS     R3,#+232
   \   00000256   ........           BL       __aeabi_ldivmod
   \   0000025A   0022               MOVS     R2,#+0
   \   0000025C   3030               ADDS     R0,R0,#+48
   \   0000025E   5141               ADCS     R1,R1,R2
   \   00000260   ........           BL       __aeabi_l2f
   \   00000264   A100               LSLS     R1,R4,#+2
   \   00000266   08AA               ADD      R2,SP,#+32
   \   00000268   5050               STR      R0,[R2, R1]
   \   0000026A   3000               MOVS     R0,R6
   \   0000026C   3900               MOVS     R1,R7
   \   0000026E   734A               LDR      R2,??FloToStr_6+0x40  ;; 0xd4a51000
   \   00000270   E823               MOVS     R3,#+232
   \   00000272   ........           BL       __aeabi_ldivmod
   \   00000276   1600               MOVS     R6,R2
   \   00000278   1F00               MOVS     R7,R3
   \   0000027A   04AA               ADD      R2,SP,#+16
   \   0000027C   7048               LDR      R0,??FloToStr_6+0x44  ;; 0x4876e800
   \   0000027E   1721               MOVS     R1,#+23
   \   00000280   03C2               STM      R2!,{R0,R1}
   2515                 if (Value>=100000       ) {if (E_tmp==0) E_tmp=6;      if (ill_tmp<ill)                   { ill_tmp++;  str_tmp[ill_tmp]=48+__ValueRST / 100000000000      ; __ValueRST=__ValueRST % 100000000000      ; NastDiel=10000000000 ; }};
   \                     ??FloToStr_16:
   \   00000282   2800               MOVS     R0,R5
   \   00000284   6F49               LDR      R1,??FloToStr_6+0x48  ;; 0x47c35000
   \   00000286   ........           BL       __aeabi_cfrcmple
   \   0000028A   23D8               BHI      ??FloToStr_18
   \   0000028C   0098               LDR      R0,[SP, #+0]
   \   0000028E   0028               CMP      R0,#+0
   \   00000290   01D1               BNE      ??FloToStr_19
   \   00000292   0620               MOVS     R0,#+6
   \   00000294   0090               STR      R0,[SP, #+0]
   \                     ??FloToStr_19:
   \   00000296   6846               MOV      R0,SP
   \   00000298   0079               LDRB     R0,[R0, #+4]
   \   0000029A   8442               CMP      R4,R0
   \   0000029C   1ADA               BGE      ??FloToStr_18
   \   0000029E   641C               ADDS     R4,R4,#+1
   \   000002A0   3000               MOVS     R0,R6
   \   000002A2   3900               MOVS     R1,R7
   \   000002A4   664A               LDR      R2,??FloToStr_6+0x44  ;; 0x4876e800
   \   000002A6   1723               MOVS     R3,#+23
   \   000002A8   ........           BL       __aeabi_ldivmod
   \   000002AC   0022               MOVS     R2,#+0
   \   000002AE   3030               ADDS     R0,R0,#+48
   \   000002B0   5141               ADCS     R1,R1,R2
   \   000002B2   ........           BL       __aeabi_l2f
   \   000002B6   A100               LSLS     R1,R4,#+2
   \   000002B8   08AA               ADD      R2,SP,#+32
   \   000002BA   5050               STR      R0,[R2, R1]
   \   000002BC   3000               MOVS     R0,R6
   \   000002BE   3900               MOVS     R1,R7
   \   000002C0   5F4A               LDR      R2,??FloToStr_6+0x44  ;; 0x4876e800
   \   000002C2   1723               MOVS     R3,#+23
   \   000002C4   ........           BL       __aeabi_ldivmod
   \   000002C8   1600               MOVS     R6,R2
   \   000002CA   1F00               MOVS     R7,R3
   \   000002CC   04AA               ADD      R2,SP,#+16
   \   000002CE   5E48               LDR      R0,??FloToStr_6+0x4C  ;; 0x540be400
   \   000002D0   0221               MOVS     R1,#+2
   \   000002D2   03C2               STM      R2!,{R0,R1}
   2516                 if (Value>=10000        ) {if (E_tmp==0) E_tmp=5;      if (ill_tmp<ill) { ill_tmp++;  str_tmp[ill_tmp]=48+__ValueRST / 10000000000       ; __ValueRST=__ValueRST % 10000000000       ; NastDiel=1000000000  ; }};
   \                     ??FloToStr_18:
   \   000002D4   2800               MOVS     R0,R5
   \   000002D6   5D49               LDR      R1,??FloToStr_6+0x50  ;; 0x461c4000
   \   000002D8   ........           BL       __aeabi_cfrcmple
   \   000002DC   23D8               BHI      ??FloToStr_20
   \   000002DE   0098               LDR      R0,[SP, #+0]
   \   000002E0   0028               CMP      R0,#+0
   \   000002E2   01D1               BNE      ??FloToStr_21
   \   000002E4   0520               MOVS     R0,#+5
   \   000002E6   0090               STR      R0,[SP, #+0]
   \                     ??FloToStr_21:
   \   000002E8   6846               MOV      R0,SP
   \   000002EA   0079               LDRB     R0,[R0, #+4]
   \   000002EC   8442               CMP      R4,R0
   \   000002EE   1ADA               BGE      ??FloToStr_20
   \   000002F0   641C               ADDS     R4,R4,#+1
   \   000002F2   3000               MOVS     R0,R6
   \   000002F4   3900               MOVS     R1,R7
   \   000002F6   544A               LDR      R2,??FloToStr_6+0x4C  ;; 0x540be400
   \   000002F8   0223               MOVS     R3,#+2
   \   000002FA   ........           BL       __aeabi_ldivmod
   \   000002FE   0022               MOVS     R2,#+0
   \   00000300   3030               ADDS     R0,R0,#+48
   \   00000302   5141               ADCS     R1,R1,R2
   \   00000304   ........           BL       __aeabi_l2f
   \   00000308   A100               LSLS     R1,R4,#+2
   \   0000030A   08AA               ADD      R2,SP,#+32
   \   0000030C   5050               STR      R0,[R2, R1]
   \   0000030E   3000               MOVS     R0,R6
   \   00000310   3900               MOVS     R1,R7
   \   00000312   4D4A               LDR      R2,??FloToStr_6+0x4C  ;; 0x540be400
   \   00000314   0223               MOVS     R3,#+2
   \   00000316   ........           BL       __aeabi_ldivmod
   \   0000031A   1600               MOVS     R6,R2
   \   0000031C   1F00               MOVS     R7,R3
   \   0000031E   04AA               ADD      R2,SP,#+16
   \   00000320   4B48               LDR      R0,??FloToStr_6+0x54  ;; 0x3b9aca00
   \   00000322   0021               MOVS     R1,#+0
   \   00000324   03C2               STM      R2!,{R0,R1}
   2517                 if (Value>=1000         ) {if (E_tmp==0) E_tmp=4;      if (ill_tmp<ill) { ill_tmp++;  str_tmp[ill_tmp]=48+__ValueRST / 1000000000        ; __ValueRST=__ValueRST % 1000000000        ; NastDiel=100000000   ; }};
   \                     ??FloToStr_20:
   \   00000326   2800               MOVS     R0,R5
   \   00000328   4A49               LDR      R1,??FloToStr_6+0x58  ;; 0x447a0000
   \   0000032A   ........           BL       __aeabi_cfrcmple
   \   0000032E   23D8               BHI      ??FloToStr_22
   \   00000330   0098               LDR      R0,[SP, #+0]
   \   00000332   0028               CMP      R0,#+0
   \   00000334   01D1               BNE      ??FloToStr_23
   \   00000336   0420               MOVS     R0,#+4
   \   00000338   0090               STR      R0,[SP, #+0]
   \                     ??FloToStr_23:
   \   0000033A   6846               MOV      R0,SP
   \   0000033C   0079               LDRB     R0,[R0, #+4]
   \   0000033E   8442               CMP      R4,R0
   \   00000340   1ADA               BGE      ??FloToStr_22
   \   00000342   641C               ADDS     R4,R4,#+1
   \   00000344   3000               MOVS     R0,R6
   \   00000346   3900               MOVS     R1,R7
   \   00000348   414A               LDR      R2,??FloToStr_6+0x54  ;; 0x3b9aca00
   \   0000034A   0023               MOVS     R3,#+0
   \   0000034C   ........           BL       __aeabi_ldivmod
   \   00000350   0022               MOVS     R2,#+0
   \   00000352   3030               ADDS     R0,R0,#+48
   \   00000354   5141               ADCS     R1,R1,R2
   \   00000356   ........           BL       __aeabi_l2f
   \   0000035A   A100               LSLS     R1,R4,#+2
   \   0000035C   08AA               ADD      R2,SP,#+32
   \   0000035E   5050               STR      R0,[R2, R1]
   \   00000360   3000               MOVS     R0,R6
   \   00000362   3900               MOVS     R1,R7
   \   00000364   3A4A               LDR      R2,??FloToStr_6+0x54  ;; 0x3b9aca00
   \   00000366   0023               MOVS     R3,#+0
   \   00000368   ........           BL       __aeabi_ldivmod
   \   0000036C   1600               MOVS     R6,R2
   \   0000036E   1F00               MOVS     R7,R3
   \   00000370   04AA               ADD      R2,SP,#+16
   \   00000372   3948               LDR      R0,??FloToStr_6+0x5C  ;; 0x5f5e100
   \   00000374   0021               MOVS     R1,#+0
   \   00000376   03C2               STM      R2!,{R0,R1}
   2518                 if (Value>=100          ) {if (E_tmp==0) E_tmp=3;      if (ill_tmp<ill) { ill_tmp++;  str_tmp[ill_tmp]=48+__ValueRST / 100000000         ; __ValueRST=__ValueRST % 100000000         ; NastDiel=10000000    ; }};
   \                     ??FloToStr_22:
   \   00000378   2800               MOVS     R0,R5
   \   0000037A   3849               LDR      R1,??FloToStr_6+0x60  ;; 0x42c80000
   \   0000037C   ........           BL       __aeabi_cfrcmple
   \   00000380   23D8               BHI      ??FloToStr_24
   \   00000382   0098               LDR      R0,[SP, #+0]
   \   00000384   0028               CMP      R0,#+0
   \   00000386   01D1               BNE      ??FloToStr_25
   \   00000388   0320               MOVS     R0,#+3
   \   0000038A   0090               STR      R0,[SP, #+0]
   \                     ??FloToStr_25:
   \   0000038C   6846               MOV      R0,SP
   \   0000038E   0079               LDRB     R0,[R0, #+4]
   \   00000390   8442               CMP      R4,R0
   \   00000392   1ADA               BGE      ??FloToStr_24
   \   00000394   641C               ADDS     R4,R4,#+1
   \   00000396   3000               MOVS     R0,R6
   \   00000398   3900               MOVS     R1,R7
   \   0000039A   2F4A               LDR      R2,??FloToStr_6+0x5C  ;; 0x5f5e100
   \   0000039C   0023               MOVS     R3,#+0
   \   0000039E   ........           BL       __aeabi_ldivmod
   \   000003A2   0022               MOVS     R2,#+0
   \   000003A4   3030               ADDS     R0,R0,#+48
   \   000003A6   5141               ADCS     R1,R1,R2
   \   000003A8   ........           BL       __aeabi_l2f
   \   000003AC   A100               LSLS     R1,R4,#+2
   \   000003AE   08AA               ADD      R2,SP,#+32
   \   000003B0   5050               STR      R0,[R2, R1]
   \   000003B2   3000               MOVS     R0,R6
   \   000003B4   3900               MOVS     R1,R7
   \   000003B6   284A               LDR      R2,??FloToStr_6+0x5C  ;; 0x5f5e100
   \   000003B8   0023               MOVS     R3,#+0
   \   000003BA   ........           BL       __aeabi_ldivmod
   \   000003BE   1600               MOVS     R6,R2
   \   000003C0   1F00               MOVS     R7,R3
   \   000003C2   04AA               ADD      R2,SP,#+16
   \   000003C4   2648               LDR      R0,??FloToStr_6+0x64  ;; 0x989680
   \   000003C6   0021               MOVS     R1,#+0
   \   000003C8   03C2               STM      R2!,{R0,R1}
   2519                 if (Value>=10           ) {if (E_tmp==0) E_tmp=2;      if (ill_tmp<ill) { ill_tmp++;  str_tmp[ill_tmp]=48+__ValueRST / 10000000          ; __ValueRST=__ValueRST % 10000000          ; NastDiel=1000000     ; }};
   \                     ??FloToStr_24:
   \   000003CA   2800               MOVS     R0,R5
   \   000003CC   2549               LDR      R1,??FloToStr_6+0x68  ;; 0x41200000
   \   000003CE   ........           BL       __aeabi_cfrcmple
   \   000003D2   5BD8               BHI      ??FloToStr_26
   \   000003D4   0098               LDR      R0,[SP, #+0]
   \   000003D6   0028               CMP      R0,#+0
   \   000003D8   01D1               BNE      ??FloToStr_27
   \   000003DA   0220               MOVS     R0,#+2
   \   000003DC   0090               STR      R0,[SP, #+0]
   \                     ??FloToStr_27:
   \   000003DE   6846               MOV      R0,SP
   \   000003E0   0079               LDRB     R0,[R0, #+4]
   \   000003E2   8442               CMP      R4,R0
   \   000003E4   52DA               BGE      ??FloToStr_26
   \   000003E6   641C               ADDS     R4,R4,#+1
   \   000003E8   3000               MOVS     R0,R6
   \   000003EA   3900               MOVS     R1,R7
   \   000003EC   1C4A               LDR      R2,??FloToStr_6+0x64  ;; 0x989680
   \   000003EE   0023               MOVS     R3,#+0
   \   000003F0   ........           BL       __aeabi_ldivmod
   \   000003F4   0022               MOVS     R2,#+0
   \   000003F6   3030               ADDS     R0,R0,#+48
   \   000003F8   36E0               B.N      ??FloToStr_28
   \   000003FA   C046               Nop      
   \                     ??FloToStr_6:
   \   000003FC   00247449           DC32     0x49742400
   \   00000400   B743BA51           DC32     0x51ba43b7
   \   00000404   00008A5D           DC32     0x5d8a0000
   \   00000408   78456301           DC32     0x1634578
   \   0000040C   F9021550           DC32     0x501502f9
   \   00000410   0000C16F           DC32     0x6fc10000
   \   00000414   F2862300           DC32     0x2386f2
   \   00000418   286B6E4E           DC32     0x4e6e6b28
   \   0000041C   0080C6A4           DC32     0xa4c68000
   \   00000420   7E8D0300           DC32     0x38d7e
   \   00000424   20BCBE4C           DC32     0x4cbebc20
   \   00000428   00407A10           DC32     0x107a4000
   \   0000042C   F35A0000           DC32     0x5af3
   \   00000430   8096184B           DC32     0x4b189680
   \   00000434   00A0724E           DC32     0x4e72a000
   \   00000438   18090000           DC32     0x918
   \   0000043C   0010A5D4           DC32     0xd4a51000
   \   00000440   00E87648           DC32     0x4876e800
   \   00000444   0050C347           DC32     0x47c35000
   \   00000448   00E40B54           DC32     0x540be400
   \   0000044C   00401C46           DC32     0x461c4000
   \   00000450   00CA9A3B           DC32     0x3b9aca00
   \   00000454   00007A44           DC32     0x447a0000
   \   00000458   00E1F505           DC32     0x5f5e100
   \   0000045C   0000C842           DC32     0x42c80000
   \   00000460   80969800           DC32     0x989680
   \   00000464   00002041           DC32     0x41200000
   \                     ??FloToStr_28:
   \   00000468   5141               ADCS     R1,R1,R2
   \   0000046A   ........           BL       __aeabi_l2f
   \   0000046E   A100               LSLS     R1,R4,#+2
   \   00000470   08AA               ADD      R2,SP,#+32
   \   00000472   5050               STR      R0,[R2, R1]
   \   00000474   3000               MOVS     R0,R6
   \   00000476   3900               MOVS     R1,R7
   \   00000478   A24A               LDR      R2,??FloToStr_29  ;; 0x989680
   \   0000047A   0023               MOVS     R3,#+0
   \   0000047C   ........           BL       __aeabi_ldivmod
   \   00000480   1600               MOVS     R6,R2
   \   00000482   1F00               MOVS     R7,R3
   \   00000484   04AA               ADD      R2,SP,#+16
   \   00000486   A048               LDR      R0,??FloToStr_29+0x4  ;; 0xf4240
   \   00000488   0021               MOVS     R1,#+0
   \   0000048A   03C2               STM      R2!,{R0,R1}
   \                     ??FloToStr_26:
   \   0000048C   2800               MOVS     R0,R5
   \   0000048E   FE21               MOVS     R1,#+254
   \   00000490   8905               LSLS     R1,R1,#+22       ;; #+1065353216
   \   00000492   ........           BL       __aeabi_cfrcmple
   \   00000496   23D8               BHI      ??FloToStr_30
   2520                 if (Value>=1            ) {if (E_tmp==0) E_tmp=1;      if (ill_tmp<ill) { ill_tmp++;  str_tmp[ill_tmp]=48+__ValueRST / 1000000           ; __ValueRST=__ValueRST % 1000000           ; NastDiel=100000      ; }};
   \   00000498   0098               LDR      R0,[SP, #+0]
   \   0000049A   0028               CMP      R0,#+0
   \   0000049C   01D1               BNE      ??FloToStr_31
   \   0000049E   0120               MOVS     R0,#+1
   \   000004A0   0090               STR      R0,[SP, #+0]
   \                     ??FloToStr_31:
   \   000004A2   6846               MOV      R0,SP
   \   000004A4   0079               LDRB     R0,[R0, #+4]
   \   000004A6   8442               CMP      R4,R0
   \   000004A8   1ADA               BGE      ??FloToStr_30
   \   000004AA   641C               ADDS     R4,R4,#+1
   \   000004AC   3000               MOVS     R0,R6
   \   000004AE   3900               MOVS     R1,R7
   \   000004B0   954A               LDR      R2,??FloToStr_29+0x4  ;; 0xf4240
   \   000004B2   0023               MOVS     R3,#+0
   \   000004B4   ........           BL       __aeabi_ldivmod
   \   000004B8   0022               MOVS     R2,#+0
   \   000004BA   3030               ADDS     R0,R0,#+48
   \   000004BC   5141               ADCS     R1,R1,R2
   \   000004BE   ........           BL       __aeabi_l2f
   \   000004C2   A100               LSLS     R1,R4,#+2
   \   000004C4   08AA               ADD      R2,SP,#+32
   \   000004C6   5050               STR      R0,[R2, R1]
   \   000004C8   3000               MOVS     R0,R6
   \   000004CA   3900               MOVS     R1,R7
   \   000004CC   8E4A               LDR      R2,??FloToStr_29+0x4  ;; 0xf4240
   \   000004CE   0023               MOVS     R3,#+0
   \   000004D0   ........           BL       __aeabi_ldivmod
   \   000004D4   1600               MOVS     R6,R2
   \   000004D6   1F00               MOVS     R7,R3
   \   000004D8   04AA               ADD      R2,SP,#+16
   \   000004DA   8C48               LDR      R0,??FloToStr_29+0x8  ;; 0x186a0
   \   000004DC   0021               MOVS     R1,#+0
   \   000004DE   03C2               STM      R2!,{R0,R1}
   2521                 if (Value>=0.09999      ) {if (E_tmp==0) E_tmp=100;    if ((ill_tmp<ill)&&(__ValueRST>0)) { ill_tmp++;  str_tmp[ill_tmp]=0x2E; ill_tmp++;  str_tmp[ill_tmp]=48+__ValueRST / 100000            ; __ValueRST=__ValueRST % 100000            ; NastDiel=10000; }};
   \                     ??FloToStr_30:
   \   000004E0   2800               MOVS     R0,R5
   \   000004E2   8B49               LDR      R1,??FloToStr_29+0xC  ;; 0x3dccc78f
   \   000004E4   ........           BL       __aeabi_cfrcmple
   \   000004E8   2DD8               BHI      ??FloToStr_32
   \   000004EA   0098               LDR      R0,[SP, #+0]
   \   000004EC   0028               CMP      R0,#+0
   \   000004EE   01D1               BNE      ??FloToStr_33
   \   000004F0   6420               MOVS     R0,#+100
   \   000004F2   0090               STR      R0,[SP, #+0]
   \                     ??FloToStr_33:
   \   000004F4   6846               MOV      R0,SP
   \   000004F6   0079               LDRB     R0,[R0, #+4]
   \   000004F8   8442               CMP      R4,R0
   \   000004FA   24DA               BGE      ??FloToStr_32
   \   000004FC   002F               CMP      R7,#+0
   \   000004FE   22DB               BLT      ??FloToStr_32
   \   00000500   01DC               BGT      ??FloToStr_34
   \   00000502   012E               CMP      R6,#+1
   \   00000504   1FD3               BCC      ??FloToStr_32
   \                     ??FloToStr_34:
   \   00000506   641C               ADDS     R4,R4,#+1
   \   00000508   A000               LSLS     R0,R4,#+2
   \   0000050A   08A9               ADD      R1,SP,#+32
   \   0000050C   814A               LDR      R2,??FloToStr_29+0x10  ;; 0x42380000
   \   0000050E   0A50               STR      R2,[R1, R0]
   \   00000510   641C               ADDS     R4,R4,#+1
   \   00000512   3000               MOVS     R0,R6
   \   00000514   3900               MOVS     R1,R7
   \   00000516   7D4A               LDR      R2,??FloToStr_29+0x8  ;; 0x186a0
   \   00000518   0023               MOVS     R3,#+0
   \   0000051A   ........           BL       __aeabi_ldivmod
   \   0000051E   0022               MOVS     R2,#+0
   \   00000520   3030               ADDS     R0,R0,#+48
   \   00000522   5141               ADCS     R1,R1,R2
   \   00000524   ........           BL       __aeabi_l2f
   \   00000528   A100               LSLS     R1,R4,#+2
   \   0000052A   08AA               ADD      R2,SP,#+32
   \   0000052C   5050               STR      R0,[R2, R1]
   \   0000052E   3000               MOVS     R0,R6
   \   00000530   3900               MOVS     R1,R7
   \   00000532   764A               LDR      R2,??FloToStr_29+0x8  ;; 0x186a0
   \   00000534   0023               MOVS     R3,#+0
   \   00000536   ........           BL       __aeabi_ldivmod
   \   0000053A   1600               MOVS     R6,R2
   \   0000053C   1F00               MOVS     R7,R3
   \   0000053E   04AA               ADD      R2,SP,#+16
   \   00000540   7548               LDR      R0,??FloToStr_29+0x14  ;; 0x2710
   \   00000542   0021               MOVS     R1,#+0
   \   00000544   03C2               STM      R2!,{R0,R1}
   2522                 if (Value>=0.009999     ) {if (E_tmp==0) E_tmp=101;    if ((ill_tmp<ill)&&(__ValueRST>0)) { ill_tmp++;  str_tmp[ill_tmp]=48+(__ValueRST / 10000)           ; __ValueRST=__ValueRST % 10000             ; NastDiel=1000        ; }};
   \                     ??FloToStr_32:
   \   00000546   2800               MOVS     R0,R5
   \   00000548   7449               LDR      R1,??FloToStr_29+0x18  ;; 0x3c23d2d9
   \   0000054A   ........           BL       __aeabi_cfrcmple
   \   0000054E   29D8               BHI      ??FloToStr_35
   \   00000550   0098               LDR      R0,[SP, #+0]
   \   00000552   0028               CMP      R0,#+0
   \   00000554   01D1               BNE      ??FloToStr_36
   \   00000556   6520               MOVS     R0,#+101
   \   00000558   0090               STR      R0,[SP, #+0]
   \                     ??FloToStr_36:
   \   0000055A   6846               MOV      R0,SP
   \   0000055C   0079               LDRB     R0,[R0, #+4]
   \   0000055E   8442               CMP      R4,R0
   \   00000560   20DA               BGE      ??FloToStr_35
   \   00000562   002F               CMP      R7,#+0
   \   00000564   1EDB               BLT      ??FloToStr_35
   \   00000566   01DC               BGT      ??FloToStr_37
   \   00000568   012E               CMP      R6,#+1
   \   0000056A   1BD3               BCC      ??FloToStr_35
   \                     ??FloToStr_37:
   \   0000056C   641C               ADDS     R4,R4,#+1
   \   0000056E   3000               MOVS     R0,R6
   \   00000570   3900               MOVS     R1,R7
   \   00000572   694A               LDR      R2,??FloToStr_29+0x14  ;; 0x2710
   \   00000574   0023               MOVS     R3,#+0
   \   00000576   ........           BL       __aeabi_ldivmod
   \   0000057A   0022               MOVS     R2,#+0
   \   0000057C   3030               ADDS     R0,R0,#+48
   \   0000057E   5141               ADCS     R1,R1,R2
   \   00000580   ........           BL       __aeabi_l2f
   \   00000584   A100               LSLS     R1,R4,#+2
   \   00000586   08AA               ADD      R2,SP,#+32
   \   00000588   5050               STR      R0,[R2, R1]
   \   0000058A   3000               MOVS     R0,R6
   \   0000058C   3900               MOVS     R1,R7
   \   0000058E   624A               LDR      R2,??FloToStr_29+0x14  ;; 0x2710
   \   00000590   0023               MOVS     R3,#+0
   \   00000592   ........           BL       __aeabi_ldivmod
   \   00000596   1600               MOVS     R6,R2
   \   00000598   1F00               MOVS     R7,R3
   \   0000059A   04AA               ADD      R2,SP,#+16
   \   0000059C   FA20               MOVS     R0,#+250
   \   0000059E   8000               LSLS     R0,R0,#+2        ;; #+1000
   \   000005A0   0021               MOVS     R1,#+0
   \   000005A2   03C2               STM      R2!,{R0,R1}
   2523                 if (Value>=0.0009999    ) {if (E_tmp==0) E_tmp=102;    if ((ill_tmp<ill)&&(__ValueRST>0)) { ill_tmp++;  str_tmp[ill_tmp]=48+(__ValueRST / 1000)            ; __ValueRST=__ValueRST % 1000              ; NastDiel=100         ; }};
   \                     ??FloToStr_35:
   \   000005A4   2800               MOVS     R0,R5
   \   000005A6   5E49               LDR      R1,??FloToStr_29+0x1C  ;; 0x3a830f14
   \   000005A8   ........           BL       __aeabi_cfrcmple
   \   000005AC   2AD8               BHI      ??FloToStr_38
   \   000005AE   0098               LDR      R0,[SP, #+0]
   \   000005B0   0028               CMP      R0,#+0
   \   000005B2   01D1               BNE      ??FloToStr_39
   \   000005B4   6620               MOVS     R0,#+102
   \   000005B6   0090               STR      R0,[SP, #+0]
   \                     ??FloToStr_39:
   \   000005B8   6846               MOV      R0,SP
   \   000005BA   0079               LDRB     R0,[R0, #+4]
   \   000005BC   8442               CMP      R4,R0
   \   000005BE   21DA               BGE      ??FloToStr_38
   \   000005C0   002F               CMP      R7,#+0
   \   000005C2   1FDB               BLT      ??FloToStr_38
   \   000005C4   01DC               BGT      ??FloToStr_40
   \   000005C6   012E               CMP      R6,#+1
   \   000005C8   1CD3               BCC      ??FloToStr_38
   \                     ??FloToStr_40:
   \   000005CA   641C               ADDS     R4,R4,#+1
   \   000005CC   3000               MOVS     R0,R6
   \   000005CE   3900               MOVS     R1,R7
   \   000005D0   FA22               MOVS     R2,#+250
   \   000005D2   9200               LSLS     R2,R2,#+2        ;; #+1000
   \   000005D4   0023               MOVS     R3,#+0
   \   000005D6   ........           BL       __aeabi_ldivmod
   \   000005DA   0022               MOVS     R2,#+0
   \   000005DC   3030               ADDS     R0,R0,#+48
   \   000005DE   5141               ADCS     R1,R1,R2
   \   000005E0   ........           BL       __aeabi_l2f
   \   000005E4   A100               LSLS     R1,R4,#+2
   \   000005E6   08AA               ADD      R2,SP,#+32
   \   000005E8   5050               STR      R0,[R2, R1]
   \   000005EA   3000               MOVS     R0,R6
   \   000005EC   3900               MOVS     R1,R7
   \   000005EE   FA22               MOVS     R2,#+250
   \   000005F0   9200               LSLS     R2,R2,#+2        ;; #+1000
   \   000005F2   0023               MOVS     R3,#+0
   \   000005F4   ........           BL       __aeabi_ldivmod
   \   000005F8   1600               MOVS     R6,R2
   \   000005FA   1F00               MOVS     R7,R3
   \   000005FC   04AA               ADD      R2,SP,#+16
   \   000005FE   6420               MOVS     R0,#+100
   \   00000600   0021               MOVS     R1,#+0
   \   00000602   03C2               STM      R2!,{R0,R1}
   2524                 if (Value>=0.00009999   ) {if (E_tmp==0) E_tmp=103;    if ((ill_tmp<ill)&&(__ValueRST>0)) { ill_tmp++;  str_tmp[ill_tmp]=48+(__ValueRST / 100)             ; __ValueRST=__ValueRST % 100               ; NastDiel=10          ; }};
   \                     ??FloToStr_38:
   \   00000604   2800               MOVS     R0,R5
   \   00000606   4749               LDR      R1,??FloToStr_29+0x20  ;; 0x38d1b1b9
   \   00000608   ........           BL       __aeabi_cfrcmple
   \   0000060C   28D8               BHI      ??FloToStr_41
   \   0000060E   0098               LDR      R0,[SP, #+0]
   \   00000610   0028               CMP      R0,#+0
   \   00000612   01D1               BNE      ??FloToStr_42
   \   00000614   6720               MOVS     R0,#+103
   \   00000616   0090               STR      R0,[SP, #+0]
   \                     ??FloToStr_42:
   \   00000618   6846               MOV      R0,SP
   \   0000061A   0079               LDRB     R0,[R0, #+4]
   \   0000061C   8442               CMP      R4,R0
   \   0000061E   1FDA               BGE      ??FloToStr_41
   \   00000620   002F               CMP      R7,#+0
   \   00000622   1DDB               BLT      ??FloToStr_41
   \   00000624   01DC               BGT      ??FloToStr_43
   \   00000626   012E               CMP      R6,#+1
   \   00000628   1AD3               BCC      ??FloToStr_41
   \                     ??FloToStr_43:
   \   0000062A   641C               ADDS     R4,R4,#+1
   \   0000062C   3000               MOVS     R0,R6
   \   0000062E   3900               MOVS     R1,R7
   \   00000630   6422               MOVS     R2,#+100
   \   00000632   0023               MOVS     R3,#+0
   \   00000634   ........           BL       __aeabi_ldivmod
   \   00000638   0022               MOVS     R2,#+0
   \   0000063A   3030               ADDS     R0,R0,#+48
   \   0000063C   5141               ADCS     R1,R1,R2
   \   0000063E   ........           BL       __aeabi_l2f
   \   00000642   A100               LSLS     R1,R4,#+2
   \   00000644   08AA               ADD      R2,SP,#+32
   \   00000646   5050               STR      R0,[R2, R1]
   \   00000648   3000               MOVS     R0,R6
   \   0000064A   3900               MOVS     R1,R7
   \   0000064C   6422               MOVS     R2,#+100
   \   0000064E   0023               MOVS     R3,#+0
   \   00000650   ........           BL       __aeabi_ldivmod
   \   00000654   1600               MOVS     R6,R2
   \   00000656   1F00               MOVS     R7,R3
   \   00000658   04AA               ADD      R2,SP,#+16
   \   0000065A   0A20               MOVS     R0,#+10
   \   0000065C   0021               MOVS     R1,#+0
   \   0000065E   03C2               STM      R2!,{R0,R1}
   2525                 if (Value>=0.000009999  ) {if (E_tmp==0) E_tmp=104;    if ((ill_tmp<ill)&&(__ValueRST>0)) { ill_tmp++;  str_tmp[ill_tmp]=48+(__ValueRST / 10)              ; __ValueRST=__ValueRST % 10                ; NastDiel=1           ; }};
   \                     ??FloToStr_41:
   \   00000660   2800               MOVS     R0,R5
   \   00000662   3149               LDR      R1,??FloToStr_29+0x24  ;; 0x3727c161
   \   00000664   ........           BL       __aeabi_cfrcmple
   \   00000668   28D8               BHI      ??FloToStr_44
   \   0000066A   0098               LDR      R0,[SP, #+0]
   \   0000066C   0028               CMP      R0,#+0
   \   0000066E   01D1               BNE      ??FloToStr_45
   \   00000670   6820               MOVS     R0,#+104
   \   00000672   0090               STR      R0,[SP, #+0]
   \                     ??FloToStr_45:
   \   00000674   6846               MOV      R0,SP
   \   00000676   0079               LDRB     R0,[R0, #+4]
   \   00000678   8442               CMP      R4,R0
   \   0000067A   1FDA               BGE      ??FloToStr_44
   \   0000067C   002F               CMP      R7,#+0
   \   0000067E   1DDB               BLT      ??FloToStr_44
   \   00000680   01DC               BGT      ??FloToStr_46
   \   00000682   012E               CMP      R6,#+1
   \   00000684   1AD3               BCC      ??FloToStr_44
   \                     ??FloToStr_46:
   \   00000686   641C               ADDS     R4,R4,#+1
   \   00000688   3000               MOVS     R0,R6
   \   0000068A   3900               MOVS     R1,R7
   \   0000068C   0A22               MOVS     R2,#+10
   \   0000068E   0023               MOVS     R3,#+0
   \   00000690   ........           BL       __aeabi_ldivmod
   \   00000694   0022               MOVS     R2,#+0
   \   00000696   3030               ADDS     R0,R0,#+48
   \   00000698   5141               ADCS     R1,R1,R2
   \   0000069A   ........           BL       __aeabi_l2f
   \   0000069E   A100               LSLS     R1,R4,#+2
   \   000006A0   08AA               ADD      R2,SP,#+32
   \   000006A2   5050               STR      R0,[R2, R1]
   \   000006A4   3000               MOVS     R0,R6
   \   000006A6   3900               MOVS     R1,R7
   \   000006A8   0A22               MOVS     R2,#+10
   \   000006AA   0023               MOVS     R3,#+0
   \   000006AC   ........           BL       __aeabi_ldivmod
   \   000006B0   1600               MOVS     R6,R2
   \   000006B2   1F00               MOVS     R7,R3
   \   000006B4   04AA               ADD      R2,SP,#+16
   \   000006B6   0120               MOVS     R0,#+1
   \   000006B8   0021               MOVS     R1,#+0
   \   000006BA   03C2               STM      R2!,{R0,R1}
   2526                 if (Value>=0.0000009999 ) {if (E_tmp==0) E_tmp=105;    if ((ill_tmp<ill)&&(__ValueRST>0)) { ill_tmp++;  str_tmp[ill_tmp]=48+(__ValueRST / 1)               ; __ValueRST=__ValueRST % 1                 ; NastDiel=0           ; }};
   \                     ??FloToStr_44:
   \   000006BC   2800               MOVS     R0,R5
   \   000006BE   1B49               LDR      R1,??FloToStr_29+0x28  ;; 0x3586344e
   \   000006C0   ........           BL       __aeabi_cfrcmple
   \   000006C4   34D8               BHI      ??FloToStr_47
   \   000006C6   0098               LDR      R0,[SP, #+0]
   \   000006C8   0028               CMP      R0,#+0
   \   000006CA   01D1               BNE      ??FloToStr_48
   \   000006CC   6920               MOVS     R0,#+105
   \   000006CE   0090               STR      R0,[SP, #+0]
   \                     ??FloToStr_48:
   \   000006D0   6846               MOV      R0,SP
   \   000006D2   0079               LDRB     R0,[R0, #+4]
   \   000006D4   8442               CMP      R4,R0
   \   000006D6   2BDA               BGE      ??FloToStr_47
   \   000006D8   002F               CMP      R7,#+0
   \   000006DA   29DB               BLT      ??FloToStr_47
   \   000006DC   01DC               BGT      ??FloToStr_49
   \   000006DE   012E               CMP      R6,#+1
   \   000006E0   26D3               BCC      ??FloToStr_47
   \                     ??FloToStr_49:
   \   000006E2   641C               ADDS     R4,R4,#+1
   \   000006E4   0020               MOVS     R0,#+0
   \   000006E6   3036               ADDS     R6,R6,#+48
   \   000006E8   4741               ADCS     R7,R7,R0
   \   000006EA   3000               MOVS     R0,R6
   \   000006EC   3900               MOVS     R1,R7
   \   000006EE   ........           BL       __aeabi_l2f
   \   000006F2   A100               LSLS     R1,R4,#+2
   \   000006F4   08AA               ADD      R2,SP,#+32
   \   000006F6   5050               STR      R0,[R2, R1]
   \   000006F8   04AA               ADD      R2,SP,#+16
   \   000006FA   0020               MOVS     R0,#+0
   \   000006FC   0021               MOVS     R1,#+0
   \   000006FE   03C2               STM      R2!,{R0,R1}
   \   00000700   D7E0               B        ??FloToStr_50
   \   00000702   C046               Nop      
   \                     ??FloToStr_29:
   \   00000704   80969800           DC32     0x989680
   \   00000708   40420F00           DC32     0xf4240
   \   0000070C   A0860100           DC32     0x186a0
   \   00000710   8FC7CC3D           DC32     0x3dccc78f
   \   00000714   00003842           DC32     0x42380000
   \   00000718   10270000           DC32     0x2710
   \   0000071C   D9D2233C           DC32     0x3c23d2d9
   \   00000720   140F833A           DC32     0x3a830f14
   \   00000724   B9B1D138           DC32     0x38d1b1b9
   \   00000728   61C12737           DC32     0x3727c161
   \   0000072C   4E348635           DC32     0x3586344e
   2527             
   2528                 if ((__ValueRST) && (NastDiel))
   \                     ??FloToStr_47:
   \   00000730   002F               CMP      R7,#+0
   \   00000732   02D1               BNE      ??FloToStr_51
   \   00000734   002E               CMP      R6,#+0
   \   00000736   00D1               BNE      .+4
   \   00000738   BBE0               B        ??FloToStr_50
   \                     ??FloToStr_51:
   \   0000073A   04A8               ADD      R0,SP,#+16
   \   0000073C   03C8               LDM      R0!,{R0,R1}
   \   0000073E   0029               CMP      R1,#+0
   \   00000740   02D1               BNE      ??FloToStr_52
   \   00000742   0028               CMP      R0,#+0
   \   00000744   00D1               BNE      .+4
   \   00000746   B4E0               B        ??FloToStr_50
   2529                 {
   2530                   if (((__ValueRST/NastDiel)>5) && (str_tmp[ill_tmp]<57)) { str_tmp[ill_tmp]++; }
   \                     ??FloToStr_52:
   \   00000748   3000               MOVS     R0,R6
   \   0000074A   3900               MOVS     R1,R7
   \   0000074C   04AA               ADD      R2,SP,#+16
   \   0000074E   0CCA               LDM      R2!,{R2,R3}
   \   00000750   ........           BL       __aeabi_ldivmod
   \   00000754   0029               CMP      R1,#+0
   \   00000756   00DA               BGE      .+4
   \   00000758   ABE0               B        ??FloToStr_50
   \   0000075A   02DC               BGT      ??FloToStr_53
   \   0000075C   0628               CMP      R0,#+6
   \   0000075E   00D2               BCS      .+4
   \   00000760   A7E0               B        ??FloToStr_50
   \                     ??FloToStr_53:
   \   00000762   A000               LSLS     R0,R4,#+2
   \   00000764   08A9               ADD      R1,SP,#+32
   \   00000766   0E18               ADDS     R6,R1,R0
   \   00000768   3768               LDR      R7,[R6, #+0]
   \   0000076A   A24D               LDR      R5,??FloToStr_54  ;; 0x42640000
   \   0000076C   3800               MOVS     R0,R7
   \   0000076E   2900               MOVS     R1,R5
   \   00000770   ........           BL       __aeabi_cfcmple
   \   00000774   05D2               BCS      ??FloToStr_55
   \   00000776   FE20               MOVS     R0,#+254
   \   00000778   8005               LSLS     R0,R0,#+22       ;; #+1065353216
   \   0000077A   3900               MOVS     R1,R7
   \   0000077C   ........           BL       __aeabi_fadd
   \   00000780   3060               STR      R0,[R6, #+0]
   \                     ??FloToStr_55:
   \   00000782   3068               LDR      R0,[R6, #+0]
   \   00000784   2900               MOVS     R1,R5
   \   00000786   ........           BL       __aeabi_cfcmpeq
   \   0000078A   00D0               BEQ      .+4
   \   0000078C   91E0               B        ??FloToStr_50
   2531                   if (((__ValueRST/NastDiel)>5) && (str_tmp[ill_tmp]==57)) 
   2532                      { 
   2533                        str_tmp[ill_tmp]=0;
   \   0000078E   0020               MOVS     R0,#+0
   \   00000790   3060               STR      R0,[R6, #+0]
   2534                        ill_cor++;
   \   00000792   0120               MOVS     R0,#+1
   \   00000794   0390               STR      R0,[SP, #+12]
   \   00000796   143E               SUBS     R6,R6,#+20
   \   00000798   3069               LDR      R0,[R6, #+16]
   \   0000079A   B24F               LDR      R7,??FloToStr_56  ;; 0x42540001
   \   0000079C   3900               MOVS     R1,R7
   \   0000079E   ........           BL       __aeabi_cfrcmple
   \   000007A2   0CD8               BHI      ??FloToStr_57
   \   000007A4   2900               MOVS     R1,R5
   \   000007A6   ........           BL       __aeabi_cfcmple
   \   000007AA   08D2               BCS      ??FloToStr_57
   \   000007AC   611E               SUBS     R1,R4,#+1
   \   000007AE   0129               CMP      R1,#+1
   \   000007B0   05DA               BGE      ??FloToStr_57
   2535                        if ((str_tmp[ill_tmp-1]>53) && (str_tmp[ill_tmp-1]<57) && ((ill_tmp-1)<1)  )
   2536                          { 
   2537                            str_tmp[ill_tmp-1]++; 
   \   000007B2   0100               MOVS     R1,R0
   \   000007B4   FE20               MOVS     R0,#+254
   \   000007B6   8005               LSLS     R0,R0,#+22       ;; #+1065353216
   \   000007B8   ........           BL       __aeabi_fadd
   \   000007BC   3061               STR      R0,[R6, #+16]
   2538                          }
   2539                          if ((str_tmp[ill_tmp-1]==57) && ((ill_tmp-1)>0)  )
   \                     ??FloToStr_57:
   \   000007BE   3069               LDR      R0,[R6, #+16]
   \   000007C0   2900               MOVS     R1,R5
   \   000007C2   ........           BL       __aeabi_cfcmpeq
   \   000007C6   74D1               BNE      ??FloToStr_50
   \   000007C8   601E               SUBS     R0,R4,#+1
   \   000007CA   0128               CMP      R0,#+1
   \   000007CC   71DB               BLT      ??FloToStr_50
   2540                          {
   2541                            ill_cor++;
   \   000007CE   0220               MOVS     R0,#+2
   \   000007D0   0390               STR      R0,[SP, #+12]
   2542                            str_tmp[ill_tmp-1]=0;
   \   000007D2   0020               MOVS     R0,#+0
   \   000007D4   3061               STR      R0,[R6, #+16]
   2543                            
   2544                              if ((str_tmp[ill_tmp-2]>53) && (str_tmp[ill_tmp-2]<57) && ((ill_tmp-2)<1)  )
   \   000007D6   F068               LDR      R0,[R6, #+12]
   \   000007D8   3900               MOVS     R1,R7
   \   000007DA   ........           BL       __aeabi_cfrcmple
   \   000007DE   0CD8               BHI      ??FloToStr_58
   \   000007E0   2900               MOVS     R1,R5
   \   000007E2   ........           BL       __aeabi_cfcmple
   \   000007E6   08D2               BCS      ??FloToStr_58
   \   000007E8   A11E               SUBS     R1,R4,#+2
   \   000007EA   0129               CMP      R1,#+1
   \   000007EC   05DA               BGE      ??FloToStr_58
   2545                              { 
   2546                                str_tmp[ill_tmp-2]++; 
   \   000007EE   0100               MOVS     R1,R0
   \   000007F0   FE20               MOVS     R0,#+254
   \   000007F2   8005               LSLS     R0,R0,#+22       ;; #+1065353216
   \   000007F4   ........           BL       __aeabi_fadd
   \   000007F8   F060               STR      R0,[R6, #+12]
   2547                              }
   2548                            
   2549                              if ((str_tmp[ill_tmp-2]==57) && ((ill_tmp-2)>0)  )
   \                     ??FloToStr_58:
   \   000007FA   F068               LDR      R0,[R6, #+12]
   \   000007FC   2900               MOVS     R1,R5
   \   000007FE   ........           BL       __aeabi_cfcmpeq
   \   00000802   56D1               BNE      ??FloToStr_50
   \   00000804   A01E               SUBS     R0,R4,#+2
   \   00000806   0128               CMP      R0,#+1
   \   00000808   53DB               BLT      ??FloToStr_50
   2550                              {
   2551                                  str_tmp[ill_tmp-2]=0;
   \   0000080A   0020               MOVS     R0,#+0
   \   0000080C   F060               STR      R0,[R6, #+12]
   2552                                  if ((str_tmp[ill_tmp-3]>53) && (str_tmp[ill_tmp-3]<57) && ((ill_tmp-3)<1)  )
   \   0000080E   B068               LDR      R0,[R6, #+8]
   \   00000810   3900               MOVS     R1,R7
   \   00000812   ........           BL       __aeabi_cfrcmple
   \   00000816   0ED8               BHI      ??FloToStr_59
   \   00000818   2900               MOVS     R1,R5
   \   0000081A   ........           BL       __aeabi_cfcmple
   \   0000081E   0AD2               BCS      ??FloToStr_59
   \   00000820   E11E               SUBS     R1,R4,#+3
   \   00000822   0129               CMP      R1,#+1
   \   00000824   07DA               BGE      ??FloToStr_59
   2553                                  { 
   2554                                    ill_cor++;
   \   00000826   0321               MOVS     R1,#+3
   \   00000828   0391               STR      R1,[SP, #+12]
   2555                                    str_tmp[ill_tmp-3]++; 
   \   0000082A   0100               MOVS     R1,R0
   \   0000082C   FE20               MOVS     R0,#+254
   \   0000082E   8005               LSLS     R0,R0,#+22       ;; #+1065353216
   \   00000830   ........           BL       __aeabi_fadd
   \   00000834   B060               STR      R0,[R6, #+8]
   2556                                  }
   2557                                  if ((str_tmp[ill_tmp-3]==57) && ((ill_tmp-3)>0)  )
   \                     ??FloToStr_59:
   \   00000836   B068               LDR      R0,[R6, #+8]
   \   00000838   2900               MOVS     R1,R5
   \   0000083A   ........           BL       __aeabi_cfcmpeq
   \   0000083E   38D1               BNE      ??FloToStr_50
   \   00000840   E01E               SUBS     R0,R4,#+3
   \   00000842   0128               CMP      R0,#+1
   \   00000844   35DB               BLT      ??FloToStr_50
   2558                                  {
   2559                                      str_tmp[ill_tmp-3]=0;
   \   00000846   0020               MOVS     R0,#+0
   \   00000848   B060               STR      R0,[R6, #+8]
   2560                                      if ((str_tmp[ill_tmp-4]>53) && (str_tmp[ill_tmp-4]<57) && ((ill_tmp-4)<1)  )
   \   0000084A   7068               LDR      R0,[R6, #+4]
   \   0000084C   3900               MOVS     R1,R7
   \   0000084E   ........           BL       __aeabi_cfrcmple
   \   00000852   0FD8               BHI      ??FloToStr_60
   \   00000854   2900               MOVS     R1,R5
   \   00000856   ........           BL       __aeabi_cfcmple
   \   0000085A   0BD2               BCS      ??FloToStr_60
   \   0000085C   211F               SUBS     R1,R4,#+4
   \   0000085E   0129               CMP      R1,#+1
   \   00000860   08DA               BGE      ??FloToStr_60
   2561                                      { 
   2562                                        ill_cor++;
   \   00000862   0399               LDR      R1,[SP, #+12]
   \   00000864   491C               ADDS     R1,R1,#+1
   \   00000866   0391               STR      R1,[SP, #+12]
   2563                            
   2564                                        str_tmp[ill_tmp-4]++; 
   \   00000868   0100               MOVS     R1,R0
   \   0000086A   FE20               MOVS     R0,#+254
   \   0000086C   8005               LSLS     R0,R0,#+22       ;; #+1065353216
   \   0000086E   ........           BL       __aeabi_fadd
   \   00000872   7060               STR      R0,[R6, #+4]
   2565                                      }
   2566                                      if ((str_tmp[ill_tmp-4]==57) && ((ill_tmp-4)>0)  )
   \                     ??FloToStr_60:
   \   00000874   7068               LDR      R0,[R6, #+4]
   \   00000876   2900               MOVS     R1,R5
   \   00000878   ........           BL       __aeabi_cfcmpeq
   \   0000087C   19D1               BNE      ??FloToStr_50
   \   0000087E   201F               SUBS     R0,R4,#+4
   \   00000880   0128               CMP      R0,#+1
   \   00000882   16DB               BLT      ??FloToStr_50
   2567                                      {
   2568                                
   2569                                        if ((str_tmp[ill_tmp-5]>53) && (str_tmp[ill_tmp-5]<57) && ((ill_tmp-5)<1)  )
   \   00000884   3068               LDR      R0,[R6, #+0]
   \   00000886   3900               MOVS     R1,R7
   \   00000888   ........           BL       __aeabi_cfrcmple
   \   0000088C   11D8               BHI      ??FloToStr_50
   \   0000088E   2900               MOVS     R1,R5
   \   00000890   ........           BL       __aeabi_cfcmple
   \   00000894   0DD2               BCS      ??FloToStr_50
   \   00000896   601F               SUBS     R0,R4,#+5
   \   00000898   0128               CMP      R0,#+1
   \   0000089A   0ADA               BGE      ??FloToStr_50
   2570                                        { 
   2571                                          ill_cor++;
   \   0000089C   0398               LDR      R0,[SP, #+12]
   \   0000089E   401C               ADDS     R0,R0,#+1
   \   000008A0   0390               STR      R0,[SP, #+12]
   2572                                          str_tmp[ill_tmp-4]=0;
   \   000008A2   0020               MOVS     R0,#+0
   \   000008A4   7060               STR      R0,[R6, #+4]
   2573                                          str_tmp[ill_tmp-5]++; 
   \   000008A6   3168               LDR      R1,[R6, #+0]
   \   000008A8   FE20               MOVS     R0,#+254
   \   000008AA   8005               LSLS     R0,R0,#+22       ;; #+1065353216
   \   000008AC   ........           BL       __aeabi_fadd
   \   000008B0   3060               STR      R0,[R6, #+0]
   2574                                        }
   2575                      
   2576                                      }
   2577                                  }
   2578                                     
   2579                              }
   2580                            
   2581                            
   2582                          }
   2583                      }
   2584                 }
   2585                 
   2586          
   2587                
   2588                if (ill_tmp-ill_cor) {ill_tmp-=ill_cor;} else {ill_tmp=0;}
   \                     ??FloToStr_50:
   \   000008B2   0398               LDR      R0,[SP, #+12]
   \   000008B4   241A               SUBS     R4,R4,R0
   \   000008B6   00D1               BNE      ??FloToStr_61
   \   000008B8   0024               MOVS     R4,#+0
   2589          
   2590                
   2591                if (E_tmp<100) 
   \                     ??FloToStr_61:
   \   000008BA   0098               LDR      R0,[SP, #+0]
   \   000008BC   6428               CMP      R0,#+100
   \   000008BE   12DA               BGE      ??FloToStr_62
   2592                {
   2593                  for (int i=0; i<=ill-1; i++) Vstring[min+i]=str_tmp[i+1];  
   \   000008C0   0026               MOVS     R6,#+0
   \   000008C2   6846               MOV      R0,SP
   \   000008C4   0579               LDRB     R5,[R0, #+4]
   \   000008C6   6D1E               SUBS     R5,R5,#+1
   \   000008C8   54D4               BMI      ??FloToStr_63
   \                     ??FloToStr_64:
   \   000008CA   B000               LSLS     R0,R6,#+2
   \   000008CC   08A9               ADD      R1,SP,#+32
   \   000008CE   0818               ADDS     R0,R1,R0
   \   000008D0   4068               LDR      R0,[R0, #+4]
   \   000008D2   ........           BL       __aeabi_f2iz
   \   000008D6   0299               LDR      R1,[SP, #+8]
   \   000008D8   8919               ADDS     R1,R1,R6
   \   000008DA   189A               LDR      R2,[SP, #+96]
   \   000008DC   5054               STRB     R0,[R2, R1]
   \   000008DE   761C               ADDS     R6,R6,#+1
   \   000008E0   B542               CMP      R5,R6
   \   000008E2   47DB               BLT      ??FloToStr_63
   \   000008E4   F1E7               B        ??FloToStr_64
   2594                }
   2595          
   2596                if ( E_tmp == 100 )
   \                     ??FloToStr_62:
   \   000008E6   3020               MOVS     R0,#+48
   \   000008E8   0099               LDR      R1,[SP, #+0]
   \   000008EA   6429               CMP      R1,#+100
   \   000008EC   0299               LDR      R1,[SP, #+8]
   \   000008EE   189A               LDR      R2,[SP, #+96]
   \   000008F0   5054               STRB     R0,[R2, R1]
   \   000008F2   12D1               BNE      ??FloToStr_65
   2597                  {
   2598                    Vstring[min+0]=48;
   2599                    for (int i=1; i<=(E_tmp-100); i++) Vstring[min+i]=48; 
   2600                    for (int i=1+(E_tmp-100); i<=ill-1; i++) Vstring[min+i]=str_tmp[1+i-(1+(E_tmp-100))];  
   \   000008F4   0126               MOVS     R6,#+1
   \   000008F6   6846               MOV      R0,SP
   \   000008F8   0579               LDRB     R5,[R0, #+4]
   \   000008FA   6D1E               SUBS     R5,R5,#+1
   \   000008FC   012D               CMP      R5,#+1
   \   000008FE   39DB               BLT      ??FloToStr_63
   \                     ??FloToStr_66:
   \   00000900   B000               LSLS     R0,R6,#+2
   \   00000902   08A9               ADD      R1,SP,#+32
   \   00000904   0858               LDR      R0,[R1, R0]
   \   00000906   ........           BL       __aeabi_f2iz
   \   0000090A   0299               LDR      R1,[SP, #+8]
   \   0000090C   8919               ADDS     R1,R1,R6
   \   0000090E   189A               LDR      R2,[SP, #+96]
   \   00000910   5054               STRB     R0,[R2, R1]
   \   00000912   761C               ADDS     R6,R6,#+1
   \   00000914   B542               CMP      R5,R6
   \   00000916   2DDB               BLT      ??FloToStr_63
   \   00000918   F2E7               B        ??FloToStr_66
   2601                  }
   2602                if ( E_tmp > 100 )
   2603                  {
   2604                    Vstring[min+0]=48;
   2605                    Vstring[min+1]=46;
   \                     ??FloToStr_65:
   \   0000091A   0298               LDR      R0,[SP, #+8]
   \   0000091C   1899               LDR      R1,[SP, #+96]
   \   0000091E   0818               ADDS     R0,R1,R0
   \   00000920   2E21               MOVS     R1,#+46
   \   00000922   4170               STRB     R1,[R0, #+1]
   2606                    for (int i=2; i<=(1+E_tmp-100); i++) Vstring[min+i]=48; 
   \   00000924   0098               LDR      R0,[SP, #+0]
   \   00000926   6338               SUBS     R0,R0,#+99
   \   00000928   0228               CMP      R0,#+2
   \   0000092A   08DB               BLT      ??FloToStr_67
   \   0000092C   3022               MOVS     R2,#+48
   \   0000092E   0099               LDR      R1,[SP, #+0]
   \   00000930   6439               SUBS     R1,R1,#+100
   \   00000932   0298               LDR      R0,[SP, #+8]
   \   00000934   189B               LDR      R3,[SP, #+96]
   \   00000936   1818               ADDS     R0,R3,R0
   \   00000938   801C               ADDS     R0,R0,#+2
   \   0000093A   ........           BL       __aeabi_memset
   2607                    for (int i=2+(E_tmp-100); i<=ill-1; i++) {Vstring[min+i]=str_tmp[1+i-(2+(E_tmp-100))];  }
   \                     ??FloToStr_67:
   \   0000093E   009E               LDR      R6,[SP, #+0]
   \   00000940   623E               SUBS     R6,R6,#+98
   \   00000942   6846               MOV      R0,SP
   \   00000944   0579               LDRB     R5,[R0, #+4]
   \   00000946   6D1E               SUBS     R5,R5,#+1
   \   00000948   B542               CMP      R5,R6
   \   0000094A   11DA               BGE      ??FloToStr_68
   \   0000094C   12E0               B        ??FloToStr_63
   \                     ??FloToStr_69:
   \   0000094E   3700               MOVS     R7,R6
   \   00000950   7F1C               ADDS     R7,R7,#+1
   \   00000952   C420               MOVS     R0,#+196
   \   00000954   4000               LSLS     R0,R0,#+1        ;; #+392
   \   00000956   0099               LDR      R1,[SP, #+0]
   \   00000958   791A               SUBS     R1,R7,R1
   \   0000095A   8900               LSLS     R1,R1,#+2
   \   0000095C   08AA               ADD      R2,SP,#+32
   \   0000095E   5118               ADDS     R1,R2,R1
   \   00000960   0858               LDR      R0,[R1, R0]
   \   00000962   ........           BL       __aeabi_f2iz
   \   00000966   0299               LDR      R1,[SP, #+8]
   \   00000968   8919               ADDS     R1,R1,R6
   \   0000096A   189A               LDR      R2,[SP, #+96]
   \   0000096C   5054               STRB     R0,[R2, R1]
   \   0000096E   3E00               MOVS     R6,R7
   \                     ??FloToStr_68:
   \   00000970   B542               CMP      R5,R6
   \   00000972   ECDA               BGE      ??FloToStr_69
   2608          
   2609                  }  
   2610           
   2611              
   2612            
   2613                if (NastDiel<=10000)
   \                     ??FloToStr_63:
   \   00000974   6846               MOV      R0,SP
   \   00000976   0579               LDRB     R5,[R0, #+4]
   \   00000978   04A8               ADD      R0,SP,#+16
   \   0000097A   03C8               LDM      R0!,{R0,R1}
   \   0000097C   3A4A               LDR      R2,??FloToStr_56+0x4  ;; 0x2711
   \   0000097E   0023               MOVS     R3,#+0
   \   00000980   9942               CMP      R1,R3
   \   00000982   42DC               BGT      ??FloToStr_70
   \   00000984   01DB               BLT      ??FloToStr_71
   \   00000986   9042               CMP      R0,R2
   \   00000988   3FD2               BCS      ??FloToStr_70
   2614                {
   2615                  if ((Vstring[ill-1]==46)) 
   \                     ??FloToStr_71:
   \   0000098A   1898               LDR      R0,[SP, #+96]
   \   0000098C   4019               ADDS     R0,R0,R5
   \   0000098E   C01F               SUBS     R0,R0,#+7
   \   00000990   8179               LDRB     R1,[R0, #+6]
   \   00000992   2E29               CMP      R1,#+46
   \   00000994   00D1               BNE      ??FloToStr_72
   2616                    {
   2617                      Vstring[ill-1]=0;
   \   00000996   8371               STRB     R3,[R0, #+6]
   2618                    }
   2619                  if ((Vstring[ill-1]==48)) 
   \                     ??FloToStr_72:
   \   00000998   8179               LDRB     R1,[R0, #+6]
   \   0000099A   3029               CMP      R1,#+48
   \   0000099C   35D1               BNE      ??FloToStr_70
   2620                    {
   2621                      Vstring[ill-1]=0;
   \   0000099E   8371               STRB     R3,[R0, #+6]
   2622                      ill_tmp--;
   \   000009A0   641E               SUBS     R4,R4,#+1
   2623                      if (Vstring[ill-2]==46)
   \   000009A2   4179               LDRB     R1,[R0, #+5]
   \   000009A4   2E29               CMP      R1,#+46
   \   000009A6   01D1               BNE      ??FloToStr_73
   2624                      {
   2625                         Vstring[ill-2]=0;
   \   000009A8   4371               STRB     R3,[R0, #+5]
   2626                         ill_tmp--; 
   \   000009AA   2DE0               B.N      ??FloToStr_74
   2627                      }
   2628                      else
   2629                      {
   2630                           if ((Vstring[ill-2]==48)) 
   \                     ??FloToStr_73:
   \   000009AC   3029               CMP      R1,#+48
   \   000009AE   2CD1               BNE      ??FloToStr_70
   2631                           {
   2632                              Vstring[ill-2]=0;
   \   000009B0   4371               STRB     R3,[R0, #+5]
   2633                              ill_tmp--;
   \   000009B2   641E               SUBS     R4,R4,#+1
   2634                              if (Vstring[ill-3]==46)
   \   000009B4   0179               LDRB     R1,[R0, #+4]
   \   000009B6   2E29               CMP      R1,#+46
   \   000009B8   01D1               BNE      ??FloToStr_75
   2635                              {
   2636                                Vstring[ill-3]=0;
   \   000009BA   0371               STRB     R3,[R0, #+4]
   2637                                ill_tmp--; 
   \   000009BC   24E0               B.N      ??FloToStr_74
   2638                              }
   2639                              else
   2640                              {
   2641                                    if ((Vstring[ill-3]==48)) 
   \                     ??FloToStr_75:
   \   000009BE   3029               CMP      R1,#+48
   \   000009C0   23D1               BNE      ??FloToStr_70
   2642                                    {
   2643                                      Vstring[ill-3]=0;
   \   000009C2   0371               STRB     R3,[R0, #+4]
   2644                                      ill_tmp--;
   \   000009C4   641E               SUBS     R4,R4,#+1
   2645                                      if (Vstring[ill-4]==46)
   \   000009C6   C178               LDRB     R1,[R0, #+3]
   \   000009C8   2E29               CMP      R1,#+46
   \   000009CA   01D1               BNE      ??FloToStr_76
   2646                                      {
   2647                                        Vstring[ill-4]=0;
   \   000009CC   C370               STRB     R3,[R0, #+3]
   2648                                        ill_tmp--; 
   \   000009CE   1BE0               B.N      ??FloToStr_74
   2649                                      }
   2650                                      else
   2651                                      {
   2652                                          if ((Vstring[ill-4]==48)) 
   \                     ??FloToStr_76:
   \   000009D0   3029               CMP      R1,#+48
   \   000009D2   1AD1               BNE      ??FloToStr_70
   2653                                          {
   2654                                            Vstring[ill-4]=0;
   \   000009D4   C370               STRB     R3,[R0, #+3]
   2655                                            ill_tmp--;
   \   000009D6   641E               SUBS     R4,R4,#+1
   2656                                            if (Vstring[ill-5]==46)
   \   000009D8   8178               LDRB     R1,[R0, #+2]
   \   000009DA   2E29               CMP      R1,#+46
   \   000009DC   01D1               BNE      ??FloToStr_77
   2657                                            {
   2658                                              Vstring[ill-5]=0;
   \   000009DE   8370               STRB     R3,[R0, #+2]
   2659                                              ill_tmp--; 
   \   000009E0   12E0               B.N      ??FloToStr_74
   2660                                            }
   2661                                            else
   2662                                            {
   2663                                                if ((Vstring[ill-5]==48)) 
   \                     ??FloToStr_77:
   \   000009E2   3029               CMP      R1,#+48
   \   000009E4   11D1               BNE      ??FloToStr_70
   2664                                                {
   2665                                                  Vstring[ill-5]=0;
   \   000009E6   8370               STRB     R3,[R0, #+2]
   2666                                                  ill_tmp--;
   \   000009E8   641E               SUBS     R4,R4,#+1
   2667                                                  if (Vstring[ill-6]==46)
   \   000009EA   4178               LDRB     R1,[R0, #+1]
   \   000009EC   2E29               CMP      R1,#+46
   \   000009EE   03D1               BNE      ??FloToStr_78
   2668                                                  {
   2669                                                    Vstring[ill-6]=0;
   \   000009F0   4370               STRB     R3,[R0, #+1]
   2670                                                    ill_tmp--; 
   \   000009F2   09E0               B.N      ??FloToStr_74
   \                     ??FloToStr_54:
   \   000009F4   00006442           DC32     0x42640000
   2671                                                  }
   2672                                                  else
   2673                                                  {  
   2674                                                    if ((Vstring[ill-6]==48)) 
   \                     ??FloToStr_78:
   \   000009F8   3029               CMP      R1,#+48
   \   000009FA   06D1               BNE      ??FloToStr_70
   2675                                                    {
   2676                                                      Vstring[ill-6]=0;
   \   000009FC   4370               STRB     R3,[R0, #+1]
   2677                                                      ill_tmp--;
   \   000009FE   641E               SUBS     R4,R4,#+1
   2678                                                      if (Vstring[ill-7]==46)
   \   00000A00   0178               LDRB     R1,[R0, #+0]
   \   00000A02   2E29               CMP      R1,#+46
   \   00000A04   01D1               BNE      ??FloToStr_70
   2679                                                      {
   2680                                                        Vstring[ill-7]=0;
   \   00000A06   0370               STRB     R3,[R0, #+0]
   2681                                                        ill_tmp--; 
   \                     ??FloToStr_74:
   \   00000A08   641E               SUBS     R4,R4,#+1
   2682                                                      }
   2683          
   2684                                                    }
   2685                                                  }
   2686                                                 }
   2687                                          
   2688                                          
   2689                         
   2690                                            }
   2691                                          }
   2692                                    
   2693                         
   2694                                      }
   2695                                    }  
   2696                         
   2697                              }
   2698                           }  
   2699                        
   2700                         
   2701                      }
   2702                  
   2703                    }
   2704                  
   2705                }
   2706                
   2707              
   2708                if ((E_tmp>ill) && (E_tmp<100))
   \                     ??FloToStr_70:
   \   00000A0A   0098               LDR      R0,[SP, #+0]
   \   00000A0C   8542               CMP      R5,R0
   \   00000A0E   15DA               BGE      ??FloToStr_79
   \   00000A10   6428               CMP      R0,#+100
   \   00000A12   13DA               BGE      ??FloToStr_79
   2709                {
   2710                  if ((Vstring[ill-2]>53)&&(Vstring[ill-3]<57)) Vstring[ill-3]++;
   \   00000A14   1898               LDR      R0,[SP, #+96]
   \   00000A16   4019               ADDS     R0,R0,R5
   \   00000A18   C01F               SUBS     R0,R0,#+7
   \   00000A1A   4179               LDRB     R1,[R0, #+5]
   \   00000A1C   3629               CMP      R1,#+54
   \   00000A1E   04D3               BCC      ??FloToStr_80
   \   00000A20   0179               LDRB     R1,[R0, #+4]
   \   00000A22   3929               CMP      R1,#+57
   \   00000A24   01D2               BCS      ??FloToStr_80
   \   00000A26   491C               ADDS     R1,R1,#+1
   \   00000A28   0171               STRB     R1,[R0, #+4]
   2711                  Vstring[ill-2]=0x45;
   \                     ??FloToStr_80:
   \   00000A2A   4521               MOVS     R1,#+69
   \   00000A2C   4171               STRB     R1,[R0, #+5]
   2712                  Vstring[ill-1]=48+E_tmp-ill+2;
   \   00000A2E   0099               LDR      R1,[SP, #+0]
   \   00000A30   3031               ADDS     R1,R1,#+48
   \   00000A32   6A46               MOV      R2,SP
   \   00000A34   1279               LDRB     R2,[R2, #+4]
   \   00000A36   891A               SUBS     R1,R1,R2
   \   00000A38   891C               ADDS     R1,R1,#+2
   \   00000A3A   8171               STRB     R1,[R0, #+6]
   2713                }    
   2714              
   2715                if (min)
   \                     ??FloToStr_79:
   \   00000A3C   0298               LDR      R0,[SP, #+8]
   \   00000A3E   0028               CMP      R0,#+0
   \   00000A40   02D0               BEQ      ??FloToStr_81
   2716                {
   2717                  Vstring[0]=45; 
   \   00000A42   1898               LDR      R0,[SP, #+96]
   \   00000A44   2D21               MOVS     R1,#+45
   \   00000A46   0170               STRB     R1,[R0, #+0]
   2718                }
   2719                
   2720                ill++;
   2721                Vstring[ill+1]=0;
   \                     ??FloToStr_81:
   \   00000A48   6846               MOV      R0,SP
   \   00000A4A   0079               LDRB     R0,[R0, #+4]
   \   00000A4C   401C               ADDS     R0,R0,#+1
   \   00000A4E   0006               LSLS     R0,R0,#+24
   \   00000A50   000E               LSRS     R0,R0,#+24
   \   00000A52   1899               LDR      R1,[SP, #+96]
   \   00000A54   0818               ADDS     R0,R1,R0
   \   00000A56   4370               STRB     R3,[R0, #+1]
   2722              
   2723               }
   2724             }
   2725          
   2726               
   2727             return ill_tmp;
   \                     ??FloToStr_4:
   \   00000A58   2006               LSLS     R0,R4,#+24
   \   00000A5A   000E               LSRS     R0,R0,#+24
   \   00000A5C   19B0               ADD      SP,SP,#+100
   \   00000A5E   F0BC               POP      {R4-R7}
   \   00000A60   02BC               POP      {R1}
   \   00000A62   0847               BX       R1               ;; return
   \                     ??FloToStr_56:
   \   00000A64   01005442           DC32     0x42540001
   \   00000A68   11270000           DC32     0x2711
   2728          
   2729          
   2730             
   2731          }//_______________________ Koniec funkcji konwersji float na string ____________________________
   2732          
   2733          
   2734          
   2735          
   2736          
   2737          
   2738          //*-----------------------------------------------------------------------------
   2739          //* Nazwa funkcji :    H_line
   2740          //* Funkcja rysowania lini poziomej
   2741          //*-----------------------------------------------------------------------------
   2742          
   2743          //*  X          - wspó³¿êdna X zale¿na 
   2744          //*  Y          - wspó³¿êdna Y do³u napisu
   2745          //*  length     -d³ugoœæ
   2746          //*  typ        -0-bia³a 1=ci¹gla, 2=kropkowana, 3=kreskowana 
   2747          //*-----------------------------------------------------------------------------

   \                                 In section Debug.txt, align 4, keep-with-next
   2748          void H_line (char X, int Y, char lenght, char typ) 
   2749          { 
   \                     H_line:
   \   00000000   FEB5               PUSH     {R1-R7,LR}
   2750              int kol=0;
   2751              char bit=0;
   2752            
   2753                kol=X/8;
   \   00000002   C108               LSRS     R1,R0,#+3
   2754                bit=X%8;
   \   00000004   CA00               LSLS     R2,R1,#+3
   \   00000006   831A               SUBS     R3,R0,R2
   \   00000008   1B06               LSLS     R3,R3,#+24
   \   0000000A   1B0E               LSRS     R3,R3,#+24
   2755                
   2756                for (int j=1; j<=lenght; j++)
   \   0000000C   0124               MOVS     R4,#+1
   \   0000000E   6846               MOV      R0,SP
   \   00000010   0079               LDRB     R0,[R0, #+4]
   \   00000012   0028               CMP      R0,#+0
   \   00000014   5AD0               BEQ      ??H_line_0
   \   00000016   03E0               B        ??H_line_1
   2757                {
   2758                    
   2759                    if (typ>0) 
   2760                    {
   2761                      LCD_Canvas[kol][Y] |= (0x1)<<bit;
   2762                      if (bit<7) { bit++;} else {bit=0;  kol++; }
   2763                    }
   2764                    else
   2765                    {
   2766                        
   2767                        LCD_Canvas[kol][Y] &= ~((0x1)<<bit);
   2768                      if (bit<7) { bit++;} else {bit=0;  kol++; }
   2769                      
   2770                    }
   2771                   
   2772                    if ((typ==3) && ((j+1)<=lenght))
   2773                    {
   2774                      LCD_Canvas[kol][Y] |= (0x1)<<bit;
   2775                      if (bit<7) { bit++;} else {bit=0;  kol++;}
   2776                      j++;
   2777                    }
   2778                     if ((typ>=2) && ((j+1)<=lenght))
   2779                    {
   2780                      LCD_Canvas[kol][Y] &=~((0x1)<<bit);
   2781                      if (bit<7) { bit++;} else {bit=0;  kol++;}
   \                     ??H_line_2:
   \   00000018   0023               MOVS     R3,#+0
   \   0000001A   491C               ADDS     R1,R1,#+1
   2782                      j++;
   \                     ??H_line_3:
   \   0000001C   0400               MOVS     R4,R0
   \                     ??H_line_4:
   \   0000001E   641C               ADDS     R4,R4,#+1
   \                     ??H_line_1:
   \   00000020   6846               MOV      R0,SP
   \   00000022   0079               LDRB     R0,[R0, #+4]
   \   00000024   A042               CMP      R0,R4
   \   00000026   51DB               BLT      ??H_line_0
   \   00000028   0120               MOVS     R0,#+1
   \   0000002A   9840               LSLS     R0,R0,R3
   \   0000002C   CD01               LSLS     R5,R1,#+7
   \   0000002E   009E               LDR      R6,[SP, #+0]
   \   00000030   284F               LDR      R7,??H_line_5    ;; LCD_Canvas
   \   00000032   BE19               ADDS     R6,R7,R6
   \   00000034   7519               ADDS     R5,R6,R5
   \   00000036   2E78               LDRB     R6,[R5, #+0]
   \   00000038   6F46               MOV      R7,SP
   \   0000003A   3F7A               LDRB     R7,[R7, #+8]
   \   0000003C   002F               CMP      R7,#+0
   \   0000003E   20D0               BEQ      ??H_line_6
   \   00000040   3043               ORRS     R0,R0,R6
   \   00000042   2870               STRB     R0,[R5, #+0]
   \   00000044   072B               CMP      R3,#+7
   \   00000046   20D2               BCS      ??H_line_7
   \                     ??H_line_8:
   \   00000048   5B1C               ADDS     R3,R3,#+1
   \   0000004A   1B06               LSLS     R3,R3,#+24
   \   0000004C   1B0E               LSRS     R3,R3,#+24
   \                     ??H_line_9:
   \   0000004E   6846               MOV      R0,SP
   \   00000050   007A               LDRB     R0,[R0, #+8]
   \   00000052   0328               CMP      R0,#+3
   \   00000054   20D1               BNE      ??H_line_10
   \   00000056   2000               MOVS     R0,R4
   \   00000058   401C               ADDS     R0,R0,#+1
   \   0000005A   6D46               MOV      R5,SP
   \   0000005C   2D79               LDRB     R5,[R5, #+4]
   \   0000005E   8542               CMP      R5,R0
   \   00000060   1EDB               BLT      ??H_line_11
   \   00000062   CC01               LSLS     R4,R1,#+7
   \   00000064   009D               LDR      R5,[SP, #+0]
   \   00000066   1B4E               LDR      R6,??H_line_5    ;; LCD_Canvas
   \   00000068   7519               ADDS     R5,R6,R5
   \   0000006A   2C19               ADDS     R4,R5,R4
   \   0000006C   2578               LDRB     R5,[R4, #+0]
   \   0000006E   0126               MOVS     R6,#+1
   \   00000070   9E40               LSLS     R6,R6,R3
   \   00000072   2E43               ORRS     R6,R6,R5
   \   00000074   2670               STRB     R6,[R4, #+0]
   \   00000076   072B               CMP      R3,#+7
   \   00000078   0AD2               BCS      ??H_line_12
   \   0000007A   5B1C               ADDS     R3,R3,#+1
   \   0000007C   1B06               LSLS     R3,R3,#+24
   \   0000007E   1B0E               LSRS     R3,R3,#+24
   \   00000080   08E0               B        ??H_line_13
   \                     ??H_line_6:
   \   00000082   8643               BICS     R6,R6,R0
   \   00000084   2E70               STRB     R6,[R5, #+0]
   \   00000086   072B               CMP      R3,#+7
   \   00000088   DED3               BCC      ??H_line_8
   \                     ??H_line_7:
   \   0000008A   0023               MOVS     R3,#+0
   \   0000008C   491C               ADDS     R1,R1,#+1
   \   0000008E   DEE7               B        ??H_line_9
   \                     ??H_line_12:
   \   00000090   0023               MOVS     R3,#+0
   \   00000092   491C               ADDS     R1,R1,#+1
   \                     ??H_line_13:
   \   00000094   0400               MOVS     R4,R0
   \   00000096   03E0               B        ??H_line_11
   \                     ??H_line_10:
   \   00000098   6846               MOV      R0,SP
   \   0000009A   007A               LDRB     R0,[R0, #+8]
   \   0000009C   0228               CMP      R0,#+2
   \   0000009E   BED3               BCC      ??H_line_4
   \                     ??H_line_11:
   \   000000A0   2000               MOVS     R0,R4
   \   000000A2   401C               ADDS     R0,R0,#+1
   \   000000A4   6D46               MOV      R5,SP
   \   000000A6   2D79               LDRB     R5,[R5, #+4]
   \   000000A8   8542               CMP      R5,R0
   \   000000AA   B8DB               BLT      ??H_line_4
   \   000000AC   CC01               LSLS     R4,R1,#+7
   \   000000AE   009D               LDR      R5,[SP, #+0]
   \   000000B0   084E               LDR      R6,??H_line_5    ;; LCD_Canvas
   \   000000B2   7519               ADDS     R5,R6,R5
   \   000000B4   2C19               ADDS     R4,R5,R4
   \   000000B6   2578               LDRB     R5,[R4, #+0]
   \   000000B8   0126               MOVS     R6,#+1
   \   000000BA   9E40               LSLS     R6,R6,R3
   \   000000BC   B543               BICS     R5,R5,R6
   \   000000BE   2570               STRB     R5,[R4, #+0]
   \   000000C0   072B               CMP      R3,#+7
   \   000000C2   A9D2               BCS      ??H_line_2
   \   000000C4   5B1C               ADDS     R3,R3,#+1
   \   000000C6   1B06               LSLS     R3,R3,#+24
   \   000000C8   1B0E               LSRS     R3,R3,#+24
   \   000000CA   A7E7               B        ??H_line_3
   2783                    }
   2784                    
   2785                }   
   2786          
   2787          }//_______________________ Koniec funkcji H_line ____________________________ 
   \                     ??H_line_0:
   \   000000CC   FEBC               POP      {R1-R7}
   \   000000CE   01BC               POP      {R0}
   \   000000D0   0047               BX       R0               ;; return
   \   000000D2   C046               Nop      
   \                     ??H_line_5:
   \   000000D4   ........           DC32     LCD_Canvas
   2788          
   2789          
   2790          
   2791          
   2792          
   2793          
   2794          
   2795          //*-----------------------------------------------------------------------------
   2796          //* Nazwa funkcji :    V_line
   2797          //* Funkcja rysowania lini pionowej
   2798          //*-----------------------------------------------------------------------------
   2799          
   2800          //*  X          - wspó³¿êdna X zale¿na 
   2801          //*  Y          - wspó³¿êdna Y do³u napisu
   2802          //*  length     -d³ugoœæ
   2803          //*  typ        -0-bia³a 1=ci¹gla, 2=kropkowana, 3=kreskowana 
   2804          //*-----------------------------------------------------------------------------

   \                                 In section Debug.txt, align 4, keep-with-next
   2805          void V_line (char X, int Y, char lenght, char typ) 
   2806          { 
   \                     V_line:
   \   00000000   70B5               PUSH     {R4-R6,LR}
   2807              int kol=0;
   2808              char bit=0;
   2809            
   2810                kol=X/8;
   \   00000002   C608               LSRS     R6,R0,#+3
   2811                bit=X%8;
   \   00000004   F400               LSLS     R4,R6,#+3
   \   00000006   041B               SUBS     R4,R0,R4
   \   00000008   2406               LSLS     R4,R4,#+24
   \   0000000A   240E               LSRS     R4,R4,#+24
   2812                
   2813                if (typ==1) 
   \   0000000C   012B               CMP      R3,#+1
   \   0000000E   0ED1               BNE      ??V_line_0
   2814                {
   2815                  for (int j=0; j<=lenght-1; j++)
   \   00000010   501E               SUBS     R0,R2,#+1
   \   00000012   51D4               BMI      ??V_line_1
   \   00000014   F001               LSLS     R0,R6,#+7
   \   00000016   294B               LDR      R3,??V_line_2    ;; LCD_Canvas
   \   00000018   1818               ADDS     R0,R3,R0
   \   0000001A   4118               ADDS     R1,R0,R1
   \   0000001C   0120               MOVS     R0,#+1
   \   0000001E   A040               LSLS     R0,R0,R4
   2816                  {
   2817                    LCD_Canvas[kol][Y+j] |= (0x1)<<bit;
   \                     ??V_line_3:
   \   00000020   0B78               LDRB     R3,[R1, #+0]
   \   00000022   0343               ORRS     R3,R3,R0
   \   00000024   0B70               STRB     R3,[R1, #+0]
   2818                  }
   \   00000026   491C               ADDS     R1,R1,#+1
   \   00000028   521E               SUBS     R2,R2,#+1
   \   0000002A   45D0               BEQ      ??V_line_1
   \   0000002C   F8E7               B        ??V_line_3
   2819                }
   2820                
   2821                if (typ==2) 
   \                     ??V_line_0:
   \   0000002E   022B               CMP      R3,#+2
   \   00000030   16D1               BNE      ??V_line_4
   2822                {
   2823                  char zmiana=0;
   \   00000032   0025               MOVS     R5,#+0
   2824                  for (int j=0; j<=lenght-1; j++)
   \   00000034   501E               SUBS     R0,R2,#+1
   \   00000036   3FD4               BMI      ??V_line_1
   \   00000038   F001               LSLS     R0,R6,#+7
   \   0000003A   204E               LDR      R6,??V_line_2    ;; LCD_Canvas
   \   0000003C   3018               ADDS     R0,R6,R0
   \   0000003E   4118               ADDS     R1,R0,R1
   \   00000040   0120               MOVS     R0,#+1
   \   00000042   A040               LSLS     R0,R0,R4
   \   00000044   C443               MVNS     R4,R0
   \   00000046   05E0               B        ??V_line_5
   2825                  {
   2826                    if (zmiana==0)
   2827                    {
   2828                      LCD_Canvas[kol][Y+j] |= (0x1)<<bit;
   2829                      zmiana=1;
   2830                    }
   2831                    else
   2832                    {
   2833                      LCD_Canvas[kol][Y+j] &= ~((0x1)<<bit);
   \                     ??V_line_6:
   \   00000048   2640               ANDS     R6,R6,R4
   2834                      zmiana=0;
   \   0000004A   0025               MOVS     R5,#+0
   \                     ??V_line_7:
   \   0000004C   0E70               STRB     R6,[R1, #+0]
   2835                    }
   \   0000004E   491C               ADDS     R1,R1,#+1
   \   00000050   521E               SUBS     R2,R2,#+1
   \   00000052   31D0               BEQ      ??V_line_1
   \                     ??V_line_5:
   \   00000054   0E78               LDRB     R6,[R1, #+0]
   \   00000056   002D               CMP      R5,#+0
   \   00000058   F6D1               BNE      ??V_line_6
   \   0000005A   0643               ORRS     R6,R6,R0
   \   0000005C   0125               MOVS     R5,#+1
   \   0000005E   F5E7               B        ??V_line_7
   2836                  }
   2837                }
   2838                
   2839                if (typ==3) 
   \                     ??V_line_4:
   \   00000060   032B               CMP      R3,#+3
   \   00000062   18D1               BNE      ??V_line_8
   2840                {
   2841                  char zmiana=0;
   \   00000064   0025               MOVS     R5,#+0
   2842                  for (int j=0; j<=lenght-1; j++)
   \   00000066   501E               SUBS     R0,R2,#+1
   \   00000068   26D4               BMI      ??V_line_1
   \   0000006A   F001               LSLS     R0,R6,#+7
   \   0000006C   134E               LDR      R6,??V_line_2    ;; LCD_Canvas
   \   0000006E   3018               ADDS     R0,R6,R0
   \   00000070   4118               ADDS     R1,R0,R1
   \   00000072   0120               MOVS     R0,#+1
   \   00000074   A040               LSLS     R0,R0,R4
   \   00000076   C443               MVNS     R4,R0
   \   00000078   05E0               B        ??V_line_9
   2843                  {
   2844                    if (zmiana<2)
   2845                    {
   2846                      LCD_Canvas[kol][Y+j] |= (0x1)<<bit;
   2847                      zmiana++;
   2848                    }
   2849                    else
   2850                    {
   2851                      LCD_Canvas[kol][Y+j] &= ~((0x1)<<bit);
   \                     ??V_line_10:
   \   0000007A   2640               ANDS     R6,R6,R4
   2852                      zmiana=0;
   \   0000007C   0025               MOVS     R5,#+0
   \                     ??V_line_11:
   \   0000007E   0E70               STRB     R6,[R1, #+0]
   2853                    }
   \   00000080   491C               ADDS     R1,R1,#+1
   \   00000082   521E               SUBS     R2,R2,#+1
   \   00000084   18D0               BEQ      ??V_line_1
   \                     ??V_line_9:
   \   00000086   0E78               LDRB     R6,[R1, #+0]
   \   00000088   2D06               LSLS     R5,R5,#+24
   \   0000008A   2D0E               LSRS     R5,R5,#+24
   \   0000008C   022D               CMP      R5,#+2
   \   0000008E   F4D2               BCS      ??V_line_10
   \   00000090   0643               ORRS     R6,R6,R0
   \   00000092   6D1C               ADDS     R5,R5,#+1
   \   00000094   F3E7               B        ??V_line_11
   2854                  }
   2855                }
   2856                
   2857                
   2858                if (typ==0) 
   \                     ??V_line_8:
   \   00000096   002B               CMP      R3,#+0
   \   00000098   0ED1               BNE      ??V_line_1
   2859                {
   2860                   for (int j=0; j<=lenght-1; j++)
   \   0000009A   501E               SUBS     R0,R2,#+1
   \   0000009C   0CD4               BMI      ??V_line_1
   \   0000009E   F001               LSLS     R0,R6,#+7
   \   000000A0   064B               LDR      R3,??V_line_2    ;; LCD_Canvas
   \   000000A2   1818               ADDS     R0,R3,R0
   \   000000A4   4118               ADDS     R1,R0,R1
   \   000000A6   0120               MOVS     R0,#+1
   \   000000A8   A040               LSLS     R0,R0,R4
   \   000000AA   C443               MVNS     R4,R0
   2861                    {
   2862                    LCD_Canvas[kol][Y+j] &= ~((0x1)<<bit);
   \                     ??V_line_12:
   \   000000AC   0878               LDRB     R0,[R1, #+0]
   \   000000AE   2040               ANDS     R0,R0,R4
   \   000000B0   0870               STRB     R0,[R1, #+0]
   2863                    }
   \   000000B2   491C               ADDS     R1,R1,#+1
   \   000000B4   521E               SUBS     R2,R2,#+1
   \   000000B6   F9D1               BNE      ??V_line_12
   2864                  
   2865                }
   2866          
   2867          
   2868          }//_______________________ Koniec funkcji H_line ____________________________ 
   \                     ??V_line_1:
   \   000000B8   ........           BL       ??Subroutine1_0
   \                     ??V_line_2:
   \   000000BC   ........           DC32     LCD_Canvas
   2869          
   2870          
   2871          
   2872          long long int ButtonEventTime=0;
   2873          //*-----------------------------------------------------------------------------
   2874          //* Nazwa funkcji :    Button
   2875          //* Uniwersalna funkcja przycisku
   2876          //*-----------------------------------------------------------------------------
   2877          //*  Label        - etykieta
   2878          //*  poz_X   - pozycja lewy róg
   2879          //*  poz_Y   - pozycja dolny róg
   2880          //*  width -   szerokoœæ
   2881          //*  height -  wysokoœæ
   2882          //*-----------------------------------------------------------------------------
   2883          long long ButtonBipCounter=0;
   2884          

   \                                 In section Debug.txt, align 4, keep-with-next
   2885          char Button (char _Label[15], char poz_X , char poz_Y ,char width, char height) 
   2886          { 
   \                     Button:
   \   00000000   FCB5               PUSH     {R2-R7,LR}
   \   00000002   83B0               SUB      SP,SP,#+12
   \   00000004   0500               MOVS     R5,R0
   \   00000006   0C00               MOVS     R4,R1
   \   00000008   6846               MOV      R0,SP
   \   0000000A   0021               MOVS     R1,#+0
   \   0000000C   C170               STRB     R1,[R0, #+3]
   2887              char odp =0;
   2888              char tmpI=0;
   \   0000000E   0026               MOVS     R6,#+0
   2889              char tmpF=0;
   \   00000010   0800               MOVS     R0,R1
   \   00000012   04E0               B        ??Button_0
   2890              while ((tmpI<=15) && (tmpF==0))
   2891              {
   2892                if (_Label[tmpI]==0)
   2893                {
   2894                  tmpF=1;
   \                     ??Button_1:
   \   00000014   0120               MOVS     R0,#+1
   2895                }else{
   \                     ??Button_2:
   \   00000016   102E               CMP      R6,#+16
   \   00000018   08D2               BCS      ??Button_3
   \   0000001A   0028               CMP      R0,#+0
   \   0000001C   06D1               BNE      ??Button_3
   \                     ??Button_0:
   \   0000001E   A95D               LDRB     R1,[R5, R6]
   \   00000020   0029               CMP      R1,#+0
   \   00000022   F7D0               BEQ      ??Button_1
   2896                  tmpI++;
   \   00000024   761C               ADDS     R6,R6,#+1
   \   00000026   3606               LSLS     R6,R6,#+24
   \   00000028   360E               LSRS     R6,R6,#+24
   \   0000002A   F4E7               B        ??Button_2
   2897                }
   2898              }
   \                     ??Button_3:
   \   0000002C   6846               MOV      R0,SP
   \   0000002E   1900               MOVS     R1,R3
   \   00000030   091F               SUBS     R1,R1,#+4
   \   00000032   4170               STRB     R1,[R0, #+1]
   \   00000034   0AA9               ADD      R1,SP,#+40
   \   00000036   0978               LDRB     R1,[R1, #+0]
   \   00000038   091F               SUBS     R1,R1,#+4
   \   0000003A   0170               STRB     R1,[R0, #+0]
   \   0000003C   82B0               SUB      SP,SP,#+8
   \   0000003E   0120               MOVS     R0,#+1
   \   00000040   0090               STR      R0,[SP, #+0]
   \   00000042   02A8               ADD      R0,SP,#+8
   \   00000044   0378               LDRB     R3,[R0, #+0]
   \   00000046   4278               LDRB     R2,[R0, #+1]
   \   00000048   017B               LDRB     R1,[R0, #+12]
   \   0000004A   891C               ADDS     R1,R1,#+2
   \   0000004C   0906               LSLS     R1,R1,#+24
   \   0000004E   090E               LSRS     R1,R1,#+24
   \   00000050   2000               MOVS     R0,R4
   \   00000052   801C               ADDS     R0,R0,#+2
   \   00000054   0006               LSLS     R0,R0,#+24
   \   00000056   000E               LSRS     R0,R0,#+24
   2899              static char ButtonDown=0;
   2900              CleanCanvasArea(poz_X+2, poz_Y+2, width-4, height-4,1);  //(char X, char Y, char X_Lenght, char Y_Lenght, char Type);   
   \   00000058   ........           BL       CleanCanvasArea
   \   0000005C   02B0               ADD      SP,SP,#+8
   2901              Label(_Label,2,poz_X+3,poz_Y+(height/2)-4,tmpI,width-7,1,127,1);  //(char *Vstring, char alig, char X, int Y, char maxChar, char clean, char minY, char maxY, negatyw) 
   \   0000005E   6846               MOV      R0,SP
   \   00000060   077B               LDRB     R7,[R0, #+12]
   \   00000062   82B0               SUB      SP,SP,#+8
   \   00000064   0120               MOVS     R0,#+1
   \   00000066   0090               STR      R0,[SP, #+0]
   \   00000068   7F21               MOVS     R1,#+127
   \   0000006A   03B4               PUSH     {R0,R1}
   \   0000006C   04A8               ADD      R0,SP,#+16
   \   0000006E   007C               LDRB     R0,[R0, #+16]
   \   00000070   C11F               SUBS     R1,R0,#+7
   \   00000072   3000               MOVS     R0,R6
   \   00000074   0906               LSLS     R1,R1,#+24
   \   00000076   090E               LSRS     R1,R1,#+24
   \   00000078   03B4               PUSH     {R0,R1}
   \   0000007A   10A8               ADD      R0,SP,#+64
   \   0000007C   0078               LDRB     R0,[R0, #+0]
   \   0000007E   4008               LSRS     R0,R0,#+1
   \   00000080   3B18               ADDS     R3,R7,R0
   \   00000082   1B1F               SUBS     R3,R3,#+4
   \   00000084   2200               MOVS     R2,R4
   \   00000086   D21C               ADDS     R2,R2,#+3
   \   00000088   1206               LSLS     R2,R2,#+24
   \   0000008A   120E               LSRS     R2,R2,#+24
   \   0000008C   0221               MOVS     R1,#+2
   \   0000008E   2800               MOVS     R0,R5
   \   00000090   ........           BL       Label
   \   00000094   06B0               ADD      SP,SP,#+24
   2902           
   2903          
   2904          
   2905              if ( (X_down>poz_X) && (X_down<poz_X+width) && (Y_down>poz_Y+2) && (Y_down<poz_Y+height))
   \   00000096   8248               LDR      R0,??Button_4    ;; X_down
   \   00000098   0021               MOVS     R1,#+0
   \   0000009A   405E               LDRSH    R0,[R0, R1]
   \   0000009C   8442               CMP      R4,R0
   \   0000009E   53DA               BGE      ??Button_5
   \   000000A0   6946               MOV      R1,SP
   \   000000A2   097C               LDRB     R1,[R1, #+16]
   \   000000A4   6118               ADDS     R1,R4,R1
   \   000000A6   8842               CMP      R0,R1
   \   000000A8   4EDA               BGE      ??Button_5
   \   000000AA   7E48               LDR      R0,??Button_4+0x4  ;; Y_down
   \   000000AC   0021               MOVS     R1,#+0
   \   000000AE   405E               LDRSH    R0,[R0, R1]
   \   000000B0   3E00               MOVS     R6,R7
   \   000000B2   B61C               ADDS     R6,R6,#+2
   \   000000B4   8642               CMP      R6,R0
   \   000000B6   47DA               BGE      ??Button_5
   \   000000B8   0AA9               ADD      R1,SP,#+40
   \   000000BA   0978               LDRB     R1,[R1, #+0]
   \   000000BC   7D18               ADDS     R5,R7,R1
   \   000000BE   A842               CMP      R0,R5
   \   000000C0   42DA               BGE      ??Button_5
   2906              {    
   2907                  H_line(poz_X+2,poz_Y+1,width-4,1); // (char X, int Y, char lenght, char typ) 
   \   000000C2   0123               MOVS     R3,#+1
   \   000000C4   6846               MOV      R0,SP
   \   000000C6   4278               LDRB     R2,[R0, #+1]
   \   000000C8   791C               ADDS     R1,R7,#+1
   \   000000CA   2000               MOVS     R0,R4
   \   000000CC   801C               ADDS     R0,R0,#+2
   \   000000CE   0006               LSLS     R0,R0,#+24
   \   000000D0   000E               LSRS     R0,R0,#+24
   \   000000D2   ........           BL       H_line
   2908                  H_line(poz_X+2,poz_Y+height-2,width-4,1); // (char X, int Y, char lenght, char typ) 
   \   000000D6   0123               MOVS     R3,#+1
   \   000000D8   6846               MOV      R0,SP
   \   000000DA   4278               LDRB     R2,[R0, #+1]
   \   000000DC   A91E               SUBS     R1,R5,#+2
   \   000000DE   2000               MOVS     R0,R4
   \   000000E0   801C               ADDS     R0,R0,#+2
   \   000000E2   0006               LSLS     R0,R0,#+24
   \   000000E4   000E               LSRS     R0,R0,#+24
   \   000000E6   ........           BL       H_line
   2909                  V_line(poz_X+1,poz_Y+2,height-4,1); // (char X, int Y, char lenght, char typ) 
   \   000000EA   0123               MOVS     R3,#+1
   \   000000EC   6846               MOV      R0,SP
   \   000000EE   0278               LDRB     R2,[R0, #+0]
   \   000000F0   3100               MOVS     R1,R6
   \   000000F2   2000               MOVS     R0,R4
   \   000000F4   401C               ADDS     R0,R0,#+1
   \   000000F6   0006               LSLS     R0,R0,#+24
   \   000000F8   000E               LSRS     R0,R0,#+24
   \   000000FA   ........           BL       V_line
   2910                  V_line(poz_X+width-2,poz_Y+2,height-4,1); // (char X, int Y, char lenght, char typ) 
   \   000000FE   0123               MOVS     R3,#+1
   \   00000100   6846               MOV      R0,SP
   \   00000102   0278               LDRB     R2,[R0, #+0]
   \   00000104   3100               MOVS     R1,R6
   \   00000106   007C               LDRB     R0,[R0, #+16]
   \   00000108   2018               ADDS     R0,R4,R0
   \   0000010A   801E               SUBS     R0,R0,#+2
   \   0000010C   0006               LSLS     R0,R0,#+24
   \   0000010E   000E               LSRS     R0,R0,#+24
   \   00000110   ........           BL       V_line
   2911                  odp=2;
   \   00000114   6846               MOV      R0,SP
   \   00000116   0221               MOVS     R1,#+2
   \   00000118   C170               STRB     R1,[R0, #+3]
   2912                  
   2913                  if ((ButtonDown==0) && (!(AT91C_IFLASH_MEM->Config.SoundOff))) {
   \   0000011A   634A               LDR      R2,??Button_4+0x8  ;; RealRows
   \   0000011C   9079               LDRB     R0,[R2, #+6]
   \   0000011E   0028               CMP      R0,#+0
   \   00000120   0FD1               BNE      ??Button_6
   \   00000122   6248               LDR      R0,??Button_4+0xC  ;; 0x13d7e9
   \   00000124   0078               LDRB     R0,[R0, #+0]
   \   00000126   0028               CMP      R0,#+0
   \   00000128   0BD1               BNE      ??Button_6
   2914                    AT91C_BASE_PIOA->PIO_SODR =SpeakerPin;
                                                      ^
Warning[Pe068]: integer conversion resulted in a change of sign
   \   0000012A   6148               LDR      R0,??Button_4+0x10  ;; 0xfffff430
   \   0000012C   8021               MOVS     R1,#+128
   \   0000012E   0906               LSLS     R1,R1,#+24       ;; #-2147483648
   \   00000130   0160               STR      R1,[R0, #+0]
   2915                    ButtonBipCounter=g_counter+8;
   \   00000132   1300               MOVS     R3,R2
   \   00000134   1033               ADDS     R3,R3,#+16
   \   00000136   5F48               LDR      R0,??Button_4+0x14  ;; g_counter
   \   00000138   03C8               LDM      R0!,{R0,R1}
   \   0000013A   0024               MOVS     R4,#+0
   \   0000013C   0830               ADDS     R0,R0,#+8
   \   0000013E   6141               ADCS     R1,R1,R4
   \   00000140   03C3               STM      R3!,{R0,R1}
   2916                  } 
   2917                  ButtonDown=1;
   \                     ??Button_6:
   \   00000142   0120               MOVS     R0,#+1
   \   00000144   9071               STRB     R0,[R2, #+6]
   \   00000146   A1E0               B        ??Button_7
   2918              }
   2919              else 
   2920              {
   2921                  
   2922                
   2923                 
   2924                  H_line(poz_X+2,poz_Y+1,width-4,0); // (char X, int Y, char lenght, char typ) 
   \                     ??Button_5:
   \   00000148   3800               MOVS     R0,R7
   \   0000014A   401C               ADDS     R0,R0,#+1
   \   0000014C   0190               STR      R0,[SP, #+4]
   \   0000014E   0023               MOVS     R3,#+0
   \   00000150   6846               MOV      R0,SP
   \   00000152   4278               LDRB     R2,[R0, #+1]
   \   00000154   0199               LDR      R1,[SP, #+4]
   \   00000156   2000               MOVS     R0,R4
   \   00000158   801C               ADDS     R0,R0,#+2
   \   0000015A   0006               LSLS     R0,R0,#+24
   \   0000015C   000E               LSRS     R0,R0,#+24
   \   0000015E   ........           BL       H_line
   2925                  H_line(poz_X+2,poz_Y+height-2,width-4,0); // (char X, int Y, char lenght, char typ) 
   \   00000162   0AA8               ADD      R0,SP,#+40
   \   00000164   0078               LDRB     R0,[R0, #+0]
   \   00000166   3D18               ADDS     R5,R7,R0
   \   00000168   0023               MOVS     R3,#+0
   \   0000016A   6846               MOV      R0,SP
   \   0000016C   4278               LDRB     R2,[R0, #+1]
   \   0000016E   A91E               SUBS     R1,R5,#+2
   \   00000170   2000               MOVS     R0,R4
   \   00000172   801C               ADDS     R0,R0,#+2
   \   00000174   0006               LSLS     R0,R0,#+24
   \   00000176   000E               LSRS     R0,R0,#+24
   \   00000178   ........           BL       H_line
   2926                  V_line(poz_X+1,poz_Y+2,height-4,0); // (char X, int Y, char lenght, char typ) 
   \   0000017C   3E00               MOVS     R6,R7
   \   0000017E   B61C               ADDS     R6,R6,#+2
   \   00000180   0023               MOVS     R3,#+0
   \   00000182   6846               MOV      R0,SP
   \   00000184   0278               LDRB     R2,[R0, #+0]
   \   00000186   3100               MOVS     R1,R6
   \   00000188   2000               MOVS     R0,R4
   \   0000018A   401C               ADDS     R0,R0,#+1
   \   0000018C   0006               LSLS     R0,R0,#+24
   \   0000018E   000E               LSRS     R0,R0,#+24
   \   00000190   ........           BL       V_line
   2927                  V_line(poz_X+width-2,poz_Y+2,height-4,0); // (char X, int Y, char lenght, char typ)   
   \   00000194   6846               MOV      R0,SP
   \   00000196   6946               MOV      R1,SP
   \   00000198   097C               LDRB     R1,[R1, #+16]
   \   0000019A   6118               ADDS     R1,R4,R1
   \   0000019C   4170               STRB     R1,[R0, #+1]
   \   0000019E   6946               MOV      R1,SP
   \   000001A0   4978               LDRB     R1,[R1, #+1]
   \   000001A2   891E               SUBS     R1,R1,#+2
   \   000001A4   8170               STRB     R1,[R0, #+2]
   \   000001A6   0023               MOVS     R3,#+0
   \   000001A8   0278               LDRB     R2,[R0, #+0]
   \   000001AA   3100               MOVS     R1,R6
   \   000001AC   8078               LDRB     R0,[R0, #+2]
   \   000001AE   ........           BL       V_line
   2928                 
   2929                  H_line(poz_X+1,poz_Y,width-2,1); // (char X, int Y, char lenght, char typ) 
   \   000001B2   6846               MOV      R0,SP
   \   000001B4   6946               MOV      R1,SP
   \   000001B6   097C               LDRB     R1,[R1, #+16]
   \   000001B8   891E               SUBS     R1,R1,#+2
   \   000001BA   0170               STRB     R1,[R0, #+0]
   \   000001BC   0123               MOVS     R3,#+1
   \   000001BE   0278               LDRB     R2,[R0, #+0]
   \   000001C0   3900               MOVS     R1,R7
   \   000001C2   2000               MOVS     R0,R4
   \   000001C4   401C               ADDS     R0,R0,#+1
   \   000001C6   0006               LSLS     R0,R0,#+24
   \   000001C8   000E               LSRS     R0,R0,#+24
   \   000001CA   ........           BL       H_line
   2930                  H_line(poz_X+1,poz_Y+height-1,width-2,1); // (char X, int Y, char lenght, char typ) 
   \   000001CE   0123               MOVS     R3,#+1
   \   000001D0   6846               MOV      R0,SP
   \   000001D2   0278               LDRB     R2,[R0, #+0]
   \   000001D4   691E               SUBS     R1,R5,#+1
   \   000001D6   2000               MOVS     R0,R4
   \   000001D8   401C               ADDS     R0,R0,#+1
   \   000001DA   0006               LSLS     R0,R0,#+24
   \   000001DC   000E               LSRS     R0,R0,#+24
   \   000001DE   ........           BL       H_line
   2931                  V_line(poz_X,poz_Y+1,height-2,1); // (char X, int Y, char lenght, char typ) 
   \   000001E2   0AA8               ADD      R0,SP,#+40
   \   000001E4   0078               LDRB     R0,[R0, #+0]
   \   000001E6   871E               SUBS     R7,R0,#+2
   \   000001E8   0123               MOVS     R3,#+1
   \   000001EA   3A06               LSLS     R2,R7,#+24
   \   000001EC   120E               LSRS     R2,R2,#+24
   \   000001EE   0199               LDR      R1,[SP, #+4]
   \   000001F0   2000               MOVS     R0,R4
   \   000001F2   ........           BL       V_line
   2932                  V_line(poz_X+width-1,poz_Y+1,height-2,1); // (char X, int Y, char lenght, char typ) 
   \   000001F6   0123               MOVS     R3,#+1
   \   000001F8   3A06               LSLS     R2,R7,#+24
   \   000001FA   120E               LSRS     R2,R2,#+24
   \   000001FC   0199               LDR      R1,[SP, #+4]
   \   000001FE   6846               MOV      R0,SP
   \   00000200   4078               LDRB     R0,[R0, #+1]
   \   00000202   401E               SUBS     R0,R0,#+1
   \   00000204   0006               LSLS     R0,R0,#+24
   \   00000206   000E               LSRS     R0,R0,#+24
   \   00000208   ........           BL       V_line
   2933              
   2934                  CanvasPixel(poz_X+1, poz_Y+1,1);   //(char X, char Y, char Colour)
   \   0000020C   6846               MOV      R0,SP
   \   0000020E   077B               LDRB     R7,[R0, #+12]
   \   00000210   7F1C               ADDS     R7,R7,#+1
   \   00000212   0122               MOVS     R2,#+1
   \   00000214   3906               LSLS     R1,R7,#+24
   \   00000216   090E               LSRS     R1,R1,#+24
   \   00000218   2000               MOVS     R0,R4
   \   0000021A   401C               ADDS     R0,R0,#+1
   \   0000021C   0006               LSLS     R0,R0,#+24
   \   0000021E   000E               LSRS     R0,R0,#+24
   \   00000220   ........           BL       CanvasPixel
   2935                  CanvasPixel(poz_X+width-2, poz_Y+1,1);   //(char X, char Y, char Colour)
   \   00000224   0122               MOVS     R2,#+1
   \   00000226   3906               LSLS     R1,R7,#+24
   \   00000228   090E               LSRS     R1,R1,#+24
   \   0000022A   6846               MOV      R0,SP
   \   0000022C   8078               LDRB     R0,[R0, #+2]
   \   0000022E   ........           BL       CanvasPixel
   2936                  CanvasPixel(poz_X+1, poz_Y+height-2,1);   //(char X, char Y, char Colour)
   \   00000232   6846               MOV      R0,SP
   \   00000234   007B               LDRB     R0,[R0, #+12]
   \   00000236   0AA9               ADD      R1,SP,#+40
   \   00000238   0978               LDRB     R1,[R1, #+0]
   \   0000023A   4018               ADDS     R0,R0,R1
   \   0000023C   871E               SUBS     R7,R0,#+2
   \   0000023E   0122               MOVS     R2,#+1
   \   00000240   3906               LSLS     R1,R7,#+24
   \   00000242   090E               LSRS     R1,R1,#+24
   \   00000244   2000               MOVS     R0,R4
   \   00000246   401C               ADDS     R0,R0,#+1
   \   00000248   0006               LSLS     R0,R0,#+24
   \   0000024A   000E               LSRS     R0,R0,#+24
   \   0000024C   ........           BL       CanvasPixel
   2937                  CanvasPixel(poz_X+width-2, poz_Y+height-2 ,1);   //(char X, char Y, char Colour)
   \   00000250   0122               MOVS     R2,#+1
   \   00000252   3906               LSLS     R1,R7,#+24
   \   00000254   090E               LSRS     R1,R1,#+24
   \   00000256   6846               MOV      R0,SP
   \   00000258   8078               LDRB     R0,[R0, #+2]
   \   0000025A   ........           BL       CanvasPixel
   2938                  
   2939                  
   2940                  if ( (X_up>poz_X) && (X_up<poz_X+width) && (Y_up>poz_Y+2) && (Y_up<poz_Y+height))
   \   0000025E   1648               LDR      R0,??Button_4+0x18  ;; X_up
   \   00000260   0021               MOVS     R1,#+0
   \   00000262   405E               LDRSH    R0,[R0, R1]
   \   00000264   8442               CMP      R4,R0
   \   00000266   11DA               BGE      ??Button_7
   \   00000268   6946               MOV      R1,SP
   \   0000026A   097C               LDRB     R1,[R1, #+16]
   \   0000026C   6118               ADDS     R1,R4,R1
   \   0000026E   8842               CMP      R0,R1
   \   00000270   0CDA               BGE      ??Button_7
   \   00000272   1248               LDR      R0,??Button_4+0x1C  ;; Y_up
   \   00000274   0021               MOVS     R1,#+0
   \   00000276   405E               LDRSH    R0,[R0, R1]
   \   00000278   8642               CMP      R6,R0
   \   0000027A   07DA               BGE      ??Button_7
   \   0000027C   A842               CMP      R0,R5
   \   0000027E   05DA               BGE      ??Button_7
   2941                  {    
   2942                    odp =1;
   \   00000280   6846               MOV      R0,SP
   \   00000282   0121               MOVS     R1,#+1
   \   00000284   C170               STRB     R1,[R0, #+3]
   2943                    ButtonDown=0;
   \   00000286   0E48               LDR      R0,??Button_4+0x20  ;; RealRows + 6
   \   00000288   0021               MOVS     R1,#+0
   \   0000028A   0170               STRB     R1,[R0, #+0]
   2944                  } 
   2945                    
   2946                    
   2947              }
   2948              
   2949          
   2950                 
   2951                ButtonEventTime=g_counter;
   \                     ??Button_7:
   \   0000028C   0D4A               LDR      R2,??Button_4+0x24  ;; RealRows + 8
   \   0000028E   0948               LDR      R0,??Button_4+0x14  ;; g_counter
   \   00000290   03C8               LDM      R0!,{R0,R1}
   \   00000292   03C2               STM      R2!,{R0,R1}
   2952              
   2953              return odp;
   \   00000294   6846               MOV      R0,SP
   \   00000296   C078               LDRB     R0,[R0, #+3]
   \   00000298   05B0               ADD      SP,SP,#+20
   \   0000029A   F0BC               POP      {R4-R7}
   \   0000029C   02BC               POP      {R1}
   \   0000029E   0847               BX       R1               ;; return
   \                     ??Button_4:
   \   000002A0   ........           DC32     X_down
   \   000002A4   ........           DC32     Y_down
   \   000002A8   ........           DC32     RealRows
   \   000002AC   E9D71300           DC32     0x13d7e9
   \   000002B0   30F4FFFF           DC32     0xfffff430
   \   000002B4   ........           DC32     g_counter
   \   000002B8   ........           DC32     X_up
   \   000002BC   ........           DC32     Y_up
   \   000002C0   ........           DC32     RealRows + 6
   \   000002C4   ........           DC32     RealRows + 8
   2954              
   2955          }
   2956          
   2957          
   2958          
   2959          
   2960          
   2961          
   2962          //*-----------------------------------------------------------------------------
   2963          //* Nazwa funkcji :    Zone
   2964          //* Uniwersalna funkcja przycisku strefy (przycisk bia³y)
   2965          //*-----------------------------------------------------------------------------
   2966          //*  Label        - etykieta
   2967          //*  poz_X   - pozycja lewy róg
   2968          //*  poz_Y   - pozycja dolny róg
   2969          //*  width -   szerokoœæ
   2970          //*  height -  wysokoœæ
   2971          //*  LineType- typ lini 0-bia³a 1=ci¹gla, 2=kropkowana, 3=kreskowana
   2972          //*-----------------------------------------------------------------------------

   \                                 In section Debug.txt, align 4, keep-with-next
   2973          char Zone (char _Label[15], char poz_X , char poz_Y ,char width, char height, char LineType) 
   2974          { 
   \                     Zone:
   \   00000000   FCB5               PUSH     {R2-R7,LR}
   \   00000002   83B0               SUB      SP,SP,#+12
   \   00000004   0600               MOVS     R6,R0
   \   00000006   0C00               MOVS     R4,R1
   \   00000008   0AA8               ADD      R0,SP,#+40
   \   0000000A   0578               LDRB     R5,[R0, #+0]
   2975              char odp =0;
   \   0000000C   0020               MOVS     R0,#+0
   \   0000000E   6946               MOV      R1,SP
   \   00000010   0022               MOVS     R2,#+0
   \   00000012   4A70               STRB     R2,[R1, #+1]
   2976              char tmpI=0;
   2977              char tmpF=0;
   \   00000014   04E0               B        ??Zone_0
   2978              while ((tmpI<=15) && (tmpF==0))
   2979              {
   2980                if (_Label[tmpI]==0)
   2981                {
   2982                  tmpF=1;
   \                     ??Zone_1:
   \   00000016   0120               MOVS     R0,#+1
   2983                }else{
   \                     ??Zone_2:
   \   00000018   102A               CMP      R2,#+16
   \   0000001A   08D2               BCS      ??Zone_3
   \   0000001C   0028               CMP      R0,#+0
   \   0000001E   06D1               BNE      ??Zone_3
   \                     ??Zone_0:
   \   00000020   B15C               LDRB     R1,[R6, R2]
   \   00000022   0029               CMP      R1,#+0
   \   00000024   F7D0               BEQ      ??Zone_1
   2984                  tmpI++;
   \   00000026   521C               ADDS     R2,R2,#+1
   \   00000028   1206               LSLS     R2,R2,#+24
   \   0000002A   120E               LSRS     R2,R2,#+24
   \   0000002C   F4E7               B        ??Zone_2
   2985                }
   2986              }
   2987              
   2988              //CleanCanvasArea(poz_X+2, poz_Y+2, width-4, height-4,0);  //(char X, char Y, char X_Lenght, char Y_Lenght, char Type);   
   2989              if (_Label!=0) Label(_Label,2,poz_X+3,poz_Y+(height/2)-4,tmpI,width-7,1,127,0);  //(char *Vstring, char alig, char X, int Y, char maxChar, char clean, char minY, char maxY, negatyw) 
   \                     ??Zone_3:
   \   0000002E   002E               CMP      R6,#+0
   \   00000030   18D0               BEQ      ??Zone_4
   \   00000032   82B0               SUB      SP,SP,#+8
   \   00000034   0020               MOVS     R0,#+0
   \   00000036   0090               STR      R0,[SP, #+0]
   \   00000038   7F21               MOVS     R1,#+127
   \   0000003A   0120               MOVS     R0,#+1
   \   0000003C   03B4               PUSH     {R0,R1}
   \   0000003E   D91F               SUBS     R1,R3,#+7
   \   00000040   1000               MOVS     R0,R2
   \   00000042   0906               LSLS     R1,R1,#+24
   \   00000044   090E               LSRS     R1,R1,#+24
   \   00000046   03B4               PUSH     {R0,R1}
   \   00000048   06A8               ADD      R0,SP,#+24
   \   0000004A   007B               LDRB     R0,[R0, #+12]
   \   0000004C   6908               LSRS     R1,R5,#+1
   \   0000004E   4318               ADDS     R3,R0,R1
   \   00000050   1B1F               SUBS     R3,R3,#+4
   \   00000052   2200               MOVS     R2,R4
   \   00000054   D21C               ADDS     R2,R2,#+3
   \   00000056   1206               LSLS     R2,R2,#+24
   \   00000058   120E               LSRS     R2,R2,#+24
   \   0000005A   0221               MOVS     R1,#+2
   \   0000005C   3000               MOVS     R0,R6
   \   0000005E   ........           BL       Label
   \   00000062   06B0               ADD      SP,SP,#+24
   2990           
   2991          
   2992          
   2993              if ( (X_down>poz_X) && (X_down<poz_X+width) && (Y_down>poz_Y+2) && (Y_down<poz_Y+height))
   \                     ??Zone_4:
   \   00000064   4E48               LDR      R0,??Zone_5      ;; X_down
   \   00000066   0021               MOVS     R1,#+0
   \   00000068   405E               LDRSH    R0,[R0, R1]
   \   0000006A   8442               CMP      R4,R0
   \   0000006C   43DA               BGE      ??Zone_6
   \   0000006E   6946               MOV      R1,SP
   \   00000070   097C               LDRB     R1,[R1, #+16]
   \   00000072   6118               ADDS     R1,R4,R1
   \   00000074   8842               CMP      R0,R1
   \   00000076   3EDA               BGE      ??Zone_6
   \   00000078   4A48               LDR      R0,??Zone_5+0x4  ;; Y_down
   \   0000007A   0021               MOVS     R1,#+0
   \   0000007C   415E               LDRSH    R1,[R0, R1]
   \   0000007E   6846               MOV      R0,SP
   \   00000080   067B               LDRB     R6,[R0, #+12]
   \   00000082   3000               MOVS     R0,R6
   \   00000084   801C               ADDS     R0,R0,#+2
   \   00000086   0190               STR      R0,[SP, #+4]
   \   00000088   8842               CMP      R0,R1
   \   0000008A   34DA               BGE      ??Zone_6
   \   0000008C   7719               ADDS     R7,R6,R5
   \   0000008E   B942               CMP      R1,R7
   \   00000090   31DA               BGE      ??Zone_6
   \   00000092   6846               MOV      R0,SP
   \   00000094   6946               MOV      R1,SP
   \   00000096   097C               LDRB     R1,[R1, #+16]
   \   00000098   091F               SUBS     R1,R1,#+4
   \   0000009A   0170               STRB     R1,[R0, #+0]
   \   0000009C   0123               MOVS     R3,#+1
   \   0000009E   0278               LDRB     R2,[R0, #+0]
   \   000000A0   711C               ADDS     R1,R6,#+1
   \   000000A2   2000               MOVS     R0,R4
   \   000000A4   801C               ADDS     R0,R0,#+2
   \   000000A6   0006               LSLS     R0,R0,#+24
   \   000000A8   000E               LSRS     R0,R0,#+24
   2994              {    
   2995                  H_line(poz_X+2,poz_Y+1,width-4,1); // (char X, int Y, char lenght, char typ) 
   \   000000AA   ........           BL       H_line
   2996                  H_line(poz_X+2,poz_Y+height-2,width-4,1); // (char X, int Y, char lenght, char typ) 
   \   000000AE   0123               MOVS     R3,#+1
   \   000000B0   6846               MOV      R0,SP
   \   000000B2   0278               LDRB     R2,[R0, #+0]
   \   000000B4   B91E               SUBS     R1,R7,#+2
   \   000000B6   2000               MOVS     R0,R4
   \   000000B8   801C               ADDS     R0,R0,#+2
   \   000000BA   0006               LSLS     R0,R0,#+24
   \   000000BC   000E               LSRS     R0,R0,#+24
   \   000000BE   ........           BL       H_line
   2997                  V_line(poz_X+1,poz_Y+2,height-4,1); // (char X, int Y, char lenght, char typ) 
   \   000000C2   2D1F               SUBS     R5,R5,#+4
   \   000000C4   0123               MOVS     R3,#+1
   \   000000C6   2A06               LSLS     R2,R5,#+24
   \   000000C8   120E               LSRS     R2,R2,#+24
   \   000000CA   0199               LDR      R1,[SP, #+4]
   \   000000CC   2000               MOVS     R0,R4
   \   000000CE   401C               ADDS     R0,R0,#+1
   \   000000D0   0006               LSLS     R0,R0,#+24
   \   000000D2   000E               LSRS     R0,R0,#+24
   \   000000D4   ........           BL       V_line
   2998                  V_line(poz_X+width-2,poz_Y+2,height-4,1); // (char X, int Y, char lenght, char typ) 
   \   000000D8   0123               MOVS     R3,#+1
   \   000000DA   2A06               LSLS     R2,R5,#+24
   \   000000DC   120E               LSRS     R2,R2,#+24
   \   000000DE   0199               LDR      R1,[SP, #+4]
   \   000000E0   6846               MOV      R0,SP
   \   000000E2   007C               LDRB     R0,[R0, #+16]
   \   000000E4   2018               ADDS     R0,R4,R0
   \   000000E6   801E               SUBS     R0,R0,#+2
   \   000000E8   0006               LSLS     R0,R0,#+24
   \   000000EA   000E               LSRS     R0,R0,#+24
   \   000000EC   ........           BL       V_line
   2999                  odp=2;
   \   000000F0   6846               MOV      R0,SP
   \   000000F2   0221               MOVS     R1,#+2
   \   000000F4   49E0               B.N      ??Zone_7
   3000              }
   \                     ??Zone_6:
   \   000000F6   6846               MOV      R0,SP
   \   000000F8   6946               MOV      R1,SP
   \   000000FA   097C               LDRB     R1,[R1, #+16]
   \   000000FC   891E               SUBS     R1,R1,#+2
   \   000000FE   0170               STRB     R1,[R0, #+0]
   \   00000100   067B               LDRB     R6,[R0, #+12]
   \   00000102   0BA8               ADD      R0,SP,#+44
   \   00000104   0378               LDRB     R3,[R0, #+0]
   \   00000106   6846               MOV      R0,SP
   \   00000108   0278               LDRB     R2,[R0, #+0]
   \   0000010A   3100               MOVS     R1,R6
   \   0000010C   2000               MOVS     R0,R4
   \   0000010E   401C               ADDS     R0,R0,#+1
   \   00000110   0006               LSLS     R0,R0,#+24
   \   00000112   000E               LSRS     R0,R0,#+24
   3001              else 
   3002              {
   3003                  
   3004              
   3005                  H_line(poz_X+1,poz_Y,width-2,LineType); // (char X, int Y, char lenght, char typ) 
   \   00000114   ........           BL       H_line
   3006                  H_line(poz_X+1,poz_Y+height-1,width-2,LineType); // (char X, int Y, char lenght, char typ) 
   \   00000118   7719               ADDS     R7,R6,R5
   \   0000011A   0BA8               ADD      R0,SP,#+44
   \   0000011C   0378               LDRB     R3,[R0, #+0]
   \   0000011E   6846               MOV      R0,SP
   \   00000120   0278               LDRB     R2,[R0, #+0]
   \   00000122   791E               SUBS     R1,R7,#+1
   \   00000124   2000               MOVS     R0,R4
   \   00000126   401C               ADDS     R0,R0,#+1
   \   00000128   0006               LSLS     R0,R0,#+24
   \   0000012A   000E               LSRS     R0,R0,#+24
   \   0000012C   ........           BL       H_line
   3007                  V_line(poz_X,poz_Y+1,height-2,LineType); // (char X, int Y, char lenght, char typ) 
   \   00000130   3000               MOVS     R0,R6
   \   00000132   401C               ADDS     R0,R0,#+1
   \   00000134   0190               STR      R0,[SP, #+4]
   \   00000136   AD1E               SUBS     R5,R5,#+2
   \   00000138   0BA8               ADD      R0,SP,#+44
   \   0000013A   0378               LDRB     R3,[R0, #+0]
   \   0000013C   2A06               LSLS     R2,R5,#+24
   \   0000013E   120E               LSRS     R2,R2,#+24
   \   00000140   0199               LDR      R1,[SP, #+4]
   \   00000142   2000               MOVS     R0,R4
   \   00000144   ........           BL       V_line
   3008                  V_line(poz_X+width-1,poz_Y+1,height-2,LineType); // (char X, int Y, char lenght, char typ) 
   \   00000148   0BA8               ADD      R0,SP,#+44
   \   0000014A   0378               LDRB     R3,[R0, #+0]
   \   0000014C   2A06               LSLS     R2,R5,#+24
   \   0000014E   120E               LSRS     R2,R2,#+24
   \   00000150   0199               LDR      R1,[SP, #+4]
   \   00000152   6846               MOV      R0,SP
   \   00000154   007C               LDRB     R0,[R0, #+16]
   \   00000156   2018               ADDS     R0,R4,R0
   \   00000158   401E               SUBS     R0,R0,#+1
   \   0000015A   0006               LSLS     R0,R0,#+24
   \   0000015C   000E               LSRS     R0,R0,#+24
   \   0000015E   ........           BL       V_line
   3009              
   3010          
   3011                  
   3012                  if ( (X_up>poz_X) && (X_up<poz_X+width) && (Y_up>poz_Y+2) && (Y_up<poz_Y+height))
   \   00000162   1148               LDR      R0,??Zone_5+0x8  ;; X_up
   \   00000164   0021               MOVS     R1,#+0
   \   00000166   405E               LDRSH    R0,[R0, R1]
   \   00000168   8442               CMP      R4,R0
   \   0000016A   0FDA               BGE      ??Zone_8
   \   0000016C   6946               MOV      R1,SP
   \   0000016E   097C               LDRB     R1,[R1, #+16]
   \   00000170   6118               ADDS     R1,R4,R1
   \   00000172   8842               CMP      R0,R1
   \   00000174   0ADA               BGE      ??Zone_8
   \   00000176   0D48               LDR      R0,??Zone_5+0xC  ;; Y_up
   \   00000178   0021               MOVS     R1,#+0
   \   0000017A   405E               LDRSH    R0,[R0, R1]
   \   0000017C   B61C               ADDS     R6,R6,#+2
   \   0000017E   8642               CMP      R6,R0
   \   00000180   04DA               BGE      ??Zone_8
   \   00000182   B842               CMP      R0,R7
   \   00000184   02DA               BGE      ??Zone_8
   3013                  {    
   3014                    odp =1;
   \   00000186   6846               MOV      R0,SP
   \   00000188   0121               MOVS     R1,#+1
   \                     ??Zone_7:
   \   0000018A   4170               STRB     R1,[R0, #+1]
   3015                  }
   3016              }
   3017              
   3018          
   3019                 
   3020                ButtonEventTime=g_counter;
   \                     ??Zone_8:
   \   0000018C   084A               LDR      R2,??Zone_5+0x10  ;; RealRows + 8
   \   0000018E   0948               LDR      R0,??Zone_5+0x14  ;; g_counter
   \   00000190   03C8               LDM      R0!,{R0,R1}
   \   00000192   03C2               STM      R2!,{R0,R1}
   3021              
   3022              return odp;
   \   00000194   6846               MOV      R0,SP
   \   00000196   4078               LDRB     R0,[R0, #+1]
   \   00000198   05B0               ADD      SP,SP,#+20
   \   0000019A   F0BC               POP      {R4-R7}
   \   0000019C   02BC               POP      {R1}
   \   0000019E   0847               BX       R1               ;; return
   \                     ??Zone_5:
   \   000001A0   ........           DC32     X_down
   \   000001A4   ........           DC32     Y_down
   \   000001A8   ........           DC32     X_up
   \   000001AC   ........           DC32     Y_up
   \   000001B0   ........           DC32     RealRows + 8
   \   000001B4   ........           DC32     g_counter
   3023              
   3024          }
   3025          
   3026          
   3027           
   3028          
   3029          
   3030          //*-----------------------------------------------------------------------------
   3031          //* Nazwa funkcji :    List_Paint
   3032          //* Funkcja rysowania listy
   3033          //*-----------------------------------------------------------------------------
   3034          //* X1
   3035          //* Y1
   3036          //* X2
   3037          //* Y2
   3038          //* p - solid
   3039          //*-----------------------------------------------------------------------------
   3040          
   3041          

   \                                 In section Debug.txt, align 4, keep-with-next
   3042          void Rectangle(char X1,char Y1,char Width,char Height,...)
   3043          {
   \                     Rectangle:
   \   00000000   F1B5               PUSH     {R0,R4-R7,LR}
   \   00000002   0700               MOVS     R7,R0
   \   00000004   1500               MOVS     R5,R2
   \   00000006   1E00               MOVS     R6,R3
   3044            
   3045           va_list parg; 
   3046           va_start( parg, Height);// pocz¹tek pracy ze zmienn¹ list¹ parametrów 
   3047           char SO;
                       ^
Warning[Pe550]: variable "SO" was set but never used
   3048           SO = va_arg( parg, char);
   3049           va_end(parg); 
   3050            
   3051          
   3052          
   3053             H_line(X1,Y1,Width,1);
   \   00000008   0C00               MOVS     R4,R1
   \   0000000A   0123               MOVS     R3,#+1
   \   0000000C   ........           BL       H_line
   3054             H_line(X1,Y1+Height-1,Width,1);
   \   00000010   0123               MOVS     R3,#+1
   \   00000012   2A00               MOVS     R2,R5
   \   00000014   A119               ADDS     R1,R4,R6
   \   00000016   491E               SUBS     R1,R1,#+1
   \   00000018   3800               MOVS     R0,R7
   \   0000001A   ........           BL       H_line
   3055             V_line(X1,Y1,Height,1);
   \   0000001E   0123               MOVS     R3,#+1
   \   00000020   3200               MOVS     R2,R6
   \   00000022   2100               MOVS     R1,R4
   \   00000024   3800               MOVS     R0,R7
   \   00000026   ........           BL       V_line
   3056             V_line(X1+Width-1,Y1,Height,1);
   \   0000002A   0123               MOVS     R3,#+1
   \   0000002C   3200               MOVS     R2,R6
   \   0000002E   2100               MOVS     R1,R4
   \   00000030   7819               ADDS     R0,R7,R5
   \   00000032   401E               SUBS     R0,R0,#+1
   \   00000034   0006               LSLS     R0,R0,#+24
   \   00000036   000E               LSRS     R0,R0,#+24
   \   00000038   ........           BL       V_line
   3057                        
   3058             //if (SO==1) CleanCanvasArea(X1,Y1,Width,Height,1);
   3059             
   3060          }
   \   0000003C   ........           BL       ??Subroutine0_0
   3061           
   3062           
   3063          //*-----------------------------------------------------------------------------
   3064          //* Nazwa funkcji :    CheckLCD
   3065          //* Funkcja sprawdza kolejne porty LCD
   3066          //*-----------------------------------------------------------------------------
   3067          //*-----------------------------------------------------------------------------
   3068          

   \                                 In section Debug.txt, align 4, keep-with-next
   3069          void CheckLCD(void)
   3070           {
   3071             m_pPio->PIO_SODR =  LCD_BUS_MASK;                         // zeruje piny
   \                     CheckLCD:
   \   00000000   1848               LDR      R0,??CheckLCD_0  ;; m_pPio
   \   00000002   0068               LDR      R0,[R0, #+0]
   \   00000004   1849               LDR      R1,??CheckLCD_0+0x4  ;; 0x7e00811c
   \   00000006   0163               STR      R1,[R0, #+48]
   3072           
   3073             
   3074             AT91C_BASE_PIOA->PIO_CODR = DI; AT91C_BASE_PIOA->PIO_SODR = DI; 
   \   00000008   1848               LDR      R0,??CheckLCD_0+0x8  ;; 0xfffff434
   \   0000000A   0422               MOVS     R2,#+4
   \   0000000C   0260               STR      R2,[R0, #+0]
   \   0000000E   1849               LDR      R1,??CheckLCD_0+0xC  ;; 0xfffff430
   \   00000010   0A60               STR      R2,[R1, #+0]
   3075             AT91C_BASE_PIOA->PIO_CODR = RW; AT91C_BASE_PIOA->PIO_SODR = RW; 
   \   00000012   0822               MOVS     R2,#+8
   \   00000014   0260               STR      R2,[R0, #+0]
   \   00000016   0A60               STR      R2,[R1, #+0]
   3076             AT91C_BASE_PIOA->PIO_CODR = ENABLE; AT91C_BASE_PIOA->PIO_SODR = ENABLE; 
   \   00000018   D206               LSLS     R2,R2,#+27
   \   0000001A   0260               STR      R2,[R0, #+0]
   \   0000001C   0A60               STR      R2,[R1, #+0]
   3077             AT91C_BASE_PIOA->PIO_CODR = DB0; AT91C_BASE_PIOA->PIO_SODR = DB0; 
   \   0000001E   5208               LSRS     R2,R2,#+1
   \   00000020   0260               STR      R2,[R0, #+0]
   \   00000022   0A60               STR      R2,[R1, #+0]
   3078             AT91C_BASE_PIOA->PIO_CODR = DB1; AT91C_BASE_PIOA->PIO_SODR = DB1; 
   \   00000024   5208               LSRS     R2,R2,#+1
   \   00000026   0260               STR      R2,[R0, #+0]
   \   00000028   0A60               STR      R2,[R1, #+0]
   3079             AT91C_BASE_PIOA->PIO_CODR = DB2; AT91C_BASE_PIOA->PIO_SODR = DB2; 
   \   0000002A   5208               LSRS     R2,R2,#+1
   \   0000002C   0260               STR      R2,[R0, #+0]
   \   0000002E   0A60               STR      R2,[R1, #+0]
   3080             AT91C_BASE_PIOA->PIO_CODR = DB3; AT91C_BASE_PIOA->PIO_SODR = DB3; 
   \   00000030   1022               MOVS     R2,#+16
   \   00000032   0260               STR      R2,[R0, #+0]
   \   00000034   0A60               STR      R2,[R1, #+0]
   3081             AT91C_BASE_PIOA->PIO_CODR = DB4; AT91C_BASE_PIOA->PIO_SODR = DB4; 
   \   00000036   F032               ADDS     R2,R2,#+240
   \   00000038   0260               STR      R2,[R0, #+0]
   \   0000003A   0A60               STR      R2,[R1, #+0]
   3082             AT91C_BASE_PIOA->PIO_CODR = DB5; AT91C_BASE_PIOA->PIO_SODR = DB5; 
   \   0000003C   9204               LSLS     R2,R2,#+18
   \   0000003E   0260               STR      R2,[R0, #+0]
   \   00000040   0A60               STR      R2,[R1, #+0]
   3083             AT91C_BASE_PIOA->PIO_CODR = DB6; AT91C_BASE_PIOA->PIO_SODR = DB6; 
   \   00000042   5208               LSRS     R2,R2,#+1
   \   00000044   0260               STR      R2,[R0, #+0]
   \   00000046   0A60               STR      R2,[R1, #+0]
   3084             AT91C_BASE_PIOA->PIO_CODR = DB7; AT91C_BASE_PIOA->PIO_SODR = DB7; 
   \   00000048   920A               LSRS     R2,R2,#+10
   \   0000004A   0260               STR      R2,[R0, #+0]
   \   0000004C   0A60               STR      R2,[R1, #+0]
   3085             AT91C_BASE_PIOA->PIO_CODR = CS1; AT91C_BASE_PIOA->PIO_SODR = CS1; 
   \   0000004E   5200               LSLS     R2,R2,#+1
   \   00000050   0260               STR      R2,[R0, #+0]
   \   00000052   0A60               STR      R2,[R1, #+0]
   3086             AT91C_BASE_PIOA->PIO_CODR = CS2; AT91C_BASE_PIOA->PIO_SODR = CS2; 
   \   00000054   D201               LSLS     R2,R2,#+7
   \   00000056   0260               STR      R2,[R0, #+0]
   \   00000058   0A60               STR      R2,[R1, #+0]
   3087             AT91C_BASE_PIOA->PIO_CODR = (unsigned long)LightLCD; AT91C_BASE_PIOA->PIO_SODR = (unsigned long)LightLCD; 
   \   0000005A   0122               MOVS     R2,#+1
   \   0000005C   0260               STR      R2,[R0, #+0]
   \   0000005E   0A60               STR      R2,[R1, #+0]
   3088          
   3089            
   3090          
   3091          }//_______________________ Koniec funkcji CheckLCD __________________________
   \   00000060   7047               BX       LR               ;; return
   \   00000062   C046               Nop      
   \                     ??CheckLCD_0:
   \   00000064   ........           DC32     m_pPio
   \   00000068   1C81007E           DC32     0x7e00811c
   \   0000006C   34F4FFFF           DC32     0xfffff434
   \   00000070   30F4FFFF           DC32     0xfffff430
   3092          
   3093           
   3094            _TPoint Up, Down;   
   3095          
   3096          #define TouchAmount 4       //iloœæ pamiêtanych punktów dotyku   

   \                                 In section Debug.txt, align 4, keep-with-next
   3097          void GetTouchPoint(signed short *Xd,signed short  *Yd, signed short *Xu, signed short  *Yu)
   3098          {
   \                     GetTouchPoint:
   \   00000000   F7B5               PUSH     {R0-R2,R4-R7,LR}
   \   00000002   1C00               MOVS     R4,R3
   3099          
   3100            static _TPoint TouchList[TouchAmount];                                        //lista FIFO wspó³¿êdnych
   3101          
   3102          
   3103            for (char i=1; i<TouchAmount; i++)
   \   00000004   0120               MOVS     R0,#+1
   \   00000006   5F4D               LDR      R5,??GetTouchPoint_0  ;; ??TouchList
   3104            {
   3105               TouchList[TouchAmount-i].x=TouchList[TouchAmount-i-1].x;
   \                     ??GetTouchPoint_1:
   \   00000008   4142               RSBS     R1,R0,#+0
   \   0000000A   8900               LSLS     R1,R1,#+2
   \   0000000C   6918               ADDS     R1,R5,R1
   \   0000000E   8A89               LDRH     R2,[R1, #+12]
   \   00000010   0A82               STRH     R2,[R1, #+16]
   3106               TouchList[TouchAmount-i].y=TouchList[TouchAmount-i-1].y;
   \   00000012   CA89               LDRH     R2,[R1, #+14]
   \   00000014   4A82               STRH     R2,[R1, #+18]
   3107            }
   \   00000016   401C               ADDS     R0,R0,#+1
   \   00000018   0106               LSLS     R1,R0,#+24
   \   0000001A   090E               LSRS     R1,R1,#+24
   \   0000001C   0429               CMP      R1,#+4
   \   0000001E   F3D3               BCC      ??GetTouchPoint_1
   3108          
   3109            Down.x=-1;
                          ^
Warning[Pe068]: integer conversion resulted in a change of sign
   \   00000020   594E               LDR      R6,??GetTouchPoint_0+0x4  ;; 0xffff
   \   00000022   AE82               STRH     R6,[R5, #+20]
   3110            Down.y=-1;
                          ^
Warning[Pe068]: integer conversion resulted in a change of sign
   \   00000024   EE82               STRH     R6,[R5, #+22]
   3111            Up.x=-1;
                        ^
Warning[Pe068]: integer conversion resulted in a change of sign
   \   00000026   2E82               STRH     R6,[R5, #+16]
   3112            Up.y=-1;
                        ^
Warning[Pe068]: integer conversion resulted in a change of sign
   \   00000028   6E82               STRH     R6,[R5, #+18]
   3113              
   3114            ReadTP(TouchList); 
   \   0000002A   2800               MOVS     R0,R5
   \   0000002C   ........           BL       ReadTP
   3115            
   3116            //je¿eli pomiar ci¹g³y dotkniêtego ekranu 
   3117            if ((TouchList[0].x>0) && (TouchList[1].x>0) && (TouchList[2].x>0) &&(TouchList[3].x>0))  
   \   00000030   2888               LDRH     R0,[R5, #+0]
   \   00000032   0028               CMP      R0,#+0
   \   00000034   2BD0               BEQ      ??GetTouchPoint_2
   \   00000036   A988               LDRH     R1,[R5, #+4]
   \   00000038   0029               CMP      R1,#+0
   \   0000003A   25D0               BEQ      ??GetTouchPoint_3
   \   0000003C   2A89               LDRH     R2,[R5, #+8]
   \   0000003E   002A               CMP      R2,#+0
   \   00000040   0ED0               BEQ      ??GetTouchPoint_4
   \   00000042   AB89               LDRH     R3,[R5, #+12]
   \   00000044   002B               CMP      R3,#+0
   \   00000046   0BD0               BEQ      ??GetTouchPoint_4
   3118            {
   3119              Down.x=((TouchList[1].x) + (TouchList[2].x))/2;
   \   00000048   8B18               ADDS     R3,R1,R2
   \   0000004A   DF0F               LSRS     R7,R3,#+31
   \   0000004C   FB18               ADDS     R3,R7,R3
   \   0000004E   5B10               ASRS     R3,R3,#+1
   \   00000050   AB82               STRH     R3,[R5, #+20]
   3120          
   3121              Down.y=((TouchList[1].y) + (TouchList[2].y))/2;
   \   00000052   EB88               LDRH     R3,[R5, #+6]
   \   00000054   6F89               LDRH     R7,[R5, #+10]
   \   00000056   DB19               ADDS     R3,R3,R7
   \   00000058   DF0F               LSRS     R7,R3,#+31
   \   0000005A   FB18               ADDS     R3,R7,R3
   \   0000005C   5B10               ASRS     R3,R3,#+1
   \   0000005E   EB82               STRH     R3,[R5, #+22]
   \                     ??GetTouchPoint_4:
   \   00000060   002A               CMP      R2,#+0
   \   00000062   11D0               BEQ      ??GetTouchPoint_3
   \   00000064   AA89               LDRH     R2,[R5, #+12]
   \   00000066   002A               CMP      R2,#+0
   \   00000068   0ED1               BNE      ??GetTouchPoint_3
   3122            }
   3123            
   3124            //je¿eli dotkniêto ekran
   3125            if ((TouchList[0].x>0) && (TouchList[1].x>0) && (TouchList[2].x>0) &&(TouchList[3].x<=0))  
   3126            {
   3127              Down.x=((TouchList[0].x) + (TouchList[1].x))/2;
   \   0000006A   4018               ADDS     R0,R0,R1
   \   0000006C   C10F               LSRS     R1,R0,#+31
   \   0000006E   0818               ADDS     R0,R1,R0
   \   00000070   4010               ASRS     R0,R0,#+1
   \   00000072   A882               STRH     R0,[R5, #+20]
   3128          
   3129              Down.y=((TouchList[0].y) + (TouchList[1].y))/2;
   \   00000074   6888               LDRH     R0,[R5, #+2]
   \   00000076   E988               LDRH     R1,[R5, #+6]
   \   00000078   4018               ADDS     R0,R0,R1
   \   0000007A   C10F               LSRS     R1,R0,#+31
   \   0000007C   0818               ADDS     R0,R1,R0
   \   0000007E   4010               ASRS     R0,R0,#+1
   \   00000080   E882               STRH     R0,[R5, #+22]
   3130              TouchList[2].x=Down.x;
   \   00000082   A88A               LDRH     R0,[R5, #+20]
   \   00000084   2881               STRH     R0,[R5, #+8]
   3131              TouchList[2].x=Down.x;
   \   00000086   2881               STRH     R0,[R5, #+8]
   3132            }
   3133          
   3134            //je¿eli puszczono ekran
   3135            if ((TouchList[0].x<=0) && (TouchList[1].x>0) && (TouchList[2].x>0) &&(TouchList[3].x>0))  
   \                     ??GetTouchPoint_3:
   \   00000088   2888               LDRH     R0,[R5, #+0]
   \   0000008A   0028               CMP      R0,#+0
   \   0000008C   14D1               BNE      ??GetTouchPoint_5
   \                     ??GetTouchPoint_2:
   \   0000008E   A888               LDRH     R0,[R5, #+4]
   \   00000090   0028               CMP      R0,#+0
   \   00000092   11D0               BEQ      ??GetTouchPoint_5
   \   00000094   2889               LDRH     R0,[R5, #+8]
   \   00000096   0028               CMP      R0,#+0
   \   00000098   0ED0               BEQ      ??GetTouchPoint_5
   \   0000009A   A989               LDRH     R1,[R5, #+12]
   \   0000009C   0029               CMP      R1,#+0
   \   0000009E   0BD0               BEQ      ??GetTouchPoint_5
   3136            {
   3137              Up.x=((TouchList[2].x) + (TouchList[3].x))/2;
   \   000000A0   4018               ADDS     R0,R0,R1
   \   000000A2   C10F               LSRS     R1,R0,#+31
   \   000000A4   0818               ADDS     R0,R1,R0
   \   000000A6   4010               ASRS     R0,R0,#+1
   \   000000A8   2882               STRH     R0,[R5, #+16]
   3138          
   3139              Up.y=((TouchList[2].y) + (TouchList[3].y))/2;
   \   000000AA   6889               LDRH     R0,[R5, #+10]
   \   000000AC   E989               LDRH     R1,[R5, #+14]
   \   000000AE   4018               ADDS     R0,R0,R1
   \   000000B0   C10F               LSRS     R1,R0,#+31
   \   000000B2   0818               ADDS     R0,R1,R0
   \   000000B4   4010               ASRS     R0,R0,#+1
   \   000000B6   6882               STRH     R0,[R5, #+18]
   3140            }  
   3141            
   3142            if ((Down.x>0) && (Down.y>0))
   \                     ??GetTouchPoint_5:
   \   000000B8   A88A               LDRH     R0,[R5, #+20]
   \   000000BA   0028               CMP      R0,#+0
   \   000000BC   1BD0               BEQ      ??GetTouchPoint_6
   \   000000BE   EF8A               LDRH     R7,[R5, #+22]
   \   000000C0   002F               CMP      R7,#+0
   \   000000C2   18D0               BEQ      ??GetTouchPoint_6
   3143            {
   3144              Down.x=korekta_X.A*Down.x+korekta_X.B;
   \   000000C4   ........           BL       __aeabi_ui2f
   \   000000C8   0100               MOVS     R1,R0
   \   000000CA   286A               LDR      R0,[R5, #+32]
   \   000000CC   ........           BL       __aeabi_fmul
   \   000000D0   0100               MOVS     R1,R0
   \   000000D2   686A               LDR      R0,[R5, #+36]
   \   000000D4   ........           BL       __aeabi_fadd
   \   000000D8   ........           BL       __aeabi_f2iz
   \   000000DC   A882               STRH     R0,[R5, #+20]
   3145              Down.y=korekta_Y.A*Down.y+korekta_Y.B;
   \   000000DE   3800               MOVS     R0,R7
   \   000000E0   ........           BL       __aeabi_ui2f
   \   000000E4   A969               LDR      R1,[R5, #+24]
   \   000000E6   ........           BL       __aeabi_fmul
   \   000000EA   E969               LDR      R1,[R5, #+28]
   \   000000EC   ........           BL       __aeabi_fadd
   \   000000F0   ........           BL       __aeabi_f2iz
   \   000000F4   E882               STRH     R0,[R5, #+22]
   3146            }
   3147            
   3148            if ((Up.x>0) && (Up.y>0))
   \                     ??GetTouchPoint_6:
   \   000000F6   288A               LDRH     R0,[R5, #+16]
   \   000000F8   0028               CMP      R0,#+0
   \   000000FA   1BD0               BEQ      ??GetTouchPoint_7
   \   000000FC   6F8A               LDRH     R7,[R5, #+18]
   \   000000FE   002F               CMP      R7,#+0
   \   00000100   18D0               BEQ      ??GetTouchPoint_7
   3149            { 
   3150              Up.x=korekta_X.A*Up.x+korekta_X.B;
   \   00000102   ........           BL       __aeabi_ui2f
   \   00000106   0100               MOVS     R1,R0
   \   00000108   286A               LDR      R0,[R5, #+32]
   \   0000010A   ........           BL       __aeabi_fmul
   \   0000010E   0100               MOVS     R1,R0
   \   00000110   686A               LDR      R0,[R5, #+36]
   \   00000112   ........           BL       __aeabi_fadd
   \   00000116   ........           BL       __aeabi_f2iz
   \   0000011A   2882               STRH     R0,[R5, #+16]
   3151              Up.y=korekta_Y.A*Up.y+korekta_Y.B;
   \   0000011C   3800               MOVS     R0,R7
   \   0000011E   ........           BL       __aeabi_ui2f
   \   00000122   A969               LDR      R1,[R5, #+24]
   \   00000124   ........           BL       __aeabi_fmul
   \   00000128   E969               LDR      R1,[R5, #+28]
   \   0000012A   ........           BL       __aeabi_fadd
   \   0000012E   ........           BL       __aeabi_f2iz
   \   00000132   6882               STRH     R0,[R5, #+18]
   3152              /*
   3153              for (char i=0; i<TouchAmount; i++)
   3154                {
   3155                   TouchList[TouchAmount-i].x=0;
   3156                   TouchList[TouchAmount-i].y=0;
   3157                   
   3158                }
   3159                   Down.x=0;
   3160                   Down.y=0;
   3161                   */
   3162                   
   3163            }
   3164            if ((korekta_X.B!=0) && (korekta_Y.B!=0))
   \                     ??GetTouchPoint_7:
   \   00000134   686A               LDR      R0,[R5, #+36]
   \   00000136   0021               MOVS     R1,#+0
   \   00000138   ........           BL       __aeabi_cfcmpeq
   \   0000013C   13D0               BEQ      ??GetTouchPoint_8
   \   0000013E   E869               LDR      R0,[R5, #+28]
   \   00000140   ........           BL       __aeabi_cfcmpeq
   \   00000144   0FD0               BEQ      ??GetTouchPoint_8
   3165            {
   3166              if ((Down.x>64) || (Down.y>128)) {Down.x=-1; Down.y=-1;} 
                                                              ^
Warning[Pe068]: integer conversion resulted in a change of sign

      if ((Down.x>64) || (Down.y>128)) {Down.x=-1; Down.y=-1;} 
                                                          ^
"D:\Zeuron\Projekty\S300\S300-program v1.3 - 04.06.2013\Framework\lcd.c",3166  Warning[Pe068]: 
          integer conversion resulted in a change of sign
   \   00000146   A88A               LDRH     R0,[R5, #+20]
   \   00000148   4128               CMP      R0,#+65
   \   0000014A   02D2               BCS      ??GetTouchPoint_9
   \   0000014C   E88A               LDRH     R0,[R5, #+22]
   \   0000014E   8128               CMP      R0,#+129
   \   00000150   01D3               BCC      ??GetTouchPoint_10
   \                     ??GetTouchPoint_9:
   \   00000152   AE82               STRH     R6,[R5, #+20]
   \   00000154   EE82               STRH     R6,[R5, #+22]
   3167              if ((Up.x>64) || (Up.y>128)) {Up.x=-1; Up.y=-1;} 
                                                        ^
Warning[Pe068]: integer conversion resulted in a change of sign

      if ((Up.x>64) || (Up.y>128)) {Up.x=-1; Up.y=-1;} 
                                                  ^
"D:\Zeuron\Projekty\S300\S300-program v1.3 - 04.06.2013\Framework\lcd.c",3167  Warning[Pe068]: 
          integer conversion resulted in a change of sign
   \                     ??GetTouchPoint_10:
   \   00000156   288A               LDRH     R0,[R5, #+16]
   \   00000158   4128               CMP      R0,#+65
   \   0000015A   02D2               BCS      ??GetTouchPoint_11
   \   0000015C   688A               LDRH     R0,[R5, #+18]
   \   0000015E   8128               CMP      R0,#+129
   \   00000160   01D3               BCC      ??GetTouchPoint_8
   \                     ??GetTouchPoint_11:
   \   00000162   2E82               STRH     R6,[R5, #+16]
   \   00000164   6E82               STRH     R6,[R5, #+18]
   3168            }
   3169            *Xd=Down.x;
   \                     ??GetTouchPoint_8:
   \   00000166   0098               LDR      R0,[SP, #+0]
   \   00000168   A98A               LDRH     R1,[R5, #+20]
   \   0000016A   0180               STRH     R1,[R0, #+0]
   3170            *Yd=Down.y;
   \   0000016C   0198               LDR      R0,[SP, #+4]
   \   0000016E   E98A               LDRH     R1,[R5, #+22]
   \   00000170   0180               STRH     R1,[R0, #+0]
   3171            *Xu=Up.x;
   \   00000172   0298               LDR      R0,[SP, #+8]
   \   00000174   298A               LDRH     R1,[R5, #+16]
   \   00000176   0180               STRH     R1,[R0, #+0]
   3172            *Yu=Up.y;
   \   00000178   688A               LDRH     R0,[R5, #+18]
   \   0000017A   2080               STRH     R0,[R4, #+0]
   3173          
   3174          }
   \   0000017C   FEBC               POP      {R1-R7}
   \   0000017E   01BC               POP      {R0}
   \   00000180   0047               BX       R0               ;; return
   \   00000182   C046               Nop      
   \                     ??GetTouchPoint_0:
   \   00000184   ........           DC32     ??TouchList
   \   00000188   FFFF0000           DC32     0xffff

   \                                 In section .data, align 4
   \                     ??TouchList:
   \   00000000   000000000000       DC8 0, 0, 0, 0, 0, 0, 0, 0, 0, 0, 0, 0, 0, 0, 0, 0
   \              000000000000
   \              00000000    
   \                     Up:
   \   00000010   00000000           DC8 0, 0, 0, 0
   \                     Down:
   \   00000014   00000000           DC8 0, 0, 0, 0
   \                     korekta_Y:
   \   00000018   0000803F           DC32 3F800000H
   \   0000001C   00000000           DC8 0, 0, 0, 0
   \                     korekta_X:
   \   00000020   0000803F           DC32 3F800000H
   \   00000024   00000000           DC8 0, 0, 0, 0

   \                                 In section .data, align 4
   \                     m_pPio:
   \   00000000   00F4FFFF           DC32 0FFFFF400H

   \                                 In section .data, align 4
   \                     TS_pPio:
   \   00000000   00F4FFFF           DC32 0FFFFF400H

   \                                 In section .data, align 4
   \                     LCD_Canvas:
   \   00000000   FE0101010101       DC8 254, 1, 1, 1, 1, 1, 1, 1, 131, 69, 125, 69, 41, 41, 17, 1, 1, 169
   \              010183457D45
   \              2929110101A9
   \   00000012   010101010101       DC8 1, 1, 1, 1, 1, 1, 1, 1, 1, 1, 131, 69, 125, 69, 41, 41, 17, 1, 1
   \              010101018345
   \              7D4529291101
   \              01          
   \   00000025   A90101010101       DC8 169, 1, 1, 1, 1, 1, 1, 1, 1, 1, 1, 131, 69, 125, 69, 41, 41, 17, 1
   \              010101010183
   \              457D45292911
   \              01          
   \   00000038   01A901010101       DC8 1, 169, 1, 1, 1, 1, 1, 1, 1, 1, 1, 1, 131, 69, 125, 69, 41, 41, 17
   \              010101010101
   \              83457D452929
   \              11          
   \   0000004B   0101A9010101       DC8 1, 1, 169, 1, 1, 1, 1, 1, 1, 1, 1, 1, 1, 131, 69, 125, 69, 41, 41
   \              010101010101
   \              0183457D4529
   \              29          
   \   0000005E   110101A90101       DC8 17, 1, 1, 169, 1, 1, 1, 1, 1, 1, 1, 1, 1, 1, 131, 69, 125, 69, 41
   \              010101010101
   \              010183457D45
   \              29          
   \   00000071   2911010101FF       DC8 41, 17, 1, 1, 1, 255, 7, 243, 107, 155, 155, 107, 243, 6, 252, 255
   \              07F36B9B9B6B
   \              F306FCFF    
   \   00000081   A4A090A0A418       DC8 164, 160, 144, 160, 164, 24, 0, 66, 66, 66, 66, 66, 99, 66, 0, 0
   \              004242424242
   \              63420000    
   \   00000091   AA0000202020       DC8 170, 0, 0, 32, 32, 32, 32, 32, 48, 32, 0, 66, 66, 66, 66, 66, 99
   \              202030200042
   \              4242424263  
   \   000000A2   420000AA0000       DC8 66, 0, 0, 170, 0, 0, 28, 36, 36, 36, 36, 36, 24, 0, 66, 66, 66, 66
   \              1C2424242424
   \              180042424242
   \   000000B4   4263420000AA       DC8 66, 99, 66, 0, 0, 170, 0, 0, 16, 16, 16, 16, 16, 24, 16, 0, 66, 66
   \              000010101010
   \              101810004242
   \   000000C6   424242634200       DC8 66, 66, 66, 99, 66, 0, 0, 170, 0, 0, 60, 8, 16, 16, 32, 36, 24, 0
   \              00AA00003C08
   \              101020241800
   \   000000D8   424242424263       DC8 66, 66, 66, 66, 66, 99, 66, 0, 0, 170, 0, 0, 152, 164, 160, 144
   \              420000AA0000
   \              98A4A090    
   \   000000E8   A0A418004242       DC8 160, 164, 24, 0, 66, 66, 66, 66, 66, 99, 66, 0, 0, 0, 255, 254, 60
   \              424242634200
   \              0000FFFE3C  
   \   000000F9   BD7DFDBD3CFE       DC8 189, 125, 253, 189, 60, 254, 255, 255, 148, 148, 148, 148, 148, 99
   \              FFFF94949494
   \              9463        
   \   00000107   0082447C4428       DC8 0, 130, 68, 124, 68, 40, 40, 16, 0, 0, 170, 0, 0, 207, 34, 4, 132
   \              28100000AA00
   \              00CF220484  
   \   00000118   0829C6007C04       DC8 8, 41, 198, 0, 124, 4, 4, 124, 4, 4, 124, 0, 0, 170, 0, 1, 9, 136
   \              047C04047C00
   \              00AA00010988
   \   0000012A   889090A03C00       DC8 136, 144, 144, 160, 60, 0, 60, 68, 68, 68, 68, 68, 60, 0, 0, 170, 0
   \              3C4444444444
   \              3C0000AA00  
   \   0000013B   013D88101020       DC8 1, 61, 136, 16, 16, 32, 164, 24, 0, 56, 68, 4, 4, 4, 68, 56, 0, 0
   \              A41800384404
   \              040444380000
   \   0000014D   AA0000222222       DC8 170, 0, 0, 34, 34, 34, 66, 66, 131, 242, 0, 28, 36, 36, 60, 36, 36
   \              424283F2001C
   \              24243C2424  
   \   0000015E   1C0000AA0000       DC8 28, 0, 0, 170, 0, 0, 115, 148, 148, 148, 148, 148, 99, 0, 130, 68
   \              739494949494
   \              63008244    
   \   0000016E   7C4428281000       DC8 124, 68, 40, 40, 16, 0, 0, 0, 255, 255, 36, 117, 87, 38, 37, 36
   \              0000FFFF2475
   \              57262524    
   \   0000017E   FFFFFF040808       DC8 255, 255, 255, 4, 8, 8, 16, 18, 12, 0, 0, 0, 0, 0, 0, 0, 0, 0, 0
   \              10120C000000
   \              000000000000
   \              00          
   \   00000191   AA000020A17D       DC8 170, 0, 0, 32, 161, 125, 164, 169, 49, 32, 0, 0, 0, 0, 0, 0, 0, 0
   \              A4A931200000
   \              000000000000
   \   000001A3   0000AA000063       DC8 0, 0, 170, 0, 0, 99, 148, 132, 148, 115, 36, 227, 0, 0, 0, 0, 0, 0
   \              9484947324E3
   \              000000000000
   \   000001B5   00000000AA00       DC8 0, 0, 0, 0, 170, 0, 0, 131, 132, 244, 146, 164, 196, 131, 0, 0, 0
   \              008384F492A4
   \              C483000000  
   \   000001C6   000000000000       DC8 0, 0, 0, 0, 0, 0, 0, 170, 0, 0, 16, 16, 254, 82, 148, 24, 16, 0, 0
   \              00AA00001010
   \              FE5294181000
   \              00          
   \   000001D9   000000000000       DC8 0, 0, 0, 0, 0, 0, 0, 0, 170, 0, 0, 158, 4, 8, 8, 16, 18, 12, 0, 0
   \              0000AA00009E
   \              04080810120C
   \              0000        
   \   000001ED   000000000000       DC8 0, 0, 0, 0, 0, 0, 0, 0, 0, 255, 255, 159, 223, 63, 191, 127, 63
   \              000000FFFF9F
   \              DF3FBF7F3F  
   \   000001FE   FFFFFF444888       DC8 255, 255, 255, 68, 72, 136, 80, 82, 140, 0, 0, 0, 0, 0, 0, 0, 0, 0
   \              50528C000000
   \              000000000000
   \   00000210   00AA00006394       DC8 0, 170, 0, 0, 99, 148, 148, 148, 115, 145, 103, 0, 0, 0, 0, 0, 0, 0
   \              949473916700
   \              000000000000
   \   00000222   000000AA0000       DC8 0, 0, 0, 170, 0, 0, 208, 80, 126, 82, 84, 88, 144, 0, 0, 0, 0, 0, 0
   \              D0507E525458
   \              900000000000
   \              00          
   \   00000235   00000000AA00       DC8 0, 0, 0, 0, 170, 0, 0, 142, 82, 147, 82, 82, 82, 140, 0, 0, 0, 0, 0
   \              008E52935252
   \              528C00000000
   \              00          
   \   00000248   0000000000AA       DC8 0, 0, 0, 0, 0, 170, 0, 16, 210, 130, 7, 2, 2, 67, 130, 0, 0, 0, 0
   \              0010D2820702
   \              024382000000
   \              00          
   \   0000025B   000000000000       DC8 0, 0, 0, 0, 0, 0, 170, 0, 0, 158, 68, 72, 136, 80, 82, 140, 0, 0, 0
   \              AA00009E4448
   \              8850528C0000
   \              00          
   \   0000026E   000000000000       DC8 0, 0, 0, 0, 0, 0, 0, 0, 255, 255, 180, 149, 150, 166, 167, 147, 255
   \              0000FFFFB495
   \              96A6A793FF  
   \   0000027F   FFFF12122122       DC8 255, 255, 18, 18, 33, 34, 66, 121, 0, 0, 0, 0, 0, 0, 0, 0, 0, 0
   \              427900000000
   \              000000000000
   \   00000291   AA0080840404       DC8 170, 0, 128, 132, 4, 4, 8, 8, 16, 30, 0, 0, 0, 0, 0, 0, 0, 0, 0, 0
   \              0808101E0000
   \              000000000000
   \              0000        
   \   000002A5   AA0000394A4A       DC8 170, 0, 0, 57, 74, 74, 74, 74, 74, 49, 0, 0, 0, 0, 0, 0, 0, 0, 0, 0
   \              4A4A4A310000
   \              000000000000
   \              0000        
   \   000002B9   AA0000314A4B       DC8 170, 0, 0, 49, 74, 75, 50, 74, 74, 49, 0, 0, 0, 0, 0, 0, 0, 0, 0, 0
   \              324A4A310000
   \              000000000000
   \              0000        
   \   000002CD   AA0000334841       DC8 170, 0, 0, 51, 72, 65, 33, 66, 74, 49, 0, 0, 0, 0, 0, 0, 0, 0, 0, 0
   \              21424A310000
   \              000000000000
   \              0000        
   \   000002E1   AA0000111212       DC8 170, 0, 0, 17, 18, 18, 33, 34, 66, 121, 0, 0, 0, 0, 0, 0, 0, 0, 0
   \              212242790000
   \              000000000000
   \              00          
   \   000002F4   0000FFFF246E       DC8 0, 0, 255, 255, 36, 110, 113, 117, 123, 57, 255, 255, 255, 201, 72
   \              71757B39FFFF
   \              FFC948      
   \   00000303   444849464040       DC8 68, 72, 73, 70, 64, 64, 64, 64, 64, 64, 64, 64, 192, 192, 202, 64
   \              404040404040
   \              C0C0CA40    
   \   00000313   C04ED252D252       DC8 192, 78, 210, 82, 210, 82, 210, 76, 192, 64, 192, 64, 192, 64, 192
   \              D24CC040C040
   \              C040C0      
   \   00000322   40C040CA40C0       DC8 64, 192, 64, 202, 64, 192, 71, 201, 73, 201, 73, 201, 70, 192, 64
   \              47C949C949C9
   \              46C040      
   \   00000331   C040C040C040       DC8 192, 64, 192, 64, 192, 64, 192, 64, 202, 64, 192, 70, 201, 73, 198
   \              C040CA40C046
   \              C949C6      
   \   00000340   49C946C040C0       DC8 73, 201, 70, 192, 64, 192, 64, 192, 64, 192, 64, 192, 64, 202, 64
   \              40C040C040C0
   \              40CA40      
   \   0000034F   C0C8C8DFC9CA       DC8 192, 200, 200, 223, 201, 202, 204, 200, 192, 192, 192, 192, 64, 64
   \              CCC8C0C0C0C0
   \              4040        
   \   0000035D   C040C040CA40       DC8 192, 64, 192, 64, 202, 64, 192, 70, 201, 72, 196, 200, 73, 70, 64
   \              C046C948C4C8
   \              494640      
   \   0000036C   404040404040       DC8 64, 64, 64, 64, 64, 64, 64, 64, 64, 192, 255, 255, 248, 251, 255
   \              404040C0FFFF
   \              F8FBFF      
   \   0000037B   FFFFFEFFFFFF       DC8 255, 255, 254, 255, 255, 255, 192, 128, 128, 128, 128, 128, 140
   \              C08080808080
   \              8C          
   \   00000388   9EBFBF808080       DC8 158, 191, 191, 128, 128, 128, 128, 192, 255, 170, 213, 170, 213
   \              80C0FFAAD5AA
   \              D5          
   \   00000395   AAD5AAD5AAD5       DC8 170, 213, 170, 213, 170, 213, 170, 213, 170, 213, 170, 213, 170
   \              AAD5AAD5AAD5
   \              AA          
   \   000003A2   D5AAD5AAD5AA       DC8 213, 170, 213, 170, 213, 170, 213, 170, 213, 170, 213, 170, 213
   \              D5AAD5AAD5AA
   \              D5          
   \   000003AF   AAD5AAD5AAD5       DC8 170, 213, 170, 213, 170, 213, 170, 213, 170, 213, 170, 213, 170
   \              AAD5AAD5AAD5
   \              AA          
   \   000003BC   D5AAD5AAD5AA       DC8 213, 170, 213, 170, 213, 170, 213, 170, 213, 170, 213, 170, 213
   \              D5AAD5AAD5AA
   \              D5          
   \   000003C9   AAD5AAD5AA80       DC8 170, 213, 170, 213, 170, 128, 255, 255, 255, 255, 192, 222, 222
   \              FFFFFFFFC0DE
   \              DE          
   \   000003D6   C0FFFFFFFF80       DC8 192, 255, 255, 255, 255, 128, 213, 170, 213, 170, 213, 170, 213
   \              D5AAD5AAD5AA
   \              D5          
   \   000003E3   AAD5AAD5FFC0       DC8 170, 213, 170, 213, 255, 192, 128, 128, 128, 191, 191, 158, 140
   \              808080BFBF9E
   \              8C          
   \   000003F0   8080808080C0       DC8 128, 128, 128, 128, 128, 192, 255, 255, 255, 255, 255, 255, 255
   \              FFFFFFFFFFFF
   \              FF          
   \   000003FD   FF7F3F             DC8 255, 127, 63

   \                                 In section .data, align 1
   \                     chipSelect:
   \   00000000   01                 DC8 1

   \                                 In section .data, align 8
   \                     RealRows:
   \   00000000   00                 DC8 0
   \                     RowsPoz:
   \   00000001   00                 DC8 0
   \   00000002   00                 DC8 0
   \   00000003   00                 DC8 0
   \   00000004   FF                 DC8 255
   \   00000005   FF                 DC8 255
   \   00000006   00                 DC8 0
   \   00000007   00                 DC8 0
   \                     ButtonEventTime:
   \   00000008   000000000000       DC32 0, 0
   \              0000        
   \                     ButtonBipCounter:
   \   00000010   000000000000       DC32 0, 0
   \              0000        

   \                                 In section Debug.txt, align 4, keep-with-next
   \                     ??DataTable8:
   \   00000000   ........           DC32     LCD_Canvas

   \                                 In section Debug.txt, align 4, keep-with-next
   \                     ??DataTable11:
   \   00000000   ........           DC32     m_pPio

   \                                 In section Debug.txt, align 4, keep-with-next
   \                     ??DataTable12:
   \   00000000   1C81007E           DC32     0x7e00811c

   \                                 In section .rodata, align 4
   \                     `?<Constant {{255, 1, 255, 255, 255, 255, 255, `:
   \   00000000   FF01FFFFFFFF       DC8 255, 1, 255, 255, 255, 255, 255, 255, 255, 255, 255, 255, 255, 255
   \              FFFFFFFFFFFF
   \              FFFF        
   \   0000000E   FFFFFEFCFF00       DC8 255, 255, 254, 252, 255, 0, 255, 255, 255, 255, 255, 255, 255, 255
   \              FFFFFFFFFFFF
   \              FFFF        
   \   0000001C   FFFFFFFFFFFF       DC8 255, 255, 255, 255, 255, 255, 255, 255, 255, 0, 255, 255, 255, 255
   \              FFFFFF00FFFF
   \              FFFF        
   \   0000002A   FFFFFFFFFFFF       DC8 255, 255, 255, 255, 255, 255, 255, 255, 255, 255, 255, 255, 255, 0
   \              FFFFFFFFFFFF
   \              FF00        
   \   00000038   FFFFFFFFFFFF       DC8 255, 255, 255, 255, 255, 255, 255, 255, 255, 255, 255, 255, 255
   \              FFFFFFFFFFFF
   \              FF          
   \   00000045   FFFFFFFF00FF       DC8 255, 255, 255, 255, 0, 255, 255, 255, 255, 255, 255, 255, 255, 255
   \              FFFFFFFFFFFF
   \              FFFF        
   \   00000053   FFFFFFFFFFFF       DC8 255, 255, 255, 255, 255, 255, 255, 255, 0, 255, 255, 127, 127, 127
   \              FFFF00FFFF7F
   \              7F7F        
   \   00000061   7F7F7F7F7F7F       DC8 127, 127, 127, 127, 127, 127, 127, 127, 127, 255, 255, 255, 0, 255
   \              7F7F7FFFFFFF
   \              00FF        
   \   0000006F   00FEFFFBF76F       DC8 0, 254, 255, 251, 247, 111, 159, 159, 111, 247, 251, 255, 254, 0
   \              9F9F6FF7FBFF
   \              FE00        
   \   0000007D   FFFF80FFF0E7       DC8 255, 255, 128, 255, 240, 231, 239, 237, 238, 239, 239, 239, 239
   \              EFEDEEEFEFEF
   \              EF          
   \   0000008A   EEED6F67301F       DC8 238, 237, 111, 103, 48, 31

   \                                 In section .rodata, align 4
   \                     `?<Constant {{254, 1, 1, 1, 1, 1, 1, 1, 1, 1, 1`:
   \   00000000   FE0101010101       DC8 254, 1, 1, 1, 1, 1, 1, 1, 1, 1, 1, 1, 1, 1, 1, 1, 1, 1, 1, 1, 1, 1
   \              010101010101
   \              010101010101
   \              01010101    
   \   00000016   010101010101       DC8 1, 1, 1, 1, 1, 1, 1, 1, 1, 1, 1, 1, 1, 1, 1, 1, 1, 1, 1, 1, 1, 1, 1
   \              010101010101
   \              010101010101
   \              0101010101  
   \   0000002D   010101010101       DC8 1, 1, 1, 1, 1, 1, 1, 1, 1, 1, 1, 1, 1, 1, 1, 1, 1, 1, 1, 1, 1, 1, 1
   \              010101010101
   \              010101010101
   \              0101010101  
   \   00000044   010101010101       DC8 1, 1, 1, 1, 1, 1, 1, 1, 1, 1, 1, 1, 1, 1, 1, 1, 1, 1, 1, 1, 1, 1, 1
   \              010101010101
   \              010101010101
   \              0101010101  
   \   0000005B   010101010101       DC8 1, 1, 1, 1, 1, 1, 1, 1, 1, 1, 1, 1, 1, 1, 1, 1, 1, 1, 1, 1, 1, 1, 1
   \              010101010101
   \              010101010101
   \              0101010101  
   \   00000072   FF03FDF5EDDD       DC8 255, 3, 253, 245, 237, 221, 61, 61, 221, 237, 245, 253, 3, 254, 255
   \              3D3DDDEDF5FD
   \              03FEFF      
   \   00000081   000000000000       DC8 0, 0, 0, 0, 0, 0, 0, 0, 0, 0, 0, 0, 0, 0, 0, 0, 0, 0, 0, 0, 0, 0, 0
   \              000000000000
   \              000000000000
   \              0000000000  
   \   00000098   000000000000       DC8 0, 0, 0, 0, 0, 0, 0, 0, 0, 0, 0, 0, 0, 0, 0, 0, 0, 0, 0, 0, 0, 0, 0
   \              000000000000
   \              000000000000
   \              0000000000  
   \   000000AF   000000000000       DC8 0, 0, 0, 0, 0, 0, 0, 0, 0, 0, 0, 0, 0, 0, 0, 0, 0, 0, 0, 0, 0, 0, 0
   \              000000000000
   \              000000000000
   \              0000000000  
   \   000000C6   000000000000       DC8 0, 0, 0, 0, 0, 0, 0, 0, 0, 0, 0, 0, 0, 0, 0, 0, 0, 0, 0, 0, 0, 0, 0
   \              000000000000
   \              000000000000
   \              0000000000  
   \   000000DD   000000000000       DC8 0, 0, 0, 0, 0, 0, 0, 0, 0, 0, 0, 0, 0, 0, 0, 0, 0, 0, 0, 0, 0, 255
   \              000000000000
   \              000000000000
   \              000000FF    
   \   000000F3   F0EFEBEDEEEF       DC8 240, 239, 235, 237, 238, 239, 239, 238, 237, 235, 239, 240, 255
   \              EFEEEDEBEFF0
   \              FF          
   \   00000100   FF0000000000       DC8 255, 0, 0, 0, 0, 0, 0, 0, 0, 0, 0, 0, 0, 0, 0, 0, 0, 0, 0, 0, 0, 0
   \              000000000000
   \              000000000000
   \              00000000    
   \   00000116   000000000000       DC8 0, 0, 0, 0, 0, 0, 0, 0, 0, 0, 0, 0, 0, 0, 0, 0, 0, 0, 0, 0, 0, 0, 0
   \              000000000000
   \              000000000000
   \              0000000000  
   \   0000012D   000000000000       DC8 0, 0, 0, 0, 0, 0, 0, 0, 0, 0, 0, 0, 0, 0, 0, 0, 0, 0, 0, 0, 0, 0, 0
   \              000000000000
   \              000000000000
   \              0000000000  
   \   00000144   000000000000       DC8 0, 0, 0, 0, 0, 0, 0, 0, 0, 0, 0, 0, 0, 0, 0, 0, 0, 0, 0, 0, 0, 0, 0
   \              000000000000
   \              000000000000
   \              0000000000  
   \   0000015B   000000000000       DC8 0, 0, 0, 0, 0, 0, 0, 0, 0, 0, 0, 0, 0, 0, 0, 0, 0, 0, 0, 0, 0, 0, 0
   \              000000000000
   \              000000000000
   \              0000000000  
   \   00000172   FFFFFFFFFFFF       DC8 255, 255, 255, 255, 255, 255, 255, 255, 255, 255, 255, 255, 255
   \              FFFFFFFFFFFF
   \              FF          
   \   0000017F   FFFF00000000       DC8 255, 255, 0, 0, 0, 0, 0, 0, 0, 0, 0, 0, 0, 0, 0, 0, 0, 0, 0, 0, 0
   \              000000000000
   \              000000000000
   \              000000      
   \   00000194   000000000000       DC8 0, 0, 0, 0, 0, 0, 0, 0, 0, 0, 0, 0, 0, 0, 0, 0, 0, 0, 0, 0, 0, 0, 0
   \              000000000000
   \              000000000000
   \              0000000000  
   \   000001AB   000000000000       DC8 0, 0, 0, 0, 0, 0, 0, 0, 0, 0, 0, 0, 0, 0, 0, 0, 0, 0, 0, 0, 0, 0, 0
   \              000000000000
   \              000000000000
   \              0000000000  
   \   000001C2   000000000000       DC8 0, 0, 0, 0, 0, 0, 0, 0, 0, 0, 0, 0, 0, 0, 0, 0, 0, 0, 0, 0, 0, 0, 0
   \              000000000000
   \              000000000000
   \              0000000000  
   \   000001D9   000000000000       DC8 0, 0, 0, 0, 0, 0, 0, 0, 0, 0, 0, 0, 0, 0, 0, 0, 0, 0, 0, 0, 0, 0, 0
   \              000000000000
   \              000000000000
   \              0000000000  
   \   000001F0   0000FFFFFFFF       DC8 0, 0, 255, 255, 255, 255, 255, 255, 255, 255, 255, 255, 255, 255
   \              FFFFFFFFFFFF
   \              FFFF        
   \   000001FE   FFFFFF000000       DC8 255, 255, 255, 0, 0, 0, 0, 0, 0, 0, 0, 0, 0, 0, 0, 0, 0, 0, 0, 0, 0
   \              000000000000
   \              000000000000
   \              000000      
   \   00000213   000000000000       DC8 0, 0, 0, 0, 0, 0, 0, 0, 0, 0, 0, 0, 0, 0, 0, 0, 0, 0, 0, 0, 0, 0, 0
   \              000000000000
   \              000000000000
   \              0000000000  
   \   0000022A   000000000000       DC8 0, 0, 0, 0, 0, 0, 0, 0, 0, 0, 0, 0, 0, 0, 0, 0, 0, 0, 0, 0, 0, 0, 0
   \              000000000000
   \              000000000000
   \              0000000000  
   \   00000241   000000000000       DC8 0, 0, 0, 0, 0, 0, 0, 0, 0, 0, 0, 0, 0, 0, 0, 0, 0, 0, 0, 0, 0, 0, 0
   \              000000000000
   \              000000000000
   \              0000000000  
   \   00000258   000000000000       DC8 0, 0, 0, 0, 0, 0, 0, 0, 0, 0, 0, 0, 0, 0, 0, 0, 0, 0, 0, 0, 0, 0, 0
   \              000000000000
   \              000000000000
   \              0000000000  
   \   0000026F   000000FFFFFF       DC8 0, 0, 0, 255, 255, 255, 255, 255, 255, 255, 255, 255, 255, 255, 255
   \              FFFFFFFFFFFF
   \              FFFFFF      
   \   0000027E   FFFFFF000000       DC8 255, 255, 255, 0, 0, 0, 0, 0, 0, 0, 0, 0, 0, 0, 0, 0, 0, 0, 0, 0, 0
   \              000000000000
   \              000000000000
   \              000000      
   \   00000293   000000000000       DC8 0, 0, 0, 0, 0, 0, 0, 0, 0, 0, 0, 0, 0, 0, 0, 0, 0, 0, 0, 0, 0, 0, 0
   \              000000000000
   \              000000000000
   \              0000000000  
   \   000002AA   000000000000       DC8 0, 0, 0, 0, 0, 0, 0, 0, 0, 0, 0, 0, 0, 0, 0, 0, 0, 0, 0, 0, 0, 0, 0
   \              000000000000
   \              000000000000
   \              0000000000  
   \   000002C1   000000000000       DC8 0, 0, 0, 0, 0, 0, 0, 0, 0, 0, 0, 0, 0, 0, 0, 0, 0, 0, 0, 0, 0, 0, 0
   \              000000000000
   \              000000000000
   \              0000000000  
   \   000002D8   000000000000       DC8 0, 0, 0, 0, 0, 0, 0, 0, 0, 0, 0, 0, 0, 0, 0, 0, 0, 0, 0, 0, 0, 0, 0
   \              000000000000
   \              000000000000
   \              0000000000  
   \   000002EF   000000FFFFFF       DC8 0, 0, 0, 255, 255, 255, 255, 255, 255, 255, 255, 255, 255, 255, 255
   \              FFFFFFFFFFFF
   \              FFFFFF      
   \   000002FE   FFFFFF602020       DC8 255, 255, 255, 96, 32, 32, 32, 32, 32, 32, 32, 32, 32, 32, 32, 32
   \              202020202020
   \              20202020    
   \   0000030E   2020E060A060       DC8 32, 32, 224, 96, 160, 96, 160, 96, 160, 96, 160, 96, 160, 96, 160
   \              A060A060A060
   \              A060A0      
   \   0000031D   60A060A060A0       DC8 96, 160, 96, 160, 96, 160, 96, 160, 96, 160, 96, 160, 96, 160, 96
   \              60A060A060A0
   \              60A060      
   \   0000032C   A060A060A060       DC8 160, 96, 160, 96, 160, 96, 160, 96, 160, 96, 160, 96, 160, 96, 160
   \              A060A060A060
   \              A060A0      
   \   0000033B   60A060A060A0       DC8 96, 160, 96, 160, 96, 160, 96, 160, 96, 160, 96, 160, 96, 160, 96
   \              60A060A060A0
   \              60A060      
   \   0000034A   A060A060A060       DC8 160, 96, 160, 96, 160, 96, 160, 96, 160, 96, 160, 96, 160, 96, 160
   \              A060A060A060
   \              A060A0      
   \   00000359   60A060A060A0       DC8 96, 160, 96, 160, 96, 160, 96, 160, 96, 224, 32, 32, 32, 32, 32, 32
   \              60A060E02020
   \              20202020    
   \   00000369   202020202020       DC8 32, 32, 32, 32, 32, 32, 32, 32, 96, 255, 255, 255, 255, 255, 255
   \              202060FFFFFF
   \              FFFFFF      
   \   00000378   FFFFFFFFFFFF       DC8 255, 255, 255, 255, 255, 255, 255, 255, 127, 192, 128, 128, 128
   \              FFFF7FC08080
   \              80          
   \   00000385   80848E9F9B80       DC8 128, 132, 142, 159, 155, 128, 128, 128, 128, 128, 128, 255, 213
   \              8080808080FF
   \              D5          
   \   00000392   AAD5AAD5AAD5       DC8 170, 213, 170, 213, 170, 213, 170, 213, 170, 213, 170, 213, 170
   \              AAD5AAD5AAD5
   \              AA          
   \   0000039F   D5AAD5AAD5AA       DC8 213, 170, 213, 170, 213, 170, 213, 170, 213, 170, 213, 170, 213
   \              D5AAD5AAD5AA
   \              D5          
   \   000003AC   AAD5AAD5AAD5       DC8 170, 213, 170, 213, 170, 213, 170, 213, 170, 213, 170, 213, 170
   \              AAD5AAD5AAD5
   \              AA          
   \   000003B9   D5AAD5AAD5AA       DC8 213, 170, 213, 170, 213, 170, 213, 170, 213, 170, 213, 170, 213
   \              D5AAD5AAD5AA
   \              D5          
   \   000003C6   AAD5AAD5AAD5       DC8 170, 213, 170, 213, 170, 213, 170, 213, 170, 213, 170, 213, 170
   \              AAD5AAD5AAD5
   \              AA          
   \   000003D3   D5AAD5AAD5AA       DC8 213, 170, 213, 170, 213, 170, 213, 170, 213, 170, 213, 170, 213
   \              D5AAD5AAD5AA
   \              D5          
   \   000003E0   AAD5FF808080       DC8 170, 213, 255, 128, 128, 128, 128, 155, 159, 142, 132, 128, 128
   \              809B9F8E8480
   \              80          
   \   000003ED   80808080C0FF       DC8 128, 128, 128, 128, 192, 255, 255, 255, 255, 255, 255, 255, 255
   \              FFFFFFFFFFFF
   \              FF          
   \   000003FA   FFFFFFFF7F3F       DC8 255, 255, 255, 255, 127, 63
   \   00000400   80FFFFFFFFE0       DC8 128, 255, 255, 255, 255, 224, 238, 238, 224, 255, 255, 255, 255
   \              EEEEE0FFFFFF
   \              FF          
   \   0000040D   800000             DC8 128, 0, 0

   \                                 In section .rodata, align 4
   \   00000000   2000               DC8 " "
   \   00000002   0000               DC8 0, 0

   \                                 In section .rodata, align 4
   \   00000000   00                 DC8 ""
   \   00000001   000000             DC8 0, 0, 0

   \                                 In section .rodata, align 4
   \                     `?<Constant {{249, 13, 245, 245, 245, 245, 245,`:
   \   00000000   F90DF5F5F5F5       DC8 249, 13, 245, 245, 245, 245, 245, 245, 245, 245, 245, 245, 245, 13
   \              F5F5F5F5F5F5
   \              F50D        
   \   0000000E   F9FF00FFFF77       DC8 249, 255, 0, 255, 255, 119, 55, 55, 87, 103, 103, 119, 255, 255, 0
   \              373757676777
   \              FFFF00      
   \   0000001D   FFFF00FFFFC7       DC8 255, 255, 0, 255, 255, 199, 187, 187, 187, 187, 187, 199, 255, 255
   \              BBBBBBBBBBC7
   \              FFFF        
   \   0000002B   00FF3F605F5F       DC8 0, 255, 63, 96, 95, 95, 95, 95, 95, 95, 95, 95, 95, 95, 95, 96, 63
   \              5F5F5F5F5F5F
   \              5F5F5F603F  
   \   0000003C   FE03FDFDFDFD       DC8 254, 3, 253, 253, 253, 253, 253, 253, 253, 253, 253, 253, 253, 3
   \              FDFDFDFDFDFD
   \              FD03        
   \   0000004A   FEFF00FFFFE3       DC8 254, 255, 0, 255, 255, 227, 221, 221, 221, 221, 221, 227, 255, 255
   \              DDDDDDDDDDE3
   \              FFFF        
   \   00000058   00FFFF00FFFF       DC8 0, 255, 255, 0, 255, 255, 238, 246, 250, 252, 250, 246, 238, 255
   \              EEF6FAFCFAF6
   \              EEFF        
   \   00000066   FF00FFCFD8D7       DC8 255, 0, 255, 207, 216, 215, 215, 215, 215, 215, 215, 215, 215, 215
   \              D7D7D7D7D7D7
   \              D7D7        
   \   00000074   D7D7D8CF           DC8 215, 215, 216, 207

   \                                 In section .rodata, align 4
   \                     `?<Constant "Info ">`:
   \   00000000   496E666F2000       DC8 "Info "
   \   00000006   0000               DC8 0, 0

   \                                 In section .rodata, align 4
   \   00000000   4F6B2000           DC8 "Ok "

   \                                 In section .rodata, align 4
   \                     `?<Constant {{254, 255, 3, 249, 5, 245, 245, 24`:
   \   00000000   FEFF03F905F5       DC8 254, 255, 3, 249, 5, 245, 245, 245, 245, 245, 245, 245, 245, 245
   \              F5F5F5F5F5F5
   \              F5F5        
   \   0000000E   F5F5F5F5F505       DC8 245, 245, 245, 245, 245, 5, 249, 1, 1, 249, 5, 245, 245, 245, 245
   \              F90101F905F5
   \              F5F5F5      
   \   0000001D   F5F5F5F5F5F5       DC8 245, 245, 245, 245, 245, 245, 245, 245, 245, 245, 5, 249, 1, 1, 249
   \              F5F5F5F505F9
   \              0101F9      
   \   0000002C   05F5F5F5F5F5       DC8 5, 245, 245, 245, 245, 245, 245, 245, 245, 245, 245, 245, 245, 245
   \              F5F5F5F5F5F5
   \              F5F5        
   \   0000003A   F505F90101F9       DC8 245, 5, 249, 1, 1, 249, 5, 245, 245, 245, 245, 245, 245, 245, 245
   \              05F5F5F5F5F5
   \              F5F5F5      
   \   00000049   F5F5F5F5F5F5       DC8 245, 245, 245, 245, 245, 245, 5, 249, 3, 255, 255, 255, 3, 3, 3, 3
   \              05F903FFFFFF
   \              03030303    
   \   00000059   030303030303       DC8 3, 3, 3, 3, 3, 3, 3, 3, 3, 3, 3, 3, 3, 3, 3, 3, 3, 3, 3, 3, 3, 3, 3
   \              030303030303
   \              030303030303
   \              0303030303  
   \   00000070   FF03FFFFFFFF       DC8 255, 3, 255, 255, 255, 255, 255, 255, 255, 255, 255, 255, 255, 254
   \              FFFFFFFFFFFF
   \              FFFE        
   \   0000007E   FCF8FFFF00FF       DC8 252, 248, 255, 255, 0, 255, 0, 255, 255, 255, 255, 255, 255, 255
   \              00FFFFFFFFFF
   \              FFFF        
   \   0000008C   FFFFFFFFFFFF       DC8 255, 255, 255, 255, 255, 255, 255, 0, 255, 0, 0, 255, 0, 255, 255
   \              FF00FF0000FF
   \              00FFFF      
   \   0000009B   F9F9F9F3F3F3       DC8 249, 249, 249, 243, 243, 243, 231, 231, 207, 192, 255, 255, 0, 255
   \              E7E7CFC0FFFF
   \              00FF        
   \   000000A9   0000FF00FFFF       DC8 0, 0, 255, 0, 255, 255, 231, 231, 192, 230, 229, 229, 227, 227, 231
   \              E7E7C0E6E5E5
   \              E3E3E7      
   \   000000B8   E7FFFF00FF00       DC8 231, 255, 255, 0, 255, 0, 0, 255, 0, 255, 255, 231, 231, 231, 231
   \              00FF00FFFFE7
   \              E7E7E7      
   \   000000C7   E7E7E5E1E3E7       DC8 231, 231, 229, 225, 227, 231, 255, 255, 0, 255, 0, 255, 255, 255, 0
   \              FFFF00FF00FF
   \              FFFF00      
   \   000000D6   000000000000       DC8 0, 0, 0, 0, 0, 0, 0, 0, 0, 0, 0, 0, 0, 0, 0, 0, 0, 0, 0, 0, 0, 0, 0
   \              000000000000
   \              000000000000
   \              0000000000  
   \   000000ED   000000FF00FF       DC8 0, 0, 0, 255, 0, 255, 255, 255, 255, 255, 255, 255, 255, 255, 255
   \              FFFFFFFFFFFF
   \              FFFFFF      
   \   000000FC   FFFFFFFFFFFF       DC8 255, 255, 255, 255, 255, 255, 0, 7, 136, 139, 139, 139, 139, 139
   \              0007888B8B8B
   \              8B8B        
   \   0000010A   8B8B8B8B8B8B       DC8 139, 139, 139, 139, 139, 139, 139, 139, 139, 136, 7, 0, 0, 7, 136
   \              8B8B8B880700
   \              000788      
   \   00000119   8B8B8B8B8B8B       DC8 139, 139, 139, 139, 139, 139, 139, 139, 139, 139, 139, 139, 139
   \              8B8B8B8B8B8B
   \              8B          
   \   00000126   8B8807000007       DC8 139, 136, 7, 0, 0, 7, 136, 139, 139, 139, 139, 139, 139, 139, 139
   \              888B8B8B8B8B
   \              8B8B8B      
   \   00000135   8B8B8B8B8B8B       DC8 139, 139, 139, 139, 139, 139, 136, 7, 0, 0, 7, 136, 139, 139, 139
   \              880700000788
   \              8B8B8B      
   \   00000144   8B8B8B8B8B8B       DC8 139, 139, 139, 139, 139, 139, 139, 139, 139, 139, 139, 136, 7, 0
   \              8B8B8B8B8B88
   \              0700        
   \   00000152   FFFFFF000000       DC8 255, 255, 255, 0, 0, 0, 0, 0, 0, 0, 0, 0, 0, 0, 0, 0, 0, 0, 0, 0, 0
   \              000000000000
   \              000000000000
   \              000000      
   \   00000167   000000000000       DC8 0, 0, 0, 0, 0, 0, 0, 0, 0, 255, 0, 255, 255, 255, 255, 255, 255
   \              000000FF00FF
   \              FFFFFFFFFF  
   \   00000178   FFFFFFFFFFFF       DC8 255, 255, 255, 255, 255, 255, 255, 255, 255, 255, 0, 255, 0, 254
   \              FFFFFFFF00FF
   \              00FE        
   \   00000186   FE3E9E9E9E9E       DC8 254, 62, 158, 158, 158, 158, 158, 158, 158, 158, 62, 254, 254, 0
   \              9E9E9E9E3EFE
   \              FE00        
   \   00000194   FF0000FF00FE       DC8 255, 0, 0, 255, 0, 254, 254, 62, 158, 158, 158, 158, 62, 158, 158
   \              FE3E9E9E9E9E
   \              3E9E9E      
   \   000001A3   9E3EFEFE00FF       DC8 158, 62, 254, 254, 0, 255, 0, 0, 255, 0, 254, 254, 62, 158, 254
   \              0000FF00FEFE
   \              3E9EFE      
   \   000001B2   FEFE9E1E9E3E       DC8 254, 254, 158, 30, 158, 62, 62, 254, 254, 0, 255, 0, 0, 255, 0, 254
   \              3EFEFE00FF00
   \              00FF00FE    
   \   000001C2   FE1E9E3E7E7E       DC8 254, 30, 158, 62, 126, 126, 254, 254, 254, 158, 62, 254, 254, 0
   \              FEFEFE9E3EFE
   \              FE00        
   \   000001D0   FF00FFFFFF00       DC8 255, 0, 255, 255, 255, 0, 0, 0, 0, 0, 0, 0, 0, 0, 0, 0, 0, 0, 0, 0
   \              000000000000
   \              000000000000
   \              0000        
   \   000001E4   000000000000       DC8 0, 0, 0, 0, 0, 0, 0, 0, 0, 0, 0, 0, 255, 0, 255, 255, 255, 255, 255
   \              000000000000
   \              FF00FFFFFFFF
   \              FF          
   \   000001F7   FFFFFFFFFFFF       DC8 255, 255, 255, 255, 255, 255, 255, 255, 255, 255, 255, 0, 255, 0
   \              FFFFFFFFFF00
   \              FF00        
   \   00000205   7F7F7C797979       DC8 127, 127, 124, 121, 121, 121, 121, 121, 121, 121, 121, 124, 127
   \              79797979797C
   \              7F          
   \   00000212   7F00FF0000FF       DC8 127, 0, 255, 0, 0, 255, 0, 127, 127, 124, 121, 121, 121, 121, 124
   \              007F7F7C7979
   \              79797C      
   \   00000221   7979797C7F7F       DC8 121, 121, 121, 124, 127, 127, 0, 255, 0, 0, 255, 0, 127, 127, 124
   \              00FF0000FF00
   \              7F7F7C      
   \   00000230   79797979797C       DC8 121, 121, 121, 121, 121, 124, 127, 127, 120, 127, 127, 0, 255, 0, 0
   \              7F7F787F7F00
   \              FF0000      
   \   0000023F   FF007F7F787F       DC8 255, 0, 127, 127, 120, 127, 127, 126, 124, 124, 121, 121, 121, 124
   \              7F7E7C7C7979
   \              797C        
   \   0000024D   7F7F00FF00FF       DC8 127, 127, 0, 255, 0, 255, 255, 255, 0, 0, 0, 0, 0, 0, 0, 0, 0, 0, 0
   \              FFFF00000000
   \              000000000000
   \              00          
   \   00000260   000000000000       DC8 0, 0, 0, 0, 0, 0, 0, 0, 0, 0, 0, 0, 0, 0, 0, 0, 255, 0, 255, 255
   \              000000000000
   \              00000000FF00
   \              FFFF        
   \   00000274   FFFFFFFFFFFF       DC8 255, 255, 255, 255, 255, 255, 255, 255, 255, 255, 255, 255, 255
   \              FFFFFFFFFFFF
   \              FF          
   \   00000281   FF00E011D1D1       DC8 255, 0, 224, 17, 209, 209, 209, 209, 209, 209, 209, 209, 209, 209
   \              D1D1D1D1D1D1
   \              D1D1        
   \   0000028F   D1D1D1D111E0       DC8 209, 209, 209, 209, 17, 224, 0, 0, 224, 17, 209, 209, 209, 209, 209
   \              0000E011D1D1
   \              D1D1D1      
   \   0000029E   D1D1D1D1D1D1       DC8 209, 209, 209, 209, 209, 209, 209, 209, 209, 17, 224, 0, 0, 224, 17
   \              D1D1D111E000
   \              00E011      
   \   000002AD   D1D1D1D1D1D1       DC8 209, 209, 209, 209, 209, 209, 209, 209, 209, 209, 209, 209, 209
   \              D1D1D1D1D1D1
   \              D1          
   \   000002BA   D111E00000E0       DC8 209, 17, 224, 0, 0, 224, 17, 209, 209, 209, 209, 209, 209, 209, 209
   \              11D1D1D1D1D1
   \              D1D1D1      
   \   000002C9   D1D1D1D1D1D1       DC8 209, 209, 209, 209, 209, 209, 17, 224, 0, 255, 255, 255, 0, 0, 0, 0
   \              11E000FFFFFF
   \              00000000    
   \   000002D9   000000000000       DC8 0, 0, 0, 0, 0, 0, 0, 0, 0, 0, 0, 0, 0, 0, 0, 0, 0, 0, 0, 0, 0, 0, 0
   \              000000000000
   \              000000000000
   \              0000000000  
   \   000002F0   FFC07F7F7F7F       DC8 255, 192, 127, 127, 127, 127, 127, 127, 127, 127, 127, 127, 127
   \              7F7F7F7F7F7F
   \              7F          
   \   000002FD   7FFFFFFFFF00       DC8 127, 255, 255, 255, 255, 0, 255, 0, 255, 255, 255, 255, 255, 255
   \              FF00FFFFFFFF
   \              FFFF        
   \   0000030B   FFFFFFFFFFFF       DC8 255, 255, 255, 255, 255, 255, 255, 255, 0, 255, 0, 0, 255, 0, 255
   \              FFFF00FF0000
   \              FF00FF      
   \   0000031A   FFC7B33F3F07       DC8 255, 199, 179, 63, 63, 7, 51, 51, 51, 51, 135, 255, 255, 0, 255, 0
   \              3333333387FF
   \              FF00FF00    
   \   0000032A   00FF00FFFF87       DC8 0, 255, 0, 255, 255, 135, 51, 51, 49, 49, 129, 241, 243, 55, 143
   \              3333313181F1
   \              F3378F      
   \   00000339   FFFF00FF0000       DC8 255, 255, 0, 255, 0, 0, 255, 0, 255, 255, 135, 51, 63, 63, 63, 143
   \              FF00FFFF8733
   \              3F3F3F8F    
   \   00000349   3F3F3387FFFF       DC8 63, 63, 51, 135, 255, 255, 0, 255, 0, 255, 255, 255, 0, 0, 0, 0, 0
   \              00FF00FFFFFF
   \              0000000000  
   \   0000035A   000000000000       DC8 0, 0, 0, 0, 0, 0, 0, 0, 0, 0, 0, 0, 0, 0, 0, 0, 0, 0, 0, 0, 0, 0
   \              000000000000
   \              000000000000
   \              00000000    
   \   00000370   FF00FEFFFBF7       DC8 255, 0, 254, 255, 251, 247, 111, 159, 159, 111, 247, 251, 255, 254
   \              6F9F9F6FF7FB
   \              FFFE        
   \   0000037E   00FF7FFFC09F       DC8 0, 255, 127, 255, 192, 159, 160, 175, 175, 175, 175, 175, 175, 175
   \              A0AFAFAFAFAF
   \              AFAF        
   \   0000038C   AFAFAFAFAFAF       DC8 175, 175, 175, 175, 175, 175, 175, 160, 159, 128, 128, 159, 160
   \              AFA09F80809F
   \              A0          
   \   00000399   AFAFAFAFAFAF       DC8 175, 175, 175, 175, 175, 175, 175, 175, 175, 175, 175, 175, 175
   \              AFAFAFAFAFAF
   \              AF          
   \   000003A6   AFA09F80809F       DC8 175, 160, 159, 128, 128, 159, 160, 175, 175, 175, 175, 175, 175
   \              A0AFAFAFAFAF
   \              AF          
   \   000003B3   AFAFAFAFAFAF       DC8 175, 175, 175, 175, 175, 175, 175, 175, 160, 159, 128, 128, 159
   \              AFAFA09F8080
   \              9F          
   \   000003C0   A0AFAFAFAFAF       DC8 160, 175, 175, 175, 175, 175, 175, 175, 175, 175, 175, 175, 175
   \              AFAFAFAFAFAF
   \              AF          
   \   000003CD   AFAFA09FC0FF       DC8 175, 175, 160, 159, 192, 255, 255, 255, 192, 192, 192, 192, 192
   \              FFFFC0C0C0C0
   \              C0          
   \   000003DA   C0C0C0C0C0C0       DC8 192, 192, 192, 192, 192, 192, 192, 192, 192, 192, 192, 192, 192
   \              C0C0C0C0C0C0
   \              C0          
   \   000003E7   C0C0C0C0C0C0       DC8 192, 192, 192, 192, 192, 192, 192, 192, 192, 255, 240, 231, 239
   \              C0C0C0FFF0E7
   \              EF          
   \   000003F4   EDEEEFEFEFEF       DC8 237, 238, 239, 239, 239, 239, 238, 237, 239, 103, 48, 31
   \              EEEDEF67301F

   \                                 In section .rodata, align 4
   \                     `?<Constant {{0, 0, 0, 0, 0, 0, 0, 0, 0, 0, 0, `:
   \   00000000   000000000000       DC8 0, 0, 0, 0, 0, 0, 0, 0, 0, 0, 0, 0, 0, 0, 0, 0, 0, 0, 0, 0, 0, 0, 0
   \              000000000000
   \              000000000000
   \              0000000000  
   \   00000017   000000000000       DC8 0, 0, 0, 0, 0, 0, 0, 0, 255, 1, 253, 5, 5, 5, 5, 5, 5, 5, 5, 5, 5
   \              0000FF01FD05
   \              050505050505
   \              050505      
   \   0000002C   050505050505       DC8 5, 5, 5, 5, 5, 5, 5, 5, 229, 5, 5, 5, 5, 5, 5, 5, 5, 5, 5, 5, 5, 5
   \              0505E5050505
   \              050505050505
   \              05050505    
   \   00000042   050505050505       DC8 5, 5, 5, 5, 5, 5, 5, 5, 5, 5, 5, 5, 5, 5, 5, 5, 5, 5, 5, 5, 5, 5, 5
   \              050505050505
   \              050505050505
   \              0505050505  
   \   00000059   050505050505       DC8 5, 5, 5, 5, 5, 5, 5, 5, 5, 5, 5, 253, 1, 255, 0, 0, 0, 0, 0, 0, 0
   \              0505050505FD
   \              01FF00000000
   \              000000      
   \   0000006E   000000000000       DC8 0, 0, 0, 0, 0, 0, 0, 0, 0, 0, 0, 0, 0, 0, 0, 0, 0, 0, 0, 0, 0, 0, 0
   \              000000000000
   \              000000000000
   \              0000000000  
   \   00000085   000000000000       DC8 0, 0, 0, 0, 0, 0, 0, 0, 0, 0, 0, 0, 0, 0, 0, 0, 0, 0, 0, 0, 0, 0, 0
   \              000000000000
   \              000000000000
   \              0000000000  
   \   0000009C   000000FF00FF       DC8 0, 0, 0, 255, 0, 255, 0, 0, 248, 12, 244, 244, 244, 244, 244, 244
   \              0000F80CF4F4
   \              F4F4F4F4    
   \   000000AC   F4F4F4F40CF8       DC8 244, 244, 244, 244, 12, 248, 0, 0, 255, 0, 0, 0, 0, 0, 0, 0, 0, 0
   \              0000FF000000
   \              000000000000
   \   000000BE   000000000000       DC8 0, 0, 0, 0, 0, 0, 0, 0, 0, 0, 0, 0, 0, 0, 0, 0, 0, 0, 0, 0, 0, 0, 0
   \              000000000000
   \              000000000000
   \              0000000000  
   \   000000D5   000000000000       DC8 0, 0, 0, 0, 0, 0, 0, 0, 0, 0, 0, 0, 0, 0, 0, 255, 0, 255, 0, 0, 0
   \              000000000000
   \              000000FF00FF
   \              000000      
   \   000000EA   000000000000       DC8 0, 0, 0, 0, 0, 0, 0, 0, 0, 0, 0, 0, 0, 0, 0, 0, 0, 0, 0, 0, 0, 0, 0
   \              000000000000
   \              000000000000
   \              0000000000  
   \   00000101   000000000000       DC8 0, 0, 0, 0, 0, 0, 0, 0, 0, 0, 0, 0, 0, 0, 0, 0, 0, 0, 0, 0, 0, 0, 0
   \              000000000000
   \              000000000000
   \              0000000000  
   \   00000118   000000000000       DC8 0, 0, 0, 0, 0, 0, 0, 255, 0, 255, 0, 0, 255, 0, 255, 255, 255, 255
   \              00FF00FF0000
   \              FF00FFFFFFFF
   \   0000012A   FFFFFFFFFFFF       DC8 255, 255, 255, 255, 255, 255, 0, 255, 0, 0, 255, 0, 0, 0, 0, 0, 0
   \              00FF0000FF00
   \              0000000000  
   \   0000013B   000000000000       DC8 0, 0, 0, 0, 0, 0, 0, 0, 0, 0, 0, 0, 0, 0, 0, 0, 0, 0, 0, 0, 0, 0, 0
   \              000000000000
   \              000000000000
   \              0000000000  
   \   00000152   000000000000       DC8 0, 0, 0, 0, 0, 0, 0, 0, 0, 0, 0, 0, 0, 0, 0, 0, 0, 0, 255, 0, 255
   \              000000000000
   \              000000000000
   \              FF00FF      
   \   00000167   000000000000       DC8 0, 0, 0, 0, 0, 0, 0, 0, 0, 0, 0, 0, 0, 0, 0, 0, 0, 0, 0, 0, 0, 0, 0
   \              000000000000
   \              000000000000
   \              0000000000  
   \   0000017E   000000000000       DC8 0, 0, 0, 0, 0, 0, 0, 0, 0, 0, 0, 0, 0, 0, 0, 0, 0, 0, 0, 0, 0, 0, 0
   \              000000000000
   \              000000000000
   \              0000000000  
   \   00000195   000000000000       DC8 0, 0, 0, 0, 0, 0, 0, 0, 0, 0, 255, 0, 255, 0, 0, 255, 0, 255, 255
   \              00000000FF00
   \              FF0000FF00FF
   \              FF          
   \   000001A8   C7BBBBBBBBBB       DC8 199, 187, 187, 187, 187, 187, 199, 255, 0, 255, 0, 0, 255, 0, 0, 0
   \              C7FF00FF0000
   \              FF000000    
   \   000001B8   000000000000       DC8 0, 0, 0, 0, 0, 0, 0, 0, 0, 0, 0, 0, 0, 0, 0, 0, 0, 0, 0, 0, 0, 0, 0
   \              000000000000
   \              000000000000
   \              0000000000  
   \   000001CF   000000000000       DC8 0, 0, 0, 0, 0, 0, 0, 0, 0, 0, 0, 0, 0, 0, 0, 0, 0, 0, 0, 0, 0, 255
   \              000000000000
   \              000000000000
   \              000000FF    
   \   000001E5   00FF00000000       DC8 0, 255, 0, 0, 0, 0, 0, 0, 0, 0, 0, 0, 0, 0, 0, 0, 0, 0, 0, 0, 0, 0
   \              000000000000
   \              000000000000
   \              00000000    
   \   000001FB   000000000000       DC8 0, 0, 0, 0, 0, 0, 0, 0, 0, 0, 0, 0, 0, 0, 0, 0, 0, 0, 0, 0, 0, 0, 0
   \              000000000000
   \              000000000000
   \              0000000000  
   \   00000212   000000000000       DC8 0, 0, 0, 0, 0, 0, 0, 0, 0, 0, 0, 0, 0, 255, 0, 255, 0, 0, 255, 0
   \              000000000000
   \              00FF00FF0000
   \              FF00        
   \   00000226   FFFFDDEDF5F9       DC8 255, 255, 221, 237, 245, 249, 245, 237, 221, 255, 0, 255, 0, 0, 255
   \              F5EDDDFF00FF
   \              0000FF      
   \   00000235   000000000000       DC8 0, 0, 0, 0, 0, 0, 0, 0, 0, 0, 0, 0, 0, 0, 0, 0, 0, 0, 0, 0, 0, 0, 0
   \              000000000000
   \              000000000000
   \              0000000000  
   \   0000024C   000000000000       DC8 0, 0, 0, 0, 0, 0, 0, 0, 0, 0, 0, 0, 0, 0, 0, 0, 0, 0, 0, 0, 0, 0, 0
   \              000000000000
   \              000000000000
   \              0000000000  
   \   00000263   00FF00FF0000       DC8 0, 255, 0, 255, 0, 0, 0, 0, 0, 0, 0, 0, 0, 0, 0, 0, 0, 0, 0, 0, 0
   \              000000000000
   \              000000000000
   \              000000      
   \   00000278   000000000000       DC8 0, 0, 0, 0, 0, 0, 0, 0, 0, 0, 0, 0, 0, 0, 0, 0, 0, 0, 0, 0, 0, 0, 0
   \              000000000000
   \              000000000000
   \              0000000000  
   \   0000028F   000000000000       DC8 0, 0, 0, 0, 0, 0, 0, 0, 0, 0, 0, 0, 0, 0, 0, 0, 255, 0, 255, 0, 0
   \              000000000000
   \              00000000FF00
   \              FF0000      
   \   000002A4   FF00FFFFFFFF       DC8 255, 0, 255, 255, 255, 255, 255, 255, 255, 255, 255, 255, 0, 255, 0
   \              FFFFFFFFFFFF
   \              00FF00      
   \   000002B3   00FF00000000       DC8 0, 255, 0, 0, 0, 0, 0, 0, 0, 0, 0, 0, 0, 0, 0, 0, 0, 0, 0, 0, 0, 0
   \              000000000000
   \              000000000000
   \              00000000    
   \   000002C9   000000000000       DC8 0, 0, 0, 0, 0, 0, 0, 0, 0, 0, 0, 0, 0, 0, 0, 0, 0, 0, 0, 0, 0, 0, 0
   \              000000000000
   \              000000000000
   \              0000000000  
   \   000002E0   00000000FF00       DC8 0, 0, 0, 0, 255, 0, 255, 0, 0, 0, 0, 0, 0, 0, 0, 0, 0, 0, 0, 0, 0
   \              FF0000000000
   \              000000000000
   \              000000      
   \   000002F5   000000000000       DC8 0, 0, 0, 0, 0, 0, 0, 0, 0, 0, 0, 0, 0, 0, 0, 0, 0, 0, 0, 0, 0, 0, 0
   \              000000000000
   \              000000000000
   \              0000000000  
   \   0000030C   000000000000       DC8 0, 0, 0, 0, 0, 0, 0, 0, 0, 0, 0, 0, 0, 0, 0, 0, 0, 0, 0, 255, 0
   \              000000000000
   \              000000000000
   \              00FF00      
   \   00000321   FF00003F605F       DC8 255, 0, 0, 63, 96, 95, 95, 95, 95, 95, 95, 95, 95, 95, 95, 96, 63
   \              5F5F5F5F5F5F
   \              5F5F5F603F  
   \   00000332   0000FF000000       DC8 0, 0, 255, 0, 0, 0, 0, 0, 0, 0, 0, 0, 0, 0, 0, 0, 0, 0, 0, 0, 0, 0
   \              000000000000
   \              000000000000
   \              00000000    
   \   00000348   000000000000       DC8 0, 0, 0, 0, 0, 0, 0, 0, 0, 0, 0, 0, 0, 0, 0, 0, 0, 0, 0, 0, 0, 0, 0
   \              000000000000
   \              000000000000
   \              0000000000  
   \   0000035F   0000000000FF       DC8 0, 0, 0, 0, 0, 255, 0, 255, 0, 0, 0, 0, 0, 0, 0, 0, 0, 0, 0, 0, 0
   \              00FF00000000
   \              000000000000
   \              000000      
   \   00000374   000000000000       DC8 0, 0, 0, 0, 0, 0, 0, 0, 0, 0, 0, 0, 0, 0, 0, 0, 0, 0, 0, 0, 0, 0, 0
   \              000000000000
   \              000000000000
   \              0000000000  
   \   0000038B   000000000000       DC8 0, 0, 0, 0, 0, 0, 0, 0, 0, 0, 0, 0, 0, 0, 0, 0, 0, 0, 0, 0, 255
   \              000000000000
   \              000000000000
   \              0000FF      
   \   000003A0   80BFA0A0A0A0       DC8 128, 191, 160, 160, 160, 160, 160, 160, 160, 160, 160, 160, 160
   \              A0A0A0A0A0A0
   \              A0          
   \   000003AD   A0A0A0A0A0A0       DC8 160, 160, 160, 160, 160, 160, 160, 167, 160, 160, 160, 160, 160
   \              A0A7A0A0A0A0
   \              A0          
   \   000003BA   A0A0A0A0A0A0       DC8 160, 160, 160, 160, 160, 160, 160, 160, 160, 160, 160, 160, 160
   \              A0A0A0A0A0A0
   \              A0          
   \   000003C7   A0A0A0A0A0A0       DC8 160, 160, 160, 160, 160, 160, 160, 160, 160, 160, 160, 160, 160
   \              A0A0A0A0A0A0
   \              A0          
   \   000003D4   A0A0A0A0A0A0       DC8 160, 160, 160, 160, 160, 160, 160, 160, 160, 160, 160, 160, 160
   \              A0A0A0A0A0A0
   \              A0          
   \   000003E1   A0A0A0BF80FF       DC8 160, 160, 160, 191, 128, 255, 0, 0, 0, 0, 0, 0, 0, 0, 0, 0, 0, 0, 0
   \              000000000000
   \              000000000000
   \              00          
   \   000003F4   000000000000       DC8 0, 0, 0, 0, 0, 0, 0, 0, 0, 0, 0, 0
   \              000000000000

   \                                 In section .rodata, align 4
   \   00000000   000000000000       DC32 0H, 0H, 0H, 0H, 0H, 0H, 0H, 0H, 0H, 0H, 0H, 0H, 0H, 0H, 0H
   \              000000000000
   \              000000000000
   \              000000000000
   \              000000000000
   \              000000000000
   \              000000000000
   \              000000000000
   \              000000000000
   \              000000000000
   3175          
   3176          #endif
                       ^
Warning[Pe001]: last line of file ends without a newline

   Maximum stack usage in bytes:

     Function             .cstack
     --------             -------
     Ask_Event                32
     Ask_Paint               168
     Button                   64
     CanvasPixel               8
     CharToStr                16
     CharToStr2               16
     CharToStrData            16
     CheckLCD                  0
     CleanCanvas              16
     CleanCanvasArea          40
     CopyToCanvas              8
     CopyToCanvasPoint        56
     DateToStr                24
     FloToStr                120
     GetTouchPoint            32
     H_line                   32
     HalfCleanCanvas          24
     HexToStr                 16
     Init_LCD_TS               8
     Label                    88
     Label20                  88
     LabelLength              16
     List_Event               64
     List_Paint              312
     Message                  64
     Message_Paint          1080
     Number_Event             40
     Number_Paint           1064
     ReadADC                   8
     ReadTP                   24
     Rectangle                24
     RepaintLCD               24
     ScrollList_Paint       1096
     TimeToStr                24
     V_line                   16
     Zone                     64
     at91ChipSelect            8
     at91DisplayData          16
     at91DisplayOnOff         16
     at91DisplayStartLine     16
     at91DisplayStartPage     16
     at91DisplayYAdress       24
     sIntToStr                32


   Section sizes:

     Function/Label                 Bytes
     --------------                 -----
     RepaintLCD                      108
     ?Subroutine0                     86
     CleanCanvas                      26
     HalfCleanCanvas                  54
     CleanCanvasArea                 208
     CanvasPixel                      60
     CopyToCanvas                     38
     CopyToCanvasPoint               200
     at91DisplayOnOff                 44
     ?Subroutine1                     20
     at91DisplayStartLine             52
     at91DisplayStartPage             52
     at91DisplayYAdress              152
     at91DisplayData                 180
     at91ChipSelect                   56
     ReadTP                          148
     odp                               2
     ReadADC                         168
     Init_LCD_TS                     108
     Arial_7                        1012
     Arial_18                       5200
     Label                           876
     LabelLength                      68
     ?Subroutine2                     10
     Label20                         868
     TimeToStr                        50
     DateToStr                        48
     CharToStr                       104
     CharToStr2                       58
     CharToStrData                    42
     sIntToStr                       300
     HexToStr                         64
     List_Paint                     1180
     List_Event                     1120
     ScrollList_Paint                220
     Ask_Paint                       200
     Ask_Event                       254
     Message                         208
     Number_Paint                    148
     Number_Event                    428
     Message_Paint                   268
     FloToStr                       2668
     H_line                          216
     V_line                          192
     Button                          712
     Zone                            440
     Rectangle                        64
     CheckLCD                        116
     GetTouchPoint                   396
     TouchList                        40
     m_pPio                            4
     TS_pPio                           4
     LCD_Canvas                     1024
     chipSelect                        1
     RealRows                         24
     ??DataTable8                      4
     ??DataTable11                     4
     ??DataTable12                     4
     ?<Constant {{255, 1, 255, 255, 255, 255, 255,
                                     144
     ?<Constant {{254, 1, 1, 1, 1, 1, 1, 1, 1, 1, 1
                                    1040
     ?<Constant " ">                   4
     ?<Constant "">                    4
     ?<Constant {{249, 13, 245, 245, 245, 245, 245,
                                     120
     ?<Constant "Info ">               8
     ?<Constant "Ok ">                 4
     ?<Constant {{254, 255, 3, 249, 5, 245, 245, 24
                                    1024
     ?<Constant {{0, 0, 0, 0, 0, 0, 0, 0, 0, 0, 0,
                                    1024
     ?<Constant {(0.0F), (0.0F), (0.0F), (0.0F), (0
                                      60

 
      2 bytes in section .bss
  1 097 bytes in section .data
  9 644 bytes in section .rodata
 13 090 bytes in section Debug.txt
 
 12 910 bytes of CODE  memory (+ 180 bytes shared)
  9 644 bytes of CONST memory
  1 099 bytes of DATA  memory

Errors: none
Warnings: 35
