###############################################################################
#                                                                             #
# IAR ARM ANSI C/C++ Compiler V5.10.5.372/W32           25/Feb/2012  11:11:03 #
# Copyright 1999-2007 IAR Systems. All rights reserved.                       #
#                                                                             #
#    Cpu mode     =  thumb                                                    #
#    Endian       =  little                                                   #
#    Source file  =  D:\Ceuron\Projekty\S300\S300-program v0.5 -              #
#                    25.02.2012\Framework\Interrupt.c                         #
#    Command line =  "D:\Ceuron\Projekty\S300\S300-program v0.5 -             #
#                    25.02.2012\Framework\Interrupt.c" -D AT91SAM7S256 -D     #
#                    AT91SAM7SEK -D iH -D __ALARM -lC                         #
#                    "D:\Ceuron\Projekty\S300\S300-program v0.5 -             #
#                    25.02.2012\bin\cdc\AT91SAM7SEK\List\" --diag_suppress    #
#                    Pa082 -o "D:\Ceuron\Projekty\S300\S300-program v0.5 -    #
#                    25.02.2012\bin\cdc\AT91SAM7SEK\Obj\" --no_unroll         #
#                    --no_inline --no_tbaa --no_scheduling --debug --endian   #
#                    little --cpu ARM7TDMI -e --fpu None --dlib_config        #
#                    "C:\Program Files\IAR Systems\Embedded Workbench         #
#                    5.0\ARM\INC\DLib_Config_Normal.h" -I                     #
#                    "D:\Ceuron\Projekty\S300\S300-program v0.5 -             #
#                    25.02.2012\lib\AT91SAM7S256\" -I                         #
#                    "D:\Ceuron\Projekty\S300\S300-program v0.5 -             #
#                    25.02.2012\lib\AT91SAM7S64\" -I                          #
#                    "D:\Ceuron\Projekty\S300\S300-program v0.5 -             #
#                    25.02.2012\" -I "D:\Ceuron\Projekty\S300\S300-program    #
#                    v0.5 - 25.02.2012\cdc\" -I "D:\Ceuron\Projekty\S300\S300 #
#                    -program v0.5 - 25.02.2012\core\" -I                     #
#                    "D:\Ceuron\Projekty\S300\S300-program v0.5 -             #
#                    25.02.2012\startup\" -I "D:\Ceuron\Projekty\S300\S300-pr #
#                    ogram v0.5 - 25.02.2012\Framework\" -I                   #
#                    "D:\Ceuron\Projekty\S300\S300-program v0.5 -             #
#                    25.02.2012\Framework\Configuration\" -I "C:\Program      #
#                    Files\IAR Systems\Embedded Workbench 5.0\ARM\INC\"       #
#                    --section .text=Debug.txt --interwork --cpu_mode thumb   #
#                    -Om                                                      #
#    List file    =  D:\Ceuron\Projekty\S300\S300-program v0.5 -              #
#                    25.02.2012\bin\cdc\AT91SAM7SEK\List\Interrupt.lst        #
#    Object file  =  D:\Ceuron\Projekty\S300\S300-program v0.5 -              #
#                    25.02.2012\bin\cdc\AT91SAM7SEK\Obj\Interrupt.o           #
#                                                                             #
#                                                                             #
###############################################################################

D:\Ceuron\Projekty\S300\S300-program v0.5 - 25.02.2012\Framework\Interrupt.c
      1          //****************************************************************************//
      2          //*--------------------------------------------------------------------------*//
      3          //*                                 CEURON                                   *//                     
      4          //*--------------------------------------------------------------------------*//
      5          //*--------------------------------------------------------------------------*//
      6          //*  Nazwa pliku                  : Interrupt.c                              *//
      7          //*  Opis                         : Plik przerwañ                            *//
      8          //*  Autor                        : Pawe³ Narwojsz                           *//
      9          //*  Data utrzorzenia             : 22.02.2012                               *//
     10          //*  Data ostatniej modyfikacji   : --.--.----                               *//
     11          //*--------------------------------------------------------------------------*//
     12          //*                                                                          *//
     13          //*--------------------------------------------------------------------------*//
     14          //* Rejestr zmian  (data - opis):                                            *//
     15          //*                                                                          *//
     16          //*                               Brak zmian                                 *//
     17          //*                                                                          *//
     18          //*__________________________________________________________________________*// 
     19          //****************************************************************************//
     20          //****************************************************************************//
     21          
     22          
     23          #include  "Interrupt.h"

   \                                 In section Debug.txt, align 4
   \   __??Code16?? __code __interwork unsigned int AT91F_AIC_ConfigureIt(AT91PS_AIC, unsigned int, unsigned int, unsigned int, void (*)())
   \                     AT91F_AIC_ConfigureIt:
   \   00000000   F5B4               PUSH     {R0,R2,R4-R7}
   \   00000002   0200               MOVS     R2,R0
   \   00000004   0C00               MOVS     R4,R1
   \   00000006   069E               LDR      R6,[SP, #+24]
   \   00000008   A100               LSLS     R1,R4,#+2
   \   0000000A   5718               ADDS     R7,R2,R1
   \   0000000C   8037               ADDS     R7,R7,#+128
   \   0000000E   3868               LDR      R0,[R7, #+0]
   \   00000010   0125               MOVS     R5,#+1
   \   00000012   A540               LSLS     R5,R5,R4
   \   00000014   2C00               MOVS     R4,R5
   \   00000016   9225               MOVS     R5,#+146
   \   00000018   6D00               LSLS     R5,R5,#+1        ;; #+292
   \   0000001A   5519               ADDS     R5,R2,R5
   \   0000001C   2C60               STR      R4,[R5, #+0]
   \   0000001E   3E60               STR      R6,[R7, #+0]
   \   00000020   019E               LDR      R6,[SP, #+4]
   \   00000022   1E43               ORRS     R6,R6,R3
   \   00000024   5650               STR      R6,[R2, R1]
   \   00000026   6C60               STR      R4,[R5, #+4]
   \   00000028   FCBC               POP      {R2-R7}
   \   0000002A   7047               BX       LR               ;; return

   \                                 In section Debug.txt, align 4
   \   __??Code16?? __code __interwork void AT91F_AIC_EnableIt(AT91PS_AIC, unsigned int)
   \                     AT91F_AIC_EnableIt:
   \   00000000   9022               MOVS     R2,#+144
   \   00000002   5200               LSLS     R2,R2,#+1        ;; #+288
   \   00000004   0123               MOVS     R3,#+1
   \   00000006   8B40               LSLS     R3,R3,R1
   \   00000008   8350               STR      R3,[R0, R2]
   \   0000000A   7047               BX       LR               ;; return

   \                                 In section Debug.txt, align 4
   \   __??Code16?? __code __interwork void AT91F_PIO_InterruptEnable(AT91PS_PIO, unsigned int)
   \                     AT91F_PIO_InterruptEnable:
   \   00000000   0164               STR      R1,[R0, #+64]
   \   00000002   7047               BX       LR               ;; return

   \                                 In section Debug.txt, align 4
   \   __??Code16?? __code __interwork unsigned int AT91F_PIO_GetInterruptStatus(AT91PS_PIO)
   \                     AT91F_PIO_GetInterruptStatus:
   \   00000000   C06C               LDR      R0,[R0, #+76]
   \   00000002   7047               BX       LR               ;; return

   \                                 In section Debug.txt, align 4
   \   __??Code16?? __code __interwork void AT91F_PMC_EnablePeriphClock(AT91PS_PMC, unsigned int)
   \                     AT91F_PMC_EnablePeriphClock:
   \   00000000   0161               STR      R1,[R0, #+16]
   \   00000002   7047               BX       LR               ;; return
     24          
     25             

   \                                 In section Debug.txt, align 4, keep-with-next
     26          void PioInterrupt(void)
     27          {
   \                     PioInterrupt:
   \   00000000   31B5               PUSH     {R0,R4,R5,LR}
     28          
     29              unsigned int status = AT91F_PIO_GetInterruptStatus(PIO_RfIntBUS);
   \   00000002   ....               LDR      R0,??DataTable1  ;; 0xfffff400
   \   00000004   ........           BL       AT91F_PIO_GetInterruptStatus
   \   00000008   0400               MOVS     R4,R0
     30          
     31              static char VBUS_old; 
     32              static char RfIntBUS_old; 
     33          
     34              
     35              if (status & RfIntBUS)
   \   0000000A   8020               MOVS     R0,#+128
   \   0000000C   C000               LSLS     R0,R0,#+3        ;; #+1024
   \   0000000E   0442               TST      R4,R0
   \   00000010   05D0               BEQ      ??PioInterrupt_0
     36              {  
     37                if ((( AT91C_BASE_PIOA->PIO_PDSR) & RfIntBUS)==0)  
   \   00000012   1049               LDR      R1,??PioInterrupt_1  ;; 0xfffff43c
   \   00000014   0968               LDR      R1,[R1, #+0]
   \   00000016   0142               TST      R1,R0
   \   00000018   01D1               BNE      ??PioInterrupt_0
     38                {
     39                   RF_Int();
                          ^
Warning[Pe223]: function "RF_Int" declared implicitly

      static char RfIntBUS_old; 
                  ^
"D:\Ceuron\Projekty\S300\S300-program v0.5 - 25.02.2012\Framework\Interrupt.c",32  Warning[Pe177]: 
          variable "RfIntBUS_old" was declared but never referenced
   \   0000001A   ........           BL       RF_Int
     40                }
     41              }
     42          
     43          
     44              if (status & AT91C_VBUS) 
   \                     ??PioInterrupt_0:
   \   0000001E   0225               MOVS     R5,#+2
   \   00000020   2C42               TST      R4,R5
   \   00000022   13D0               BEQ      ??PioInterrupt_2
     45              {
     46              
     47                if ((!((AT91C_BASE_PIOA->PIO_PDSR) & AT91C_VBUS)) && (VBUS_old==1))
   \   00000024   0B4C               LDR      R4,??PioInterrupt_1  ;; 0xfffff43c
   \   00000026   2068               LDR      R0,[R4, #+0]
   \   00000028   2842               TST      R0,R5
   \   0000002A   07D1               BNE      ??PioInterrupt_3
   \   0000002C   0A48               LDR      R0,??PioInterrupt_1+0x4  ;; ??VBUS_old
   \   0000002E   0178               LDRB     R1,[R0, #+0]
   \   00000030   0129               CMP      R1,#+1
   \   00000032   03D1               BNE      ??PioInterrupt_3
     48                 {
     49                   VBUS_old=0;
   \   00000034   0021               MOVS     R1,#+0
   \   00000036   0170               STRB     R1,[R0, #+0]
     50                   ISR_VBus();
   \   00000038   ........           BL       ISR_VBus
     51                 }
     52                  if ((AT91C_BASE_PIOA->PIO_PDSR) & AT91C_VBUS)
   \                     ??PioInterrupt_3:
   \   0000003C   2068               LDR      R0,[R4, #+0]
   \   0000003E   2842               TST      R0,R5
   \   00000040   04D0               BEQ      ??PioInterrupt_2
     53                 {
     54                   VBUS_old=1;
   \   00000042   0548               LDR      R0,??PioInterrupt_1+0x4  ;; ??VBUS_old
   \   00000044   0121               MOVS     R1,#+1
   \   00000046   0170               STRB     R1,[R0, #+0]
     55                   ISR_VBus();
   \   00000048   ........           BL       ISR_VBus
     56                 }
     57                
     58              }
     59          
     60          
     61          
     62          }
   \                     ??PioInterrupt_2:
   \   0000004C   38BC               POP      {R3-R5}
   \   0000004E   01BC               POP      {R0}
   \   00000050   0047               BX       R0               ;; return
   \   00000052   C046               Nop      
   \                     ??PioInterrupt_1:
   \   00000054   3CF4FFFF           DC32     0xfffff43c
   \   00000058   ........           DC32     ??VBUS_old

   \                                 In section .bss, align 1
   \                     ??VBUS_old:
   \   00000000                      DS8 1
     63          
     64          
     65          
     66          
     67          

   \                                 In section Debug.txt, align 4, keep-with-next
     68          void InitPioInterrupt(void)
     69          {
   \                     InitPioInterrupt:
   \   00000000   10B5               PUSH     {R4,LR}
     70                   //ConfigureRFBus();
     71                  AT91F_PMC_EnablePeriphClock(AT91C_BASE_PMC, 1 << ID_RfIntBUS);
   \   00000002   0421               MOVS     R1,#+4
   \   00000004   0C48               LDR      R0,??InitPioInterrupt_0  ;; 0xfffffc00
   \   00000006   ........           BL       AT91F_PMC_EnablePeriphClock
     72                   
     73                 // Configure and enable the Vbus detection interrupt
     74                  AT91F_AIC_ConfigureIt(AT91C_BASE_AIC,
     75                                    AT91C_ID_PIOA,
     76                                    PIO_INT_PRIOR, //AT91C_AIC_PRIOR_LOWEST, AT91C_AIC_PRIOR_HIGHEST
     77                                    0,//AT91C_AIC_SRCTYPE_INT_HIGH_LEVEL,
     78                                    PioInterrupt);  
   \   0000000A   0C4C               LDR      R4,??InitPioInterrupt_0+0x4  ;; 0xfffff000
   \   0000000C   82B0               SUB      SP,SP,#+8
   \   0000000E   0C48               LDR      R0,??InitPioInterrupt_0+0x8  ;; PioInterrupt
   \   00000010   0090               STR      R0,[SP, #+0]
   \   00000012   0023               MOVS     R3,#+0
   \   00000014   0722               MOVS     R2,#+7
   \   00000016   0221               MOVS     R1,#+2
   \   00000018   2000               MOVS     R0,R4
   \   0000001A   ........           BL       AT91F_AIC_ConfigureIt
   \   0000001E   02B0               ADD      SP,SP,#+8
     79                  
     80                  
     81                  AT91F_PIO_InterruptEnable(AT91C_PIO_VBUS, AT91C_VBUS);
   \   00000020   0221               MOVS     R1,#+2
   \   00000022   ....               LDR      R0,??DataTable1  ;; 0xfffff400
   \   00000024   ........           BL       AT91F_PIO_InterruptEnable
     82              AT91F_AIC_EnableIt(AT91C_BASE_AIC, AT91C_ID_VBUS);
   \   00000028   0221               MOVS     R1,#+2
   \   0000002A   2000               MOVS     R0,R4
   \   0000002C   ........           BL       AT91F_AIC_EnableIt
     83          }
   \   00000030   10BC               POP      {R4}
   \   00000032   01BC               POP      {R0}
   \   00000034   0047               BX       R0               ;; return
   \   00000036   C046               Nop      
   \                     ??InitPioInterrupt_0:
   \   00000038   00FCFFFF           DC32     0xfffffc00
   \   0000003C   00F0FFFF           DC32     0xfffff000
   \   00000040   ........           DC32     PioInterrupt

   \                                 In section Debug.txt, align 4, keep-with-next
   \                     ??DataTable1:
   \   00000000   00F4FFFF           DC32     0xfffff400
     84          
     85          
     86          
     87          
     88          
     89          
     90          

   Maximum stack usage in bytes:

     Function                     .cstack
     --------                     -------
     AT91F_AIC_ConfigureIt            24
     AT91F_AIC_EnableIt                0
     AT91F_PIO_GetInterruptStatus      0
     AT91F_PIO_InterruptEnable         0
     AT91F_PMC_EnablePeriphClock       0
     InitPioInterrupt                 16
     PioInterrupt                     16


   Section sizes:

     Function/Label               Bytes
     --------------               -----
     AT91F_AIC_ConfigureIt          44
     AT91F_AIC_EnableIt             12
     AT91F_PIO_InterruptEnable       4
     AT91F_PIO_GetInterruptStatus    4
     AT91F_PMC_EnablePeriphClock     4
     PioInterrupt                   92
     VBUS_old                        1
     InitPioInterrupt               68
     ??DataTable1                    4

 
   1 byte  in section .bss
 232 bytes in section Debug.txt
 
 164 bytes of CODE memory (+ 68 bytes shared)
   1 byte  of DATA memory

Errors: none
Warnings: 2
