###############################################################################
#                                                                             #
# IAR ARM ELF Linker V5.10.5.372/W32                    21/Jan/2008  13:09:55 #
# Copyright 2007 IAR Systems. All rights reserved.                            #
#                                                                             #
#    Output file  =  D:\Konstrukcje\MSU-101\mMaster\bin\cdc\AT91SAM7SEK\Exe\A #
#                    T91_USB_FW_1_02_CDC.out                                  #
#    Map file     =  D:\Konstrukcje\MSU-101\mMaster\bin\cdc\AT91SAM7SEK\List\ #
#                    AT91_USB_FW_1_02_CDC.map                                 #
#    Command line =  D:\Konstrukcje\MSU-101\mMaster\bin\cdc\AT91SAM7SEK\Obj\A #
#                    pplication_prog.o D:\Konstrukcje\MSU-101\mMaster\bin\cdc #
#                    \AT91SAM7SEK\Obj\Modbus.o D:\Konstrukcje\MSU-101\mMaster #
#                    \bin\cdc\AT91SAM7SEK\Obj\RS_WIN.o                        #
#                    D:\Konstrukcje\MSU-101\mMaster\bin\cdc\AT91SAM7SEK\Obj\S #
#                    creenMENU.o D:\Konstrukcje\MSU-101\mMaster\bin\cdc\AT91S #
#                    AM7SEK\Obj\USART.o D:\Konstrukcje\MSU-101\mMaster\bin\cd #
#                    c\AT91SAM7SEK\Obj\at91stdio.o                            #
#                    D:\Konstrukcje\MSU-101\mMaster\bin\cdc\AT91SAM7SEK\Obj\b #
#                    oard.o D:\Konstrukcje\MSU-101\mMaster\bin\cdc\AT91SAM7SE #
#                    K\Obj\device.o D:\Konstrukcje\MSU-101\mMaster\bin\cdc\AT #
#                    91SAM7SEK\Obj\flash.o D:\Konstrukcje\MSU-101\mMaster\bin #
#                    \cdc\AT91SAM7SEK\Obj\language.o                          #
#                    D:\Konstrukcje\MSU-101\mMaster\bin\cdc\AT91SAM7SEK\Obj\l #
#                    cd.o D:\Konstrukcje\MSU-101\mMaster\bin\cdc\AT91SAM7SEK\ #
#                    Obj\main.o D:\Konstrukcje\MSU-101\mMaster\bin\cdc\AT91SA #
#                    M7SEK\Obj\serial_driver.o D:\Konstrukcje\MSU-101\mMaster #
#                    \bin\cdc\AT91SAM7SEK\Obj\standard.o                      #
#                    D:\Konstrukcje\MSU-101\mMaster\bin\cdc\AT91SAM7SEK\Obj\s #
#                    tartup.o D:\Konstrukcje\MSU-101\mMaster\bin\cdc\AT91SAM7 #
#                    SEK\Obj\udp.o -o D:\Konstrukcje\MSU-101\mMaster\bin\cdc\ #
#                    AT91SAM7SEK\Exe\AT91_USB_FW_1_02_CDC.out --map           #
#                    D:\Konstrukcje\MSU-101\mMaster\bin\cdc\AT91SAM7SEK\List\ #
#                    AT91_USB_FW_1_02_CDC.map --log                           #
#                    initialization,modules,sections,veneers --log_file       #
#                    D:\Konstrukcje\MSU-101\mMaster\bin\cdc\AT91SAM7SEK\List\ #
#                    AT91_USB_FW_1_02_CDC.log --config                        #
#                    D:\Konstrukcje\MSU-101\mMaster\config\at91SAM7S256_NoRem #
#                    ap.icf --semihosting --entry __iar_program_start         #
#                                                                             #
#                                                                             #
###############################################################################

*******************************************************************************
*** RUNTIME MODEL ATTRIBUTES
***

__endian      = little
__thumb_aware = enabled


*******************************************************************************
*** PLACEMENT SUMMARY
***

"A1":  place at mem:0x0 { ro section .intvec };
"P1":  place in [from mem:0x100 to mem:0x3ffff] { ro };
"P2":  place in [from mem:0x200000 to mem:0x20ffff] {
          rw, block CSTACK, block SVC_STACK, block IRQ_STACK, block FIQ_STACK,
          block UND_STACK, block ABT_STACK, block HEAP };

  Section            Kind        Address     Size  Object
  -------            ----        -------     ----  ------
"A1":                                        0x40
  .intvec            ro code  0x00000000     0x40  startup.o [1]
                            - 0x00000040     0x40

"P1":                                     0x103e1
  Debug.txt          ro code  0x00000100   0x4160  ScreenMENU.o [1]
  Veneer             ro code  0x00004260     0x10  - Linker created -
  Debug.txt          ro code  0x00004270   0x3270  lcd.o [1]
  Veneer             ro code  0x000074e0     0x10  - Linker created -
  Veneer             ro code  0x000074f0     0x10  - Linker created -
  Veneer             ro code  0x00007500     0x10  - Linker created -
  Veneer             ro code  0x00007510     0x10  - Linker created -
  .text              ro code  0x00007520    0xfac  xprintffull.o [2]
  Debug.txt          ro code  0x000084cc    0xe98  udp.o [1]
  Debug.txt          ro code  0x00009364    0xc3c  main.o [1]
  Debug.txt          ro code  0x00009fa0    0x7ec  RS_WIN.o [1]
  .rodata            const    0x0000a78c    0x5c0  language.o [1]
  .rodata            const    0x0000ad4c    0x400  ScreenMENU.o [1]
  .rodata            const    0x0000b14c    0x400  ScreenMENU.o [1]
  .rodata            const    0x0000b54c    0x400  lcd.o [1]
  .rodata            const    0x0000b94c    0x400  lcd.o [1]
  .rodata            const    0x0000bd4c    0x400  lcd.o [1]
  Debug.txt          ro code  0x0000c14c    0x3ec  standard.o [1]
  .rodata            const    0x0000c538    0x3e0  lcd.o [1]
  Veneer             ro code  0x0000c918      0x4  - Linker created -
  .text              ro code  0x0000c91c    0x3a8  DblDiv.o [3]
  Veneer             ro code  0x0000ccc4      0x4  - Linker created -
  .text              ro code  0x0000ccc8    0x2b0  DblMul.o [3]
  Veneer             ro code  0x0000cf78      0x4  - Linker created -
  .text              ro code  0x0000cf7c    0x220  DblSub.o [3]
  Debug.txt          ro code  0x0000d19c    0x218  Modbus.o [1]
  Veneer             ro code  0x0000d3b4      0x4  - Linker created -
  .text              ro code  0x0000d3b8    0x1d4  I32DivMod.o [3]
  Veneer             ro code  0x0000d58c      0x4  - Linker created -
  .text              ro code  0x0000d590    0x1c0  FltMul.o [3]
  Veneer             ro code  0x0000d750      0x4  - Linker created -
  .text              ro code  0x0000d754    0x168  DblAdd.o [3]
  Debug.txt          ro code  0x0000d8bc    0x168  USART.o [1]
  .text              ro code  0x0000da24    0x160  FltSub.o [3]
  Debug.txt          ro code  0x0000db84    0x14a  serial_driver.o [1]
  .text              ro code  0x0000dcd0    0x124  I64DivMod.o [3]
  .text              ro code  0x0000ddf4    0x114  xdscale.o [2]
  .rodata            const    0x0000df08    0x100  Modbus.o [1]
  .rodata            const    0x0000e008    0x100  Modbus.o [1]
  Veneer             ro code  0x0000e108      0x4  - Linker created -
  .text              ro code  0x0000e10c     0xdc  FltAdd.o [3]
  text               ro code  0x0000e1e8     0xd4  startup.o [1]
  Veneer             ro code  0x0000e2bc      0x4  - Linker created -
  .text              ro code  0x0000e2c0     0xc4  memcpy.o [3]
  Veneer             ro code  0x0000e384      0x4  - Linker created -
  .text              ro code  0x0000e388     0xbc  DblToFlt.o [3]
  .text              ro code  0x0000e444     0xb8  xdnorm.o [2]
  ICODE              ro code  0x0000e4fc     0xb0  device.o [1]
  Veneer             ro code  0x0000e5ac      0x4  - Linker created -
  .text              ro code  0x0000e5b0     0xa4  FltToS64.o [3]
  Veneer             ro code  0x0000e654      0x4  - Linker created -
  .text              ro code  0x0000e658     0x9c  DblToI32.o [3]
  Debug.txt          ro code  0x0000e6f4     0x9c  main.o [1]
  Veneer             ro code  0x0000e790      0x4  - Linker created -
  .text              ro code  0x0000e794     0x98  memchr.o [3]
  Debug.txt          ro code  0x0000e82c     0x94  board.o [1]
  .rodata            const    0x0000e8c0     0x90  lcd.o [1]
  .rodata            const    0x0000e950     0x78  lcd.o [1]
  Veneer             ro code  0x0000e9c8      0x4  - Linker created -
  .text              ro code  0x0000e9cc     0x74  I32ToDbl.o [3]
  Veneer             ro code  0x0000ea40      0x4  - Linker created -
  .text              ro code  0x0000ea44     0x6c  I64ToFlt.o [3]
  Veneer             ro code  0x0000eab0      0x4  - Linker created -
  .text              ro code  0x0000eab4     0x68  I32ToFlt.o [3]
  Veneer             ro code  0x0000eb1c      0x4  - Linker created -
  .text              ro code  0x0000eb20     0x68  FltToDbl.o [3]
  .text              ro code  0x0000eb88     0x60  DblSubNrml.o [3]
  Veneer             ro code  0x0000ebe8      0x4  - Linker created -
  .text              ro code  0x0000ebec     0x58  FltToS32.o [3]
  Veneer             ro code  0x0000ec44      0x4  - Linker created -
  .text              ro code  0x0000ec48     0x58  strlen.o [3]
  Debug.txt          ro code  0x0000eca0     0x52  udp.o [1]
  Debug.txt          ro code  0x0000ecf4     0x4e  Modbus.o [1]
  Debug.txt          ro code  0x0000ed44     0x4e  USART.o [1]
  Debug.txt          ro code  0x0000ed94     0x4c  device.o [1]
  Debug.txt          ro code  0x0000ede0     0x4a  USART.o [1]
  .text              ro code  0x0000ee2c     0x48  memset48.o [3]
  .rodata            const    0x0000ee74     0x44  serial_driver.o [1]
  .rodata            const    0x0000eeb8     0x40  main.o [1]
  .rodata            const    0x0000eef8     0x40  main.o [1]
  .text              ro code  0x0000ef38     0x40  data_init.o [3]
  Veneer             ro code  0x0000ef78      0x4  - Linker created -
  .text              ro code  0x0000ef7c     0x40  DblCmpLe.o [3]
  Veneer             ro code  0x0000efbc      0x4  - Linker created -
  .text              ro code  0x0000efc0     0x40  DblCmpGe.o [3]
  .text              ro code  0x0000f000     0x40  rle_init.o [3]
  Debug.txt          ro code  0x0000f040     0x3c  USART.o [1]
  Debug.txt          ro code  0x0000f07c     0x3c  main.o [1]
  .rodata            const    0x0000f0b8     0x38  main.o [1]
  .rodata            const    0x0000f0f0     0x38  standard.o [1]
  .rodata            const    0x0000f128     0x38  standard.o [1]
  .rodata            const    0x0000f160     0x38  standard.o [1]
  .rodata            const    0x0000f198     0x38  standard.o [1]
  Debug.txt          ro code  0x0000f1d0     0x36  USART.o [1]
  .rodata            const    0x0000f208     0x34  udp.o [1]
  Debug.txt          ro code  0x0000f23c     0x34  USART.o [1]
  Debug.txt          ro code  0x0000f270     0x34  udp.o [1]
  .rodata            const    0x0000f2a4     0x30  main.o [1]
  Veneer             ro code  0x0000f2d4      0x4  - Linker created -
  .text              ro code  0x0000f2d8     0x30  FltCmpLe.o [3]
  Veneer             ro code  0x0000f308      0x4  - Linker created -
  .text              ro code  0x0000f30c     0x30  FltCmpGe.o [3]
  Debug.txt          ro code  0x0000f33c     0x30  main.o [1]
  .rodata            const    0x0000f36c     0x2c  main.o [1]
  Debug.txt          ro code  0x0000f398     0x2c  udp.o [1]
  Debug.txt          ro code  0x0000f3c4     0x28  at91stdio.o [1]
  Debug.txt          ro code  0x0000f3ec     0x28  serial_driver.o [1]
  Debug.txt          ro code  0x0000f414     0x28  serial_driver.o [1]
  .rodata            const    0x0000f43c     0x24  main.o [1]
  .rodata            const    0x0000f460     0x24  udp.o [1]
  Veneer             ro code  0x0000f484      0x4  - Linker created -
  .text              ro code  0x0000f488     0x24  FltCmpEq.o [3]
  Veneer             ro code  0x0000f4ac      0xc  - Linker created -
  Veneer             ro code  0x0000f4b8      0xc  - Linker created -
  .text              ro code  0x0000f4c4     0x24  cmain.o [3]
  .text              ro code  0x0000f4e8     0x24  FltFlgInv.o [3]
  .text              ro code  0x0000f50c     0x24  div.o [2]
  Debug.txt          ro code  0x0000f530     0x24  udp.o [1]
  Debug.txt          ro code  0x0000f554     0x22  udp.o [1]
  .iar.init_table    const    0x0000f578     0x20  - Linker created -
  .rodata            const    0x0000f598     0x20  USART.o [1]
  .rodata            const    0x0000f5b8     0x20  main.o [1]
  .rodata            const    0x0000f5d8     0x20  main.o [1]
  .text              ro code  0x0000f5f8     0x20  printf.o [2]
  Veneer             ro code  0x0000f618      0x4  - Linker created -
  .text              ro code  0x0000f61c     0x20  strchr.o [3]
  Debug.txt          ro code  0x0000f63c     0x20  flash.o [1]
  Debug.txt          ro code  0x0000f65c     0x1e  serial_driver.o [1]
  .rodata            const    0x0000f67c     0x1c  ScreenMENU.o [1]
  .rodata            const    0x0000f698     0x1c  ScreenMENU.o [1]
  .rodata            const    0x0000f6b4     0x1c  main.o [1]
  .rodata            const    0x0000f6d0     0x1c  main.o [1]
  .rodata            const    0x0000f6ec     0x1c  main.o [1]
  .rodata            const    0x0000f708     0x1c  serial_driver.o [1]
  .rodata            const    0x0000f724     0x1c  serial_driver.o [1]
  .text              ro code  0x0000f740     0x1c  exit.o [4]
  Debug.txt          ro code  0x0000f75c     0x1c  udp.o [1]
  Debug.txt          ro code  0x0000f778     0x1c  udp.o [1]
  .text              ro code  0x0000f794     0x1c  zero_init.o [3]
  .text              ro code  0x0000f7b0     0x1a  xprout.o [2]
  Debug.txt          ro code  0x0000f7cc     0x1a  Modbus.o [1]
  Debug.txt          ro code  0x0000f7e8     0x1a  USART.o [1]
  Debug.txt          ro code  0x0000f804     0x1a  standard.o [1]
  .rodata            const    0x0000f820     0x18  Modbus.o [1]
  .rodata            const    0x0000f838     0x18  main.o [1]
  .rodata            const    0x0000f850     0x18  main.o [1]
  .rodata            const    0x0000f868     0x18  main.o [1]
  .rodata            const    0x0000f880     0x18  main.o [1]
  .rodata            const    0x0000f898     0x18  main.o [1]
  .rodata            const    0x0000f8b0     0x18  udp.o [1]
  .text              ro code  0x0000f8c8     0x18  FltFlgInx.o [3]
  .text              ro code  0x0000f8e0     0x18  FltFlgOvf.o [3]
  .text              ro code  0x0000f8f8     0x18  FltFlgUnf.o [3]
  .text              ro code  0x0000f910     0x18  FltFlgDivZer.o [3]
  Veneer             ro code  0x0000f928      0x4  - Linker created -
  Debug.txt          ro code  0x0000f92c     0x18  RS_WIN.o [1]
  Debug.txt          ro code  0x0000f944     0x18  USART.o [1]
  Debug.txt          ro code  0x0000f95c     0x18  main.o [1]
  Debug.txt          ro code  0x0000f974     0x18  udp.o [1]
  Debug.txt          ro code  0x0000f98c     0x18  udp.o [1]
  Debug.txt          ro code  0x0000f9a4     0x18  udp.o [1]
  Debug.txt          ro code  0x0000f9bc     0x16  standard.o [1]
  .rodata            const    0x0000f9d4     0x14  main.o [1]
  .rodata            const    0x0000f9e8     0x14  main.o [1]
  .rodata            const    0x0000f9fc     0x14  main.o [1]
  .rodata            const    0x0000fa10     0x14  serial_driver.o [1]
  .rodata            const    0x0000fa24     0x14  serial_driver.o [1]
  .text              ro code  0x0000fa38     0x14  call_main.o [2]
  Debug.txt          ro code  0x0000fa4c     0x14  USART.o [1]
  Debug.txt          ro code  0x0000fa60     0x14  USART.o [1]
  Debug.txt          ro code  0x0000fa74     0x14  device.o [1]
  Debug.txt          ro code  0x0000fa88     0x14  main.o [1]
  Debug.txt          ro code  0x0000fa9c     0x14  main.o [1]
  Debug.txt          ro code  0x0000fab0     0x14  main.o [1]
  Debug.txt          ro code  0x0000fac4     0x12  main.o [1]
  Debug.txt          ro code  0x0000fad8     0x12  main.o [1]
  Debug.txt          ro code  0x0000faec     0x12  main.o [1]
  Debug.txt          ro code  0x0000fb00     0x12  main.o [1]
  Debug.txt          ro code  0x0000fb14     0x12  serial_driver.o [1]
  Debug.txt          ro code  0x0000fb28     0x12  standard.o [1]
  Debug.txt          ro code  0x0000fb3c     0x12  standard.o [1]
  Debug.txt          ro code  0x0000fb50     0x12  standard.o [1]
  .rodata            const    0x0000fb64     0x10  ScreenMENU.o [1]
  .rodata            const    0x0000fb74     0x10  lcd.o [1]
  .rodata            const    0x0000fb84     0x10  main.o [1]
  .rodata            const    0x0000fb94     0x10  main.o [1]
  .rodata            const    0x0000fba4     0x10  serial_driver.o [1]
  .rodata            const    0x0000fbb4     0x10  serial_driver.o [1]
  .rodata            const    0x0000fbc4     0x10  serial_driver.o [1]
  .rodata            const    0x0000fbd4     0x10  udp.o [1]
  .rodata            const    0x0000fbe4     0x10  udp.o [1]
  Veneer             ro code  0x0000fbf4      0x4  - Linker created -
  .text              ro code  0x0000fbf8     0x10  cexit.o [3]
  Veneer             ro code  0x0000fc08      0x4  - Linker created -
  Debug.txt          ro code  0x0000fc0c     0x10  RS_WIN.o [1]
  Veneer             ro code  0x0000fc1c      0x4  - Linker created -
  Debug.txt          ro code  0x0000fc20     0x10  main.o [1]
  Debug.txt          ro code  0x0000fc30      0xe  Modbus.o [1]
  Debug.txt          ro code  0x0000fc40      0xe  Modbus.o [1]
  Debug.txt          ro code  0x0000fc50      0xe  USART.o [1]
  Debug.txt          ro code  0x0000fc60      0xe  USART.o [1]
  .rodata            const    0x0000fc70      0xc  ScreenMENU.o [1]
  .rodata            const    0x0000fc7c      0xc  ScreenMENU.o [1]
  .rodata            const    0x0000fc88      0xc  main.o [1]
  .rodata            const    0x0000fc94      0xc  main.o [1]
  .rodata            const    0x0000fca0      0xc  main.o [1]
  .rodata            const    0x0000fcac      0xc  main.o [1]
  .rodata            const    0x0000fcb8      0xc  serial_driver.o [1]
  .rodata            const    0x0000fcc4      0xc  udp.o [1]
  .rodata            const    0x0000fcd0      0xc  udp.o [1]
  .rodata            const    0x0000fcdc      0xc  udp.o [1]
  .rodata            const    0x0000fce8      0xc  udp.o [1]
  .rodata            const    0x0000fcf4      0xc  udp.o [1]
  .text              ro code  0x0000fd00      0xc  exit.o [2]
  Debug.txt          ro code  0x0000fd0c      0xc  USART.o [1]
  Debug.txt          ro code  0x0000fd18      0xa  USART.o [1]
  Debug.txt          ro code  0x0000fd24      0xa  main.o [1]
  .rodata            const    0x0000fd30      0x8  ScreenMENU.o [1]
  .rodata            const    0x0000fd38      0x8  ScreenMENU.o [1]
  .rodata            const    0x0000fd40      0x8  ScreenMENU.o [1]
  .rodata            const    0x0000fd48      0x8  ScreenMENU.o [1]
  .rodata            const    0x0000fd50      0x8  ScreenMENU.o [1]
  .rodata            const    0x0000fd58      0x8  ScreenMENU.o [1]
  .rodata            const    0x0000fd60      0x8  ScreenMENU.o [1]
  .rodata            const    0x0000fd68      0x8  ScreenMENU.o [1]
  .rodata            const    0x0000fd70      0x8  serial_driver.o [1]
  .rodata            const    0x0000fd78      0x8  serial_driver.o [1]
  .rodata            const    0x0000fd80      0x8  standard.o [1]
  .rodata            const    0x0000fd88      0x8  standard.o [1]
  .rodata            const    0x0000fd90      0x8  standard.o [1]
  .rodata            const    0x0000fd98      0x8  standard.o [1]
  .rodata            const    0x0000fda0      0x8  standard.o [1]
  .rodata            const    0x0000fda8      0x8  standard.o [1]
  .rodata            const    0x0000fdb0      0x8  standard.o [1]
  .rodata            const    0x0000fdb8      0x8  standard.o [1]
  .rodata            const    0x0000fdc0      0x8  standard.o [1]
  .rodata            const    0x0000fdc8      0x8  standard.o [1]
  .rodata            const    0x0000fdd0      0x8  standard.o [1]
  .rodata            const    0x0000fdd8      0x8  standard.o [1]
  .rodata            const    0x0000fde0      0x8  standard.o [1]
  .rodata            const    0x0000fde8      0x8  standard.o [1]
  .rodata            const    0x0000fdf0      0x8  standard.o [1]
  .rodata            const    0x0000fdf8      0x8  udp.o [1]
  .rodata            const    0x0000fe00      0x8  udp.o [1]
  .rodata            const    0x0000fe08      0x8  udp.o [1]
  .rodata            const    0x0000fe10      0x8  udp.o [1]
  .rodata            const    0x0000fe18      0x8  udp.o [1]
  .rodata            const    0x0000fe20      0x8  udp.o [1]
  .rodata            const    0x0000fe28      0x8  udp.o [1]
  .rodata            const    0x0000fe30      0x8  xprintffull.o [2]
  Veneer             ro code  0x0000fe38      0x4  - Linker created -
  .text              ro code  0x0000fe3c      0x8  memclr4.o [3]
  Veneer             ro code  0x0000fe44      0x4  - Linker created -
  Debug.txt          ro code  0x0000fe48      0x8  RS_WIN.o [1]
  Debug.txt          ro code  0x0000fe50      0x8  USART.o [1]
  Debug.txt          ro code  0x0000fe58      0x8  USART.o [1]
  Debug.txt          ro code  0x0000fe60      0x8  USART.o [1]
  Debug.txt          ro code  0x0000fe68      0x8  at91stdio.o [1]
  Debug.txt          ro code  0x0000fe70      0x8  at91stdio.o [1]
  Debug.txt          ro code  0x0000fe78      0x8  board.o [1]
  Debug.txt          ro code  0x0000fe80      0x8  standard.o [1]
  Debug.txt          ro code  0x0000fe88      0x6  Modbus.o [1]
  Debug.txt          ro code  0x0000fe90      0x6  Modbus.o [1]
  Debug.txt          ro code  0x0000fe98      0x6  USART.o [1]
  Debug.txt          ro code  0x0000fea0      0x6  USART.o [1]
  Debug.txt          ro code  0x0000fea8      0x6  USART.o [1]
  Debug.txt          ro code  0x0000feb0      0x6  USART.o [1]
  Debug.txt          ro code  0x0000feb8      0x6  USART.o [1]
  Debug.txt          ro code  0x0000fec0      0x6  USART.o [1]
  Debug.txt          ro code  0x0000fec8      0x6  board.o [1]
  Debug.txt          ro code  0x0000fed0      0x6  board.o [1]
  Debug.txt          ro code  0x0000fed8      0x6  main.o [1]
  Debug.txt          ro code  0x0000fee0      0x6  main.o [1]
  Debug.txt          ro code  0x0000fee8      0x6  udp.o [1]
  Debug.txt          ro code  0x0000fef0      0x6  udp.o [1]
  .rodata            const    0x0000fef8      0x4  ScreenMENU.o [1]
  .rodata            const    0x0000fefc      0x4  serial_driver.o [1]
  .text              ro code  0x0000ff00      0x4  IntDivZer.o [3]
  .text              ro code  0x0000ff04      0x4  swi_return.o [4]
  Debug.txt          ro code  0x0000ff08      0x4  USART.o [1]
  Debug.txt          ro code  0x0000ff0c      0x4  USART.o [1]
  Debug.txt          ro code  0x0000ff10      0x4  USART.o [1]
  Debug.txt          ro code  0x0000ff14      0x4  board.o [1]
  Debug.txt          ro code  0x0000ff18      0x4  board.o [1]
  Debug.txt          ro code  0x0000ff1c      0x4  board.o [1]
  Debug.txt          ro code  0x0000ff20      0x4  main.o [1]
  Debug.txt          ro code  0x0000ff24      0x4  main.o [1]
  Debug.txt          ro code  0x0000ff28      0x4  serial_driver.o [1]
  Debug.txt          ro code  0x0000ff2c      0x2  main.o [1]
  Debug.txt          ro code  0x0000ff30      0x2  serial_driver.o [1]
  Debug.txt          ro code  0x0000ff34      0x2  standard.o [1]
  Debug.txt          ro code  0x0000ff38      0x2  standard.o [1]
  Initializer bytes  ro data  0x0000ff3a    0x5a7  <for P2-1>
                            - 0x000104e1  0x103e1

"P2":                                      0xc374
  CSTACK                      0x00200000    0xc00  <Block>
    CSTACK           uninit   0x00200000    0xc00  <Block tail>
  SVC_STACK                   0x00200c00    0x100  <Block>
    SVC_STACK        uninit   0x00200c00    0x100  <Block tail>
  IRQ_STACK                   0x00200d00    0x100  <Block>
    IRQ_STACK        uninit   0x00200d00    0x100  <Block tail>
  FIQ_STACK                   0x00200e00     0x40  <Block>
    FIQ_STACK        uninit   0x00200e00     0x40  <Block tail>
  UND_STACK                   0x00200e40     0x40  <Block>
    UND_STACK        uninit   0x00200e40     0x40  <Block tail>
  ABT_STACK                   0x00200e80     0x40  <Block>
    ABT_STACK        uninit   0x00200e80     0x40  <Block tail>
  .bss               zero     0x00200ec0   0xa250  RS_WIN.o [1]
  .bss               zero     0x0020b110    0x3e8  Modbus.o [1]
  .bss               zero     0x0020b4f8    0x3e8  main.o [1]
  .bss               zero     0x0020b8e0    0x100  USART.o [1]
  .bss               zero     0x0020b9e0     0xfc  Modbus.o [1]
  .bss               zero     0x0020badc     0xf0  ScreenMENU.o [1]
  .bss               zero     0x0020bbcc     0x2c  main.o [1]
  .bss               zero     0x0020bbf8     0x14  main.o [1]
  .bss               zero     0x0020bc0c      0xc  ScreenMENU.o [1]
  .bss               zero     0x0020bc18      0xc  ScreenMENU.o [1]
  .bss               zero     0x0020bc24      0xc  ScreenMENU.o [1]
  .bss               zero     0x0020bc30      0xc  ScreenMENU.o [1]
  .bss               zero     0x0020bc3c      0x8  main.o [1]
  .bss               zero     0x0020bc44      0x4  RS_WIN.o [1]
  .bss               zero     0x0020bc48      0x4  ScreenMENU.o [1]
  .bss               zero     0x0020bc4c      0x4  ScreenMENU.o [1]
  .bss               zero     0x0020bc50      0x4  ScreenMENU.o [1]
  .bss               zero     0x0020bc54      0x4  ScreenMENU.o [1]
  .bss               zero     0x0020bc58      0x4  ScreenMENU.o [1]
  .bss               zero     0x0020bc5c      0x4  ScreenMENU.o [1]
  .bss               zero     0x0020bc60      0x4  ScreenMENU.o [1]
  .bss               zero     0x0020bc64      0x4  main.o [1]
  .bss               zero     0x0020bc68      0x4  main.o [1]
  .bss               zero     0x0020bc6c      0x4  main.o [1]
  .bss               zero     0x0020bc70      0x4  main.o [1]
  .bss               zero     0x0020bc74      0x4  main.o [1]
  .bss               zero     0x0020bc78      0x4  main.o [1]
  .bss               zero     0x0020bc7c      0x4  main.o [1]
  .bss               zero     0x0020bc80      0x4  main.o [1]
  .bss               zero     0x0020bc84      0x4  main.o [1]
  .bss               zero     0x0020bc88      0x4  main.o [1]
  .bss               zero     0x0020bc8c      0x4  main.o [1]
  .bss               zero     0x0020bc90      0x1  Modbus.o [1]
  .bss               zero     0x0020bc91      0x1  Modbus.o [1]
  .bss               zero     0x0020bc92      0x1  Modbus.o [1]
  .bss               zero     0x0020bc93      0x1  ScreenMENU.o [1]
  .bss               zero     0x0020bc94      0x1  ScreenMENU.o [1]
  .bss               zero     0x0020bc95      0x1  ScreenMENU.o [1]
  .bss               zero     0x0020bc96      0x1  ScreenMENU.o [1]
  .bss               zero     0x0020bc97      0x1  ScreenMENU.o [1]
  .bss               zero     0x0020bc98      0x1  ScreenMENU.o [1]
  .bss               zero     0x0020bc99      0x1  ScreenMENU.o [1]
  .bss               zero     0x0020bc9a      0x1  USART.o [1]
  .bss               zero     0x0020bc9b      0x1  main.o [1]
  .bss               zero     0x0020bc9c      0x1  main.o [1]
  .bss               zero     0x0020bc9d      0x1  main.o [1]
  .bss               zero     0x0020bc9e      0x1  main.o [1]
  .bss               zero     0x0020bc9f      0x1  fenv.o [3]
  P2-1                        0x0020bca0    0x6d4  <Init block>
    .data            inited   0x0020bca0    0x400  lcd.o [1]
    .textrw          inited   0x0020c0a0    0x1b4  flash.o [1]
    .data            inited   0x0020c254     0xa0  main.o [1]
    .data            inited   0x0020c2f4     0x10  serial_driver.o [1]
    .data            inited   0x0020c304      0xc  serial_driver.o [1]
    .data            inited   0x0020c310      0x8  main.o [1]
    .data            inited   0x0020c318      0x8  main.o [1]
    .data            inited   0x0020c320      0x4  ScreenMENU.o [1]
    .data            inited   0x0020c324      0x4  ScreenMENU.o [1]
    .data            inited   0x0020c328      0x4  lcd.o [1]
    .data            inited   0x0020c32c      0x4  lcd.o [1]
    .data            inited   0x0020c330      0x4  main.o [1]
    .data            inited   0x0020c334      0x4  main.o [1]
    .data            inited   0x0020c338      0x4  main.o [1]
    .data            inited   0x0020c33c      0x4  main.o [1]
    .data            inited   0x0020c340      0x4  main.o [1]
    .data            inited   0x0020c344      0x4  main.o [1]
    .data            inited   0x0020c348      0x4  main.o [1]
    .data            inited   0x0020c34c      0x4  main.o [1]
    .data            inited   0x0020c350      0x4  main.o [1]
    .data            inited   0x0020c354      0x4  main.o [1]
    .data            inited   0x0020c358      0x4  main.o [1]
    .data            inited   0x0020c35c      0x4  main.o [1]
    .data            inited   0x0020c360      0x4  main.o [1]
    .data            inited   0x0020c364      0x4  main.o [1]
    .data            inited   0x0020c368      0x4  main.o [1]
    .data            inited   0x0020c36c      0x4  main.o [1]
    .data            inited   0x0020c370      0x1  ScreenMENU.o [1]
    .data            inited   0x0020c371      0x1  USART.o [1]
    .data            inited   0x0020c372      0x1  USART.o [1]
    .data            inited   0x0020c373      0x1  main.o [1]
                            - 0x0020c374   0xc374


*******************************************************************************
*** MODULE SUMMARY
***

    Module           ro code  rw code  ro data  rw data
    ------           -------  -------  -------  -------
D:\Konstrukcje\MSU-101\mMaster\bin\cdc\AT91SAM7SEK\Obj: [1]
    Modbus.o             680               536    1 255
    RS_WIN.o           2 076                     41 556
    ScreenMENU.o      16 736             2 222      332
    USART.o              890                34      259
    at91stdio.o           56
    board.o              180
    device.o             272
    flash.o               32      436      437
    language.o                           1 472
    lcd.o             12 912             5 231    1 032
    main.o             3 600               802    1 361
    serial_driver.o      464               273       28
    standard.o         1 118               344
    startup.o            276
    udp.o              4 124               260
    ---------------------------------------------------
    Total:            43 416      436   11 611   45 823

dl4t_tl_in.a: [2]
    call_main.o           20
    div.o                 36
    exit.o                12
    printf.o              32
    xdnorm.o             184
    xdscale.o            276
    xprintffull.o      4 012                 8
    xprout.o              26
    ---------------------------------------------------
    Total:             4 598                 8

rt4t_al.a: [3]
    DblAdd.o             360
    DblCmpGe.o            64
    DblCmpLe.o            64
    DblDiv.o             936
    DblMul.o             688
    DblSub.o             544
    DblSubNrml.o          96
    DblToFlt.o           188
    DblToI32.o           156
    FltAdd.o             220
    FltCmpEq.o            36
    FltCmpGe.o            48
    FltCmpLe.o            48
    FltFlgDivZer.o        24
    FltFlgInv.o           36
    FltFlgInx.o           24
    FltFlgOvf.o           24
    FltFlgUnf.o           24
    FltMul.o             448
    FltSub.o             352
    FltToDbl.o           104
    FltToS32.o            88
    FltToS64.o           164
    I32DivMod.o          468
    I32ToDbl.o           116
    I32ToFlt.o           104
    I64DivMod.o          292
    I64ToFlt.o           108
    IntDivZer.o            4
    cexit.o               16
    cmain.o               36
    data_init.o           64
    fenv.o                                            1
    memchr.o             152
    memclr4.o              8
    memcpy.o             196
    memset48.o            72
    rle_init.o            64
    strchr.o              32
    strlen.o              88
    zero_init.o           28
    ---------------------------------------------------
    Total:             6 584                          1

shs_l.a: [4]
    exit.o                28
    swi_return.o           4
    ---------------------------------------------------
    Total:                32

    Gaps                  70                18
    Linker created       224                32    3 776
-------------------------------------------------------
    Grand Total:      54 924      436   11 669   49 600


*******************************************************************************
*** ENTRY LIST
***

Entry                      Address    Size  Type      Object
-----                      -------    ----  ----      ------
?main                   0x0000f4c4          Code  Gb  cmain.o [3]
ABT_STACK$$Base         0x00200e80           --   Gb  - Linker created -
ABT_STACK$$Limit        0x00200ec0           --   Gb  - Linker created -
ACM_GetLineCoding       0x0000db99    0x20  Code  Lc  serial_driver.o [1]
ACM_SetControlLineState
                        0x0000dbb9    0x14  Code  Lc  serial_driver.o [1]
ACM_SetLineCoding       0x0000db85    0x12  Code  Lc  serial_driver.o [1]
AT91F_AIC_ConfigureIt   0x0000f1d1    0x36  Code  Wk  USART.o [1]
AT91F_AIC_EnableIt      0x0000fd0d     0xc  Code  Wk  USART.o [1]
AT91F_BUTTON_Init       0x0000ed95    0x4c  Code  Wk  device.o [1]
AT91F_DBGU_CfgPIO       0x0000f95d    0x18  Code  Wk  main.o [1]
AT91F_DBGU_CfgPMC       0x0000fa89    0x14  Code  Wk  main.o [1]
AT91F_DBGU_Init         0x0000f07d    0x3c  Code  Wk  main.o [1]
AT91F_LCD_Init          0x0000e6f5    0x9c  Code  Wk  main.o [1]
AT91F_LED_Init          0x0000f33d    0x30  Code  Wk  main.o [1]
AT91F_LED_Off           0x0000fab1    0x14  Code  Wk  main.o [1]
AT91F_LED_On            0x0000fa9d    0x14  Code  Wk  main.o [1]
AT91F_LED_Toggle        0x0000f399    0x2c  Code  Wk  udp.o [1]
AT91F_PDC_DisableRx     0x0000feb1     0x6  Code  Wk  USART.o [1]
AT91F_PDC_DisableTx     0x0000fe59     0x8  Code  Wk  USART.o [1]
AT91F_PDC_EnableRx      0x0000fea9     0x6  Code  Wk  USART.o [1]
AT91F_PDC_EnableTx      0x0000fe51     0x8  Code  Wk  USART.o [1]
AT91F_PDC_IsNextRxEmpty
                        0x0000fc61     0xe  Code  Wk  USART.o [1]
AT91F_PDC_IsNextTxEmpty
                        0x0000fc41     0xe  Code  Wk  Modbus.o [1]
AT91F_PDC_IsRxEmpty     0x0000fc51     0xe  Code  Wk  USART.o [1]
AT91F_PDC_IsTxEmpty     0x0000fc31     0xe  Code  Wk  Modbus.o [1]
AT91F_PDC_Open          0x0000ede1    0x4a  Code  Wk  USART.o [1]
AT91F_PDC_ReceiveFrame  0x0000ed45    0x4e  Code  Wk  USART.o [1]
AT91F_PDC_SendFrame     0x0000ecf5    0x4e  Code  Wk  Modbus.o [1]
AT91F_PDC_SetNextRx     0x0000fe99     0x6  Code  Wk  USART.o [1]
AT91F_PDC_SetNextTx     0x0000fe89     0x6  Code  Wk  Modbus.o [1]
AT91F_PDC_SetRx         0x0000fea1     0x6  Code  Wk  USART.o [1]
AT91F_PDC_SetTx         0x0000fe91     0x6  Code  Wk  Modbus.o [1]
AT91F_PIO_CfgInput      0x0000fed1     0x6  Code  Wk  board.o [1]
AT91F_PIO_CfgOutput     0x0000fec9     0x6  Code  Wk  board.o [1]
AT91F_PIO_CfgPeriph     0x0000fd19     0xa  Code  Wk  USART.o [1]
AT91F_PIO_CfgPullup     0x0000fe79     0x8  Code  Wk  board.o [1]
AT91F_PIO_ClearOutput   0x0000ff1d     0x4  Code  Wk  board.o [1]
AT91F_PIO_GetInput      0x0000ff15     0x4  Code  Wk  board.o [1]
AT91F_PIO_GetInterruptStatus
                        0x0000ff25     0x4  Code  Wk  main.o [1]
AT91F_PIO_InterruptEnable
                        0x0000ff21     0x4  Code  Wk  main.o [1]
AT91F_PIO_SetOutput     0x0000ff19     0x4  Code  Wk  board.o [1]
AT91F_PMC_EnablePeriphClock
                        0x0000ff09     0x4  Code  Wk  USART.o [1]
AT91F_US0_CfgPIO        0x0000f945    0x18  Code  Wk  USART.o [1]
AT91F_US0_CfgPMC        0x0000fa61    0x14  Code  Wk  USART.o [1]
AT91F_US_Baudrate       0x0000f041    0x3c  Code  Wk  USART.o [1]
AT91F_US_Configure      0x0000f23d    0x34  Code  Wk  USART.o [1]
AT91F_US_EnableIt       0x0000ff11     0x4  Code  Wk  USART.o [1]
AT91F_US_EnableRx       0x0000feb9     0x6  Code  Wk  USART.o [1]
AT91F_US_EnableTx       0x0000fec1     0x6  Code  Wk  USART.o [1]
AT91F_US_GetChar        0x0000fe61     0x8  Code  Wk  USART.o [1]
AT91F_US_PutChar        0x0000fe71     0x8  Code  Wk  at91stdio.o [1]
AT91F_US_ReceiveFrame   0x0000f7e9    0x1a  Code  Wk  USART.o [1]
AT91F_US_SendFrame      0x0000f7cd    0x1a  Code  Wk  Modbus.o [1]
AT91F_US_SetBaudrate    0x0000fa4d    0x14  Code  Wk  USART.o [1]
AT91F_US_SetTimeguard   0x0000ff0d     0x4  Code  Wk  USART.o [1]
AT91F_US_TxReady        0x0000fe69     0x8  Code  Wk  at91stdio.o [1]
AddToMonitoring         0x00004129   0x138  Code  Gb  ScreenMENU.o [1]
AnaVarToMaster          0x0000a6e9    0xa4  Code  Gb  RS_WIN.o [1]
Ans_ZD_MODBUS_0         0x0020bc92     0x1  Data  Gb  Modbus.o [1]
Arial_7                 0x0000c538   0x3e0  Data  Gb  lcd.o [1]
Ask_Event               0x00005c71   0x1b8  Code  Gb  lcd.o [1]
Ask_Paint               0x00005bc5    0xac  Code  Gb  lcd.o [1]
BRD_ConfigurePullUp     0x0000e875    0x1a  Code  Gb  board.o [1]
BRD_ConfigureVBus       0x0000e891    0x28  Code  Gb  board.o [1]
BRD_ConnectPullUp       0x0000e84d    0x12  Code  Gb  board.o [1]
BRD_DisconnectPullUp    0x0000e861    0x12  Code  Gb  board.o [1]
BRD_IsVBusConnected     0x0000e82d    0x20  Code  Gb  board.o [1]
BRD_SetFlashWaitStates  0x0000fa75    0x14  Code  Wk  device.o [1]
BinVarToMaster          0x0000a699    0x50  Code  Gb  RS_WIN.o [1]
Buff_RX_TMP             0x0020b9e0    0xfc  Data  Gb  Modbus.o [1]
Button                  0x0000720d   0x2d4  Code  Gb  lcd.o [1]
CBK_Init                0x0000940d    0x74  Code  Lc  main.o [1]
CBK_NewRequest          0x000094c1     0xe  Code  Lc  main.o [1]
CBK_Resume              0x0000949d    0x22  Code  Lc  main.o [1]
CBK_Suspend             0x00009481    0x1a  Code  Lc  main.o [1]
CSTACK$$Base            0x00200000           --   Gb  - Linker created -
CSTACK$$Limit           0x00200c00           --   Gb  - Linker created -
CanvasPixel             0x00004415    0x8c  Code  Gb  lcd.o [1]
CharToStr               0x000051c1    0xa4  Code  Gb  lcd.o [1]
CheckSum                0x0000a5b1    0x32  Code  Gb  RS_WIN.o [1]
CleanCanvas             0x000042ed    0x28  Code  Gb  lcd.o [1]
CleanCanvasArea         0x00004315   0x100  Code  Gb  lcd.o [1]
CleanFlash              0x0020c179    0xd2  Code  Gb  flash.o [1]
CleanReg                0x00009cad    0xf8  Code  Gb  main.o [1]
CleanReg_Event          0x00002095    0x70  Code  Gb  ScreenMENU.o [1]
Convers_DW_B            0x0020bc44     0x4  Data  Gb  RS_WIN.o [1]
CopyToCanvas            0x000044a1    0x2e  Code  Gb  lcd.o [1]
CopyToCanvasPoint       0x000044d5    0xf8  Code  Gb  lcd.o [1]
Current_ZD_MODBUS_0     0x0020bc90     0x1  Data  Gb  Modbus.o [1]
CyklMonit               0x0020bc95     0x1  Data  Gb  ScreenMENU.o [1]
CyklPerSek              0x0020bc84     0x4  Data  Gb  main.o [1]
CyklPerSekCount         0x0020bc80     0x4  Data  Gb  main.o [1]
DEV_Resume              0x0000e54d    0x58  Code  Gb  device.o [1]
DateToStr               0x00005111    0xb0  Code  Gb  lcd.o [1]
Delay                   0x00009531    0x1c  Code  Gb  main.o [1]
ERR_ZD_MODBUS_0         0x0020bc91     0x1  Data  Gb  Modbus.o [1]
FIQ_STACK$$Base         0x00200e00           --   Gb  - Linker created -
FIQ_STACK$$Limit        0x00200e40           --   Gb  - Linker created -
FlashProgramOfset       0x0020c330     0x4  Data  Gb  main.o [1]
FlashProgramReserveOfset
                        0x0020c334     0x4  Data  Gb  main.o [1]
FloToStr                0x000061c9   0xda4  Code  Gb  lcd.o [1]
Forse_Event             0x00003b5d   0x5cc  Code  Gb  ScreenMENU.o [1]
Forse_Paint             0x00003a8d    0xd0  Code  Gb  ScreenMENU.o [1]
ForwardUSB2Serial       0x000094d1    0x5c  Code  Lc  main.o [1]
ForwardUSB2Serialferst  0x0020bc9e     0x1  Data  Gb  main.o [1]
H_line                  0x00006f6d   0x11c  Code  Gb  lcd.o [1]
HexToStr                0x00005265    0x62  Code  Gb  lcd.o [1]
IO_Side_Event           0x00002a2d    0xac  Code  Gb  ScreenMENU.o [1]
IO_Side_Paint           0x00002ad9   0x35c  Code  Gb  ScreenMENU.o [1]
IRQ_STACK$$Base         0x00200d00           --   Gb  - Linker created -
IRQ_STACK$$Limit        0x00200e00           --   Gb  - Linker created -
ISR_Driver              0x00009365     0xe  Code  Gb  main.o [1]
ISR_VBus                0x00009375    0x90  Code  Gb  main.o [1]
Info_Event              0x00001659    0x54  Code  Gb  ScreenMENU.o [1]
Info_Paint              0x0000146d   0x180  Code  Gb  ScreenMENU.o [1]
Info_Refresh            0x000015ed    0x6c  Code  Gb  ScreenMENU.o [1]
InitFlash               0x0000f63d    0x20  Code  Gb  flash.o [1]
InitFramework           0x0000954d    0xa4  Code  Gb  main.o [1]
Init_LCD_TS             0x00004c05    0x64  Code  Gb  lcd.o [1]
InsertForse             0x0020bc30     0xc  Data  Gb  ScreenMENU.o [1]
InsertNewPass1          0x0020bc24     0xc  Data  Gb  ScreenMENU.o [1]
InsertOldPass1          0x0020bc18     0xc  Data  Gb  ScreenMENU.o [1]
InsertPass1             0x0020bc0c     0xc  Data  Gb  ScreenMENU.o [1]
LCD_Canvas              0x0020bca0   0x400  Data  Gb  lcd.o [1]
Label                   0x00004c69   0x3f8  Code  Gb  lcd.o [1]
Label_move              0x0020bc94     0x1  Data  Gb  ScreenMENU.o [1]
LiczOds                 0x0020bc7c     0x4  Data  Gb  main.o [1]
List_Event              0x00005711   0x3da  Code  Gb  lcd.o [1]
List_Paint              0x000052c9   0x446  Code  Gb  lcd.o [1]
MainSide_Event          0x000005e5    0xbc  Code  Gb  ScreenMENU.o [1]
MainSide_Paint          0x00000591    0x54  Code  Gb  ScreenMENU.o [1]
MainSide_Refresh        0x000006a1   0x188  Code  Gb  ScreenMENU.o [1]
MainSide_puls           0x0020bc93     0x1  Data  Gb  ScreenMENU.o [1]
MasterToAnaVar          0x0000a5e5    0xb0  Code  Gb  RS_WIN.o [1]
MasterToBinVar          0x0000a695     0x2  Code  Gb  RS_WIN.o [1]
MenuAccessPass_Event    0x00000ddd   0x260  Code  Gb  ScreenMENU.o [1]
MenuAccessPass_Paint    0x00000d29    0xb4  Code  Gb  ScreenMENU.o [1]
MenuAccess_Event        0x00000c59    0xd0  Code  Gb  ScreenMENU.o [1]
MenuAccess_Paint        0x00000bbd    0x9c  Code  Gb  ScreenMENU.o [1]
MenuLevel               0x0020bc48     0x4  Data  Gb  ScreenMENU.o [1]
MenuLevel_old           0x0020bc88     0x4  Data  Gb  main.o [1]
MenuPaint               0x00000101   0x228  Code  Gb  ScreenMENU.o [1]
MenuRefresh             0x0000051d    0x74  Code  Gb  ScreenMENU.o [1]
MenuSide_Event          0x00000b31    0x8c  Code  Gb  ScreenMENU.o [1]
MenuSide_Paint          0x00000a89    0xa8  Code  Gb  ScreenMENU.o [1]
Message_Paint           0x000060cd    0xfc  Code  Gb  lcd.o [1]
ModBus_MASTER_Return    0x0000d349    0x6c  Code  Gb  Modbus.o [1]
ModBus_MASTER_TX        0x0000d1f1   0x158  Code  Gb  Modbus.o [1]
Monit_Size_scroll       0x0020bc60     0x4  Data  Gb  ScreenMENU.o [1]
MonitoringSide_Event    0x00003919    0xb4  Code  Gb  ScreenMENU.o [1]
MonitoringSide_Paint    0x0000356d   0x3ac  Code  Gb  ScreenMENU.o [1]
Monitoring_array        0x0020badc    0xf0  Data  Gb  ScreenMENU.o [1]
Number_Event            0x00005ec1   0x20a  Code  Gb  lcd.o [1]
Number_Paint            0x00005e29    0x98  Code  Gb  lcd.o [1]
Options_Event           0x00001729    0x6c  Code  Gb  ScreenMENU.o [1]
Options_Paint           0x000016ad    0x7c  Code  Gb  ScreenMENU.o [1]
ReadADC                 0x00004b81    0x84  Code  Gb  lcd.o [1]
ReadTP                  0x00004a45   0x13c  Code  Gb  lcd.o [1]
Region$$Table$$Base     0x0000f578          Data  Gb  - Linker created -
Region$$Table$$Limit    0x0000f598          Data  Gb  - Linker created -
Rej_poz                 0x0020bc5c     0x4  Data  Gb  ScreenMENU.o [1]
Rejestrator_Event       0x00001325   0x148  Code  Gb  ScreenMENU.o [1]
Rejestrator_Paint       0x0000103d   0x2e8  Code  Gb  ScreenMENU.o [1]
RepaintLCD              0x00004271    0x7c  Code  Gb  lcd.o [1]
Restart_Event           0x00001efd    0x70  Code  Gb  ScreenMENU.o [1]
SER_Init                0x0000dc81    0x2c  Code  Gb  serial_driver.o [1]
SER_RequestHandler      0x0000dbcd    0xb4  Code  Gb  serial_driver.o [1]
SER_Write               0x0000dcad    0x22  Code  Gb  serial_driver.o [1]
STD_ConfigureEndpoints  0x0000c14d    0x3a  Code  Lc  standard.o [1]
STD_GetConfiguration    0x0000c1a1    0x34  Code  Lc  standard.o [1]
STD_GetConfigurationDescriptor
                        0x0000c275    0x3a  Code  Lc  standard.o [1]
STD_GetDeviceDescriptor
                        0x0000c249    0x2a  Code  Lc  standard.o [1]
STD_GetDeviceStatus     0x0000c1d5    0x44  Code  Lc  standard.o [1]
STD_GetEndpointStatus   0x0000c219    0x2e  Code  Lc  standard.o [1]
STD_GetStringDescriptor
                        0x0000c2b1    0x46  Code  Lc  standard.o [1]
STD_RequestHandler      0x0000c2f9   0x240  Code  Gb  standard.o [1]
STD_SetConfiguration    0x0000c189    0x18  Code  Lc  standard.o [1]
SVC_STACK$$Base         0x00200c00           --   Gb  - Linker created -
SVC_STACK$$Limit        0x00200d00           --   Gb  - Linker created -
SaveToReg               0x00009c01    0xac  Code  Gb  main.o [1]
ScreenEvent             0x0000035d   0x1b8  Code  Gb  ScreenMENU.o [1]
ScrollList_Paint        0x00005aed    0xd8  Code  Gb  lcd.o [1]
ScrollMenu_Event        0x00003231    0xb4  Code  Gb  ScreenMENU.o [1]
ScrollMenu_Paint        0x000030cd   0x164  Code  Gb  ScreenMENU.o [1]
ScrollMenu_Paint_exist  0x0020c324     0x4  Data  Gb  ScreenMENU.o [1]
ScrollMenu_poz          0x0020c320     0x4  Data  Gb  ScreenMENU.o [1]
Scroll_Event            0x00000829   0x260  Code  Gb  ScreenMENU.o [1]
Scroll_List_select      0x0020bc96     0x1  Data  Gb  ScreenMENU.o [1]
Scroll_list_selsct_paint
                        0x000039cd    0xc0  Code  Gb  ScreenMENU.o [1]
SendModbusEnable        0x0020c372     0x1  Data  Gb  USART.o [1]
SetWordToBytes          0x0000d1e1     0xe  Code  Gb  Modbus.o [1]
SetupLang_Event         0x000018cd    0x8c  Code  Gb  ScreenMENU.o [1]
SetupLang_Paint         0x00001869    0x64  Code  Gb  ScreenMENU.o [1]
SetupNewPass_Event      0x00001d29   0x1d4  Code  Gb  ScreenMENU.o [1]
SetupNewPass_Paint      0x00001c91    0x98  Code  Gb  ScreenMENU.o [1]
SetupOldPass_Event      0x00001af5   0x19c  Code  Gb  ScreenMENU.o [1]
SetupOldPass_Paint      0x00001a5d    0x98  Code  Gb  ScreenMENU.o [1]
SetupPass_Event         0x000019c1    0x9c  Code  Gb  ScreenMENU.o [1]
SetupPass_Paint         0x00001959    0x68  Code  Gb  ScreenMENU.o [1]
SetupTimeCarPoz         0x0020c370     0x1  Data  Gb  ScreenMENU.o [1]
SetupTime_Event         0x0000253d   0x3fc  Code  Gb  ScreenMENU.o [1]
SetupTime_Paint         0x00002105   0x2c8  Code  Gb  ScreenMENU.o [1]
SetupTime_Refresh       0x000023cd   0x170  Code  Gb  ScreenMENU.o [1]
Setup_Event             0x000017fd    0x6c  Code  Gb  ScreenMENU.o [1]
Setup_Paint             0x00001795    0x68  Code  Gb  ScreenMENU.o [1]
SleepModTime            0x0020bc98     0x1  Data  Gb  ScreenMENU.o [1]
Speech                  0x0000a78c   0x5c0  Data  Gb  language.o [1]
Suw_poz_IO              0x0020bc4c     0x4  Data  Gb  ScreenMENU.o [1]
Suw_poz_analog          0x0020bc50     0x4  Data  Gb  ScreenMENU.o [1]
Suw_poz_dwustan         0x0020bc54     0x4  Data  Gb  ScreenMENU.o [1]
Suw_poz_monit           0x0020bc58     0x4  Data  Gb  ScreenMENU.o [1]
Sygnal_Event            0x000029b9    0x74  Code  Gb  ScreenMENU.o [1]
Sygnal_Paint            0x00002939    0x80  Code  Gb  ScreenMENU.o [1]
TS_pPio                 0x0020c32c     0x4  Data  Gb  lcd.o [1]
TimeToStr               0x00005061    0xb0  Code  Gb  lcd.o [1]
Timer_0_ISR             0x00009605   0x23c  Code  Gb  main.o [1]
Timer_0_Setup           0x00009841    0xbc  Code  Gb  main.o [1]
Timer_1_ISR             0x000098fd   0x10c  Code  Gb  main.o [1]
Timer_1_Setup           0x00009a09    0xbc  Code  Gb  main.o [1]
Timer_2_ISR             0x00009ac5    0x80  Code  Gb  main.o [1]
Timer_2_Setup           0x00009b45    0xbc  Code  Gb  main.o [1]
UDP_Attach              0x000090d1   0x128  Code  Gb  udp.o [1]
UDP_ClearRXFlag         0x00008555    0x72  Code  Lc  udp.o [1]
UDP_ConfigureEndpoint   0x00008ae5   0x12c  Code  Gb  udp.o [1]
UDP_Connect             0x000092bd    0x10  Code  Gb  udp.o [1]
UDP_DisableEndpoints    0x00008701    0x34  Code  Lc  udp.o [1]
UDP_DisableMCK          0x0000f98d    0x18  Code  Wk  udp.o [1]
UDP_DisableTransceiver  0x0000f531    0x24  Code  Wk  udp.o [1]
UDP_DisableUDPCK        0x0000f779    0x1c  Code  Wk  udp.o [1]
UDP_Disconnect          0x000092cd    0x20  Code  Gb  udp.o [1]
UDP_EnableMCK           0x0000f975    0x18  Code  Wk  udp.o [1]
UDP_EnableTransceiver   0x0000f9a5    0x18  Code  Wk  udp.o [1]
UDP_EnableUDPCK         0x0000f75d    0x1c  Code  Wk  udp.o [1]
UDP_EndOfTransfer       0x0000f271    0x34  Code  Wk  udp.o [1]
UDP_EndpointHandler     0x00008735   0x3b0  Code  Lc  udp.o [1]
UDP_GetDriverInterface  0x0000fef1     0x6  Code  Wk  udp.o [1]
UDP_GetPayload          0x00008621    0x6a  Code  Lc  udp.o [1]
UDP_GetSetup            0x0000868d    0x2a  Code  Lc  udp.o [1]
UDP_Halt                0x00008ee9   0x120  Code  Gb  udp.o [1]
UDP_Handler             0x00008c11   0x1bc  Code  Gb  udp.o [1]
UDP_Init                0x000092ed    0x78  Code  Gb  udp.o [1]
UDP_Read                0x00008e95    0x54  Code  Gb  udp.o [1]
UDP_RemoteWakeUp        0x00009091    0x40  Code  Gb  udp.o [1]
UDP_ResetEndpoints      0x000086b9    0x48  Code  Lc  udp.o [1]
UDP_SetAddress          0x000091f9    0x68  Code  Gb  udp.o [1]
UDP_SetConfiguration    0x00009261    0x5c  Code  Gb  udp.o [1]
UDP_Stall               0x00009009    0x88  Code  Gb  udp.o [1]
UDP_Write               0x00008dcd    0xc8  Code  Gb  udp.o [1]
UDP_WritePayload        0x000085c9    0x56  Code  Lc  udp.o [1]
UND_STACK$$Base         0x00200e40           --   Gb  - Linker created -
UND_STACK$$Limit        0x00200e80           --   Gb  - Linker created -
US0_Buffer              0x0020b8e0   0x100  Data  Lc  USART.o [1]
US0_Comunication_TIMEOUT
                        0x0020c371     0x1  Data  Gb  USART.o [1]
US0_Counter             0x0020bc8c     0x4  Data  Gb  main.o [1]
USB_Attach              0x0000fad9    0x12  Code  Wk  main.o [1]
USB_ConfigureEndpoint   0x0000fb51    0x12  Code  Wk  standard.o [1]
USB_Connect             0x0000faed    0x12  Code  Wk  main.o [1]
USB_Disconnect          0x0000fb01    0x12  Code  Wk  main.o [1]
USB_GetDriverID         0x0000fee1     0x6  Code  Wk  main.o [1]
USB_GetDriverInterface  0x0000fed9     0x6  Code  Wk  main.o [1]
USB_GetDriverPMC        0x0000fee9     0x6  Code  Wk  udp.o [1]
USB_GetEndpoint         0x0000f555    0x22  Code  Wk  udp.o [1]
USB_GetSetup            0x0000ff29     0x4  Code  Wk  serial_driver.o [1]
USB_GetState            0x0000fd25     0xa  Code  Wk  main.o [1]
USB_Halt                0x0000f805    0x1a  Code  Wk  standard.o [1]
USB_Handler             0x0000fac5    0x12  Code  Wk  main.o [1]
USB_Init                0x0000fb15    0x12  Code  Wk  serial_driver.o [1]
USB_InitCallback        0x000084cd    0x18  Code  Lc  udp.o [1]
USB_NewRequestCallback  0x0000852d    0x18  Code  Lc  udp.o [1]
USB_Read                0x0000f415    0x28  Code  Wk  serial_driver.o [1]
USB_ResetCallback       0x000084e5    0x18  Code  Lc  udp.o [1]
USB_ResumeCallback      0x00008515    0x18  Code  Lc  udp.o [1]
USB_SendZLP0            0x0000f65d    0x1e  Code  Wk  serial_driver.o [1]
USB_SetAddress          0x0000fb29    0x12  Code  Wk  standard.o [1]
USB_SetConfiguration    0x0000fb3d    0x12  Code  Wk  standard.o [1]
USB_Stall               0x0000f9bd    0x16  Code  Wk  standard.o [1]
USB_StartOfFrameCallback
                        0x00008545    0x10  Code  Lc  udp.o [1]
USB_SuspendCallback     0x000084fd    0x18  Code  Lc  udp.o [1]
USB_Write               0x0000f3ed    0x28  Code  Wk  serial_driver.o [1]
US_init                 0x0000d8bd    0xa8  Code  Gb  USART.o [1]
UnforceOne_Event        0x00002019    0x7c  Code  Gb  ScreenMENU.o [1]
Unforce_Event           0x00001f6d    0xac  Code  Gb  ScreenMENU.o [1]
Usart0_handler          0x0000d965    0xb8  Code  Gb  USART.o [1]
V_line                  0x00007089   0x184  Code  Gb  lcd.o [1]
XY_Tab                  0x0020bbcc    0x2c  Data  Gb  main.o [1]
X_down                  0x0020c33c     0x4  Data  Gb  main.o [1]
X_down_old              0x0020c368     0x4  Data  Gb  main.o [1]
X_up                    0x0020c344     0x4  Data  Gb  main.o [1]
X_up_old                0x0020c360     0x4  Data  Gb  main.o [1]
Y_down                  0x0020c338     0x4  Data  Gb  main.o [1]
Y_down_old              0x0020c36c     0x4  Data  Gb  main.o [1]
Y_up                    0x0020c340     0x4  Data  Gb  main.o [1]
Y_up_old                0x0020c364     0x4  Data  Gb  main.o [1]
ZD_MODBUS_0             0x0020b110   0x3e8  Data  Gb  Modbus.o [1]
ZM_AnalogSide_Event     0x000032e5    0xb0  Code  Gb  ScreenMENU.o [1]
ZM_AnalogSide_Paint     0x00003395   0x1d8  Code  Gb  ScreenMENU.o [1]
ZM_DwustanSide_Event    0x00002e35    0xb0  Code  Gb  ScreenMENU.o [1]
ZM_DwustanSide_Paint    0x00002ee5   0x1e8  Code  Gb  ScreenMENU.o [1]
_GenldDefault           0x000081cd   0x2c0  Code  Lc  xprintffull.o [2]
_LdtobDefault           0x00007d19   0x4b4  Code  Lc  xprintffull.o [2]
_LitobDefault           0x00007c05   0x114  Code  Lc  xprintffull.o [2]
_Printf                 0x00007521   0x6e2  Code  Gb  xprintffull.o [2]
_Prout                  0x0000f7b1    0x1a  Code  Gb  xprout.o [2]
_PutcharsDefault        0x0000848d    0x40  Code  Lc  xprintffull.o [2]
__FloatingPointEnvironment
                        0x0020bc9f     0x1  Data  Gb  fenv.o [3]
__aeabi_cdcmple         0x0000ef7c          Code  Gb  DblCmpLe.o [3]
__aeabi_cdrcmple        0x0000efc0          Code  Gb  DblCmpGe.o [3]
__aeabi_cfcmpeq         0x0000f488          Code  Gb  FltCmpEq.o [3]
__aeabi_cfcmple         0x0000f2d8          Code  Gb  FltCmpLe.o [3]
__aeabi_cfrcmple        0x0000f30c          Code  Gb  FltCmpGe.o [3]
__aeabi_d2f             0x0000e388          Code  Gb  DblToFlt.o [3]
__aeabi_d2iz            0x0000e658          Code  Gb  DblToI32.o [3]
__aeabi_d2uiz           0x0000e6b8          Code  Gb  DblToI32.o [3]
__aeabi_dadd            0x0000d754          Code  Gb  DblAdd.o [3]
__aeabi_ddiv            0x0000c91c          Code  Gb  DblDiv.o [3]
__aeabi_dmul            0x0000ccc8          Code  Gb  DblMul.o [3]
__aeabi_dsub            0x0000cf7c          Code  Gb  DblSub.o [3]
__aeabi_f2d             0x0000eb20          Code  Gb  FltToDbl.o [3]
__aeabi_f2iz            0x0000ebec          Code  Gb  FltToS32.o [3]
__aeabi_f2lz            0x0000e5b0          Code  Gb  FltToS64.o [3]
__aeabi_fadd            0x0000e10c          Code  Gb  FltAdd.o [3]
__aeabi_fdiv0           0x0000f910          Code  Gb  FltFlgDivZer.o [3]
__aeabi_fmul            0x0000d590          Code  Gb  FltMul.o [3]
__aeabi_fsub            0x0000da24          Code  Gb  FltSub.o [3]
__aeabi_i2d             0x0000e9cc          Code  Gb  I32ToDbl.o [3]
__aeabi_i2f             0x0000eab4          Code  Gb  I32ToFlt.o [3]
__aeabi_idiv            0x0000d3b8          Code  Gb  I32DivMod.o [3]
__aeabi_idiv0           0x0000ff00          Code  Gb  IntDivZer.o [3]
__aeabi_idivmod         0x0000d3b8          Code  Gb  I32DivMod.o [3]
__aeabi_l2f             0x0000ea44          Code  Gb  I64ToFlt.o [3]
__aeabi_ldivmod         0x0000dd0c          Code  Gb  I64DivMod.o [3]
__aeabi_memclr4         0x0000fe3c          Code  Gb  memclr4.o [3]
__aeabi_memcpy          0x0000e2c0          Code  Gb  memcpy.o [3]
__aeabi_memcpy4         0x0000e2c0          Code  Gb  memcpy.o [3]
__aeabi_memcpy8         0x0000e2c0          Code  Gb  memcpy.o [3]
__aeabi_memset4         0x0000ee2c          Code  Gb  memset48.o [3]
__aeabi_memset8         0x0000ee2c          Code  Gb  memset48.o [3]
__aeabi_ui2d            0x0000ea28          Code  Gb  I32ToDbl.o [3]
__aeabi_uidiv           0x0000d3c8          Code  Gb  I32DivMod.o [3]
__aeabi_uidivmod        0x0000d3c8          Code  Gb  I32DivMod.o [3]
__aeabi_uldivmod        0x0000dd24          Code  Gb  I64DivMod.o [3]
__exit                  0x0000f740    0x1c  Code  Gb  exit.o [4]
__iar_Dnorm             0x0000e445    0xb8  Code  Gb  xdnorm.o [2]
__iar_Dscale            0x0000ddf5   0x114  Code  Gb  xdscale.o [2]
__iar_Memchr            0x0000e794          Code  Gb  memchr.o [3]
__iar_Memset4_word      0x0000ee38          Code  Gb  memset48.o [3]
__iar_Memset8_word      0x0000ee38          Code  Gb  memset48.o [3]
__iar_Strchr            0x0000f61c          Code  Gb  strchr.o [3]
__iar_SubNrmlX          0x0000eb88          Code  Gb  DblSubNrml.o [3]
__iar_SubNrmlY          0x0000ebb8          Code  Gb  DblSubNrml.o [3]
__iar_call_main         0x0000fa39    0x14  Code  Gb  call_main.o [2]
__iar_dadd              0x0000d764          Code  Gb  DblAdd.o [3]
__iar_data_init         0x0000ef38    0x40  Code  Gb  data_init.o [3]
__iar_disable_interrupt
                        0x0000fc0c          Code  Wk  RS_WIN.o [1]
__iar_dsub              0x0000cf8c          Code  Gb  DblSub.o [3]
__iar_enable_interrupt  0x0000fc20          Code  Wk  main.o [1]
__iar_fadd              0x0000e118          Code  Gb  FltAdd.o [3]
__iar_finexact          0x0000f8c8          Code  Gb  FltFlgInx.o [3]
__iar_finvalid          0x0000f4ec          Code  Gb  FltFlgInv.o [3]
__iar_finvalidClr       0x0000f4e8          Code  Gb  FltFlgInv.o [3]
__iar_foverflow         0x0000f8e0          Code  Gb  FltFlgOvf.o [3]
__iar_fsub              0x0000da30          Code  Gb  FltSub.o [3]
__iar_fsubStart         0x0000da40          Code  Gb  FltSub.o [3]
__iar_funderflow        0x0000f8f8          Code  Gb  FltFlgUnf.o [3]
__iar_get_interrupt_state
                        0x0000fe48          Code  Wk  RS_WIN.o [1]
__iar_i2d               0x0000e9e8          Code  Gb  I32ToDbl.o [3]
__iar_i2f               0x0000eac8          Code  Gb  I32ToFlt.o [3]
__iar_l2f               0x0000ea64          Code  Gb  I64ToFlt.o [3]
__iar_program_start     0x0000e1e8          Code  Gb  startup.o [1]
__iar_return_from_swi   0x0000ff04          Code  Gb  swi_return.o [4]
__iar_rle_init          0x0000f000    0x40  Code  Gb  rle_init.o [3]
__iar_set_interrupt_state
                        0x0000f92c          Code  Wk  RS_WIN.o [1]
__iar_via_R1            0x0000ff2d          Code  Wk  main.o [1]
__iar_via_R2            0x0000ff35          Code  Wk  standard.o [1]
__iar_via_R3            0x0000ff39          Code  Wk  standard.o [1]
__iar_via_R4            0x0000ff31          Code  Wk  serial_driver.o [1]
__iar_zero_init         0x0000f794    0x1c  Code  Gb  zero_init.o [3]
__low_level_init        0x0000e4fd    0x50  Code  Gb  device.o [1]
__vector                0x00000000          Code  Gb  startup.o [1]
_exit                   0x0000fbf8          Code  Gb  cexit.o [3]
advX                    0x0020bc68     0x4  Data  Gb  main.o [1]
advY                    0x0020bc64     0x4  Data  Gb  main.o [1]
at91ChipSelect          0x000049f9    0x4c  Code  Gb  lcd.o [1]
at91DisplayData         0x0000485d   0x19c  Code  Gb  lcd.o [1]
at91DisplayOnOff        0x000045cd    0x68  Code  Gb  lcd.o [1]
at91DisplayStartLine    0x00004635    0x50  Code  Gb  lcd.o [1]
at91DisplayStartPage    0x00004685    0x8c  Code  Gb  lcd.o [1]
at91DisplayYAdress      0x00004711   0x14c  Code  Gb  lcd.o [1]
at91flashWrite          0x0020c0a1    0xd6  Code  Gb  flash.o [1]
bCRC_Hi                 0x0000df08   0x100  Data  Gb  Modbus.o [1]
bCRC_Lo                 0x0000e008   0x100  Data  Gb  Modbus.o [1]
crc16                   0x0000d19d    0x44  Code  Gb  Modbus.o [1]
dState                  0x0020bc78     0x4  Data  Lc  main.o [1]
div                     0x0000f50d    0x24  Code  Gb  div.o [2]
dzien                   0x0020c354     0x4  Data  Gb  main.o [1]
exit                    0x0000fd01     0xc  Code  Gb  exit.o [2]
g_Message               0x0020bc9c     0x1  Data  Gb  main.o [1]
g_PC_Connected          0x0020bc9d     0x1  Data  Gb  main.o [1]
g_Password_1            0x0020c310     0x8  Data  Gb  main.o [1]
g_Password_2            0x0020c318     0x8  Data  Gb  main.o [1]
g_US0_Connect_OK        0x0020bc9a     0x1  Data  Gb  USART.o [1]
g_counter               0x0020bc70     0x4  Data  Gb  main.o [1]
g_czas_petli            0x0020c373     0x1  Data  Gb  main.o [1]
g_leng                  0x0020bc6c     0x4  Data  Gb  main.o [1]
g_level                 0x0020bc9b     0x1  Data  Gb  main.o [1]
godz                    0x0020c348     0x4  Data  Gb  main.o [1]
identyfikacja           0x0000fcac     0xc  Data  Gb  main.o [1]
komunikcja_RSwin        0x00009fa1   0x60c  Code  Gb  RS_WIN.o [1]
lastSetBit              0x0000eca1    0x52  Code  Wk  udp.o [1]
m_pPio                  0x0020c328     0x4  Data  Gb  lcd.o [1]
main                    0x00009da5   0x1fc  Code  Gb  main.o [1]
max_poz_wpisu           0x0020bc97     0x1  Data  Gb  ScreenMENU.o [1]
memchr                  0x0000e794          Code  Gb  memchr.o [3]
memcpy                  0x0000e2c0          Code  Gb  memcpy.o [3]
memory                  0x0020bc74     0x4  Data  Gb  main.o [1]
mi                      0x0020c34c     0x4  Data  Gb  main.o [1]
mies                    0x0020c358     0x4  Data  Gb  main.o [1]
min                     0x0000fe81     0x8  Code  Wk  standard.o [1]
pEndpoints              0x0020c254    0xa0  Data  Lc  main.o [1]
pEndpoints              0x0020c304     0xc  Data  Gb  serial_driver.o [1]
pManufacturer           0x0000fcb8     0xc  Data  Gb  serial_driver.o [1]
pProduct                0x0000f708    0x1c  Data  Gb  serial_driver.o [1]
pSerialNumber           0x0000f724    0x1c  Data  Gb  serial_driver.o [1]
pStrings                0x0020c2f4    0x10  Data  Gb  serial_driver.o [1]
printf                  0x0000f5f9    0x20  Code  Gb  printf.o [2]
putchar                 0x0000f3c5    0x28  Code  Gb  at91stdio.o [1]
ram                     0x00200ec0  0xa250  Data  Gb  RS_WIN.o [1]
rok                     0x0020c35c     0x4  Data  Gb  main.o [1]
sCallbacks              0x0000f880    0x18  Data  Lc  main.o [1]
sConfiguration          0x0000ee74    0x44  Data  Gb  serial_driver.o [1]
sDefaultDriver          0x0000f8b0    0x18  Data  Gb  udp.o [1]
sDescriptors            0x0000fbc4    0x10  Data  Gb  serial_driver.o [1]
sDevice                 0x0000fa24    0x14  Data  Gb  serial_driver.o [1]
sLanguageID             0x0000fefc     0x4  Data  Gb  serial_driver.o [1]
sSer                    0x0020bbf8    0x14  Data  Lc  main.o [1]
sSetup                  0x0020bc3c     0x8  Data  Lc  main.o [1]
sUDPMethods             0x0000f208    0x34  Data  Gb  udp.o [1]
sUsb                    0x0000f898    0x18  Data  Lc  main.o [1]
sek                     0x0020c350     0x4  Data  Gb  main.o [1]
strchr                  0x0000f61c          Code  Gb  strchr.o [3]
strlen                  0x0000ec48          Code  Gb  strlen.o [3]
tmp                     0x0020bc99     0x1  Data  Gb  ScreenMENU.o [1]


[1] = D:\Konstrukcje\MSU-101\mMaster\bin\cdc\AT91SAM7SEK\Obj
[2] = dl4t_tl_in.a
[3] = rt4t_al.a
[4] = shs_l.a

  54 924 bytes of readonly  code memory
     436 bytes of readwrite code memory
  11 669 bytes of readonly  data memory
  49 600 bytes of readwrite data memory
