###############################################################################
#                                                                             #
# IAR ARM ANSI C/C++ Compiler V5.10.5.372/W32           23/Oct/2012  20:59:02 #
# Copyright 1999-2007 IAR Systems. All rights reserved.                       #
#                                                                             #
#    Cpu mode     =  thumb                                                    #
#    Endian       =  little                                                   #
#    Source file  =  D:\Zeuron\Projekty\S300\S300-program v0.9 -              #
#                    23.10.2012\Framework\lcd.c                               #
#    Command line =  "D:\Zeuron\Projekty\S300\S300-program v0.9 -             #
#                    23.10.2012\Framework\lcd.c" -D AT91SAM7S256 -D           #
#                    AT91SAM7SEK -D iH -D __ALARM -D S300 -lC                 #
#                    "D:\Zeuron\Projekty\S300\S300-program v0.9 -             #
#                    23.10.2012\S300\List\" --diag_suppress Pa082 -o          #
#                    "D:\Zeuron\Projekty\S300\S300-program v0.9 -             #
#                    23.10.2012\S300\Obj\" --no_unroll --no_inline --no_tbaa  #
#                    --no_scheduling --debug --endian little --cpu ARM7TDMI   #
#                    -e --fpu None --dlib_config "C:\Program Files\IAR        #
#                    Systems\Embedded Workbench 5.0\ARM\INC\DLib_Config_Norma #
#                    l.h" -I "D:\Zeuron\Projekty\S300\S300-program v0.9 -     #
#                    23.10.2012\lib\AT91SAM7S256\" -I                         #
#                    "D:\Zeuron\Projekty\S300\S300-program v0.9 -             #
#                    23.10.2012\lib\AT91SAM7S64\" -I                          #
#                    "D:\Zeuron\Projekty\S300\S300-program v0.9 -             #
#                    23.10.2012\" -I "D:\Zeuron\Projekty\S300\S300-program    #
#                    v0.9 - 23.10.2012\cdc\" -I "D:\Zeuron\Projekty\S300\S300 #
#                    -program v0.9 - 23.10.2012\core\" -I                     #
#                    "D:\Zeuron\Projekty\S300\S300-program v0.9 -             #
#                    23.10.2012\startup\" -I "D:\Zeuron\Projekty\S300\S300-pr #
#                    ogram v0.9 - 23.10.2012\Framework\" -I                   #
#                    "D:\Zeuron\Projekty\S300\S300-program v0.9 -             #
#                    23.10.2012\Framework\Configuration\" -I "C:\Program      #
#                    Files\IAR Systems\Embedded Workbench 5.0\ARM\INC\"       #
#                    --section .text=Debug.txt --interwork --cpu_mode thumb   #
#                    -Om                                                      #
#    List file    =  D:\Zeuron\Projekty\S300\S300-program v0.9 -              #
#                    23.10.2012\S300\List\lcd.lst                             #
#    Object file  =  D:\Zeuron\Projekty\S300\S300-program v0.9 -              #
#                    23.10.2012\S300\Obj\lcd.o                                #
#                                                                             #
#                                                                             #
###############################################################################

D:\Zeuron\Projekty\S300\S300-program v0.9 - 23.10.2012\Framework\lcd.c
      1          //****************************************************************************//
      2          //*--------------------------------------------------------------------------*//
      3          //*                                 CEURON                                   *//                     
      4          //*--------------------------------------------------------------------------*//
      5          //*--------------------------------------------------------------------------*//
      6          //*  Nazwa pliku                  : LCD.c                                    *//
      7          //*  Opis                         : Plik obs³ugi wyœwietlacza LCD            *//
      8          //*  Autor                        : Pawe³ Narwojsz                           *//
      9          //*  Data utrzorzenia             : 15.09.2007                               *//
     10          //*  Data ostatniej modyfikacji   : --.--.----                               *//
     11          //*--------------------------------------------------------------------------*//
     12          //*                                                                          *//
     13          //*--------------------------------------------------------------------------*//
     14          //* Rejestr zmian  (data - opis):                                            *//
     15          //*                                                                          *//
     16          //*                               Brak zmian                                 *//
     17          //*                                                                          *//
     18          //*__________________________________________________________________________*// 
     19          //****************************************************************************//
     20          //****************************************************************************//
     21          
     22          
     23          
     24          
     25          
     26          
     27          
     28          
     29          
     30          
     31          // Pliki do³¹czane -------------------------------------------------------------
     32               #include "common.h"
     33               #include "core/device.h"                                                   //aduje bibliotreki dla odpowiedniego procesora

   \                                 In section Debug.txt, align 4
   \   __??Code16?? __code __interwork void AT91F_PIO_CfgOutput(AT91PS_PIO, unsigned int)
   \                     AT91F_PIO_CfgOutput:
   \   00000000   0160               STR      R1,[R0, #+0]
   \   00000002   0161               STR      R1,[R0, #+16]
   \   00000004   7047               BX       LR               ;; return

   \                                 In section Debug.txt, align 4
   \   __??Code16?? __code __interwork void AT91F_PIO_CfgInput(AT91PS_PIO, unsigned int)
   \                     AT91F_PIO_CfgInput:
   \   00000000   4161               STR      R1,[R0, #+20]
   \   00000002   0160               STR      R1,[R0, #+0]
   \   00000004   7047               BX       LR               ;; return

   \                                 In section Debug.txt, align 4
   \   __??Code16?? __code __interwork void AT91F_PIO_ClearOutput(AT91PS_PIO, unsigned int)
   \                     AT91F_PIO_ClearOutput:
   \   00000000   4163               STR      R1,[R0, #+52]
   \   00000002   7047               BX       LR               ;; return
     34               //#include "AT91SAM7S256.h"
     35               #include "core/trace.h"
     36               #include "LCD.h"
     37               #include "Framework.h "
     38               #include <stdarg.h>
     39          
     40          //-----------------------Koniec plików do³¹czanych -----------------------------
     41          
     42          
     43          #ifndef _LCD_NEGATIV_OLD_
     44          #define LCD_delay 40
     45          
     46          //Zmienne globalne -------------------------------------------------------------
     47            _Correct korekta_Y=1;
                                      ^
Warning[Pe520]: initialization with "{...}" expected for aggregate object
     48            _Correct korekta_X=1;
                                      ^
Warning[Pe520]: initialization with "{...}" expected for aggregate object
     49          //___________________________Koniec zmiennych globalnych________________________
     50          
     51          
     52          extern void Delay (unsigned long a);
     53          //extern MenuPaint(void);
     54          extern long long int g_counter;
     55          extern int MenuLevel;
     56          extern char AlarmOn; 
     57          extern char g_info;
     58          //Definicje --------------------------------------------------------------------
     59                AT91PS_PIO    m_pPio   = AT91C_BASE_PIOA;
     60                AT91PS_PIO    TS_pPio  = AT91C_BASE_PIOA;
     61                //TouchScreen
     62          
     63          #define  TS_ADC             AT91C_BASE_PDC_ADC
     64          #define  TS_ADC_CH0         AT91C_ADC_CH0
     65          #define  TS_ADC_CH1         AT91C_ADC_CH1
     66          #define  TS_ADC_CH2         AT91C_ADC_CH2
     67          #define  TS_ADC_CH3         AT91C_ADC_CH3
     68          #define  TS_PIO             AT91C_BASE_PIOA
     69          #define  TS_PIO_CH0         AT91C_PIO_PA17
     70          #define  TS_PIO_CH1         AT91C_PIO_PA18
     71          #define  TS_PIO_CH2         AT91C_PIO_PA19
     72          #define  TS_PIO_CH3         AT91C_PIO_PA20
     73          
     74          #define  TS_ADC_ID         AT91C_ID_ADC        
     75          // Leds
     76          //___________________________Koniec definicji___________________________________
     77          
     78          
     79                
     80          extern signed short X_down;
     81          extern signed short Y_down;
     82          extern signed short X_up;
     83          extern signed short Y_up;
     84          
     85          
     86          char LCD_Canvas[8][128] = {
     87                            {254,1,1,1,1,1,1,1,131,69,125,69,41,41,17,1,1,169,1,1,1,1,1,1,1,1,1,1,131,69,125,69,41,41,17,1,1,169,1,1,1,1,1,1,1,1,1,1,131,69,125,69,41,41,17,1,1,169,1,1,1,1,1,1,1,1,1,1,131,69,125,69,41,41,17,1,1,169,1,1,1,1,1,1,1,1,1,1,131,69,125,69,41,41,17,1,1,169,1,1,1,1,1,1,1,1,1,1,131,69,125,69,41,41,17,1,1,1,255,7,243,107,155,155,107,243,6,252},
     88                            {255,164,160,144,160,164,24,0,66,66,66,66,66,99,66,0,0,170,0,0,32,32,32,32,32,48,32,0,66,66,66,66,66,99,66,0,0,170,0,0,28,36,36,36,36,36,24,0,66,66,66,66,66,99,66,0,0,170,0,0,16,16,16,16,16,24,16,0,66,66,66,66,66,99,66,0,0,170,0,0,60,8,16,16,32,36,24,0,66,66,66,66,66,99,66,0,0,170,0,0,152,164,160,144,160,164,24,0,66,66,66,66,66,99,66,0,0,0,255,254,60,189,125,253,189,60,254,255},
     89                            {255,148,148,148,148,148,99,0,130,68,124,68,40,40,16,0,0,170,0,0,207,34,4,132,8,41,198,0,124,4,4,124,4,4,124,0,0,170,0,1,9,136,136,144,144,160,60,0,60,68,68,68,68,68,60,0,0,170,0,1,61,136,16,16,32,164,24,0,56,68,4,4,4,68,56,0,0,170,0,0,34,34,34,66,66,131,242,0,28,36,36,60,36,36,28,0,0,170,0,0,115,148,148,148,148,148,99,0,130,68,124,68,40,40,16,0,0,0,255,255,36,117,87,38,37,36,255,255},
     90                            {255,4,8,8,16,18,12,0,0,0,0,0,0,0,0,0,0,170,0,0,32,161,125,164,169,49,32,0,0,0,0,0,0,0,0,0,0,170,0,0,99,148,132,148,115,36,227,0,0,0,0,0,0,0,0,0,0,170,0,0,131,132,244,146,164,196,131,0,0,0,0,0,0,0,0,0,0,170,0,0,16,16,254,82,148,24,16,0,0,0,0,0,0,0,0,0,0,170,0,0,158,4,8,8,16,18,12,0,0,0,0,0,0,0,0,0,0,0,255,255,159,223,63,191,127,63,255,255},
     91                            {255,68,72,136,80,82,140,0,0,0,0,0,0,0,0,0,0,170,0,0,99,148,148,148,115,145,103,0,0,0,0,0,0,0,0,0,0,170,0,0,208,80,126,82,84,88,144,0,0,0,0,0,0,0,0,0,0,170,0,0,142,82,147,82,82,82,140,0,0,0,0,0,0,0,0,0,0,170,0,16,210,130,7,2,2,67,130,0,0,0,0,0,0,0,0,0,0,170,0,0,158,68,72,136,80,82,140,0,0,0,0,0,0,0,0,0,0,0,255,255,180,149,150,166,167,147,255,255},
     92                            {255,18,18,33,34,66,121,0,0,0,0,0,0,0,0,0,0,170,0,128,132,4,4,8,8,16,30,0,0,0,0,0,0,0,0,0,0,170,0,0,57,74,74,74,74,74,49,0,0,0,0,0,0,0,0,0,0,170,0,0,49,74,75,50,74,74,49,0,0,0,0,0,0,0,0,0,0,170,0,0,51,72,65,33,66,74,49,0,0,0,0,0,0,0,0,0,0,170,0,0,17,18,18,33,34,66,121,0,0,0,0,0,0,0,0,0,0,0,255,255,36,110,113,117,123,57,255,255},
     93                            {255,201,72,68,72,73,70,64,64,64,64,64,64,64,64,192,192,202,64,192,78,210,82,210,82,210,76,192,64,192,64,192,64,192,64,192,64,202,64,192,71,201,73,201,73,201,70,192,64,192,64,192,64,192,64,192,64,202,64,192,70,201,73,198,73,201,70,192,64,192,64,192,64,192,64,192,64,202,64,192,200,200,223,201,202,204,200,192,192,192,192,64,64,192,64,192,64,202,64,192,70,201,72,196,200,73,70,64,64,64,64,64,64,64,64,64,64,192,255,255,248,251,255,255,255,254,255,255},
     94                            {255,192,128,128,128,128,128,140,158,191,191,128,128,128,128,192,255,170,213,170,213,170,213,170,213,170,213,170,213,170,213,170,213,170,213,170,213,170,213,170,213,170,213,170,213,170,213,170,213,170,213,170,213,170,213,170,213,170,213,170,213,170,213,170,213,170,213,170,213,170,213,170,213,170,213,170,213,170,128,255,255,255,255,192,222,222,192,255,255,255,255,128,213,170,213,170,213,170,213,170,213,170,213,255,192,128,128,128,191,191,158,140,128,128,128,128,128,192,255,255,255,255,255,255,255,255,127,63}
     95                            };
     96          
     97          
     98          
     99          
    100          
    101          //===================================================================================================================================================================//
    102          //===================================================================================================================================================================//
    103          //===================================================================================================================================================================//
    104          //===================================================================================================================================================================//
    105          //============================================================      F U N K C J E      ==============================================================================//
    106          //===================================================================================================================================================================//
    107          //===================================================================================================================================================================//
    108          
    109          
    110          
    111          //*-----------------------------------------------------------------------------
    112          //* Nazwa funkcji :    RepaintLCD
    113          //* Funkcja g³ówna wyrysowywania tabeli LCD_Canvas na ekran LCD
    114          //*-----------------------------------------------------------------------------
    115          //* Konieczne zdefiniowanie zmiennej globalnej "char LCD_Canvas[8][128];"
    116          //*-----------------------------------------------------------------------------
    117          
    118          char chipSelect=1;

   \                                 In section Debug.txt, align 4, keep-with-next
    119          void RepaintLCD(void)
    120          {
   \                     RepaintLCD:
   \   00000000   70B5               PUSH     {R4-R6,LR}
    121            
    122          
    123          char lcdData=0;
    124          //char lcdStartPage=0;
    125          //char chipSelect=0;
    126          char displayY=0;
    127            
    128          //  for (char chipSelect=1; chipSelect<=2; chipSelect++)
    129          //{
    130          
    131             if (chipSelect<2) {chipSelect=2;} else {chipSelect=1;}
   \   00000002   1D4C               LDR      R4,??RepaintLCD_0  ;; chipSelect
   \   00000004   2078               LDRB     R0,[R4, #+0]
   \   00000006   0228               CMP      R0,#+2
   \   00000008   02D2               BCS      ??RepaintLCD_1
   \   0000000A   0220               MOVS     R0,#+2
   \   0000000C   2070               STRB     R0,[R4, #+0]
   \   0000000E   01E0               B        ??RepaintLCD_2
   \                     ??RepaintLCD_1:
   \   00000010   0120               MOVS     R0,#+1
   \   00000012   2070               STRB     R0,[R4, #+0]
    132               at91ChipSelect(chipSelect);   
   \                     ??RepaintLCD_2:
   \   00000014   2078               LDRB     R0,[R4, #+0]
   \   00000016   ........           BL       at91ChipSelect
    133          
    134               at91DisplayYAdress(displayY);
   \   0000001A   0020               MOVS     R0,#+0
   \   0000001C   ........           BL       at91DisplayYAdress
    135               Delay(50);  
   \   00000020   3220               MOVS     R0,#+50
   \   00000022   ........           BL       Delay
    136               
    137                for (char lcdStartPage=0; lcdStartPage<8; lcdStartPage++)
   \   00000026   0026               MOVS     R6,#+0
   \   00000028   14E0               B        ??RepaintLCD_3
    138                {
    139                   
    140                  at91DisplayStartPage(lcdStartPage); 
    141                  Delay(50);
    142                  for (lcdData=(64*chipSelect-64); lcdData<(64*chipSelect); lcdData++)
    143                  {
    144                    
    145                    at91DisplayData(LCD_Canvas[lcdStartPage][lcdData]);
   \                     ??RepaintLCD_4:
   \   0000002A   3100               MOVS     R1,R6
   \   0000002C   C901               LSLS     R1,R1,#+7
   \   0000002E   ....               LDR      R2,??DataTable10  ;; LCD_Canvas
   \   00000030   5118               ADDS     R1,R2,R1
   \   00000032   085C               LDRB     R0,[R1, R0]
   \   00000034   ........           BL       at91DisplayData
    146                    Delay(50);
   \   00000038   3220               MOVS     R0,#+50
   \   0000003A   ........           BL       Delay
    147                  }
   \   0000003E   6D1C               ADDS     R5,R5,#+1
   \   00000040   2D06               LSLS     R5,R5,#+24
   \   00000042   2D0E               LSRS     R5,R5,#+24
   \                     ??RepaintLCD_5:
   \   00000044   2800               MOVS     R0,R5
   \   00000046   2178               LDRB     R1,[R4, #+0]
   \   00000048   8901               LSLS     R1,R1,#+6
   \   0000004A   8842               CMP      R0,R1
   \   0000004C   EDDB               BLT      ??RepaintLCD_4
   \   0000004E   761C               ADDS     R6,R6,#+1
   \   00000050   3606               LSLS     R6,R6,#+24
   \   00000052   360E               LSRS     R6,R6,#+24
   \                     ??RepaintLCD_3:
   \   00000054   3000               MOVS     R0,R6
   \   00000056   0828               CMP      R0,#+8
   \   00000058   0AD2               BCS      ??RepaintLCD_6
   \   0000005A   ........           BL       at91DisplayStartPage
   \   0000005E   3220               MOVS     R0,#+50
   \   00000060   ........           BL       Delay
   \   00000064   2078               LDRB     R0,[R4, #+0]
   \   00000066   8501               LSLS     R5,R0,#+6
   \   00000068   403D               SUBS     R5,R5,#+64
   \   0000006A   2D06               LSLS     R5,R5,#+24
   \   0000006C   2D0E               LSRS     R5,R5,#+24
   \   0000006E   E9E7               B        ??RepaintLCD_5
    148                }
    149           //}
    150          
    151          }//_______________________ Koniec funkcji RepaintLCD __________________________
   \                     ??RepaintLCD_6:
   \   00000070   70BC               POP      {R4-R6}
   \   00000072   01BC               POP      {R0}
   \   00000074   0047               BX       R0               ;; return
   \   00000076   C046               Nop      
   \                     ??RepaintLCD_0:
   \   00000078   ........           DC32     chipSelect
    152          
    153          
    154          
    155          
    156          
    157          
    158          //*-----------------------------------------------------------------------------
    159          //* Nazwa funkcji :    CleanCanvas
    160          //* Funkcja czyszczenia bufora ekranu. 
    161          //*-----------------------------------------------------------------------------
    162          //* Efekt widoczny po odœwierzeniu LCD (RepaintLCD)
    163          //*-----------------------------------------------------------------------------

   \                                 In section Debug.txt, align 4, keep-with-next
    164          void CleanCanvas(void)
    165          {
   \                     CleanCanvas:
   \   00000000   10B5               PUSH     {R4,LR}
    166            for (int i=0; i<=7; i++)
   \   00000002   0020               MOVS     R0,#+0
   \   00000004   0100               MOVS     R1,R0
   \   00000006   08E0               B        ??CleanCanvas_0
    167            {
    168              for (int j=0; j<=127; j++)
    169              {
    170                LCD_Canvas[i][j] =0; 
   \                     ??CleanCanvas_1:
   \   00000008   CB01               LSLS     R3,R1,#+7
   \   0000000A   ....               LDR      R4,??DataTable10  ;; LCD_Canvas
   \   0000000C   E318               ADDS     R3,R4,R3
   \   0000000E   0400               MOVS     R4,R0
   \   00000010   9C54               STRB     R4,[R3, R2]
    171              }
   \   00000012   521C               ADDS     R2,R2,#+1
   \                     ??CleanCanvas_2:
   \   00000014   802A               CMP      R2,#+128
   \   00000016   F7DB               BLT      ??CleanCanvas_1
   \   00000018   491C               ADDS     R1,R1,#+1
   \                     ??CleanCanvas_0:
   \   0000001A   0829               CMP      R1,#+8
   \   0000001C   01DA               BGE      ??CleanCanvas_3
   \   0000001E   0200               MOVS     R2,R0
   \   00000020   F8E7               B        ??CleanCanvas_2
    172            }
    173          }//_______________________ Koniec funkcji CleanCanvas __________________________
   \                     ??CleanCanvas_3:
   \   00000022   10BC               POP      {R4}
   \   00000024   01BC               POP      {R0}
   \   00000026   0047               BX       R0               ;; return
    174          
    175          
    176          
    177          
    178          
    179          //*-----------------------------------------------------------------------------
    180          //* Nazwa funkcji :    HalfCleanCanvas
    181          //* Funkcja szatkowania bufora ekranu. 
    182          //*-----------------------------------------------------------------------------
    183          //* Efekt widoczny po odœwierzeniu LCD (RepaintLCD)
    184          //*-----------------------------------------------------------------------------

   \                                 In section Debug.txt, align 4, keep-with-next
    185          void HalfCleanCanvas(void)
    186          {
   \                     HalfCleanCanvas:
   \   00000000   31B5               PUSH     {R0,R4,R5,LR}
    187            for (int i=0; i<=7; i++)
   \   00000002   0020               MOVS     R0,#+0
   \   00000004   0100               MOVS     R1,R0
   \   00000006   00E0               B        ??HalfCleanCanvas_0
   \                     ??HalfCleanCanvas_1:
   \   00000008   491C               ADDS     R1,R1,#+1
   \                     ??HalfCleanCanvas_0:
   \   0000000A   0829               CMP      R1,#+8
   \   0000000C   1BDA               BGE      ??HalfCleanCanvas_2
    188            {
    189              for (int j=0; j<=127; j++)
   \   0000000E   0200               MOVS     R2,R0
   \   00000010   07E0               B        ??HalfCleanCanvas_3
    190              {
    191                if ((j+i)%2) 
    192                {
    193                  LCD_Canvas[i][j] &=0xAA; 
    194                }
    195                else
    196                {
    197                  LCD_Canvas[i][j] &=0x55; 
   \                     ??HalfCleanCanvas_4:
   \   00000012   CB01               LSLS     R3,R1,#+7
   \   00000014   ....               LDR      R4,??DataTable10  ;; LCD_Canvas
   \   00000016   E318               ADDS     R3,R4,R3
   \   00000018   9C5C               LDRB     R4,[R3, R2]
   \   0000001A   5525               MOVS     R5,#+85
   \   0000001C   2540               ANDS     R5,R5,R4
   \   0000001E   9D54               STRB     R5,[R3, R2]
    198                } 
   \                     ??HalfCleanCanvas_5:
   \   00000020   521C               ADDS     R2,R2,#+1
   \                     ??HalfCleanCanvas_3:
   \   00000022   802A               CMP      R2,#+128
   \   00000024   F0DA               BGE      ??HalfCleanCanvas_1
   \   00000026   5318               ADDS     R3,R2,R1
   \   00000028   1C00               MOVS     R4,R3
   \   0000002A   E40F               LSRS     R4,R4,#+31
   \   0000002C   E418               ADDS     R4,R4,R3
   \   0000002E   6410               ASRS     R4,R4,#+1
   \   00000030   6400               LSLS     R4,R4,#+1
   \   00000032   1B1B               SUBS     R3,R3,R4
   \   00000034   EDD0               BEQ      ??HalfCleanCanvas_4
   \   00000036   CB01               LSLS     R3,R1,#+7
   \   00000038   ....               LDR      R4,??DataTable10  ;; LCD_Canvas
   \   0000003A   E318               ADDS     R3,R4,R3
   \   0000003C   9C5C               LDRB     R4,[R3, R2]
   \   0000003E   AA25               MOVS     R5,#+170
   \   00000040   2540               ANDS     R5,R5,R4
   \   00000042   9D54               STRB     R5,[R3, R2]
   \   00000044   ECE7               B        ??HalfCleanCanvas_5
    199              }
    200            }
    201          }//_______________________ Koniec funkcji HalfCleanCanvas __________________________
   \                     ??HalfCleanCanvas_2:
   \   00000046   38BC               POP      {R3-R5}
   \   00000048   01BC               POP      {R0}
   \   0000004A   0047               BX       R0               ;; return
    202          
    203          
    204          
    205          //*-----------------------------------------------------------------------------
    206          //* Nazwa funkcji :    CleanCanvasArea
    207          //* Funkcja czyszczenia okreœlonego obszaru
    208          //* Colour  -  0= bia³y, 1=czarny
    209          //*-----------------------------------------------------------------------------
    210          //* Efekt widoczny po odœwierzeniu LCD (RepaintLCD)
    211          //*-----------------------------------------------------------------------------

   \                                 In section Debug.txt, align 4, keep-with-next
    212          void CleanCanvasArea(char X, char Y, char X_Lenght, char Y_Lenght, char Colour)
    213          {
   \                     CleanCanvasArea:
   \   00000000   F5B5               PUSH     {R0,R2,R4-R7,LR}
   \   00000002   81B0               SUB      SP,SP,#+4
   \   00000004   08A8               ADD      R0,SP,#+32
   \   00000006   0078               LDRB     R0,[R0, #+0]
    214          
    215            char kol=0;
    216            char bit=0;
    217            char linia=Y;
    218            
    219          if ( Colour == 0 )
   \   00000008   5B1E               SUBS     R3,R3,#+1
   \   0000000A   0093               STR      R3,[SP, #+0]
   \   0000000C   0028               CMP      R0,#+0
   \   0000000E   2ED1               BNE      ??CleanCanvasArea_0
   \   00000010   0024               MOVS     R4,#+0
   \   00000012   03E0               B        ??CleanCanvasArea_1
    220          {
    221            for (int i=0; i<=Y_Lenght-1; i++)
    222             { 
    223               kol=(X)/8;
    224               bit=(X)%8;
    225               
    226          
    227              
    228               for (int j=0; j<=X_Lenght-1; j++)
    229                {
    230                     LCD_Canvas[kol][linia] &=~(1<<bit);  
    231                     if (bit<7)  { bit++;}  else {bit=0;   kol++;  }
    232                }   
    233                linia++;
   \                     ??CleanCanvasArea_2:
   \   00000014   491C               ADDS     R1,R1,#+1
   \   00000016   0906               LSLS     R1,R1,#+24
   \   00000018   090E               LSRS     R1,R1,#+24
   \   0000001A   641C               ADDS     R4,R4,#+1
   \                     ??CleanCanvasArea_1:
   \   0000001C   0098               LDR      R0,[SP, #+0]
   \   0000001E   A042               CMP      R0,R4
   \   00000020   54DB               BLT      ??CleanCanvasArea_3
   \   00000022   6846               MOV      R0,SP
   \   00000024   0079               LDRB     R0,[R0, #+4]
   \   00000026   0200               MOVS     R2,R0
   \   00000028   D208               LSRS     R2,R2,#+3
   \   0000002A   1000               MOVS     R0,R2
   \   0000002C   6B46               MOV      R3,SP
   \   0000002E   1B79               LDRB     R3,[R3, #+4]
   \   00000030   D200               LSLS     R2,R2,#+3
   \   00000032   9A1A               SUBS     R2,R3,R2
   \   00000034   0025               MOVS     R5,#+0
   \   00000036   04E0               B        ??CleanCanvasArea_4
   \                     ??CleanCanvasArea_5:
   \   00000038   0022               MOVS     R2,#+0
   \   0000003A   401C               ADDS     R0,R0,#+1
   \   0000003C   0006               LSLS     R0,R0,#+24
   \   0000003E   000E               LSRS     R0,R0,#+24
   \                     ??CleanCanvasArea_6:
   \   00000040   6D1C               ADDS     R5,R5,#+1
   \                     ??CleanCanvasArea_4:
   \   00000042   6B46               MOV      R3,SP
   \   00000044   1B7A               LDRB     R3,[R3, #+8]
   \   00000046   5B1E               SUBS     R3,R3,#+1
   \   00000048   AB42               CMP      R3,R5
   \   0000004A   E3DB               BLT      ??CleanCanvasArea_2
   \   0000004C   ....               LDR      R3,??DataTable10  ;; LCD_Canvas
   \   0000004E   0E00               MOVS     R6,R1
   \   00000050   0700               MOVS     R7,R0
   \   00000052   FF01               LSLS     R7,R7,#+7
   \   00000054   DB19               ADDS     R3,R3,R7
   \   00000056   9B19               ADDS     R3,R3,R6
   \   00000058   1E78               LDRB     R6,[R3, #+0]
   \   0000005A   0127               MOVS     R7,#+1
   \   0000005C   9740               LSLS     R7,R7,R2
   \   0000005E   BE43               BICS     R6,R6,R7
   \   00000060   1E70               STRB     R6,[R3, #+0]
   \   00000062   1206               LSLS     R2,R2,#+24
   \   00000064   120E               LSRS     R2,R2,#+24
   \   00000066   072A               CMP      R2,#+7
   \   00000068   E6D2               BCS      ??CleanCanvasArea_5
   \   0000006A   521C               ADDS     R2,R2,#+1
   \   0000006C   E8E7               B        ??CleanCanvasArea_6
    234             }
    235          }
   \                     ??CleanCanvasArea_0:
   \   0000006E   0024               MOVS     R4,#+0
   \   00000070   03E0               B        ??CleanCanvasArea_7
    236          else
    237          {
    238            for (int i=0; i<=Y_Lenght-1; i++)
    239             { 
    240               kol=(X)/8;
    241               bit=(X)%8;
    242               
    243               for (int j=0; j<=X_Lenght-1; j++)
    244                {
    245                     LCD_Canvas[kol][linia] |=(1<<bit);  
    246                     if (bit<7)  { bit++;}  else {bit=0;   kol++;  }
    247                }   
    248                linia++;
   \                     ??CleanCanvasArea_8:
   \   00000072   491C               ADDS     R1,R1,#+1
   \   00000074   0906               LSLS     R1,R1,#+24
   \   00000076   090E               LSRS     R1,R1,#+24
   \   00000078   641C               ADDS     R4,R4,#+1
   \                     ??CleanCanvasArea_7:
   \   0000007A   0098               LDR      R0,[SP, #+0]
   \   0000007C   A042               CMP      R0,R4
   \   0000007E   25DB               BLT      ??CleanCanvasArea_3
   \   00000080   6846               MOV      R0,SP
   \   00000082   0079               LDRB     R0,[R0, #+4]
   \   00000084   0200               MOVS     R2,R0
   \   00000086   D208               LSRS     R2,R2,#+3
   \   00000088   1000               MOVS     R0,R2
   \   0000008A   6B46               MOV      R3,SP
   \   0000008C   1B79               LDRB     R3,[R3, #+4]
   \   0000008E   D200               LSLS     R2,R2,#+3
   \   00000090   9A1A               SUBS     R2,R3,R2
   \   00000092   0025               MOVS     R5,#+0
   \   00000094   04E0               B        ??CleanCanvasArea_9
   \                     ??CleanCanvasArea_10:
   \   00000096   0022               MOVS     R2,#+0
   \   00000098   401C               ADDS     R0,R0,#+1
   \   0000009A   0006               LSLS     R0,R0,#+24
   \   0000009C   000E               LSRS     R0,R0,#+24
   \                     ??CleanCanvasArea_11:
   \   0000009E   6D1C               ADDS     R5,R5,#+1
   \                     ??CleanCanvasArea_9:
   \   000000A0   6B46               MOV      R3,SP
   \   000000A2   1B7A               LDRB     R3,[R3, #+8]
   \   000000A4   5B1E               SUBS     R3,R3,#+1
   \   000000A6   AB42               CMP      R3,R5
   \   000000A8   E3DB               BLT      ??CleanCanvasArea_8
   \   000000AA   ....               LDR      R3,??DataTable10  ;; LCD_Canvas
   \   000000AC   0E00               MOVS     R6,R1
   \   000000AE   0700               MOVS     R7,R0
   \   000000B0   FF01               LSLS     R7,R7,#+7
   \   000000B2   DB19               ADDS     R3,R3,R7
   \   000000B4   9B19               ADDS     R3,R3,R6
   \   000000B6   1E78               LDRB     R6,[R3, #+0]
   \   000000B8   0127               MOVS     R7,#+1
   \   000000BA   9740               LSLS     R7,R7,R2
   \   000000BC   3743               ORRS     R7,R7,R6
   \   000000BE   1F70               STRB     R7,[R3, #+0]
   \   000000C0   1206               LSLS     R2,R2,#+24
   \   000000C2   120E               LSRS     R2,R2,#+24
   \   000000C4   072A               CMP      R2,#+7
   \   000000C6   E6D2               BCS      ??CleanCanvasArea_10
   \   000000C8   521C               ADDS     R2,R2,#+1
   \   000000CA   E8E7               B        ??CleanCanvasArea_11
    249             }
    250          }
    251            
    252          }//_______________________ Koniec funkcji CleanCanvasArea __________________________
   \                     ??CleanCanvasArea_3:
   \   000000CC   FEBC               POP      {R1-R7}
   \   000000CE   01BC               POP      {R0}
   \   000000D0   0047               BX       R0               ;; return
    253          
    254          
    255          
    256          
    257          //*-----------------------------------------------------------------------------
    258          //* Nazwa funkcji :    CleanCanvasArea
    259          //* Funkcja czyszczenia okreœlonego obszaru
    260          //* Colour  -  0= bia³y, 1=czarny
    261          //*-----------------------------------------------------------------------------
    262          //* Efekt widoczny po odœwierzeniu LCD (RepaintLCD)
    263          //*-----------------------------------------------------------------------------

   \                                 In section Debug.txt, align 4, keep-with-next
    264          void CanvasPixel(char X, char Y, char Colour)
    265          {
   \                     CanvasPixel:
   \   00000000   10B5               PUSH     {R4,LR}
    266               char kol=(X)/8;
   \   00000002   0300               MOVS     R3,R0
   \   00000004   DB08               LSRS     R3,R3,#+3
    267               char bit=(X)%8;
   \   00000006   DC00               LSLS     R4,R3,#+3
   \   00000008   001B               SUBS     R0,R0,R4
   \   0000000A   0006               LSLS     R0,R0,#+24
   \   0000000C   000E               LSRS     R0,R0,#+24
    268               
    269               if ( Colour == 0 )
   \   0000000E   002A               CMP      R2,#+0
   \   00000010   09D1               BNE      ??CanvasPixel_0
    270               {
    271                 LCD_Canvas[kol][Y] &=~(1<<bit); 
   \   00000012   DA01               LSLS     R2,R3,#+7
   \   00000014   ....               LDR      R3,??DataTable10  ;; LCD_Canvas
   \   00000016   9A18               ADDS     R2,R3,R2
   \   00000018   5118               ADDS     R1,R2,R1
   \   0000001A   0A78               LDRB     R2,[R1, #+0]
   \   0000001C   0123               MOVS     R3,#+1
   \   0000001E   8340               LSLS     R3,R3,R0
   \   00000020   9A43               BICS     R2,R2,R3
   \   00000022   0A70               STRB     R2,[R1, #+0]
   \   00000024   08E0               B        ??CanvasPixel_1
    272               }
    273               else
    274               {
    275                 LCD_Canvas[kol][Y] |=(1<<bit);  
   \                     ??CanvasPixel_0:
   \   00000026   DA01               LSLS     R2,R3,#+7
   \   00000028   ....               LDR      R3,??DataTable10  ;; LCD_Canvas
   \   0000002A   9A18               ADDS     R2,R3,R2
   \   0000002C   5118               ADDS     R1,R2,R1
   \   0000002E   0A78               LDRB     R2,[R1, #+0]
   \   00000030   0123               MOVS     R3,#+1
   \   00000032   8340               LSLS     R3,R3,R0
   \   00000034   1343               ORRS     R3,R3,R2
   \   00000036   0B70               STRB     R3,[R1, #+0]
    276               }
    277          }//_______________________ Koniec funkcji CleanCanvasArea __________________________
   \                     ??CanvasPixel_1:
   \   00000038   10BC               POP      {R4}
   \   0000003A   01BC               POP      {R0}
   \   0000003C   0047               BX       R0               ;; return
    278          
    279          
    280          
    281          
    282          
    283          
    284          //*-----------------------------------------------------------------------------
    285          //* Nazwa funkcji :    CopyToCanvas
    286          //* Funkcja kopiowania dowolnej tablicy[8][128] do bufora wyœwietlacza 
    287          //*-----------------------------------------------------------------------------
    288          //* Efekt widoczny po odœwierzeniu LCD (RepaintLCD)
    289          //*-----------------------------------------------------------------------------

   \                                 In section Debug.txt, align 4, keep-with-next
    290          void CopyToCanvas(char Tabela[8][128])
    291          {
   \                     CopyToCanvas:
   \   00000000   31B5               PUSH     {R0,R4,R5,LR}
    292            for (int i=0; i<=7; i++)
   \   00000002   0021               MOVS     R1,#+0
   \   00000004   0A00               MOVS     R2,R1
   \   00000006   09E0               B        ??CopyToCanvas_0
    293            {
    294              for (int j=0; j<=127; j++)
    295              {
    296                LCD_Canvas[i][j] =Tabela[i][j]; 
   \                     ??CopyToCanvas_1:
   \   00000008   D401               LSLS     R4,R2,#+7
   \   0000000A   ....               LDR      R5,??DataTable10  ;; LCD_Canvas
   \   0000000C   2D19               ADDS     R5,R5,R4
   \   0000000E   0419               ADDS     R4,R0,R4
   \   00000010   E45C               LDRB     R4,[R4, R3]
   \   00000012   EC54               STRB     R4,[R5, R3]
    297              }
   \   00000014   5B1C               ADDS     R3,R3,#+1
   \                     ??CopyToCanvas_2:
   \   00000016   802B               CMP      R3,#+128
   \   00000018   F6DB               BLT      ??CopyToCanvas_1
   \   0000001A   521C               ADDS     R2,R2,#+1
   \                     ??CopyToCanvas_0:
   \   0000001C   082A               CMP      R2,#+8
   \   0000001E   01DA               BGE      ??CopyToCanvas_3
   \   00000020   0B00               MOVS     R3,R1
   \   00000022   F8E7               B        ??CopyToCanvas_2
    298            }
    299          }//_______________________ Koniec funkcji CopyToCanvas __________________________
   \                     ??CopyToCanvas_3:
   \   00000024   38BC               POP      {R3-R5}
   \   00000026   01BC               POP      {R0}
   \   00000028   0047               BX       R0               ;; return
    300          
    301          
    302          
    303          
    304          
    305          
    306          //*-----------------------------------------------------------------------------
    307          //* Nazwa funkcji :    CopyToCanvas
    308          //* Funkcja kopiowania dowolnej tablicy[8][128] do bufora wyœwietlacza 
    309          //*-----------------------------------------------------------------------------
    310          //* Efekt widoczny po odœwierzeniu LCD (RepaintLCD)
    311          //*-----------------------------------------------------------------------------

   \                                 In section Debug.txt, align 4, keep-with-next
    312          void CopyToCanvasPoint(char *Tabela, char X, char Y, char X_Lenght, char Y_Lenght)
    313          {
   \                     CopyToCanvasPoint:
   \   00000000   FBB5               PUSH     {R0,R1,R3-R7,LR}
   \   00000002   84B0               SUB      SP,SP,#+16
    314          
    315            char kol=0;
    316            char bit=0;
    317            char kol2=0;
    318            char bit2=0;
    319            char linia=Y;
   \   00000004   0092               STR      R2,[SP, #+0]
   \   00000006   0020               MOVS     R0,#+0
   \   00000008   0190               STR      R0,[SP, #+4]
   \   0000000A   07E0               B        ??CopyToCanvasPoint_0
    320            
    321            for (int i=0; i<=Y_Lenght-1; i++)
    322             {
    323          
    324               
    325               kol=(X)/8;
    326               bit=(X)%8;
    327               
    328               kol2=0;
    329               bit2=0;
    330                 
    331               for (int j=0; j<=X_Lenght-1; j++)
    332                {
    333                   if (((Tabela[(kol2*Y_Lenght)+(i)]>>bit2)&0x1)>0)
    334                    {
    335                       
    336                       LCD_Canvas[kol][linia] |=(1<<bit); 
    337                    }
    338                    else
    339                    {
    340                       LCD_Canvas[kol][linia] &=~(1<<bit);  
    341                    }
    342                   
    343            
    344                     if (bit<7)  { bit++;}  else {bit=0;   kol++;  }
    345                     if (bit2<7) { bit2++;} else {bit2=0;  kol2++; }           
    346                }   
    347               
    348                linia++;
   \                     ??CopyToCanvasPoint_1:
   \   0000000C   0098               LDR      R0,[SP, #+0]
   \   0000000E   401C               ADDS     R0,R0,#+1
   \   00000010   0006               LSLS     R0,R0,#+24
   \   00000012   000E               LSRS     R0,R0,#+24
   \   00000014   0090               STR      R0,[SP, #+0]
   \   00000016   0198               LDR      R0,[SP, #+4]
   \   00000018   401C               ADDS     R0,R0,#+1
   \   0000001A   0190               STR      R0,[SP, #+4]
   \                     ??CopyToCanvasPoint_0:
   \   0000001C   0CA8               ADD      R0,SP,#+48
   \   0000001E   0078               LDRB     R0,[R0, #+0]
   \   00000020   0290               STR      R0,[SP, #+8]
   \   00000022   401E               SUBS     R0,R0,#+1
   \   00000024   0199               LDR      R1,[SP, #+4]
   \   00000026   8842               CMP      R0,R1
   \   00000028   4CDB               BLT      ??CopyToCanvasPoint_2
   \   0000002A   6846               MOV      R0,SP
   \   0000002C   007D               LDRB     R0,[R0, #+20]
   \   0000002E   C008               LSRS     R0,R0,#+3
   \   00000030   6946               MOV      R1,SP
   \   00000032   097D               LDRB     R1,[R1, #+20]
   \   00000034   C200               LSLS     R2,R0,#+3
   \   00000036   891A               SUBS     R1,R1,R2
   \   00000038   0906               LSLS     R1,R1,#+24
   \   0000003A   090E               LSRS     R1,R1,#+24
   \   0000003C   0023               MOVS     R3,#+0
   \   0000003E   1A00               MOVS     R2,R3
   \   00000040   1400               MOVS     R4,R2
   \   00000042   02E0               B        ??CopyToCanvasPoint_3
   \                     ??CopyToCanvasPoint_4:
   \   00000044   0022               MOVS     R2,#+0
   \   00000046   5B1C               ADDS     R3,R3,#+1
   \                     ??CopyToCanvasPoint_5:
   \   00000048   641C               ADDS     R4,R4,#+1
   \                     ??CopyToCanvasPoint_3:
   \   0000004A   6D46               MOV      R5,SP
   \   0000004C   2D7E               LDRB     R5,[R5, #+24]
   \   0000004E   6D1E               SUBS     R5,R5,#+1
   \   00000050   A542               CMP      R5,R4
   \   00000052   DBDB               BLT      ??CopyToCanvasPoint_1
   \   00000054   1B06               LSLS     R3,R3,#+24
   \   00000056   1B0E               LSRS     R3,R3,#+24
   \   00000058   029D               LDR      R5,[SP, #+8]
   \   0000005A   5D43               MULS     R5,R3,R5
   \   0000005C   019E               LDR      R6,[SP, #+4]
   \   0000005E   AD19               ADDS     R5,R5,R6
   \   00000060   049E               LDR      R6,[SP, #+16]
   \   00000062   755D               LDRB     R5,[R6, R5]
   \   00000064   1541               ASRS     R5,R5,R2
   \   00000066   0126               MOVS     R6,#+1
   \   00000068   2E40               ANDS     R6,R6,R5
   \   0000006A   012E               CMP      R6,#+1
   \   0000006C   009D               LDR      R5,[SP, #+0]
   \   0000006E   0CDB               BLT      ??CopyToCanvasPoint_6
   \   00000070   2D06               LSLS     R5,R5,#+24
   \   00000072   2D0E               LSRS     R5,R5,#+24
   \   00000074   0600               MOVS     R6,R0
   \   00000076   F601               LSLS     R6,R6,#+7
   \   00000078   ....               LDR      R7,??DataTable10  ;; LCD_Canvas
   \   0000007A   BE19               ADDS     R6,R7,R6
   \   0000007C   7519               ADDS     R5,R6,R5
   \   0000007E   2E78               LDRB     R6,[R5, #+0]
   \   00000080   0127               MOVS     R7,#+1
   \   00000082   8F40               LSLS     R7,R7,R1
   \   00000084   3743               ORRS     R7,R7,R6
   \   00000086   2F70               STRB     R7,[R5, #+0]
   \   00000088   0BE0               B        ??CopyToCanvasPoint_7
   \                     ??CopyToCanvasPoint_6:
   \   0000008A   2D06               LSLS     R5,R5,#+24
   \   0000008C   2D0E               LSRS     R5,R5,#+24
   \   0000008E   0600               MOVS     R6,R0
   \   00000090   F601               LSLS     R6,R6,#+7
   \   00000092   ....               LDR      R7,??DataTable10  ;; LCD_Canvas
   \   00000094   BE19               ADDS     R6,R7,R6
   \   00000096   7519               ADDS     R5,R6,R5
   \   00000098   2E78               LDRB     R6,[R5, #+0]
   \   0000009A   0127               MOVS     R7,#+1
   \   0000009C   8F40               LSLS     R7,R7,R1
   \   0000009E   BE43               BICS     R6,R6,R7
   \   000000A0   2E70               STRB     R6,[R5, #+0]
   \                     ??CopyToCanvasPoint_7:
   \   000000A2   0D00               MOVS     R5,R1
   \   000000A4   072D               CMP      R5,#+7
   \   000000A6   03D2               BCS      ??CopyToCanvasPoint_8
   \   000000A8   491C               ADDS     R1,R1,#+1
   \   000000AA   0906               LSLS     R1,R1,#+24
   \   000000AC   090E               LSRS     R1,R1,#+24
   \   000000AE   03E0               B        ??CopyToCanvasPoint_9
   \                     ??CopyToCanvasPoint_8:
   \   000000B0   0021               MOVS     R1,#+0
   \   000000B2   401C               ADDS     R0,R0,#+1
   \   000000B4   0006               LSLS     R0,R0,#+24
   \   000000B6   000E               LSRS     R0,R0,#+24
   \                     ??CopyToCanvasPoint_9:
   \   000000B8   1206               LSLS     R2,R2,#+24
   \   000000BA   120E               LSRS     R2,R2,#+24
   \   000000BC   072A               CMP      R2,#+7
   \   000000BE   C1D2               BCS      ??CopyToCanvasPoint_4
   \   000000C0   521C               ADDS     R2,R2,#+1
   \   000000C2   C1E7               B        ??CopyToCanvasPoint_5
    349             }
    350          
    351          }//_______________________ Koniec funkcji CopyToCanvas __________________________
   \                     ??CopyToCanvasPoint_2:
   \   000000C4   07B0               ADD      SP,SP,#+28
   \   000000C6   F0BC               POP      {R4-R7}
   \   000000C8   01BC               POP      {R0}
   \   000000CA   0047               BX       R0               ;; return
    352          
    353          
    354          
    355          
    356          //*-----------------------------------------------------------------------------
    357          //* Nazwa funkcji :    at91DisplayOnOff
    358          //* Funkcja za³¹czania/wy³¹czania LCD
    359          //*-----------------------------------------------------------------------------
    360          //////////////////////////////////////////////////////
    361          // R/W  D/I  DB7  DB6  DB5  DB4  DB3  DB2  DB1  DB0 //
    362          //  RW   DI  DB7  DB6  DB5  DB4  DB3  DB2  DB1  DB0 //
    363          //   0    0    0    0    1    1    1    1    1    D //
    364          //                                                  //
    365          // on_off - "0" - OFF                               //
    366          //        - "1" - ON                                //
    367          //////////////////////////////////////////////////////
    368          //*-----------------------------------------------------------------------------
    369          

   \                                 In section Debug.txt, align 4, keep-with-next
    370           void at91DisplayOnOff(char on_off)
    371           {
   \                     at91DisplayOnOff:
   \   00000000   70B5               PUSH     {R4-R6,LR}
    372              m_pPio->PIO_CODR =  LCD_BUS_MASK;                         // zeruje piny
   \   00000002   0E4C               LDR      R4,??at91DisplayOnOff_0  ;; m_pPio
   \   00000004   0E4D               LDR      R5,??at91DisplayOnOff_0+0x4  ;; 0x7e00811c
   \   00000006   2168               LDR      R1,[R4, #+0]
   \   00000008   4D63               STR      R5,[R1, #+52]
    373          
    374             
    375              //m_pPio->PIO_CODR = DB5 | DB4 | DB3 | DB2 | DB1 | on_off << 3;  // "1" na wyœwietlaczu
    376             if (on_off)
   \   0000000A   0028               CMP      R0,#+0
   \   0000000C   2068               LDR      R0,[R4, #+0]
   \   0000000E   02D0               BEQ      ??at91DisplayOnOff_1
    377             {
    378                m_pPio->PIO_SODR = DB5 | DB4 | DB3 | DB2 | DB1 | DB0;  // "1" na wyœwietlaczu
   \   00000010   0C49               LDR      R1,??at91DisplayOnOff_0+0x8  ;; 0x3c000110
   \   00000012   0163               STR      R1,[R0, #+48]
   \   00000014   01E0               B        ??at91DisplayOnOff_2
    379             }
    380             else
    381             {
    382                m_pPio->PIO_SODR = DB5 | DB4 | DB3 | DB2 | DB1;  // "1" na wyœwietlaczu 
   \                     ??at91DisplayOnOff_1:
   \   00000016   0C49               LDR      R1,??at91DisplayOnOff_0+0xC  ;; 0x1c000110
   \   00000018   0163               STR      R1,[R0, #+48]
    383             }
    384             
    385             m_pPio->PIO_CODR = DI | RW;
   \                     ??at91DisplayOnOff_2:
   \   0000001A   2068               LDR      R0,[R4, #+0]
   \   0000001C   0C21               MOVS     R1,#+12
   \   0000001E   4163               STR      R1,[R0, #+52]
    386              m_pPio->PIO_SODR = ENABLE;
   \   00000020   8026               MOVS     R6,#+128
   \   00000022   F605               LSLS     R6,R6,#+23       ;; #+1073741824
   \   00000024   2068               LDR      R0,[R4, #+0]
   \   00000026   0663               STR      R6,[R0, #+48]
    387              Delay(2);
   \   00000028   0220               MOVS     R0,#+2
   \   0000002A   ........           BL       Delay
    388              m_pPio->PIO_CODR = ENABLE;
   \   0000002E   2068               LDR      R0,[R4, #+0]
   \   00000030   4663               STR      R6,[R0, #+52]
    389             m_pPio->PIO_CODR =  LCD_BUS_MASK;                         // "0" na wyœwietlaczu
   \   00000032   2068               LDR      R0,[R4, #+0]
   \   00000034   4563               STR      R5,[R0, #+52]
    390          
    391          }//_______________________ Koniec funkcji at91DisplayOnOff ______________________
   \   00000036   70BC               POP      {R4-R6}
   \   00000038   01BC               POP      {R0}
   \   0000003A   0047               BX       R0               ;; return
   \                     ??at91DisplayOnOff_0:
   \   0000003C   ........           DC32     m_pPio
   \   00000040   1C81007E           DC32     0x7e00811c
   \   00000044   1001003C           DC32     0x3c000110
   \   00000048   1001001C           DC32     0x1c000110
    392           
    393           
    394          
    395          
    396          
    397          
    398          
    399           
    400          //*-----------------------------------------------------------------------------
    401          //* Nazwa funkcji :    at91DisplayStartLine
    402          //* Funkcja ustawienia lini startowej
    403          //*-----------------------------------------------------------------------------
    404          //////////////////////////////////////////////////////
    405          // R/W  D/I  DB7  DB6  DB5  DB4  DB3  DB2  DB1  DB0 //
    406          //  RW   DI  DB7  DB6  DB5  DB4  DB3  DB2  DB1  DB0 //
    407          //   0    0    1    1    A    A    A    A    A    A //
    408          //                                                  //
    409          // AAAAAA - przesuniêcie w górê strony testowej     //
    410          //////////////////////////////////////////////////////
    411          //*-----------------------------------------------------------------------------

   \                                 In section Debug.txt, align 4, keep-with-next
    412           void at91DisplayStartLine(void)
    413           {
   \                     at91DisplayStartLine:
   \   00000000   70B5               PUSH     {R4-R6,LR}
    414             m_pPio->PIO_CODR =  LCD_BUS_MASK;                         // zeruje piny
   \   00000002   0C4C               LDR      R4,??at91DisplayStartLine_0  ;; m_pPio
   \   00000004   0C4D               LDR      R5,??at91DisplayStartLine_0+0x4  ;; 0x7e00811c
   \   00000006   2068               LDR      R0,[R4, #+0]
   \   00000008   4563               STR      R5,[R0, #+52]
    415          
    416             
    417              m_pPio->PIO_SODR =  DB7 | DB6 ;  // "1" na wyœwietlaczu
   \   0000000A   2068               LDR      R0,[R4, #+0]
   \   0000000C   0B49               LDR      R1,??at91DisplayStartLine_0+0x8  ;; 0x2008000
   \   0000000E   0163               STR      R1,[R0, #+48]
    418              m_pPio->PIO_CODR = DI | RW;
   \   00000010   2068               LDR      R0,[R4, #+0]
   \   00000012   0C21               MOVS     R1,#+12
   \   00000014   4163               STR      R1,[R0, #+52]
    419              m_pPio->PIO_SODR = ENABLE;
   \   00000016   8026               MOVS     R6,#+128
   \   00000018   F605               LSLS     R6,R6,#+23       ;; #+1073741824
   \   0000001A   2068               LDR      R0,[R4, #+0]
   \   0000001C   0663               STR      R6,[R0, #+48]
    420              Delay(2);
   \   0000001E   0220               MOVS     R0,#+2
   \   00000020   ........           BL       Delay
    421              m_pPio->PIO_CODR = ENABLE;
   \   00000024   2068               LDR      R0,[R4, #+0]
   \   00000026   4663               STR      R6,[R0, #+52]
    422              m_pPio->PIO_CODR =  LCD_BUS_MASK;                         // "0" na wyœwietlaczu
   \   00000028   2068               LDR      R0,[R4, #+0]
   \   0000002A   4563               STR      R5,[R0, #+52]
    423          
    424          }//_____________________ Koniec funkcji at91DisplayStartLine ___________________
   \   0000002C   70BC               POP      {R4-R6}
   \   0000002E   01BC               POP      {R0}
   \   00000030   0047               BX       R0               ;; return
   \   00000032   C046               Nop      
   \                     ??at91DisplayStartLine_0:
   \   00000034   ........           DC32     m_pPio
   \   00000038   1C81007E           DC32     0x7e00811c
   \   0000003C   00800002           DC32     0x2008000
    425          
    426          
    427          
    428          
    429          
    430          
    431          
    432          
    433           
    434          //*-----------------------------------------------------------------------------
    435          //* Nazwa funkcji :    at91DisplayStartPage
    436          //* Funkcja ustawienia strony
    437          //*-----------------------------------------------------------------------------
    438          //////////////////////////////////////////////////////
    439          // R/W  D/I  DB7  DB6  DB5  DB4  DB3  DB2  DB1  DB0 //
    440          //  RW   DI  DB7  DB6  DB5  DB4  DB3  DB2  DB1  DB0 //
    441          //   0    0    1    0    1    1    1    A    A    A //
    442          //                                                  //
    443          // AAA - numer zapisywanej strony                   //
    444          //////////////////////////////////////////////////////
    445          //*-----------------------------------------------------------------------------
    446          

   \                                 In section Debug.txt, align 4, keep-with-next
    447           void at91DisplayStartPage(char lcd_start_page)
    448           {
   \                     at91DisplayStartPage:
   \   00000000   70B5               PUSH     {R4-R6,LR}
    449              char data=lcd_start_page; 
    450              
    451              m_pPio->PIO_CODR =  LCD_BUS_MASK;                         // zeruje piny
   \   00000002   134C               LDR      R4,??at91DisplayStartPage_0  ;; m_pPio
   \   00000004   134D               LDR      R5,??at91DisplayStartPage_0+0x4  ;; 0x7e00811c
   \   00000006   2168               LDR      R1,[R4, #+0]
   \   00000008   4D63               STR      R5,[R1, #+52]
    452          
    453                
    454              //m_pPio->PIO_CODR = DB7 | DB5 | DB4 | DB3 | lcd_start_page << 3;  // "1" na wyœwietlaczu
    455              m_pPio->PIO_SODR = DB7 | DB5 | DB4 | DB3 | (((data>>2)&0x1)<<mDB2) | (((data>>1)&0x1)<<mDB1) | (((data>>0)&0x1)<<mDB0) ;  // "1" na wyœwietlaczu
   \   0000000A   0121               MOVS     R1,#+1
   \   0000000C   2268               LDR      R2,[R4, #+0]
   \   0000000E   0300               MOVS     R3,R0
   \   00000010   9B10               ASRS     R3,R3,#+2
   \   00000012   0B40               ANDS     R3,R3,R1
   \   00000014   DB06               LSLS     R3,R3,#+27
   \   00000016   0600               MOVS     R6,R0
   \   00000018   7610               ASRS     R6,R6,#+1
   \   0000001A   0E40               ANDS     R6,R6,R1
   \   0000001C   3607               LSLS     R6,R6,#+28
   \   0000001E   1E43               ORRS     R6,R6,R3
   \   00000020   0140               ANDS     R1,R1,R0
   \   00000022   4807               LSLS     R0,R1,#+29
   \   00000024   3043               ORRS     R0,R0,R6
   \   00000026   0C49               LDR      R1,??at91DisplayStartPage_0+0x8  ;; 0x4008110
   \   00000028   0143               ORRS     R1,R1,R0
   \   0000002A   1163               STR      R1,[R2, #+48]
    456              m_pPio->PIO_CODR = DI | RW;
   \   0000002C   2068               LDR      R0,[R4, #+0]
   \   0000002E   0C21               MOVS     R1,#+12
   \   00000030   4163               STR      R1,[R0, #+52]
    457              m_pPio->PIO_SODR = ENABLE;
   \   00000032   8026               MOVS     R6,#+128
   \   00000034   F605               LSLS     R6,R6,#+23       ;; #+1073741824
   \   00000036   2068               LDR      R0,[R4, #+0]
   \   00000038   0663               STR      R6,[R0, #+48]
    458              Delay(LCD_delay);
   \   0000003A   2820               MOVS     R0,#+40
   \   0000003C   ........           BL       Delay
    459              m_pPio->PIO_CODR = ENABLE;
   \   00000040   2068               LDR      R0,[R4, #+0]
   \   00000042   4663               STR      R6,[R0, #+52]
    460             m_pPio->PIO_CODR =  LCD_BUS_MASK;                         // "0" na wyœwietlaczu
   \   00000044   2068               LDR      R0,[R4, #+0]
   \   00000046   4563               STR      R5,[R0, #+52]
    461          
    462          }//_____________________ Koniec funkcji at91DisplayStartPage ___________________
   \   00000048   70BC               POP      {R4-R6}
   \   0000004A   01BC               POP      {R0}
   \   0000004C   0047               BX       R0               ;; return
   \   0000004E   C046               Nop      
   \                     ??at91DisplayStartPage_0:
   \   00000050   ........           DC32     m_pPio
   \   00000054   1C81007E           DC32     0x7e00811c
   \   00000058   10810004           DC32     0x4008110
    463          
    464          
    465          
    466          
    467          
    468          
    469          
    470          
    471          
    472          //*-----------------------------------------------------------------------------
    473          //* Nazwa funkcji :    at91DisplayYAdress
    474          //* Funkcja okreœla wspó³rzêdne X od których ma zacz¹æ 
    475          //*         zapisywaæ, automatycznie inkrementowane    
    476          //*         po kazdej operacji zapisu/odczytu
    477          //*-----------------------------------------------------------------------------      
    478          //////////////////////////////////////////////////////
    479          // R/W  D/I  DB7  DB6  DB5  DB4  DB3  DB2  DB1  DB0 //
    480          //  RW   DI  DB7  DB6  DB5  DB4  DB3  DB2  DB1  DB0 //
    481          //   0    0    0    1    A    A    A    A    A    A //
    482          //                                                  //
    483          // AAAAAA-przesuniêcie zapisywanej kolumny w prawo  //
    484          //////////////////////////////////////////////////////
    485          //*-----------------------------------------------------------------------------
    486          

   \                                 In section Debug.txt, align 4, keep-with-next
    487           void at91DisplayYAdress(char display_Y)
    488           {
   \                     at91DisplayYAdress:
   \   00000000   F1B5               PUSH     {R0,R4-R7,LR}
    489             char data=(0x3F-display_Y); 
   \   00000002   3F21               MOVS     R1,#+63
   \   00000004   091A               SUBS     R1,R1,R0
   \   00000006   0906               LSLS     R1,R1,#+24
   \   00000008   090E               LSRS     R1,R1,#+24
    490             
    491             m_pPio->PIO_CODR =  LCD_BUS_MASK;                         // zeruje piny
   \   0000000A   284C               LDR      R4,??at91DisplayYAdress_0  ;; m_pPio
   \   0000000C   284D               LDR      R5,??at91DisplayYAdress_0+0x4  ;; 0x7e00811c
   \   0000000E   2268               LDR      R2,[R4, #+0]
   \   00000010   5563               STR      R5,[R2, #+52]
    492          
    493          
    494              m_pPio->PIO_SODR = DB6 | (((display_Y>>5)&0x1)<<mDB5) | (((display_Y>>4)&0x1)<<mDB4) | (((display_Y>>3)&0x1)<<mDB3) | (((display_Y>>2)&0x1)<<mDB2) | (((display_Y>>1)&0x1)<<mDB1) | (((display_Y>>0)&0x1)<<mDB0);             // "0" na wyœwietlaczu // "1" na wyœwietlaczu
   \   00000012   0200               MOVS     R2,R0
   \   00000014   0123               MOVS     R3,#+1
   \   00000016   2668               LDR      R6,[R4, #+0]
   \   00000018   4011               ASRS     R0,R0,#+5
   \   0000001A   1840               ANDS     R0,R0,R3
   \   0000001C   8706               LSLS     R7,R0,#+26
   \   0000001E   1000               MOVS     R0,R2
   \   00000020   0011               ASRS     R0,R0,#+4
   \   00000022   1840               ANDS     R0,R0,R3
   \   00000024   0002               LSLS     R0,R0,#+8
   \   00000026   3843               ORRS     R0,R0,R7
   \   00000028   1700               MOVS     R7,R2
   \   0000002A   FF10               ASRS     R7,R7,#+3
   \   0000002C   1F40               ANDS     R7,R7,R3
   \   0000002E   3F01               LSLS     R7,R7,#+4
   \   00000030   0743               ORRS     R7,R7,R0
   \   00000032   1000               MOVS     R0,R2
   \   00000034   8010               ASRS     R0,R0,#+2
   \   00000036   1840               ANDS     R0,R0,R3
   \   00000038   C006               LSLS     R0,R0,#+27
   \   0000003A   3843               ORRS     R0,R0,R7
   \   0000003C   1700               MOVS     R7,R2
   \   0000003E   7F10               ASRS     R7,R7,#+1
   \   00000040   1F40               ANDS     R7,R7,R3
   \   00000042   3F07               LSLS     R7,R7,#+28
   \   00000044   0743               ORRS     R7,R7,R0
   \   00000046   1A40               ANDS     R2,R2,R3
   \   00000048   5007               LSLS     R0,R2,#+29
   \   0000004A   3843               ORRS     R0,R0,R7
   \   0000004C   5A06               LSLS     R2,R3,#+25
   \   0000004E   0243               ORRS     R2,R2,R0
   \   00000050   3263               STR      R2,[R6, #+48]
    495              m_pPio->PIO_CODR = DI | RW | (((data>>5)&0x1)<<mDB5) | (((data>>4)&0x1)<<mDB4) | (((data>>3)&0x1)<<mDB3) | (((data>>2)&0x1)<<mDB2) | (((data>>1)&0x1)<<mDB1) | (((data>>0)&0x1)<<mDB0);             // "0" na wyœwietlaczu
   \   00000052   2068               LDR      R0,[R4, #+0]
   \   00000054   0A00               MOVS     R2,R1
   \   00000056   5211               ASRS     R2,R2,#+5
   \   00000058   1A40               ANDS     R2,R2,R3
   \   0000005A   9606               LSLS     R6,R2,#+26
   \   0000005C   0A00               MOVS     R2,R1
   \   0000005E   1211               ASRS     R2,R2,#+4
   \   00000060   1A40               ANDS     R2,R2,R3
   \   00000062   1202               LSLS     R2,R2,#+8
   \   00000064   3243               ORRS     R2,R2,R6
   \   00000066   0E00               MOVS     R6,R1
   \   00000068   F610               ASRS     R6,R6,#+3
   \   0000006A   1E40               ANDS     R6,R6,R3
   \   0000006C   3601               LSLS     R6,R6,#+4
   \   0000006E   1643               ORRS     R6,R6,R2
   \   00000070   0A00               MOVS     R2,R1
   \   00000072   9210               ASRS     R2,R2,#+2
   \   00000074   1A40               ANDS     R2,R2,R3
   \   00000076   D206               LSLS     R2,R2,#+27
   \   00000078   3243               ORRS     R2,R2,R6
   \   0000007A   0E00               MOVS     R6,R1
   \   0000007C   7610               ASRS     R6,R6,#+1
   \   0000007E   1E40               ANDS     R6,R6,R3
   \   00000080   3607               LSLS     R6,R6,#+28
   \   00000082   1643               ORRS     R6,R6,R2
   \   00000084   0B40               ANDS     R3,R3,R1
   \   00000086   5907               LSLS     R1,R3,#+29
   \   00000088   3143               ORRS     R1,R1,R6
   \   0000008A   0C22               MOVS     R2,#+12
   \   0000008C   0A43               ORRS     R2,R2,R1
   \   0000008E   4263               STR      R2,[R0, #+52]
    496              
    497              m_pPio->PIO_SODR = ENABLE;
   \   00000090   8026               MOVS     R6,#+128
   \   00000092   F605               LSLS     R6,R6,#+23       ;; #+1073741824
   \   00000094   2068               LDR      R0,[R4, #+0]
   \   00000096   0663               STR      R6,[R0, #+48]
    498              Delay(1);
   \   00000098   0120               MOVS     R0,#+1
   \   0000009A   ........           BL       Delay
    499              m_pPio->PIO_CODR = ENABLE;
   \   0000009E   2068               LDR      R0,[R4, #+0]
   \   000000A0   4663               STR      R6,[R0, #+52]
    500              m_pPio->PIO_CODR =  LCD_BUS_MASK;                       // "0" na wyœwietlaczu
   \   000000A2   2068               LDR      R0,[R4, #+0]
   \   000000A4   4563               STR      R5,[R0, #+52]
    501          }//_______________________ Koniec funkcji at91DisplayYAdress ___________________
   \   000000A6   F8BC               POP      {R3-R7}
   \   000000A8   01BC               POP      {R0}
   \   000000AA   0047               BX       R0               ;; return
   \                     ??at91DisplayYAdress_0:
   \   000000AC   ........           DC32     m_pPio
   \   000000B0   1C81007E           DC32     0x7e00811c
    502          
    503           
    504           
    505          
    506           
    507          
    508          
    509          
    510          //*-----------------------------------------------------------------------------
    511          //* Nazwa funkcji :    at91DisplayData
    512          //* Funkcja wpisywania danych do Ram LCD
    513          //*-----------------------------------------------------------------------------
    514          //* R/W  D/I  DB7  DB6  DB5  DB4  DB3  DB2  DB1  DB0 
    515          //*  RW   DI  DB7  DB6  DB5  DB4  DB3  DB2  DB1  DB0 
    516          //*  0    1    A    A    A    A    A    A    A    A 
    517          //*                                                  
    518          //*  AAAAAAAA - dane                                  
    519          //*-----------------------------------------------------------------------------
    520          

   \                                 In section Debug.txt, align 4
    521          inline void at91DisplayData(char lcd_data)
    522           {
   \                     at91DisplayData:
   \   00000000   70B5               PUSH     {R4-R6,LR}
   \   00000002   0100               MOVS     R1,R0
    523          
    524             char data=(0xFF-lcd_data); 
   \   00000004   FF20               MOVS     R0,#+255
   \   00000006   421A               SUBS     R2,R0,R1
   \   00000008   1206               LSLS     R2,R2,#+24
   \   0000000A   120E               LSRS     R2,R2,#+24
    525             m_pPio->PIO_CODR =  LCD_BUS_MASK;                         // zeruje piny
   \   0000000C   304C               LDR      R4,??at91DisplayData_0  ;; m_pPio
   \   0000000E   2068               LDR      R0,[R4, #+0]
   \   00000010   304B               LDR      R3,??at91DisplayData_0+0x4  ;; 0x7e00811c
   \   00000012   4363               STR      R3,[R0, #+52]
    526             
    527                m_pPio->PIO_SODR = DI | (((lcd_data>>7)&0x1)<<mDB7) | (((lcd_data>>6)&0x1)<<mDB6) | (((lcd_data>>5)&0x1)<<mDB5) | (((lcd_data>>4)&0x1)<<mDB4) | (((lcd_data>>3)&0x1)<<mDB3) | (((lcd_data>>2)&0x1)<<mDB2) | (((lcd_data>>1)&0x1)<<mDB1) | (((lcd_data>>0)&0x1)<<mDB0); 
   \   00000014   0123               MOVS     R3,#+1
   \   00000016   2068               LDR      R0,[R4, #+0]
   \   00000018   0D00               MOVS     R5,R1
   \   0000001A   ED09               LSRS     R5,R5,#+7
   \   0000001C   EE03               LSLS     R6,R5,#+15
   \   0000001E   0D00               MOVS     R5,R1
   \   00000020   AD11               ASRS     R5,R5,#+6
   \   00000022   1D40               ANDS     R5,R5,R3
   \   00000024   6D06               LSLS     R5,R5,#+25
   \   00000026   3543               ORRS     R5,R5,R6
   \   00000028   0E00               MOVS     R6,R1
   \   0000002A   7611               ASRS     R6,R6,#+5
   \   0000002C   1E40               ANDS     R6,R6,R3
   \   0000002E   B606               LSLS     R6,R6,#+26
   \   00000030   2E43               ORRS     R6,R6,R5
   \   00000032   0D00               MOVS     R5,R1
   \   00000034   2D11               ASRS     R5,R5,#+4
   \   00000036   1D40               ANDS     R5,R5,R3
   \   00000038   2D02               LSLS     R5,R5,#+8
   \   0000003A   3543               ORRS     R5,R5,R6
   \   0000003C   0E00               MOVS     R6,R1
   \   0000003E   F610               ASRS     R6,R6,#+3
   \   00000040   1E40               ANDS     R6,R6,R3
   \   00000042   3601               LSLS     R6,R6,#+4
   \   00000044   2E43               ORRS     R6,R6,R5
   \   00000046   0D00               MOVS     R5,R1
   \   00000048   AD10               ASRS     R5,R5,#+2
   \   0000004A   1D40               ANDS     R5,R5,R3
   \   0000004C   ED06               LSLS     R5,R5,#+27
   \   0000004E   3543               ORRS     R5,R5,R6
   \   00000050   0E00               MOVS     R6,R1
   \   00000052   7610               ASRS     R6,R6,#+1
   \   00000054   1E40               ANDS     R6,R6,R3
   \   00000056   3607               LSLS     R6,R6,#+28
   \   00000058   2E43               ORRS     R6,R6,R5
   \   0000005A   1940               ANDS     R1,R1,R3
   \   0000005C   4907               LSLS     R1,R1,#+29
   \   0000005E   3143               ORRS     R1,R1,R6
   \   00000060   0425               MOVS     R5,#+4
   \   00000062   0D43               ORRS     R5,R5,R1
   \   00000064   0563               STR      R5,[R0, #+48]
    528                m_pPio->PIO_CODR = RW | (((data>>7)&0x1)<<mDB7) | (((data>>6)&0x1)<<mDB6) | (((data>>5)&0x1)<<mDB5) | (((data>>4)&0x1)<<mDB4) | (((data>>3)&0x1)<<mDB3) | (((data>>2)&0x1)<<mDB2) | (((data>>1)&0x1)<<mDB1) | (((data>>0)&0x1)<<mDB0); 
   \   00000066   2068               LDR      R0,[R4, #+0]
   \   00000068   1100               MOVS     R1,R2
   \   0000006A   C909               LSRS     R1,R1,#+7
   \   0000006C   C903               LSLS     R1,R1,#+15
   \   0000006E   1500               MOVS     R5,R2
   \   00000070   AD11               ASRS     R5,R5,#+6
   \   00000072   1D40               ANDS     R5,R5,R3
   \   00000074   6D06               LSLS     R5,R5,#+25
   \   00000076   0D43               ORRS     R5,R5,R1
   \   00000078   1100               MOVS     R1,R2
   \   0000007A   4911               ASRS     R1,R1,#+5
   \   0000007C   1940               ANDS     R1,R1,R3
   \   0000007E   8906               LSLS     R1,R1,#+26
   \   00000080   2943               ORRS     R1,R1,R5
   \   00000082   1500               MOVS     R5,R2
   \   00000084   2D11               ASRS     R5,R5,#+4
   \   00000086   1D40               ANDS     R5,R5,R3
   \   00000088   2D02               LSLS     R5,R5,#+8
   \   0000008A   0D43               ORRS     R5,R5,R1
   \   0000008C   1100               MOVS     R1,R2
   \   0000008E   C910               ASRS     R1,R1,#+3
   \   00000090   1940               ANDS     R1,R1,R3
   \   00000092   0901               LSLS     R1,R1,#+4
   \   00000094   2943               ORRS     R1,R1,R5
   \   00000096   1500               MOVS     R5,R2
   \   00000098   AD10               ASRS     R5,R5,#+2
   \   0000009A   1D40               ANDS     R5,R5,R3
   \   0000009C   ED06               LSLS     R5,R5,#+27
   \   0000009E   0D43               ORRS     R5,R5,R1
   \   000000A0   1100               MOVS     R1,R2
   \   000000A2   4910               ASRS     R1,R1,#+1
   \   000000A4   1940               ANDS     R1,R1,R3
   \   000000A6   0907               LSLS     R1,R1,#+28
   \   000000A8   2943               ORRS     R1,R1,R5
   \   000000AA   1340               ANDS     R3,R3,R2
   \   000000AC   5A07               LSLS     R2,R3,#+29
   \   000000AE   0A43               ORRS     R2,R2,R1
   \   000000B0   0821               MOVS     R1,#+8
   \   000000B2   1143               ORRS     R1,R1,R2
   \   000000B4   4163               STR      R1,[R0, #+52]
    529             
    530          
    531              
    532             m_pPio->PIO_SODR = ENABLE;
   \   000000B6   8025               MOVS     R5,#+128
   \   000000B8   ED05               LSLS     R5,R5,#+23       ;; #+1073741824
   \   000000BA   2068               LDR      R0,[R4, #+0]
   \   000000BC   0563               STR      R5,[R0, #+48]
    533          
    534              Delay(18);
   \   000000BE   1220               MOVS     R0,#+18
   \   000000C0   ........           BL       Delay
    535              m_pPio->PIO_CODR = ENABLE;
   \   000000C4   2068               LDR      R0,[R4, #+0]
   \   000000C6   4563               STR      R5,[R0, #+52]
    536          
    537             // m_pPio->PIO_SODR =  LCD_BUS_MASK;                         // zeruje piny
    538          
    539          }//_______________________ Koniec funkcji at91DisplayData ______________________
   \   000000C8   70BC               POP      {R4-R6}
   \   000000CA   01BC               POP      {R0}
   \   000000CC   0047               BX       R0               ;; return
   \   000000CE   C046               Nop      
   \                     ??at91DisplayData_0:
   \   000000D0   ........           DC32     m_pPio
   \   000000D4   1C81007E           DC32     0x7e00811c
    540          
    541          
    542           
    543           
    544           
    545          //*-----------------------------------------------------------------------------
    546          //* Nazwa funkcji :    at91ChipSelect
    547          //* Funkcja wyboru kontrolera 1z2
    548          //*-----------------------------------------------------------------------------
    549          //* chip_select - "1" - CS1                   
    550          //*             - "2" - CS2      
    551          //*-----------------------------------------------------------------------------
    552          

   \                                 In section Debug.txt, align 4, keep-with-next
    553           void at91ChipSelect(char chip_select)
    554           {
   \                     at91ChipSelect:
   \   00000000   31B5               PUSH     {R0,R4,R5,LR}
    555             unsigned long cs_set;
    556             unsigned long cs_clr;
    557             
    558             m_pPio->PIO_CODR =  LCD_BUS_MASK;                         // zeruje piny
   \   00000002   0C4B               LDR      R3,??at91ChipSelect_0  ;; m_pPio
   \   00000004   1C68               LDR      R4,[R3, #+0]
   \   00000006   0C4D               LDR      R5,??at91ChipSelect_0+0x4  ;; 0x7e00811c
   \   00000008   6563               STR      R5,[R4, #+52]
    559          
    560             
    561             if (chip_select==2) 
   \   0000000A   0228               CMP      R0,#+2
   \   0000000C   02D1               BNE      ??at91ChipSelect_1
    562                {
    563                  cs_set=CS2;
   \   0000000E   8021               MOVS     R1,#+128
   \   00000010   0904               LSLS     R1,R1,#+16       ;; #+8388608
    564                  cs_clr=CS1;
   \   00000012   CA09               LSRS     R2,R1,#+7
    565                }
    566           
    567             if (chip_select==1) 
   \                     ??at91ChipSelect_1:
   \   00000014   0128               CMP      R0,#+1
   \   00000016   02D1               BNE      ??at91ChipSelect_2
    568                {
    569                  cs_set=CS1;
   \   00000018   8021               MOVS     R1,#+128
   \   0000001A   4902               LSLS     R1,R1,#+9        ;; #+65536
    570                  cs_clr=CS2;
   \   0000001C   CA01               LSLS     R2,R1,#+7
    571                }
    572             
    573          
    574          
    575             
    576              m_pPio->PIO_CODR = cs_clr;   
   \                     ??at91ChipSelect_2:
   \   0000001E   1868               LDR      R0,[R3, #+0]
   \   00000020   4263               STR      R2,[R0, #+52]
    577              m_pPio->PIO_SODR = cs_set;                           // "1" na wyœwietlaczu
   \   00000022   1868               LDR      R0,[R3, #+0]
   \   00000024   0163               STR      R1,[R0, #+48]
    578              
    579              
    580              
    581          at91DisplayOnOff(1); 
   \   00000026   0120               MOVS     R0,#+1
   \   00000028   ........           BL       at91DisplayOnOff
    582            
    583            
    584          
    585          }//_______________________ Koniec funkcji at91ChipSelect __________________________
   \   0000002C   38BC               POP      {R3-R5}
   \   0000002E   01BC               POP      {R0}
   \   00000030   0047               BX       R0               ;; return
   \   00000032   C046               Nop      
   \                     ??at91ChipSelect_0:
   \   00000034   ........           DC32     m_pPio
   \   00000038   1C81007E           DC32     0x7e00811c
    586          
    587           
    588           
    589          
    590          
    591          
    592          
    593          
    594          //*-----------------------------------------------------------------------------
    595          //* Nazwa funkcji :    ReadTP
    596          //* Funkcja obs³ugi TouchPanel`a
    597          //*-----------------------------------------------------------------------------
    598          //*  !!! Czas trwania funkcji 15us
    599          //*-----------------------------------------------------------------------------
    600          

   \                                 In section Debug.txt, align 4, keep-with-next
    601          void ReadTP(_TPoint *Point)
    602          {
   \                     ReadTP:
   \   00000000   F1B5               PUSH     {R0,R4-R7,LR}
   \   00000002   0400               MOVS     R4,R0
    603            unsigned pomX, pomY;
    604            pomX=0;
    605            pomY=0;
    606          
    607              //POMIAR X -------------------------------------------------------------------
    608            AT91F_PIO_CfgOutput(TS_PIO, TS_PIO_CH1);
   \   00000004   254D               LDR      R5,??ReadTP_0    ;; 0xfffff400
   \   00000006   8027               MOVS     R7,#+128
   \   00000008   FF02               LSLS     R7,R7,#+11       ;; #+262144
   \   0000000A   3900               MOVS     R1,R7
   \   0000000C   2800               MOVS     R0,R5
   \   0000000E   ........           BL       AT91F_PIO_CfgOutput
   \   00000012   B900               LSLS     R1,R7,#+2
   \   00000014   2800               MOVS     R0,R5
    609            AT91F_PIO_CfgOutput(TS_PIO, TS_PIO_CH3);
   \   00000016   ........           BL       AT91F_PIO_CfgOutput
   \   0000001A   7908               LSRS     R1,R7,#+1
   \   0000001C   2800               MOVS     R0,R5
    610           
    611            AT91F_PIO_CfgInput(TS_PIO, TS_PIO_CH0);
   \   0000001E   ........           BL       AT91F_PIO_CfgInput
    612            TS_PIO->PIO_PPUDR=TS_PIO_CH0;
   \   00000022   1F4E               LDR      R6,??ReadTP_0+0x4  ;; 0xfffff460
   \   00000024   7808               LSRS     R0,R7,#+1
   \   00000026   3060               STR      R0,[R6, #+0]
   \   00000028   1E48               LDR      R0,??ReadTP_0+0x8  ;; TS_pPio
   \   0000002A   0068               LDR      R0,[R0, #+0]
   \   0000002C   0763               STR      R7,[R0, #+48]
    613            
    614            TS_pPio->PIO_SODR = TS_PIO_CH1; 
    615            TS_pPio->PIO_CODR = TS_PIO_CH3;         
   \   0000002E   1D48               LDR      R0,??ReadTP_0+0x8  ;; TS_pPio
   \   00000030   0068               LDR      R0,[R0, #+0]
   \   00000032   B900               LSLS     R1,R7,#+2
   \   00000034   4163               STR      R1,[R0, #+52]
    616              
    617            pomX =  ReadADC(2);
   \   00000036   0220               MOVS     R0,#+2
   \   00000038   ........           BL       ReadADC
   \   0000003C   0700               MOVS     R7,R0
    618            
    619          
    620            
    621            //POMIAR Y -------------------------------------------------------------------
    622            AT91F_PIO_CfgOutput(TS_PIO, TS_PIO_CH0);
   \   0000003E   8021               MOVS     R1,#+128
   \   00000040   8902               LSLS     R1,R1,#+10       ;; #+131072
   \   00000042   2800               MOVS     R0,R5
   \   00000044   ........           BL       AT91F_PIO_CfgOutput
   \   00000048   8021               MOVS     R1,#+128
   \   0000004A   0903               LSLS     R1,R1,#+12       ;; #+524288
   \   0000004C   2800               MOVS     R0,R5
    623            AT91F_PIO_CfgOutput(TS_PIO, TS_PIO_CH2);
   \   0000004E   ........           BL       AT91F_PIO_CfgOutput
    624            
    625            AT91F_PIO_CfgInput(TS_PIO, TS_PIO_CH3);
   \   00000052   8021               MOVS     R1,#+128
   \   00000054   4903               LSLS     R1,R1,#+13       ;; #+1048576
   \   00000056   2800               MOVS     R0,R5
   \   00000058   ........           BL       AT91F_PIO_CfgInput
    626            TS_PIO->PIO_PPUDR=TS_PIO_CH3;
   \   0000005C   8020               MOVS     R0,#+128
   \   0000005E   4003               LSLS     R0,R0,#+13       ;; #+1048576
   \   00000060   3060               STR      R0,[R6, #+0]
    627            
    628            TS_pPio->PIO_SODR = TS_PIO_CH2; 
   \   00000062   1048               LDR      R0,??ReadTP_0+0x8  ;; TS_pPio
   \   00000064   0068               LDR      R0,[R0, #+0]
   \   00000066   8021               MOVS     R1,#+128
   \   00000068   0903               LSLS     R1,R1,#+12       ;; #+524288
   \   0000006A   0163               STR      R1,[R0, #+48]
    629            TS_pPio->PIO_CODR = TS_PIO_CH0;        
   \   0000006C   0D48               LDR      R0,??ReadTP_0+0x8  ;; TS_pPio
   \   0000006E   0068               LDR      R0,[R0, #+0]
   \   00000070   8908               LSRS     R1,R1,#+2
   \   00000072   4163               STR      R1,[R0, #+52]
    630            
    631            
    632            pomY =  ReadADC(1);
   \   00000074   0120               MOVS     R0,#+1
   \   00000076   ........           BL       ReadADC
    633          
    634            //walidacja / wykrycie dotkniêcia
    635            if ((pomY>900) || (pomY<=0) || (pomX>900) || (pomX<=0) )
   \   0000007A   0B49               LDR      R1,??ReadTP_0+0xC  ;; 0x385
   \   0000007C   8842               CMP      R0,R1
   \   0000007E   05D2               BCS      ??ReadTP_1
   \   00000080   0028               CMP      R0,#+0
   \   00000082   03D0               BEQ      ??ReadTP_1
   \   00000084   8F42               CMP      R7,R1
   \   00000086   01D2               BCS      ??ReadTP_1
   \   00000088   002F               CMP      R7,#+0
   \   0000008A   01D1               BNE      ??ReadTP_2
    636            {
    637              pomY=0;
   \                     ??ReadTP_1:
   \   0000008C   0027               MOVS     R7,#+0
   \   0000008E   3800               MOVS     R0,R7
    638              pomX=0;
    639            }
    640          
    641            //kalibracja -----------------------------------------------------------------
    642          
    643          
    644            //przepisanie pomiarów
    645            Point->y=pomY;
   \                     ??ReadTP_2:
   \   00000090   6080               STRH     R0,[R4, #+2]
    646            Point->x=pomX;
   \   00000092   2780               STRH     R7,[R4, #+0]
    647          }
   \   00000094   F8BC               POP      {R3-R7}
   \   00000096   01BC               POP      {R0}
   \   00000098   0047               BX       R0               ;; return
   \   0000009A   C046               Nop      
   \                     ??ReadTP_0:
   \   0000009C   00F4FFFF           DC32     0xfffff400
   \   000000A0   60F4FFFF           DC32     0xfffff460
   \   000000A4   ........           DC32     TS_pPio
   \   000000A8   85030000           DC32     0x385
    648          //END Touth panel ----------------------------------------------------------  
    649          
    650          
    651          
    652          
    653          
    654          
    655          //*-----------------------------------------------------------------------------
    656          //* Nazwa funkcji :    ReadADC
    657          //*-----------------------------------------------------------------------------
    658          //*-----------------------------------------------------------------------------

   \                                 In section .bss, align 2
    659              unsigned short odp=0; 
   \                     odp:
   \   00000000                      DS8 2
    660          

   \                                 In section Debug.txt, align 4, keep-with-next
    661          unsigned short ReadADC (char Channel) 
    662          { 
   \                     ReadADC:
   \   00000000   01B5               PUSH     {R0,LR}
    663          
    664           
    665          
    666              //enable channel and set PIN to ADCx function (no need to write PIO!!) 
    667            AT91C_BASE_ADC->ADC_CR = AT91C_ADC_SWRST; 
   \   00000002   2149               LDR      R1,??ReadADC_1   ;; 0xfffd8000
   \   00000004   0122               MOVS     R2,#+1
   \   00000006   0A60               STR      R2,[R1, #+0]
    668          AT91C_BASE_ADC->ADC_MR = (15<24)|(11<<16)|(4<<8); 
   \   00000008   204A               LDR      R2,??ReadADC_1+0x4  ;; 0xfffd8004
   \   0000000A   214B               LDR      R3,??ReadADC_1+0x8  ;; 0xb0401
   \   0000000C   1360               STR      R3,[R2, #+0]
    669          AT91C_BASE_ADC->ADC_CHDR =0xFF;   
   \   0000000E   214A               LDR      R2,??ReadADC_1+0xC  ;; 0xfffd8014
   \   00000010   FF23               MOVS     R3,#+255
   \   00000012   1360               STR      R3,[R2, #+0]
   \   00000014   0122               MOVS     R2,#+1
   \   00000016   8240               LSLS     R2,R2,R0
   \   00000018   1F4B               LDR      R3,??ReadADC_1+0x10  ;; 0xfffd8010
   \   0000001A   1A60               STR      R2,[R3, #+0]
    670            
    671            //AT91C_BASE_ADC->ADC_CHDR =0xFF; 
    672              AT91C_BASE_ADC->ADC_CHER = (1<< Channel);    
    673              
    674          
    675              //start first conversion 
    676              AT91C_BASE_ADC->ADC_CR = AT91C_ADC_START; 
   \   0000001C   0223               MOVS     R3,#+2
   \   0000001E   0B60               STR      R3,[R1, #+0]
   \   00000020   1E49               LDR      R1,??ReadADC_1+0x14  ;; 0xfffd801c
    677           
    678              while ((AT91C_BASE_ADC->ADC_SR &(1 << Channel))==0){};
   \                     ??ReadADC_2:
   \   00000022   0B68               LDR      R3,[R1, #+0]
   \   00000024   1340               ANDS     R3,R3,R2
   \   00000026   FCD0               BEQ      ??ReadADC_2
    679              //while ((AT91C_BASE_ADC->ADC_SR & AT91C_ADC_DRDY)==0){};
    680          
    681                switch (Channel){
   \   00000028   0528               CMP      R0,#+5
   \   0000002A   23D8               BHI      ??ReadADC_3
   \   0000002C   01A3               ADR      R3,??ReadADC_0
   \   0000002E   1B5C               LDRB     R3,[R3, R0]
   \   00000030   9F44               ADD      PC,PC,R3
   \   00000032   C046               Nop      
   \                     ??ReadADC_0:
   \   00000034   06101A24           DC8      +6,+16,+26,+36
   \   00000038   2E38               DC8      +46,+56
    682                  case 0: odp=AT91C_BASE_ADC->ADC_CDR0; break; 
   \                     ??ReadADC_4:
   \   0000003A   1948               LDR      R0,??ReadADC_1+0x18  ;; odp
   \   0000003C   194B               LDR      R3,??ReadADC_1+0x1C  ;; 0xfffd8030
   \   0000003E   1B68               LDR      R3,[R3, #+0]
   \   00000040   0380               STRH     R3,[R0, #+0]
   \   00000042   17E0               B        ??ReadADC_3
    683                  case 1: odp=AT91C_BASE_ADC->ADC_CDR1; break;  
   \                     ??ReadADC_5:
   \   00000044   1648               LDR      R0,??ReadADC_1+0x18  ;; odp
   \   00000046   184B               LDR      R3,??ReadADC_1+0x20  ;; 0xfffd8034
   \   00000048   1B68               LDR      R3,[R3, #+0]
   \   0000004A   0380               STRH     R3,[R0, #+0]
   \   0000004C   12E0               B        ??ReadADC_3
    684                  case 2: odp=AT91C_BASE_ADC->ADC_CDR2; break;  
   \                     ??ReadADC_6:
   \   0000004E   1448               LDR      R0,??ReadADC_1+0x18  ;; odp
   \   00000050   164B               LDR      R3,??ReadADC_1+0x24  ;; 0xfffd8038
   \   00000052   1B68               LDR      R3,[R3, #+0]
   \   00000054   0380               STRH     R3,[R0, #+0]
   \   00000056   0DE0               B        ??ReadADC_3
    685                  case 3: odp=AT91C_BASE_ADC->ADC_CDR3; break;  
   \                     ??ReadADC_7:
   \   00000058   1148               LDR      R0,??ReadADC_1+0x18  ;; odp
   \   0000005A   154B               LDR      R3,??ReadADC_1+0x28  ;; 0xfffd803c
   \   0000005C   1B68               LDR      R3,[R3, #+0]
   \   0000005E   0380               STRH     R3,[R0, #+0]
   \   00000060   08E0               B        ??ReadADC_3
    686                  case 4: odp=AT91C_BASE_ADC->ADC_CDR4; break;  
   \                     ??ReadADC_8:
   \   00000062   0F48               LDR      R0,??ReadADC_1+0x18  ;; odp
   \   00000064   134B               LDR      R3,??ReadADC_1+0x2C  ;; 0xfffd8040
   \   00000066   1B68               LDR      R3,[R3, #+0]
   \   00000068   0380               STRH     R3,[R0, #+0]
   \   0000006A   03E0               B        ??ReadADC_3
    687                  case 5: odp=AT91C_BASE_ADC->ADC_CDR5; break;  
   \                     ??ReadADC_9:
   \   0000006C   0C48               LDR      R0,??ReadADC_1+0x18  ;; odp
   \   0000006E   124B               LDR      R3,??ReadADC_1+0x30  ;; 0xfffd8044
   \   00000070   1B68               LDR      R3,[R3, #+0]
   \   00000072   0380               STRH     R3,[R0, #+0]
    688                } 
    689                
    690                
    691           while ((AT91C_BASE_ADC->ADC_SR &(1 << Channel))==1){};
   \                     ??ReadADC_3:
   \   00000074   0868               LDR      R0,[R1, #+0]
   \   00000076   1040               ANDS     R0,R0,R2
   \   00000078   0128               CMP      R0,#+1
   \   0000007A   FBD0               BEQ      ??ReadADC_3
    692               
    693               // odp=AT91C_BASE_ADC->ADC_LCDR;
    694          
    695          
    696                
    697               // AT91C_BASE_ADC->ADC_CR = AT91C_ADC_SWRST; 
    698                
    699               // AT91C_BASE_ADC->ADC_CHDR = (1<< Channel);
    700              return odp;
   \   0000007C   0848               LDR      R0,??ReadADC_1+0x18  ;; odp
   \   0000007E   0088               LDRH     R0,[R0, #+0]
   \   00000080   08BC               POP      {R3}
   \   00000082   02BC               POP      {R1}
   \   00000084   0847               BX       R1               ;; return
   \   00000086   C046               Nop      
   \                     ??ReadADC_1:
   \   00000088   0080FDFF           DC32     0xfffd8000
   \   0000008C   0480FDFF           DC32     0xfffd8004
   \   00000090   01040B00           DC32     0xb0401
   \   00000094   1480FDFF           DC32     0xfffd8014
   \   00000098   1080FDFF           DC32     0xfffd8010
   \   0000009C   1C80FDFF           DC32     0xfffd801c
   \   000000A0   ........           DC32     odp
   \   000000A4   3080FDFF           DC32     0xfffd8030
   \   000000A8   3480FDFF           DC32     0xfffd8034
   \   000000AC   3880FDFF           DC32     0xfffd8038
   \   000000B0   3C80FDFF           DC32     0xfffd803c
   \   000000B4   4080FDFF           DC32     0xfffd8040
   \   000000B8   4480FDFF           DC32     0xfffd8044
    701          }
    702          //*-----------------------------------------------------------------------------   
    703             
    704          
    705          
    706          //*-----------------------------------------------------------------------------
    707          //* Nazwa funkcji :    InitTS
    708          //* Funkcja inicjalizacji obs³ugi touchopanel`a
    709          //*-----------------------------------------------------------------------------
    710          //*-----------------------------------------------------------------------------

   \                                 In section Debug.txt, align 4, keep-with-next
    711          void Init_LCD_TS(void) 
    712          { 
   \                     Init_LCD_TS:
   \   00000000   10B5               PUSH     {R4,LR}
    713          //LCD panel ----------------------------------------------------------  
    714           AT91F_PIO_ClearOutput(LCD_PIO,(unsigned int)LightLCD);
   \   00000002   164C               LDR      R4,??Init_LCD_TS_0  ;; 0xfffff400
   \   00000004   0121               MOVS     R1,#+1
   \   00000006   2000               MOVS     R0,R4
   \   00000008   ........           BL       AT91F_PIO_ClearOutput
    715            AT91F_PIO_CfgOutput(LCD_PIO,(unsigned int)LightLCD);      //AT91PS_PIO pPio, unsigned int pioEnable
   \   0000000C   0121               MOVS     R1,#+1
   \   0000000E   2000               MOVS     R0,R4
   \   00000010   ........           BL       AT91F_PIO_CfgOutput
    716          
    717            at91DisplayOnOff(1);     // 0-OFF, 1-ON   
   \   00000014   0120               MOVS     R0,#+1
   \   00000016   ........           BL       at91DisplayOnOff
    718            at91DisplayStartPage(0);
   \   0000001A   0020               MOVS     R0,#+0
   \   0000001C   ........           BL       at91DisplayStartPage
    719            at91DisplayStartLine();  // set start line 
   \   00000020   ........           BL       at91DisplayStartLine
    720             //  at91DisplayStartPage(0);
    721             //at91DisplayYAdress(0);
    722            
    723          //Touth panel ----------------------------------------------------------   
    724             
    725          AT91C_BASE_PIOA->PIO_PPUDR|= TS_PIO_CH0;    //Pull-up enable enable reg.
   \   00000024   0E48               LDR      R0,??Init_LCD_TS_0+0x4  ;; 0xfffff460
   \   00000026   0168               LDR      R1,[R0, #+0]
   \   00000028   8022               MOVS     R2,#+128
   \   0000002A   9202               LSLS     R2,R2,#+10       ;; #+131072
   \   0000002C   0A43               ORRS     R2,R2,R1
   \   0000002E   0260               STR      R2,[R0, #+0]
    726          AT91C_BASE_PIOA->PIO_PPUDR|= TS_PIO_CH1;    //Pull-up enable enable reg.
   \   00000030   0168               LDR      R1,[R0, #+0]
   \   00000032   8022               MOVS     R2,#+128
   \   00000034   D202               LSLS     R2,R2,#+11       ;; #+262144
   \   00000036   0A43               ORRS     R2,R2,R1
   \   00000038   0260               STR      R2,[R0, #+0]
    727          AT91C_BASE_PIOA->PIO_PPUDR|= TS_PIO_CH2;    //Pull-up enable enable reg.
   \   0000003A   0168               LDR      R1,[R0, #+0]
   \   0000003C   8022               MOVS     R2,#+128
   \   0000003E   1203               LSLS     R2,R2,#+12       ;; #+524288
   \   00000040   0A43               ORRS     R2,R2,R1
   \   00000042   0260               STR      R2,[R0, #+0]
    728          AT91C_BASE_PIOA->PIO_PPUDR|= TS_PIO_CH3;    //Pull-up enable enable reg.
   \   00000044   0168               LDR      R1,[R0, #+0]
   \   00000046   8022               MOVS     R2,#+128
   \   00000048   5203               LSLS     R2,R2,#+13       ;; #+1048576
   \   0000004A   0A43               ORRS     R2,R2,R1
   \   0000004C   0260               STR      R2,[R0, #+0]
    729            
    730          AT91C_BASE_ADC->ADC_MR = (3<24)|(11<<16)|(4<<8); 
   \   0000004E   0548               LDR      R0,??Init_LCD_TS_0+0x8  ;; 0xfffd8004
   \   00000050   0549               LDR      R1,??Init_LCD_TS_0+0xC  ;; 0xb0401
   \   00000052   0160               STR      R1,[R0, #+0]
    731          
    732          }//_______________________ Koniec funkcji InitTS __________________________
   \   00000054   10BC               POP      {R4}
   \   00000056   01BC               POP      {R0}
   \   00000058   0047               BX       R0               ;; return
   \   0000005A   C046               Nop      
   \                     ??Init_LCD_TS_0:
   \   0000005C   00F4FFFF           DC32     0xfffff400
   \   00000060   60F4FFFF           DC32     0xfffff460
   \   00000064   0480FDFF           DC32     0xfffd8004
   \   00000068   01040B00           DC32     0xb0401
    733          
    734          
    735          
    736          
    737          
    738          
    739          
    740          
    741          
    742          
    743          

   \                                 In section .rodata, align 4
    744          const char Arial_7[101][10] = {
   \                     Arial_7:
   \   00000000   077F7F3E3E3E       DC8 7, 127, 127, 62, 62, 62, 28, 28, 8, 8, 7, 8, 8, 28, 28, 62, 62, 62
   \              1C1C08080708
   \              081C1C3E3E3E
   \   00000012   7F7F00000000       DC8 127, 127, 0, 0, 0, 0, 0, 0, 0, 0, 0, 0, 1, 0, 1, 0, 1, 1, 1, 1, 1
   \              000000000000
   \              010001000101
   \              010101      
   \   00000027   000300000000       DC8 0, 3, 0, 0, 0, 0, 0, 0, 5, 5, 0, 6, 3, 7, 15, 31, 63, 31, 15, 7, 3
   \              000005050006
   \              03070F1F3F1F
   \              0F0703      
   \   0000003C   0630383C3E3F       DC8 6, 48, 56, 60, 62, 63, 62, 60, 56, 48, 8, 228, 164, 232, 8, 16, 16
   \              3E3C383008E4
   \              A4E8081010  
   \   0000004D   172527050004       DC8 23, 37, 39, 5, 0, 4, 14, 21, 12, 6, 21, 14, 4, 5, 0, 0, 0, 0, 0, 0
   \              0E150C06150E
   \              040500000000
   \              0000        
   \   00000061   110A04030402       DC8 17, 10, 4, 3, 4, 2, 1, 1, 1, 1, 1, 2, 4, 3, 1, 2, 4, 4, 4, 4, 4, 2
   \              010101010102
   \              040301020404
   \              04040402    
   \   00000077   010300000005       DC8 1, 3, 0, 0, 0, 5, 2, 5, 0, 0, 0, 5, 0, 4, 4, 31, 4, 4, 0, 0, 0, 1
   \              020500000005
   \              0004041F0404
   \              00000001    
   \   0000008D   010100000000       DC8 1, 1, 0, 0, 0, 0, 0, 0, 0, 2, 0, 0, 0, 3, 0, 0, 0, 0, 0, 1, 0, 1, 0
   \              000000020000
   \              000300000000
   \              0001000100  
   \   000000A4   000000000000       DC8 0, 0, 0, 0, 0, 0, 3, 0, 1, 1, 2, 2, 2, 4, 4, 0, 4, 0, 6, 9, 9, 9, 9
   \              030001010202
   \              020404000400
   \              0609090909  
   \   000000BB   090600020002       DC8 9, 6, 0, 2, 0, 2, 2, 2, 2, 2, 3, 2, 0, 4, 0, 15, 2, 4, 4, 8, 9, 6
   \              020202020302
   \              0004000F0204
   \              04080906    
   \   000000D1   000400060908       DC8 0, 4, 0, 6, 9, 8, 4, 8, 9, 6, 0, 4, 0, 8, 8, 31, 9, 10, 12, 8, 0, 4
   \              040809060004
   \              0008081F090A
   \              0C080004    
   \   000000E7   000609080807       DC8 0, 6, 9, 8, 8, 7, 1, 15, 0, 4, 0, 6, 9, 9, 9, 7, 9, 6, 0, 4, 0, 2
   \              010F00040006
   \              090909070906
   \              00040002    
   \   000000FD   02020404080F       DC8 2, 2, 4, 4, 8, 15, 0, 4, 0, 6, 9, 9, 6, 9, 9, 6, 0, 4, 0, 6, 9, 14
   \              000400060909
   \              060909060004
   \              0006090E    
   \   00000113   090909060001       DC8 9, 9, 9, 6, 0, 1, 0, 1, 0, 0, 0, 1, 0, 0, 0, 1, 1, 1, 0, 0, 0, 1, 0
   \              000100000001
   \              000000010101
   \              0000000100  
   \   0000012A   000003000004       DC8 0, 0, 3, 0, 0, 4, 2, 1, 2, 4, 0, 0, 4, 0, 0, 0, 15, 0, 15, 0, 0, 0
   \              020102040000
   \              040000000F00
   \              0F000000    
   \   00000140   030000010204       DC8 3, 0, 0, 1, 2, 4, 2, 1, 0, 0, 5, 0, 4, 0, 4, 12, 16, 17, 14, 0, 8
   \              020100000500
   \              0400040C1011
   \              0E0008      
   \   00000155   C23D5595B5A9       DC8 194, 61, 85, 149, 181, 169, 66, 60, 0, 7, 0, 65, 34, 62, 34, 20, 20
   \              423C00070041
   \              223E221414  
   \   00000166   080004000709       DC8 8, 0, 4, 0, 7, 9, 9, 15, 9, 9, 7, 0, 5, 0, 14, 17, 1, 1, 1, 17, 14
   \              090F09090700
   \              05000E110101
   \              01110E      
   \   0000017B   0005000F1111       DC8 0, 5, 0, 15, 17, 17, 17, 17, 17, 15, 0, 5, 0, 31, 1, 1, 31, 1, 1
   \              1111110F0005
   \              001F01011F01
   \              01          
   \   0000018E   1F0004000101       DC8 31, 0, 4, 0, 1, 1, 1, 7, 1, 1, 15, 0, 5, 0, 14, 17, 17, 25, 1, 17
   \              010701010F00
   \              05000E111119
   \              0111        
   \   000001A2   0E0005001111       DC8 14, 0, 5, 0, 17, 17, 17, 31, 17, 17, 17, 0, 3, 0, 7, 2, 2, 2, 2, 2
   \              111F11111100
   \              030007020202
   \              0202        
   \   000001B6   070004000709       DC8 7, 0, 4, 0, 7, 9, 8, 8, 8, 8, 8, 0, 5, 0, 17, 9, 5, 3, 5, 9, 17, 0
   \              080808080800
   \              050011090503
   \              05091100    
   \   000001CC   04000F010101       DC8 4, 0, 15, 1, 1, 1, 1, 1, 1, 0, 7, 0, 73, 85, 85, 85, 99, 99, 65, 0
   \              010101000700
   \              495555556363
   \              4100        
   \   000001E0   050011191915       DC8 5, 0, 17, 25, 25, 21, 19, 19, 17, 0, 5, 0, 14, 17, 17, 17, 17, 17
   \              131311000500
   \              0E1111111111
   \   000001F2   0E0004000101       DC8 14, 0, 4, 0, 1, 1, 1, 15, 9, 9, 15, 0, 5, 0, 30, 9, 17, 17, 17, 17
   \              010F09090F00
   \              05001E091111
   \              1111        
   \   00000206   0E0005001111       DC8 14, 0, 5, 0, 17, 17, 9, 15, 17, 17, 15, 0, 4, 0, 6, 9, 8, 6, 1, 9
   \              090F11110F00
   \              040006090806
   \              0109        
   \   0000021A   060005000404       DC8 6, 0, 5, 0, 4, 4, 4, 4, 4, 4, 31, 0, 5, 0, 14, 17, 17, 17, 17, 17
   \              040404041F00
   \              05000E111111
   \              1111        
   \   0000022E   11000500040A       DC8 17, 0, 5, 0, 4, 10, 10, 10, 17, 17, 17, 0, 7, 0, 34, 34, 85, 73, 73
   \              0A0A11111100
   \              070022225549
   \              49          
   \   00000241   41410005110A       DC8 65, 65, 0, 5, 17, 10, 10, 4, 10, 10, 17, 0, 0, 5, 0, 4, 4, 4, 4, 10
   \              0A040A0A1100
   \              000500040404
   \              040A        
   \   00000255   0A110006003F       DC8 10, 17, 0, 6, 0, 63, 1, 2, 4, 8, 16, 63, 0, 2, 1, 1, 1, 1, 1, 1, 1
   \              01020408103F
   \              000201010101
   \              010101      
   \   0000026A   030003000404       DC8 3, 0, 3, 0, 4, 4, 2, 2, 2, 1, 1, 0, 2, 2, 2, 2, 2, 2, 2, 2, 3, 0, 3
   \              020202010100
   \              020202020202
   \              0202030003  
   \   00000281   000000000005       DC8 0, 0, 0, 0, 0, 5, 5, 2, 0, 5, 0, 31, 0, 0, 0, 0, 0, 0, 0, 2, 0, 0
   \              05020005001F
   \              000000000000
   \              00020000    
   \   00000297   000000000201       DC8 0, 0, 0, 0, 2, 1, 0, 4, 0, 15, 9, 14, 8, 15, 0, 0, 0, 4, 0, 7, 9, 9
   \              0004000F090E
   \              080F00000004
   \              00070909    
   \   000002AD   090701010004       DC8 9, 7, 1, 1, 0, 4, 0, 6, 9, 1, 9, 6, 0, 0, 0, 4, 0, 14, 9, 9, 9, 14
   \              000609010906
   \              00000004000E
   \              0909090E    
   \   000002C3   08080004000E       DC8 8, 8, 0, 4, 0, 14, 1, 15, 9, 6, 0, 0, 0, 3, 0, 2, 2, 2, 2, 7, 2, 4
   \              010F09060000
   \              000300020202
   \              02070204    
   \   000002D9   000406090E09       DC8 0, 4, 6, 9, 14, 9, 9, 14, 0, 0, 0, 4, 0, 9, 9, 9, 9, 7, 1, 1, 0, 1
   \              090E00000004
   \              000909090907
   \              01010001    
   \   000002EF   000909090905       DC8 0, 9, 9, 9, 9, 5, 0, 1, 0, 1, 1, 9, 9, 9, 9, 5, 0, 1, 0, 4, 0, 9, 5
   \              000100010109
   \              090909050001
   \              0004000905  
   \   00000306   070509010100       DC8 7, 5, 9, 1, 1, 0, 1, 0, 1, 1, 1, 1, 1, 1, 1, 0, 7, 0, 73, 73, 73
   \              010001010101
   \              010101000700
   \              494949      
   \   0000031B   493F00000004       DC8 73, 63, 0, 0, 0, 4, 0, 9, 9, 9, 9, 7, 0, 0, 0, 4, 0, 70, 73, 73, 73
   \              000909090907
   \              000000040046
   \              494949      
   \   00000330   260000000401       DC8 38, 0, 0, 0, 4, 1, 71, 73, 73, 73, 39, 0, 0, 0, 4, 8, 78, 73, 73
   \              474949492700
   \              000004084E49
   \              49          
   \   00000343   492E00000003       DC8 73, 46, 0, 0, 0, 3, 0, 1, 1, 1, 1, 7, 0, 0, 0, 4, 0, 71, 72, 70, 65
   \              000101010107
   \              000000040047
   \              484641      
   \   00000358   2E0000000200       DC8 46, 0, 0, 0, 2, 0, 67, 73, 65, 65, 43, 1, 0, 0, 4, 0, 14, 9, 9, 9
   \              434941412B01
   \              000004000E09
   \              0909        
   \   0000036C   090000000500       DC8 9, 0, 0, 0, 5, 0, 68, 74, 74, 74, 17, 0, 0, 0, 5, 0, 10, 21, 21, 21
   \              444A4A4A1100
   \              000005000A15
   \              1515        
   \   00000380   150000000400       DC8 21, 0, 0, 0, 4, 0, 73, 70, 70, 70, 9, 0, 0, 0, 5, 4, 4, 10, 10, 10
   \              494646460900
   \              00000504040A
   \              0A0A        
   \   00000394   110000000300       DC8 17, 0, 0, 0, 3, 0, 71, 65, 66, 68, 23, 0, 0, 0, 3, 2, 66, 66, 65
   \              474142441700
   \              000003024242
   \              41          
   \   000003A7   421202060001       DC8 66, 18, 2, 6, 0, 1, 1, 1, 1, 1, 1, 1, 1, 1, 0, 3, 2, 2, 2, 4, 2, 2
   \              010101010101
   \              010100030202
   \              02040202    
   \   000003BD   020300040000       DC8 2, 3, 0, 4, 0, 0, 0, 13, 11, 0, 0, 0, 0, 8, 0, 96, 144, 16, 16, 18
   \              000D0B000000
   \              000800609010
   \              1012        
   \   000003D1   95620005001E       DC8 149, 98, 0, 5, 0, 30, 1, 31, 1, 31, 1, 30, 0, 5, 0, 17, 10, 10, 4
   \              011F011F011E
   \              000500110A0A
   \              04          
   \   000003E4   0A0A11000700       DC8 10, 10, 17, 0, 7, 0, 28, 34, 65, 73, 73, 42, 8, 0, 0, 0
   \              1C224149492A
   \              08000000    
    745                            {7,127,127,62,62,62,28,28,8,8},        //30   ""
    746                            {7,8,8,28,28,62,62,62,127,127},        //31   ""
    747                            {0,0,0,0,0,0,0,0,0,0},        //32   " "
    748                            {1,0,1,0,1,1,1,1,1,0},        //33   "!"
    749                            {3,0,0,0,0,0,0,5,5,0},        //34   """
    750                            {6,3,7,15,31,63,31,15,7,3},        //35   "Strza³ka w prawo"
    751                            {6,48,56,60,62,63,62,60,56,48},        //36   "Strza³ka w lewo"
    752                            {8,228,164,232,8,16,16,23,37,39},        //37   "%"
    753                            {5,0,4,14,21,12,6,21,14,4},        //38   "$"
    754                            {5,0,0,0,0,0,0,17,10,4},        //39   "^"
    755                            {3,4,2,1,1,1,1,1,2,4},        //40   "("
    756                            {3,1,2,4,4,4,4,4,2,1},        //41   ")"
    757                            {3,0,0,0,5,2,5,0,0,0},        //42   "*"
    758                            {5,0,4,4,31,4,4,0,0,0},        //43   "+"//{5,0,36,4,63,4,4,0,0,0}, 
    759                            {1,1,1,0,0,0,0,0,0,0},        //44   ","
    760                            {2,0,0,0,3,0,0,0,0,0},        //45   "-"
    761                            {1,0,1,0,0,0,0,0,0,0},        //46   "."
    762                            {3,0,1,1,2,2,2,4,4,0},        //47   "/"
    763                            {4,0,6,9,9,9,9,9,6,0},    //0
    764                            {2,0,2,2,2,2,2,3,2,0},    //1
    765                            {4,0,15,2,4,4,8,9,6,0},   //2
    766                            {4,0,6,9,8,4,8,9,6,0},    //3
    767                            {4,0,8,8,31,9,10,12,8,0}, //4
    768                            {4,0,6,9,8,8,7,1,15,0},   //5
    769                            {4,0,6,9,9,9,7,9,6,0},    //6
    770                            {4,0,2,2,2,4,4,8,15,0},   //7
    771                            {4,0,6,9,9,6,9,9,6,0},    //8
    772                            {4,0,6,9,14,9,9,9,6,0},    //9  
    773                            {1,0,1,0,0,0,1,0,0,0},        //58   ":"
    774                            {1,1,1,0,0,0,1,0,0,0},        //59   ";"
    775                            {3,0,0,4,2,1,2,4,0,0},        //60   "<"
    776                            {4,0,0,0,15,0,15,0,0,0},        //61   "="
    777                            {3,0,0,1,2,4,2,1,0,0},        //62   ">"
    778                            {5,0,4,0,4,12,16,17,14,0},        //63   "?"
    779                            {8,194,61,85,149,181,169,66,60,0},        //64   "@"
    780                            {7,0,65,34,62,34,20,20,8,0},        //65   "A"
    781                            {4,0,7,9,9,15,9,9,7,0},        //66   "B"
    782                            {5,0,14,17,1,1,1,17,14,0},        //67   "C"
    783                            {5,0,15,17,17,17,17,17,15,0},        //68   "D"
    784                            {5,0,31,1,1,31,1,1,31,0},        //69   "E"
    785                            {4,0,1,1,1,7,1,1,15,0},        //70   "F"
    786                            {5,0,14,17,17,25,1,17,14,0},        //71   "G"
    787                            {5,0,17,17,17,31,17,17,17,0},        //72   "H"
    788                            {3,0,7,2,2,2,2,2,7,0},        //73   "I"
    789                            {4,0,7,9,8,8,8,8,8,0},        //74   "J"
    790                            {5,0,17,9,5,3,5,9,17,0},        //75   "K"
    791                            {4,0,15,1,1,1,1,1,1,0},        //76   "L"
    792                            {7,0,73,85,85,85,99,99,65,0},        //77   "M"
    793                            {5,0,17,25,25,21,19,19,17,0},        //78   "N"
    794                            {5,0,14,17,17,17,17,17,14,0},        //79   "O"
    795                            {4,0,1,1,1,15,9,9,15,0},        //80   "P"
    796                            {5,0,30,9,17,17,17,17,14,0},        //81   "Q"
    797                            {5,0,17,17,9,15,17,17,15,0},        //82   "R"
    798                            {4,0,6,9,8,6,1,9,6,0},        //83   "S"
    799                            {5,0,4,4,4,4,4,4,31,0},        //84   "T"
    800                            {5,0,14,17,17,17,17,17,17,0},        //85   "U"
    801                            {5,0,4,10,10,10,17,17,17,0},        //86   "V"
    802                            {7,0,34,34,85,73,73,65,65,0},        //87   "W"
    803                            {5,17,10,10,4,10,10,17,0},        //88   "X"
    804                            {5,0,4,4,4,4,10,10,17,0},        //89   "Y"
    805                            {6,0,63,1,2,4,8,16,63,0},        //90   "Z"
    806                            {2,1,1,1,1,1,1,1,3,0},        //91   "["
    807                            {3,0,4,4,2,2,2,1,1,0},        //92   "\"
    808                            {2,2,2,2,2,2,2,2,3,0},        //93   "]"
    809                            {3,0,0,0,0,0,5,5,2,0},        //94   "^"
    810                            {5,0,31,0,0,0,0,0,0,0},        //95   "_"
    811                            {2,0,0,0,0,0,0,2,1,0},        //96   "`"
    812                            {4,0,15,9,14,8,15,0,0,0},        //97   "a"
    813                            {4,0,7,9,9,9,7,1,1,0},        //98   "b"
    814                            {4,0,6,9,1,9,6,0,0,0},        //99   "c"
    815                            {4,0,14,9,9,9,14,8,8,0},        //100   "d"
    816                            {4,0,14,1,15,9,6,0,0,0},        //101   "e"
    817                            {3,0,2,2,2,2,7,2,4,0},        //102   "f"
    818                            {4,6,9,14,9,9,14,0,0,0},        //103   "g"
    819                            {4,0,9,9,9,9,7,1,1,0},        //104   "h"
    820                            {1,0,9,9,9,9,5,0,1,0},        //105   "i"
    821                            {1,1,9,9,9,9,5,0,1,0},        //106   "j"
    822                            {4,0,9,5,7,5,9,1,1,0},        //107   "k"
    823                            {1,0,1,1,1,1,1,1,1,0},        //108   "l"
    824                            {7,0,73,73,73,73,63,0,0,0},        //109   "m"
    825                            {4,0,9,9,9,9,7,0,0,0},        //110   "n"
    826                            {4,0,70,73,73,73,38,0,0,0},        //111   "o"
    827                            {4,1,71,73,73,73,39,0,0,0},        //112   "p"
    828                            {4,8,78,73,73,73,46,0,0,0},        //113   "q"
    829                            {3,0,1,1,1,1,7,0,0,0},             //114   "r"
    830                            {4,0,71,72,70,65,46,0,0,0},        //115   "s"
    831                            {2,0,67,73,65,65,43,1,0,0},        //116   "t"
    832                            {4,0,14,9,9,9,9,0,0,0},            //117   "u"
    833                            {5,0,68,74,74,74,17,0,0,0},        //118   "v"
    834                            {5,0,10,21,21,21,21,0,0,0},         //119   "w"
    835                            {4,0,73,70,70,70,9,0,0,0},         //120   "x"
    836                            {5,4,4,10,10,10,17,0,0,0},         //121   "y"
    837                            {3,0,71,65,66,68,23,0,0,0},        //122   "z"
    838                            {3,2,66,66,65,66,18,2,6,0},        //123   "{"
    839                            {1,1,1,1,1,1,1,1,1,0},        //124   "|"
    840                            {3,2,2,2,4,2,2,2,3,0},        //125   "}"
    841                            {4,0,0,0,13,11,0,0,0,0},        //126   "~"
    842                            {8,0,96,144,16,16,18,149,98,0},        //127   "*C"
    843                            {5,0,30,1,31,1,31,1,30,0},        //128   "€"
    844                            {5,0,17,10,10,4,10,10,17,0},        //129   X
    845                            {7,0,28,34,65,73,73,42,8,0}  //130 OnOff
    846                            };
    847          
    848          
    849          

   \                                 In section .rodata, align 4
    850          const unsigned short Arial_18[100][26] = {
   \                     Arial_18:
   \   00000000   100000000000       DC16 16, 0, 0, 0, 32771, 32771, 32771, 32771, 32771, 32771, 32771
   \              000003800380
   \              038003800380
   \              03800380    
   \   00000016   038003800380       DC16 32771, 32771, 32771, 32771, 32771, 32771, 32771, 32771, 32771
   \              038003800380
   \              038003800380
   \   00000028   038003800380       DC16 32771, 32771, 32771, 0, 0, 0, 16, 0, 0, 0, 32771, 32771, 32771
   \              000000000000
   \              100000000000
   \              000003800380
   \              0380        
   \   00000042   038003800380       DC16 32771, 32771, 32771, 32771, 32771, 32771, 32771, 32771, 32771
   \              038003800380
   \              038003800380
   \   00000054   038003800380       DC16 32771, 32771, 32771, 32771, 32771, 32771, 32771, 0, 0, 0, 0, 0, 0
   \              038003800380
   \              038000000000
   \              000000000000
   \              0000        
   \   0000006E   000000000000       DC16 0, 0, 0, 0, 0, 0, 0, 0, 0, 0, 0, 0, 0, 0, 0, 0, 0, 0, 0, 0, 0, 0
   \              000000000000
   \              000000000000
   \              000000000000
   \              000000000000
   \              000000000000
   \              000000000000
   \              0000        
   \   0000009A   00001000FFFF       DC16 0, 16, 65535, 65535, 65535, 65535, 65535, 65535, 65535, 65535
   \              FFFFFFFFFFFF
   \              FFFFFFFFFFFF
   \              FFFF        
   \   000000AE   FFFFFFFFFFFF       DC16 65535, 65535, 65535, 65535, 65535, 65535, 65535, 65535, 65535
   \              FFFFFFFFFFFF
   \              FFFFFFFFFFFF
   \   000000C0   FFFFFFFFFFFF       DC16 65535, 65535, 65535, 65534, 65534, 65534, 65534, 65534, 16, 65535
   \              FEFFFEFFFEFF
   \              FEFFFEFF1000
   \              FFFF        
   \   000000D4   FFFFFFFFFFFF       DC16 65535, 65535, 65535, 65535, 65535, 65535, 65535, 65535, 65535
   \              FFFFFFFFFFFF
   \              FFFFFFFFFFFF
   \   000000E6   FFFFFFFFFFFF       DC16 65535, 65535, 65535, 65535, 65535, 65535, 65535, 65535, 65535
   \              FFFFFFFFFFFF
   \              FFFFFFFFFFFF
   \   000000F8   FFFFFFFFDEFF       DC16 65535, 65535, 65502, 65502, 65502, 65502, 16, 0, 0, 0, 903, 1927
   \              DEFFDEFFDEFF
   \              100000000000
   \              000087038707
   \   00000110   8F070F070E07       DC16 1935, 1807, 1806, 65535, 65535, 65535, 3614, 3612, 7708, 7740
   \              FFFFFFFFFFFF
   \              1E0E1C0E1C1E
   \              3C1E        
   \   00000124   3C1EFFFFFFFF       DC16 7740, 65535, 65535, 65535, 15480, 14456, 14448, 30832, 30960
   \              FFFF783C7838
   \              70387078F078
   \   00000136   F0780F00C001       DC16 30960, 15, 448, 448, 448, 2032, 8188, 16382, 32767, 32223, 31183
   \              C001C001F007
   \              FC1FFE3FFF7F
   \              DF7DCF79    
   \   0000014C   CF79C079C079       DC16 31183, 31168, 31168, 32704, 16320, 8176, 2044, 510, 479, 463, 463
   \              C07FC03FF01F
   \              FC07FE01DF01
   \              CF01CF01    
   \   00000162   CF7DFF3FFE3F       DC16 32207, 16383, 16382, 8188, 2040, 16, 0, 0, 0, 480, 448, 33728
   \              FC1FF8071000
   \              000000000000
   \              E001C001C083
   \   0000017A   80838087008F       DC16 33664, 34688, 36608, 36608, 40448, 39936, 48128, 14584, 31742
   \              008F009E009C
   \              00BCF838FE7B
   \   0000018C   DEF38FF78FE7       DC16 62430, 63375, 59279, 51087, 51087, 34703, 34703, 990, 1022, 248
   \              8FC78FC78F87
   \              8F87DE03FE03
   \              F800        
   \   000001A0   100000000000       DC16 16, 0, 0, 0, 2032, 57340, 65534, 65087, 63519, 63503, 64527, 65039
   \              0000F007FCDF
   \              FEFF3FFE1FF8
   \              0FF80FFC0FFE
   \   000001B8   1FFF1EDFFE0F       DC16 65311, 57118, 4094, 2040, 2032, 4080, 16376, 15608, 30840, 30844
   \              F807F007F00F
   \              F83FF83C7878
   \              7C78        
   \   000001CC   F87CF83FF03F       DC16 31992, 16376, 16368, 4064, 16, 65535, 65535, 65535, 65535, 65535
   \              E00F1000FFFF
   \              FFFFFFFFFFFF
   \              FFFF        
   \   000001E0   FFFFFFFFFFFF       DC16 65535, 65535, 65535, 65535, 65535, 65535, 65535, 65279, 65535
   \              FFFFFFFFFFFF
   \              FFFFFFFEFFFF
   \   000001F2   FFFFFFFFFFFF       DC16 65535, 65535, 65535, 65535, 65535, 63487, 63487, 65534, 65534
   \              FFFFFFFFFFF7
   \              FFF7FEFFFEFF
   \   00000204   FEFFFEFF1000       DC16 65534, 65534, 16, 120, 60, 60, 1084, 56350, 64542, 64542, 63519
   \              78003C003C00
   \              3C041EDC1EFC
   \              1EFC1FF8    
   \   0000021A   0FF80FFC0FFC       DC16 63503, 64527, 64527, 64527, 56335, 3087, 1055, 1054, 3102, 15390
   \              0FFC0FDC0F0C
   \              1F041E041E0C
   \              1E3C        
   \   0000022E   3C3C3C783C78       DC16 15420, 30780, 30780, 31864, 15472, 15600, 3296, 16, 65535, 65535
   \              787C703CF03C
   \              E00C1000FFFF
   \              FFFF        
   \   00000242   FFFFFFFFFFFF       DC16 65535, 65535, 65535, 65535, 65535, 65535, 65519, 65535, 65535
   \              FFFFFFFFFFFF
   \              EFFFFFFFFFFF
   \   00000254   FFFFFFFFEFFF       DC16 65535, 65535, 65519, 65519, 65535, 65535, 65535, 65527, 65535
   \              EFFFFFFFFFFF
   \              FFFFF7FFFFFF
   \   00000266   FFFFFFFFFFFF       DC16 65535, 65535, 65535, 65535, 65534, 16, 0, 0, 0, 0, 53248, 61440
   \              FFFFFEFF1000
   \              000000000000
   \              000000D000F0
   \   0000027E   00F000F000F0       DC16 61440, 61440, 61440, 61440, 61440, 61440, 53248, 0, 0, 0, 460
   \              00F000F000F0
   \              00D000000000
   \              0000CC01    
   \   00000294   FE33FC31FC70       DC16 13310, 12796, 28924, 29182, 30719, 14335, 12408, 120, 16, 0, 0, 0
   \              FE71FF77FF37
   \              783078001000
   \              000000000000
   \   000002AC   000000000000       DC16 0, 0, 0, 960, 960, 960, 960, 960, 960, 65535, 65535, 65535, 960
   \              C003C003C003
   \              C003C003C003
   \              FFFFFFFFFFFF
   \              C003        
   \   000002C6   C003C003C003       DC16 960, 960, 960, 960, 960, 0, 0, 0, 0, 5, 14, 28, 28, 31, 31, 31, 0
   \              C003C0030000
   \              000000000000
   \              05000E001C00
   \              1C001F001F00
   \              1F000000    
   \   000002E8   000000000000       DC16 0, 0, 0, 0, 0, 0, 0, 0, 0, 0, 0, 0, 0, 0, 0, 0, 0, 0, 9, 0, 0, 0
   \              000000000000
   \              000000000000
   \              000000000000
   \              000000000000
   \              000000000000
   \              090000000000
   \              0000        
   \   00000314   000000000000       DC16 0, 0, 0, 0, 0, 0, 0, 511, 511, 511, 0, 0, 0, 0, 0, 0, 0, 0, 0, 0
   \              000000000000
   \              0000FF01FF01
   \              FF0100000000
   \              000000000000
   \              000000000000
   \              00000000    
   \   0000033C   000000000300       DC16 0, 0, 3, 0, 0, 0, 7, 7, 7, 0, 0, 0, 0, 0, 0, 0, 0, 0, 0, 0, 0, 0
   \              000000000000
   \              070007000700
   \              000000000000
   \              000000000000
   \              000000000000
   \              000000000000
   \              0000        
   \   00000368   000000000000       DC16 0, 0, 0, 0, 0, 0, 8, 0, 0, 0, 3, 3, 7, 7, 7, 7, 15, 14, 14, 30, 30
   \              000000000000
   \              080000000000
   \              000003000300
   \              070007000700
   \              07000F000E00
   \              0E001E001E00
   \   00000392   1C003C003C00       DC16 28, 60, 60, 56, 120, 120, 112, 112, 240, 224, 224, 15, 0, 0, 0
   \              380078007800
   \              70007000F000
   \              E000E0000F00
   \              000000000000
   \   000003B0   F007FC1FFC1F       DC16 2032, 8188, 8188, 15934, 31775, 31775, 30735, 30735, 30735, 30735
   \              3E3E1F7C1F7C
   \              0F780F780F78
   \              0F78        
   \   000003C4   0F780F780F78       DC16 30735, 30735, 30735, 30735, 30735, 30735, 31775, 31775, 15934
   \              0F780F780F78
   \              1F7C1F7C3E3E
   \   000003D6   FC1FFC1FF007       DC16 8188, 8188, 2032, 9, 0, 0, 0, 480, 480, 480, 480, 480, 480, 480
   \              090000000000
   \              0000E001E001
   \              E001E001E001
   \              E001E001    
   \   000003F2   E001E001E001       DC16 480, 480, 480, 480, 480, 480, 480, 483, 495, 511, 510, 504, 496
   \              E001E001E001
   \              E001E301EF01
   \              FF01FE01F801
   \              F001        
   \   0000040C   E001C0010F00       DC16 480, 448, 15, 0, 0, 0, 32767, 32767, 32767, 31, 62, 124, 248, 496
   \              000000000000
   \              FF7FFF7FFF7F
   \              1F003E007C00
   \              F800F001    
   \   00000428   C0038007000F       DC16 960, 1920, 3840, 7680, 15360, 31744, 30720, 30735, 30735, 31775
   \              001E003C007C
   \              00780F780F78
   \              1F7C        
   \   0000043C   3E7EFE3FFC1F       DC16 32318, 16382, 8188, 2032, 15, 0, 0, 0, 2032, 8188, 16382, 15935
   \              F0070F000000
   \              00000000F007
   \              FC1FFE3F3F3E
   \   00000454   1F7C0F780078       DC16 31775, 30735, 30720, 30720, 30720, 31744, 31744, 16352, 4064, 4064
   \              00780078007C
   \              007CE03FE00F
   \              E00F        
   \   00000468   001F003C0F3C       DC16 7936, 15360, 15375, 15391, 15934, 8190, 4092, 2032, 15, 0, 0, 0
   \              1F3C3E3EFE1F
   \              FC0FF0070F00
   \              000000000000
   \   00000480   000F000F000F       DC16 3840, 3840, 3840, 3840, 3840, 32767, 32767, 32767, 3847, 3855
   \              000F000FFF7F
   \              FF7FFF7F070F
   \              0F0F        
   \   00000494   1E0F1E0F3C0F       DC16 3870, 3870, 3900, 3960, 3960, 4080, 4064, 4032, 4032, 3968, 3840
   \              780F780FF00F
   \              E00FC00FC00F
   \              800F000F    
   \   000004AA   000F0F000000       DC16 3840, 15, 0, 0, 0, 2032, 8188, 16382, 15903, 31759, 30735, 30720
   \              00000000F007
   \              FC1FFE3F1F3E
   \              0F7C0F780078
   \   000004C2   007800780078       DC16 30720, 30720, 30720, 31744, 32287, 16383, 8190, 2046, 30, 30, 62
   \              007C1F7EFF3F
   \              FE1FFE071E00
   \              1E003E00    
   \   000004D8   3C00FC3FFC3F       DC16 60, 16380, 16380, 16380, 15, 0, 0, 0, 2032, 8188, 16382, 15934
   \              FC3F0F000000
   \              00000000F007
   \              FC1FFE3F3E3E
   \   000004F0   1F7C0F780F78       DC16 31775, 30735, 30735, 30735, 30735, 30751, 32319, 16383, 8191, 2031
   \              0F780F781F78
   \              3F7EFF3FFF1F
   \              EF07        
   \   00000504   0F000F001F78       DC16 15, 15, 30751, 31774, 15934, 16380, 8184, 2032, 14, 0, 0, 0, 120
   \              1E7C3E3EFC3F
   \              F81FF0070E00
   \              000000000000
   \              7800        
   \   0000051E   780078007800       DC16 120, 120, 120, 120, 240, 240, 240, 224, 224, 480, 448, 960, 896
   \              7800F000F000
   \              F000E000E000
   \              E001C001C003
   \              8003        
   \   00000538   80070007000F       DC16 1920, 1792, 3840, 7680, 16383, 16383, 16383, 16383, 16, 0, 0, 0
   \              001EFF3FFF3F
   \              FF3FFF3F1000
   \              000000000000
   \   00000550   F007FC1FFE3F       DC16 2032, 8188, 16382, 32319, 31775, 63503, 63503, 63503, 30735, 31775
   \              3F7E1F7C0FF8
   \              0FF80FF80F78
   \              1F7C        
   \   00000564   3E7EFC3FF80F       DC16 32318, 16380, 4088, 8188, 15934, 31774, 31775, 31775, 15934, 16382
   \              FC1F3E3E1E7C
   \              1F7C1F7C3E3E
   \              FE3F        
   \   00000578   FC1FF0070F00       DC16 8188, 2032, 15, 0, 0, 0, 1016, 4092, 8190, 16190, 15903, 31759
   \              000000000000
   \              F803FC0FFE1F
   \              3E3F1F3E0F7C
   \   00000590   007C0078F87B       DC16 31744, 30720, 31736, 32764, 32766, 32319, 31775, 30735, 30735
   \              FC7FFE7F3F7E
   \              1F7C0F780F78
   \   000005A2   0F780F781F7C       DC16 30735, 30735, 31775, 15935, 8190, 4092, 2032, 5, 0, 0, 0, 31, 31
   \              3F3EFE1FFC0F
   \              F00705000000
   \              000000001F00
   \              1F00        
   \   000005BC   1F0000000000       DC16 31, 0, 0, 0, 0, 0, 0, 0, 0, 0, 0, 31, 31, 31, 0, 0, 0, 0, 0, 0, 5
   \              000000000000
   \              000000000000
   \              000000001F00
   \              1F001F000000
   \              000000000000
   \              000000000500
   \   000005E6   0E001E001C00       DC16 14, 30, 28, 31, 31, 31, 0, 0, 0, 0, 0, 0, 0, 0, 0, 0, 31, 31, 31
   \              1F001F001F00
   \              000000000000
   \              000000000000
   \              000000000000
   \              00001F001F00
   \              1F00        
   \   0000060C   000000000000       DC16 0, 0, 0, 0, 0, 0, 16, 0, 0, 0, 0, 0, 0, 57344, 63488, 65280, 32704
   \              000000000000
   \              100000000000
   \              000000000000
   \              000000E000F8
   \              00FFC07F    
   \   0000062E   F00FFE037F00       DC16 4080, 1022, 127, 31, 127, 1022, 4080, 32704, 65280, 63488, 57344
   \              1F007F00FE03
   \              F00FC07F00FF
   \              00F800E0    
   \   00000644   000000000000       DC16 0, 0, 0, 0, 16, 0, 0, 0, 0, 0, 0, 0, 0, 0, 65535, 65535, 65535, 0
   \              000010000000
   \              000000000000
   \              000000000000
   \              00000000FFFF
   \              FFFFFFFF0000
   \   00000668   00000000FFFF       DC16 0, 0, 65535, 65535, 65535, 0, 0, 0, 0, 0, 0, 0, 16, 0, 0, 0, 0, 0
   \              FFFFFFFF0000
   \              000000000000
   \              000000000000
   \              100000000000
   \              000000000000
   \   0000068C   000007001F00       DC16 0, 7, 31, 255, 1022, 4080, 32704, 65024, 63488, 65024, 32704, 4080
   \              FF00FE03F00F
   \              C07F00FE00F8
   \              00FEC07FF00F
   \   000006A4   FE03FF001F00       DC16 1022, 255, 31, 7, 0, 0, 0, 0, 15, 0, 0, 0, 480, 480, 480, 0, 0
   \              070000000000
   \              000000000F00
   \              000000000000
   \              E001E001E001
   \              00000000    
   \   000006C6   E001E003E003       DC16 480, 992, 992, 960, 1984, 3968, 7936, 15872, 31744, 30720, 30720
   \              C003C007800F
   \              001F003E007C
   \              00780078    
   \   000006DC   0F781F783F7E       DC16 30735, 30751, 32319, 16382, 8188, 2032, 16, 504, 124, 60, 32286
   \              FE3FFC1FF007
   \              1000F8017C00
   \              3C001E7E    
   \   000006F2   9EFF8FFFCFE7       DC16 65438, 65423, 59343, 33743, 975, 975, 975, 975, 975, 1999, 3998
   \              CF83CF03CF03
   \              CF03CF03CF03
   \              CF079E0F    
   \   00000708   9E9F1EFF3CFE       DC16 40862, 65310, 65084, 63612, 248, 1008, 4064, 65472, 65280, 64512
   \              7CF8F800F003
   \              E00FC0FF00FF
   \              00FC        
   \   0000071C   100000000000       DC16 16, 0, 0, 0, 7, 32775, 32783, 49167, 49183, 49183, 57374, 65534
   \              000007000780
   \              0F800FC01FC0
   \              1FC01EE0FEFF
   \   00000734   FCFFFCFF7CF0       DC16 65532, 65532, 61564, 63608, 30968, 31984, 15600, 15856, 16352
   \              78F8F878F07C
   \              F03CF03DE03F
   \   00000746   E01FC01FC00F       DC16 8160, 8128, 4032, 3968, 1920, 16, 65535, 65535, 65535, 65534
   \              800F80071000
   \              FFFFFFFFFFFF
   \              FEFF        
   \   0000075A   FEFFFEFFFEEF       DC16 65534, 65534, 61438, 65534, 65534, 65534, 65534, 65534, 61438
   \              FEFFFEFFFEFF
   \              FEFFFEFFFEEF
   \   0000076C   FEFFFEFFFEFF       DC16 65534, 65534, 65534, 65534, 65534, 65534, 65534, 65534, 65534
   \              FEFFFEFFFEFF
   \              FEFFFEFFFEFF
   \   0000077E   FEFFFEFFFEFF       DC16 65534, 65534, 65534, 16, 0, 0, 0, 32704, 65520, 65528, 57852
   \              100000000000
   \              0000C07FF0FF
   \              F8FFFCE1    
   \   00000794   7EC03E801F00       DC16 49278, 32830, 31, 31, 15, 15, 15, 15, 15, 15, 31, 31, 32830, 49278
   \              1F000F000F00
   \              0F000F000F00
   \              0F001F001F00
   \              3E807EC0    
   \   000007B0   FCE0F8FFF0FF       DC16 57596, 65528, 65520, 32640, 16, 65535, 65535, 65535, 65534, 65534
   \              807F1000FFFF
   \              FFFFFFFFFEFF
   \              FEFF        
   \   000007C4   FEFFFEFFFEFF       DC16 65534, 65534, 65534, 65534, 65534, 65534, 65534, 65534, 32766
   \              FEFFFEFFFEFF
   \              FEFFFEFFFE7F
   \   000007D6   FE7FFEFFFEFF       DC16 32766, 65534, 65534, 65534, 65534, 65534, 65534, 65534, 65534
   \              FEFFFEFFFEFF
   \              FEFFFEFFFEFF
   \   000007E8   FEFFFEFF1000       DC16 65534, 65534, 16, 65535, 65535, 65535, 65534, 65534, 65534, 65534
   \              FFFFFFFFFFFF
   \              FEFFFEFFFEFF
   \              FEFF        
   \   000007FC   FEFFFEFFFEFF       DC16 65534, 65534, 65534, 65534, 65534, 65534, 65534, 65534, 65534
   \              FEFFFEFFFEFF
   \              FEFFFEFFFEFF
   \   0000080E   FEFFFEFFFEFF       DC16 65534, 65534, 65534, 65534, 65534, 65534, 65534, 65534, 65534, 16
   \              FEFFFEFFFEFF
   \              FEFFFEFFFEFF
   \              1000        
   \   00000822   FFFFFFFFFFFF       DC16 65535, 65535, 65535, 65534, 65534, 65534, 65534, 65534, 65534
   \              FEFFFEFFFEFF
   \              FEFFFEFFFEFF
   \   00000834   FEFFFEFFFEFF       DC16 65534, 65534, 65534, 65534, 65534, 65534, 65534, 65534, 65534
   \              FEFFFEFFFEFF
   \              FEFFFEFFFEFF
   \   00000846   FEFFFEFFFEFF       DC16 65534, 65534, 65534, 65534, 65534, 65534, 65534, 16, 0, 0, 0
   \              FEFFFEFFFEFF
   \              FEFF10000000
   \              00000000    
   \   0000085C   80FFE0FFF8FF       DC16 65408, 65504, 65528, 33276, 126, 62, 31, 31, 63503, 63503, 63503
   \              FC817E003E00
   \              1F001F000FF8
   \              0FF80FF8    
   \   00000872   0F000F000F00       DC16 15, 15, 15, 31, 30, 62, 126, 49660, 65528, 65504, 65408, 16, 65535
   \              1F001E003E00
   \              7E00FCC1F8FF
   \              E0FF80FF1000
   \              FFFF        
   \   0000088C   FFFFFFFFFEFF       DC16 65535, 65535, 65534, 65534, 65534, 65534, 65534, 65534, 65534
   \              FEFFFEFFFEFF
   \              FEFFFEFFFEFF
   \   0000089E   FEFFFEFFFEFF       DC16 65534, 65534, 65534, 65534, 65534, 65534, 65534, 65534, 65534
   \              FEFFFEFFFEFF
   \              FEFFFEFFFEFF
   \   000008B0   FEFFFEFFFEFF       DC16 65534, 65534, 65534, 65534, 65534, 65534, 16, 65535, 65535, 65535
   \              FEFFFEFFFEFF
   \              1000FFFFFFFF
   \              FFFF        
   \   000008C4   FEFFFEFFFEFF       DC16 65534, 65534, 65534, 65534, 65534, 65534, 65534, 65534, 65534
   \              FEFFFEFFFEFF
   \              FEFFFEFFFEFF
   \   000008D6   FEFFFEFFFEFF       DC16 65534, 65534, 65534, 65534, 65534, 65534, 65534, 65534, 65534
   \              FEFFFEFFFEFF
   \              FEFFFEFFFEFF
   \   000008E8   FEFFFEFFFEFF       DC16 65534, 65534, 65534, 65534, 13, 0, 0, 0, 1016, 2046, 4095, 8095
   \              FEFF0D000000
   \              00000000F803
   \              FE07FF0F9F1F
   \   00000900   0F1F0F1E0F1E       DC16 7951, 7695, 7695, 7680, 7680, 7680, 7680, 7680, 7680, 7680, 7680
   \              001E001E001E
   \              001E001E001E
   \              001E001E    
   \   00000916   001E001E001E       DC16 7680, 7680, 7680, 7680, 7680, 7680, 7680, 16, 65535, 65535, 65535
   \              001E001E001E
   \              001E1000FFFF
   \              FFFFFFFF    
   \   0000092C   FEFFFEFFFEDF       DC16 65534, 65534, 57342, 65534, 65534, 65534, 64510, 65534, 65534
   \              FEFFFEFFFEFF
   \              FEFBFEFFFEFF
   \   0000093E   FEFFFEFFFEFF       DC16 65534, 65534, 65534, 65518, 65502, 65534, 65534, 65534, 65534
   \              EEFFDEFFFEFF
   \              FEFFFEFFFEFF
   \   00000950   FEFFFEFFFEFF       DC16 65534, 65534, 65534, 65534, 16, 65535, 65535, 65535, 65534, 65534
   \              FEFF1000FFFF
   \              FFFFFFFFFEFF
   \              FEFF        
   \   00000964   FEFFFEFFFEFF       DC16 65534, 65534, 65534, 65534, 65534, 65534, 65534, 65534, 65534
   \              FEFFFEFFFEFF
   \              FEFFFEFFFEFF
   \   00000976   FEFFFEFFFEFF       DC16 65534, 65534, 65534, 65534, 65534, 65534, 65534, 65534, 65534
   \              FEFFFEFFFEFF
   \              FEFFFEFFFEFF
   \   00000988   FEFFFEFF1000       DC16 65534, 65534, 16, 65535, 65535, 65535, 65534, 65534, 65534, 65534
   \              FFFFFFFFFFFF
   \              FEFFFEFFFEFF
   \              FEFF        
   \   0000099C   FEFFFEFFFEFF       DC16 65534, 65534, 65534, 65534, 65534, 65534, 65534, 65534, 65534
   \              FEFFFEFFFEFF
   \              FEFFFEFFFEFF
   \   000009AE   FEFFFEFFFEFF       DC16 65534, 65534, 65534, 65534, 65534, 65534, 65534, 65534, 65534, 16
   \              FEFFFEFFFEFF
   \              FEFFFEFFFEFF
   \              1000        
   \   000009C2   FFFFFFFFFFFF       DC16 65535, 65535, 65535, 65534, 65534, 65534, 65534, 65534, 65534
   \              FEFFFEFFFEFF
   \              FEFFFEFFFEFF
   \   000009D4   FEFFFEFFFEFF       DC16 65534, 65534, 65534, 65534, 65534, 65534, 65534, 65534, 65534
   \              FEFFFEFFFEFF
   \              FEFFFEFFFEFF
   \   000009E6   FEFFFEFFFEFF       DC16 65534, 65534, 65534, 65534, 65534, 65534, 65534, 16, 0, 0, 0
   \              FEFFFEFFFEFF
   \              FEFF10000000
   \              00000000    
   \   000009FC   807FE0FFF8FF       DC16 32640, 65504, 65528, 57852, 32894, 62, 31, 31, 15, 15, 15, 15, 15
   \              FCE17E803E00
   \              1F001F000F00
   \              0F000F000F00
   \              0F00        
   \   00000A16   1F001F001F00       DC16 31, 31, 31, 62, 32894, 57852, 65528, 65504, 32640, 16, 65535
   \              3E007E80FCE1
   \              F8FFE0FF807F
   \              1000FFFF    
   \   00000A2C   FFFFFFFFFEFF       DC16 65535, 65535, 65534, 65534, 65534, 65534, 65534, 65534, 65534
   \              FEFFFEFFFEFF
   \              FEFFFEFFFEFF
   \   00000A3E   FEFFFEFFFEFF       DC16 65534, 65534, 65534, 65534, 65534, 61438, 65534, 65534, 65534
   \              FEFFFEFFFEEF
   \              FEFFFEFFFEFF
   \   00000A50   FEFFFEFFFEFF       DC16 65534, 65534, 65534, 65534, 65534, 65534, 16, 0, 0, 0, 32640
   \              FEFFFEFFFEFF
   \              100000000000
   \              0000807F    
   \   00000A66   E0FFF8FFFCE1       DC16 65504, 65528, 57852, 63614, 30782, 6175, 31, 15, 15, 15, 15, 15
   \              7EF83E781F18
   \              1F000F000F00
   \              0F000F000F00
   \   00000A7E   0F001F001F00       DC16 15, 31, 31, 62, 32894, 57852, 65528, 65520, 32640, 16, 65535
   \              3E007E80FCE1
   \              F8FFF0FF807F
   \              1000FFFF    
   \   00000A94   FFFFFFFFFEFF       DC16 65535, 65535, 65534, 65534, 65534, 65534, 65534, 61438, 65534
   \              FEFFFEFFFEFF
   \              FEFFFEEFFEFF
   \   00000AA6   FEFFFEFFFEFF       DC16 65534, 65534, 65534, 65534, 65534, 65534, 65534, 65534, 65534
   \              FEFFFEFFFEFF
   \              FEFFFEFFFEFF
   \   00000AB8   FEFFFEFFFEFF       DC16 65534, 65534, 65534, 65534, 65534, 65534, 16, 0, 0, 0, 16352
   \              FEFFFEFFFEFF
   \              100000000000
   \              0000E03F    
   \   00000ACE   F8FFFCFF7EF0       DC16 65528, 65532, 61566, 49183, 32783, 32783, 49152, 57344, 64512
   \              1FC00F800F80
   \              00C000E000FC
   \   00000AE0   C0FFF8FFFC1F       DC16 65472, 65528, 8188, 254, 62, 30, 49182, 57374, 61566, 65532, 65528
   \              FE003E001E00
   \              1EC01EE07EF0
   \              FCFFF8FF    
   \   00000AF6   E03F1000FFFF       DC16 16352, 16, 65535, 65535, 65535, 65535, 65535, 65535, 65535, 65535
   \              FFFFFFFFFFFF
   \              FFFFFFFFFFFF
   \              FFFF        
   \   00000B0A   FFFFFFFFFFFF       DC16 65535, 65535, 65535, 65535, 65535, 65535, 65535, 65535, 65535
   \              FFFFFFFFFFFF
   \              FFFFFFFFFFFF
   \   00000B1C   FFFFFFFFFFFF       DC16 65535, 65535, 65535, 65535, 65535, 65534, 65534, 65534, 16, 65535
   \              FFFFFFFFFEFF
   \              FEFFFEFF1000
   \              FFFF        
   \   00000B30   FFFFFFFFFFFF       DC16 65535, 65535, 65535, 65535, 65535, 65533, 57343, 65535, 49151
   \              FFFFFFFFFDFF
   \              FFDFFFFFFFBF
   \   00000B42   FEFFFEFFFEFF       DC16 65534, 65534, 65534, 65534, 65534, 65534, 65534, 65534, 65534
   \              FEFFFEFFFEFF
   \              FEFFFEFFFEFF
   \   00000B54   FEFFFEFFFEFF       DC16 65534, 65534, 65534, 65534, 65534, 65534, 16, 65535, 65535, 65535
   \              FEFFFEFFFEFF
   \              1000FFFFFFFF
   \              FFFF        
   \   00000B68   FFFCFFF8FFFA       DC16 64767, 63743, 64255, 62335, 63359, 63295, 61375, 61375, 53151
   \              7FF37FF73FF7
   \              BFEFBFEF9FCF
   \   00000B7A   DFDFCFDFEF9F       DC16 57311, 57295, 40943, 49135, 16359, 32759, 32755, 32755, 65531
   \              EFBFE73FF77F
   \              F37FF37FFBFF
   \   00000B8C   F9FFF9FFFCFF       DC16 65529, 65529, 65532, 65532, 16, 65535, 65535, 65535, 65087, 65087
   \              FCFF1000FFFF
   \              FFFFFFFF3FFE
   \              3FFE        
   \   00000BA0   3FFEBFFEDFFD       DC16 65087, 65215, 64991, 64991, 64991, 63951, 64495, 64495, 62447
   \              DFFDDFFDCFF9
   \              EFFBEFFBEFF3
   \   00000BB2   E7F7F7F7F7E7       DC16 63463, 63479, 59383, 61427, 61427, 61435, 53241, 57337, 8185, 8189
   \              F3EFF3EFFBEF
   \              F9CFF9DFF91F
   \              FD1F        
   \   00000BC6   FC3F1000FFFF       DC16 16380, 16, 65535, 65535, 65535, 65535, 65535, 65535, 57343, 65531
   \              FFFFFFFFFFFF
   \              FFFFFFFFFFDF
   \              FBFF        
   \   00000BDA   FFFFFFFFFFFF       DC16 65535, 65535, 65535, 65535, 65535, 65535, 65535, 65535, 65535
   \              FFFFFFFFFFFF
   \              FFFFFFFFFFFF
   \   00000BEC   FFFFFFFFFFFF       DC16 65535, 65535, 65535, 61431, 65535, 65535, 65535, 32766, 16, 65535
   \              F7EFFFFFFFFF
   \              FFFFFE7F1000
   \              FFFF        
   \   00000C00   FFFFFFFFFFFD       DC16 65535, 65535, 65023, 65023, 65023, 65023, 65023, 65023, 65023
   \              FFFDFFFDFFFD
   \              FFFDFFFDFFFD
   \   00000C12   FFFDFFFDFFFC       DC16 65023, 65023, 64767, 63743, 63615, 62271, 59199, 61343, 53199
   \              FFF87FF83FF3
   \              3FE79FEFCFCF
   \   00000C24   CF9FE73FF33F       DC16 40911, 16359, 16371, 32755, 65529, 65532, 16, 65535, 65535, 65535
   \              F37FF9FFFCFF
   \              1000FFFFFFFF
   \              FFFF        
   \   00000C38   FFFFFFFFFFFF       DC16 65535, 65535, 65535, 65535, 65535, 65535, 65535, 65535, 65535
   \              FFFFFFFFFFFF
   \              FFFFFFFFFFFF
   \   00000C4A   FFFFDFFFFFFF       DC16 65535, 65503, 65535, 65535, 65535, 65535, 65535, 64511, 65535
   \              FFFFFFFFFFFF
   \              FFFFFFFBFFFF
   \   00000C5C   FFFFFEFFFEFF       DC16 65535, 65534, 65534, 65534, 16, 65535, 65535, 65535, 65535, 65535
   \              FEFF1000FFFF
   \              FFFFFFFFFFFF
   \              FFFF        
   \   00000C70   FFFFFFFFFFFF       DC16 65535, 65535, 65535, 65535, 65535, 65535, 65535, 65535, 65535
   \              FFFFFFFFFFFF
   \              FFFFFFFFFFFF
   \   00000C82   FFFFFFFFFFFF       DC16 65535, 65535, 65535, 65535, 65535, 65535, 65535, 65535, 65528
   \              FFFFFFFFFFFF
   \              FFFFFFFFF8FF
   \   00000C94   F8FFF8FF1000       DC16 65528, 65528, 16, 65535, 65535, 65535, 65471, 65471, 65535, 65535
   \              FFFFFFFFFFFF
   \              BFFFBFFFFFFF
   \              FFFF        
   \   00000CA8   DFFFFFFFFFFF       DC16 65503, 65535, 65535, 65519, 65519, 65535, 65527, 65527, 65535
   \              EFFFEFFFFFFF
   \              F7FFF7FFFFFF
   \   00000CBA   FBFFFBFFFFFF       DC16 65531, 65531, 65535, 65535, 65533, 65535, 65535, 65534, 65534, 16
   \              FFFFFDFFFFFF
   \              FFFFFEFFFEFF
   \              1000        
   \   00000CCE   FFFFFFFFFFFF       DC16 65535, 65535, 65535, 65535, 65535, 65535, 65535, 65535, 65535
   \              FFFFFFFFFFFF
   \              FFFFFFFFFFFF
   \   00000CE0   FFFFFFFFFFFF       DC16 65535, 65535, 65535, 65535, 65535, 65535, 65535, 65535, 65535
   \              FFFFFFFFFFFF
   \              FFFFFFFFFFFF
   \   00000CF2   FFFFFFFFFFFF       DC16 65535, 65535, 65535, 65535, 65534, 65534, 65534, 13, 0, 0, 0, 0, 0
   \              FFFFFEFFFEFF
   \              FEFF0D000000
   \              000000000000
   \              0000        
   \   00000D0C   000000000000       DC16 0, 0, 0, 0, 0, 0, 0, 0, 0, 7687, 3855, 3855, 3999, 1950, 1950
   \              000000000000
   \              000000000000
   \              071E0F0F0F0F
   \              9F0F9E079E07
   \   00000D2A   FC03FC03F801       DC16 1020, 1020, 504, 504, 504, 0, 0, 0, 0, 0, 0, 0, 0, 0, 0, 0, 0, 0
   \              F801F8010000
   \              000000000000
   \              000000000000
   \              000000000000
   \              000000000000
   \   00000D4E   000000000000       DC16 0, 0, 0, 0, 0, 0, 0, 0, 0, 0, 0, 0, 0, 16, 65535, 65535, 65535
   \              000000000000
   \              000000000000
   \              000000000000
   \              00001000FFFF
   \              FFFFFFFF    
   \   00000D70   FFFFFFFFFFFF       DC16 65535, 65535, 65535, 65535, 65535, 65535, 65535, 65535, 65535
   \              FFFFFFFFFFFF
   \              FFFFFFFFFFFF
   \   00000D82   FFFFFFFFFFFF       DC16 65535, 65535, 65535, 65535, 65535, 65535, 65535, 65535, 65535
   \              FFFFFFFFFFFF
   \              FFFFFFFFFFFF
   \   00000D94   FFFFFFFFFFFF       DC16 65535, 65535, 65535, 65534, 15, 0, 0, 0, 32252, 16383, 16383
   \              FEFF0F000000
   \              00000000FC7D
   \              FF3FFF3F    
   \   00000DAA   8F3F0F3E0F3E       DC16 16271, 15887, 15887, 15375, 15870, 16380, 16128, 15360, 15887
   \              0F3CFE3DFC3F
   \              003F003C0F3E
   \   00000DBC   1F3EFE1FFE1F       DC16 15903, 8190, 8190, 2040, 0, 0, 0, 0, 0, 0, 16, 65535, 65535, 65535
   \              F80700000000
   \              000000000000
   \              00001000FFFF
   \              FFFFFFFF    
   \   00000DD8   DEFFFEFFFEFF       DC16 65502, 65534, 65534, 65534, 64510, 65534, 63486, 63486, 63486
   \              FEFFFEFBFEFF
   \              FEF7FEF7FEF7
   \   00000DEA   FEF7FEFFFEFF       DC16 63486, 65534, 65534, 65022, 65534, 65534, 65502, 65534, 65534
   \              FEFDFEFFFEFF
   \              DEFFFEFFFEFF
   \   00000DFC   FEFFFEFFFEFF       DC16 65534, 65534, 65534, 65534, 14, 0, 0, 0, 2032, 4092, 8190, 15935
   \              FEFF0E000000
   \              00000000F007
   \              FC0FFE1F3F3E
   \   00000E14   1F3C0F3C0F00       DC16 15391, 15375, 15, 15, 15, 15, 15, 15391, 15935, 8190, 4092, 2032
   \              0F000F000F00
   \              0F001F3C3F3E
   \              FE1FFC0FF007
   \   00000E2C   000000000000       DC16 0, 0, 0, 0, 0, 0, 15, 0, 0, 0, 32248, 32764, 32766, 32575, 32287
   \              000000000000
   \              0F0000000000
   \              0000F87DFC7F
   \              FE7F3F7F1F7E
   \   00000E4A   0F7C0F7C077C       DC16 31759, 31759, 31751, 31751, 31759, 31759, 32271, 32575, 32766
   \              077C0F7C0F7C
   \              0F7E3F7FFE7F
   \   00000E5C   FC7FF87D007C       DC16 32764, 32248, 31744, 31744, 31744, 31744, 31744, 31744, 15, 0, 0
   \              007C007C007C
   \              007C007C0F00
   \              00000000    
   \   00000E72   0000F807FC1F       DC16 0, 2040, 8188, 16382, 15935, 31759, 15, 7, 32767, 32767, 31751
   \              FE3F3F3E0F7C
   \              0F000700FF7F
   \              FF7F077C    
   \   00000E88   0F7C0F3C3F3F       DC16 31759, 15375, 16191, 8190, 4092, 1016, 0, 0, 0, 0, 0, 0, 15, 0, 0
   \              FE1FFC0FF803
   \              000000000000
   \              000000000000
   \              0F0000000000
   \   00000EA6   00001E041E1C       DC16 0, 1054, 7198, 15390, 15390, 31774, 30, 30, 31774, 31774, 31774
   \              1E3C1E3C1E7C
   \              1E001E001E7C
   \              1E7C1E7C    
   \   00000EBC   1E7C1E3C1E3C       DC16 31774, 15390, 15390, 7423, 3327, 255, 30, 30, 30, 510, 508, 504
   \              FF1CFF0CFF00
   \              1E001E001E00
   \              FE01FC01F801
   \   00000ED4   0F001F3E0F3C       DC16 15, 15903, 15375, 15360, 16376, 32764, 32766, 32575, 32271, 31759
   \              003CF83FFC7F
   \              FE7F3F7F0F7E
   \              0F7C        
   \   00000EE8   0F7C077C077C       DC16 31759, 31751, 31751, 31759, 31759, 32271, 32575, 32766, 32764
   \              0F7C0F7C0F7E
   \              3F7FFE7FFC7F
   \   00000EFA   F87F00000000       DC16 32760, 0, 0, 0, 0, 0, 0, 16, 65535, 65535, 65535, 65534, 65534
   \              000000000000
   \              00001000FFFF
   \              FFFFFFFFFEFF
   \              FEFF        
   \   00000F14   FEFFFEFFFEFF       DC16 65534, 65534, 65534, 65534, 65534, 65534, 65534, 65534, 65534
   \              FEFFFEFFFEFF
   \              FEFFFEFFFEFF
   \   00000F26   FEFFFEFFFEFF       DC16 65534, 65534, 65534, 65534, 65534, 65534, 65534, 65534, 65534
   \              FEFFFEFFFEFF
   \              FEFFFEFFFEFF
   \   00000F38   FEFFFEFF1000       DC16 65534, 65534, 16, 65535, 65535, 65535, 64510, 64510, 64510, 64510
   \              FFFFFFFFFFFF
   \              FEFBFEFBFEFB
   \              FEFB        
   \   00000F4C   FEFBFEFBFEFB       DC16 64510, 64510, 64510, 64510, 64510, 64510, 64510, 65534, 65534
   \              FEFBFEFBFEFB
   \              FEFBFEFFFEFF
   \   00000F5E   FEFFFEFFFEFF       DC16 65534, 65534, 65534, 65535, 65535, 65535, 65534, 65534, 65534, 16
   \              FFFFFFFFFFFF
   \              FEFFFEFFFEFF
   \              1000        
   \   00000F72   FFFFFFFFFFFF       DC16 65535, 65535, 65535, 65534, 65534, 65534, 65534, 65534, 65534
   \              FEFFFEFFFEFF
   \              FEFFFEFFFEFF
   \   00000F84   FEFFFEFFFEFF       DC16 65534, 65534, 65534, 65534, 65534, 65534, 65534, 65534, 65534
   \              FEFFFEFFFEFF
   \              FEFFFEFFFEFF
   \   00000F96   FEFFFFFFFFFF       DC16 65534, 65535, 65535, 65535, 65534, 65534, 65534, 16, 65535, 65535
   \              FFFFFEFFFEFF
   \              FEFF1000FFFF
   \              FFFF        
   \   00000FAA   FFFFFEFFFEFF       DC16 65535, 65534, 65534, 65278, 65534, 65534, 65534, 65534, 65534
   \              FEFEFEFFFEFF
   \              FEFFFEFFFEFF
   \   00000FBC   FEFFFEFFFEFF       DC16 65534, 65534, 65534, 65534, 65534, 65534, 65534, 65534, 65534
   \              FEFFFEFFFEFF
   \              FEFFFEFFFEFF
   \   00000FCE   FEFFFEFFFEFF       DC16 65534, 65534, 65534, 65534, 65534, 16, 65535, 65535, 65535, 65022
   \              FEFFFEFF1000
   \              FFFFFFFFFFFF
   \              FEFD        
   \   00000FE2   FEFFFEFF7EFF       DC16 65534, 65534, 65406, 65534, 65534, 65534, 65534, 65534, 65534
   \              FEFFFEFFFEFF
   \              FEFFFEFFFEFF
   \   00000FF4   FEFFFEFFFEFF       DC16 65534, 65534, 65534, 65534, 65534, 65278, 65534, 65534, 65534
   \              FEFFFEFFFEFE
   \              FEFFFEFFFEFF
   \   00001006   FEFFFEFFFEFF       DC16 65534, 65534, 65534, 16, 0, 0, 0, 31775, 31775, 31775, 31775
   \              100000000000
   \              00001F7C1F7C
   \              1F7C1F7C    
   \   0000101C   1F7C1F7C1F7C       DC16 31775, 31775, 31775, 31775, 31775, 31775, 31775, 31775, 65151
   \              1F7C1F7C1F7C
   \              1F7C1F7C7FFE
   \   0000102E   FFFFFFDFCF0F       DC16 65535, 57343, 4047, 0, 0, 0, 0, 0, 0, 15, 0, 0, 0, 31775, 31775
   \              000000000000
   \              000000000000
   \              0F0000000000
   \              00001F7C1F7C
   \   0000104C   1F7C1F7C1F7C       DC16 31775, 31775, 31775, 31775, 31775, 31775, 31775, 31775, 31775
   \              1F7C1F7C1F7C
   \              1F7C1F7C1F7C
   \   0000105E   1F7C7F3EFF3F       DC16 31775, 15999, 16383, 8191, 4095, 0, 0, 0, 0, 0, 0, 15, 0, 0, 0
   \              FF1FFF0F0000
   \              000000000000
   \              000000000F00
   \              000000000000
   \   0000107C   F803FC0FFE1F       DC16 1016, 4092, 8190, 16191, 15903, 15375, 31759, 31759, 31759, 31759
   \              3F3F1F3E0F3C
   \              0F7C0F7C0F7C
   \              0F7C        
   \   00001090   0F3C1F3E3F3F       DC16 15375, 15903, 16191, 8190, 4092, 2032, 0, 0, 0, 0, 0, 0, 15, 15
   \              FE1FFC0FF007
   \              000000000000
   \              000000000000
   \              0F000F00    
   \   000010AC   0F000F00EF07       DC16 15, 15, 2031, 8191, 16383, 15935, 31775, 30751, 30735, 30735
   \              FF1FFF3F3F3E
   \              1F7C1F780F78
   \              0F78        
   \   000010C0   0F780F781F78       DC16 30735, 30735, 30751, 31775, 15999, 16383, 8191, 2031, 0, 0, 0, 0
   \              1F7C7F3EFF3F
   \              FF1FEF070000
   \              000000000000
   \   000010D8   000000000F00       DC16 0, 0, 15, 31744, 31744, 31744, 32752, 32764, 32766, 32575, 32271
   \              007C007C007C
   \              F07FFC7FFE7F
   \              3F7F0F7E    
   \   000010EE   0F7C0F7C077C       DC16 31759, 31759, 31751, 31751, 31759, 31759, 32271, 32575, 32766
   \              077C0F7C0F7C
   \              0F7E3F7FFE7F
   \   00001100   FC7FF87D0000       DC16 32764, 32248, 0, 0, 0, 0, 0, 0, 15, 30720, 30720, 30720, 30751
   \              000000000000
   \              000000000F00
   \              007800780078
   \              1F78        
   \   0000111A   1F781F781F78       DC16 30751, 30751, 30751, 30751, 30751, 30751, 30751, 30751, 30751
   \              1F781F781F78
   \              1F781F781F78
   \   0000112C   1F781F783F78       DC16 30751, 30751, 30783, 31231, 31743, 31743, 0, 0, 0, 0, 0, 0, 14, 0
   \              FF79FF7BFF7B
   \              000000000000
   \              000000000000
   \              0E000000    
   \   00001148   00000000F803       DC16 0, 0, 1016, 4094, 8191, 7967, 15887, 15872, 8064, 8184, 4094, 511
   \              FE0FFF1F1F1F
   \              0F3E003E801F
   \              F81FFE0FFF01
   \   00001160   1F000F000F1F       DC16 31, 15, 7951, 3999, 4094, 1020, 0, 0, 0, 0, 0, 0, 14, 0, 0, 0, 764
   \              9F0FFE0FFC03
   \              000000000000
   \              000000000000
   \              0E0000000000
   \              0000FC02    
   \   00001182   FE0EFE1E1E1E       DC16 3838, 7934, 7710, 15902, 15902, 7710, 7710, 3614, 30, 30, 30, 7710
   \              1E3E1E3E1E1E
   \              1E1E1E0E1E00
   \              1E001E001E1E
   \   0000119A   FF0EFF0EFF02       DC16 3839, 3839, 767, 30, 30, 30, 30, 28, 16, 15, 0, 0, 0, 32248, 32764
   \              1E001E001E00
   \              1E001C001000
   \              0F0000000000
   \              0000F87DFC7F
   \   000011B8   FE7F3E7F1F7C       DC16 32766, 32574, 31775, 31775, 31775, 31775, 31775, 31775, 31775
   \              1F7C1F7C1F7C
   \              1F7C1F7C1F7C
   \   000011CA   1F7C1F7C1F7C       DC16 31775, 31775, 31775, 31775, 31775, 0, 0, 0, 0, 0, 0, 14, 0, 0, 0
   \              1F7C1F7C0000
   \              000000000000
   \              000000000E00
   \              000000000000
   \   000011E8   F001F001F003       DC16 496, 496, 1008, 1016, 1016, 2044, 1980, 1980, 3870, 3870, 7967
   \              F803F803FC07
   \              BC07BC071E0F
   \              1E0F1F1F    
   \   000011FE   0F1E0F1E0F3E       DC16 7695, 7695, 15887, 15367, 15367, 0, 0, 0, 0, 0, 0, 16, 0, 0, 0
   \              073C073C0000
   \              000000000000
   \              000000001000
   \              000000000000
   \   0000121C   F8E0F8E0F8F0       DC16 57592, 57592, 61688, 61948, 61948, 63996, 63966, 31710, 31710
   \              FCF1FCF1FCF9
   \              DEF9DE7BDE7B
   \   0000122E   CF3F8F3F8F3F       DC16 16335, 16271, 16271, 16271, 7943, 7943, 7943, 0, 0, 0, 0, 0, 0, 16
   \              8F3F071F071F
   \              071F00000000
   \              000000000000
   \              00001000    
   \   0000124A   000000000000       DC16 0, 0, 0, 56839, 57103, 53007, 51102, 51198, 50172, 49656, 16888
   \              07DE0FDF0FCF
   \              9EC7FEC7FCC3
   \              F8C1F841    
   \   00001260   F040F801FC03       DC16 16624, 504, 1020, 1020, 2046, 3999, 3855, 7951, 0, 0, 0, 0, 0, 0
   \              FC03FE079F0F
   \              0F0F0F1F0000
   \              000000000000
   \              00000000    
   \   0000127C   1000F800F000       DC16 16, 248, 240, 240, 33248, 33264, 33264, 33776, 33784, 34808, 34748
   \              F000E081F081
   \              F081F083F883
   \              F887BC87    
   \   00001292   BC073C0F1E0F       DC16 1980, 3900, 3870, 3870, 7711, 7695, 15887, 15375, 15367, 0, 0, 0
   \              1E0F1F1E0F1E
   \              0F3E0F3C073C
   \              000000000000
   \   000012AA   000000000000       DC16 0, 0, 0, 16, 0, 0, 0, 49151, 49151, 49151, 32783, 32799, 32830
   \              100000000000
   \              0000FFBFFFBF
   \              FFBF0F801F80
   \              3E80        
   \   000012C4   7C80F800F001       DC16 32892, 248, 496, 992, 1984, 3968, 7936, 8191, 8191, 8191, 0, 0, 0
   \              E003C007800F
   \              001FFF1FFF1F
   \              FF1F00000000
   \              0000        
   \   000012DE   000000000000       DC16 0, 0, 0, 16, 124, 60, 60, 48188, 48188, 48188, 32828, 32828, 32830
   \              10007C003C00
   \              3C003CBC3CBC
   \              3CBC3C803C80
   \              3E80        
   \   000012F8   1E800F000700       DC16 32798, 15, 7, 15, 1054, 3134, 7228, 7228, 7228, 7228, 60, 60, 60
   \              0F001E043E0C
   \              3C1C3C1C3C1C
   \              3C1C3C003C00
   \              3C00        
   \   00001312   FC01F801F001       DC16 508, 504, 496, 0, 0, 0, 0, 0, 0, 0, 0, 0, 0, 0, 0, 0, 0, 0, 0, 0
   \              000000000000
   \              000000000000
   \              000000000000
   \              000000000000
   \              000000000000
   \              00000000    
   \   0000133A   000000000000       DC16 0, 0, 0, 0, 0, 0, 0, 0, 0, 16, 65511, 65519, 65519, 65519, 65519
   \              000000000000
   \              000000000000
   \              1000E7FFEFFF
   \              EFFFEFFFEFFF
   \   00001358   EFFFEFFFEFFF       DC16 65519, 65519, 65519, 65519, 65487, 65311, 65407, 65311, 65487
   \              EFFFCFFF1FFF
   \              7FFF1FFFCFFF
   \   0000136A   EFFFE7FFE7FF       DC16 65519, 65511, 65511, 65511, 65511, 65511, 65511, 65527, 65520
   \              E7FFE7FFE7FF
   \              E7FFF7FFF0FF
   \   0000137C   F0FFF8FF1000       DC16 65520, 65528, 16, 0, 0, 0, 0, 0, 0, 0, 0, 0, 0, 15873, 32643
   \              000000000000
   \              000000000000
   \              000000000000
   \              0000013E837F
   \   0000139A   E7FFFFE7FEC1       DC16 65511, 59391, 49662, 32892, 0, 0, 0, 0, 0, 0, 0, 0, 0, 8, 0, 0, 0
   \              7C8000000000
   \              000000000000
   \              000000000000
   \              000008000000
   \              00000000    
   \   000013BC   000000000000       DC16 0, 0, 0, 0, 0, 0, 0, 0, 0, 0, 56, 124, 110, 6, 6, 110, 124, 56, 2
   \              000000000000
   \              000000000000
   \              000038007C00
   \              6E0006000600
   \              6E007C003800
   \              0200        
   \   000013E2   05000200           DC16 5, 2
   \   000013E6   0000               DC8 0, 0
   \   000013E8   100000000000       DC16 16, 0, 0, 0, 32704, 65520, 65528, 57596, 126, 62, 30, 31, 16383
   \              0000C07FF0FF
   \              F8FFFCE07E00
   \              3E001E001F00
   \              FF3F        
   \   00001402   FF3F0F000F00       DC16 16383, 15, 15, 16383, 32767, 31, 31, 62, 126, 57596, 65528, 65520
   \              FF3FFF7F1F00
   \              1F003E007E00
   \              FCE0F8FFF0FF
   \   0000141A   807F10000000       DC16 32640, 16, 0, 0, 0, 32771, 32771, 32771, 32771, 32771, 32771
   \              000000000380
   \              038003800380
   \              03800380    
   \   00001430   038003800380       DC16 32771, 32771, 32771, 32771, 32771, 32771, 32771, 32771, 32771
   \              038003800380
   \              038003800380
   \   00001442   038003800380       DC16 32771, 32771, 32771, 32771, 0, 0, 0
   \              038000000000
   \              0000        
    851           {16,0,0,0,32771,32771,32771,32771,32771,32771,32771,32771,32771,32771,32771,32771,32771,32771,32771,32771,32771,32771,32771,0,0,0},        //30   ""
    852                            {16,0,0,0,32771,32771,32771,32771,32771,32771,32771,32771,32771,32771,32771,32771,32771,32771,32771,32771,32771,32771,32771,0,0,0},        //31   ""
    853                            {0,0,0,0,0,0,0,0,0,0,0,0,0,0,0,0,0,0,0,0,0,0,0,0,0,0},        //32   " "
    854                            {16,65535,65535,65535,65535,65535,65535,65535,65535,65535,65535,65535,65535,65535,65535,65535,65535,65535,65535,65535,65535,65534,65534,65534,65534,65534},        //33   "!"
    855                            {16,65535,65535,65535,65535,65535,65535,65535,65535,65535,65535,65535,65535,65535,65535,65535,65535,65535,65535,65535,65535,65535,65502,65502,65502,65502},        //34   """
    856                            {16,0,0,0,903,1927,1935,1807,1806,65535,65535,65535,3614,3612,7708,7740,7740,65535,65535,65535,15480,14456,14448,30832,30960,30960},        //35   "#"
    857                            {15,448,448,448,2032,8188,16382,32767,32223,31183,31183,31168,31168,32704,16320,8176,2044,510,479,463,463,32207,16383,16382,8188,2040},        //36   "$"
    858                            {16,0,0,0,480,448,33728,33664,34688,36608,36608,40448,39936,48128,14584,31742,62430,63375,59279,51087,51087,34703,34703,990,1022,248},        //37   "%"
    859                            {16,0,0,0,2032,57340,65534,65087,63519,63503,64527,65039,65311,57118,4094,2040,2032,4080,16376,15608,30840,30844,31992,16376,16368,4064},        //38   "&"
    860                            {16,65535,65535,65535,65535,65535,65535,65535,65535,65535,65535,65535,65535,65279,65535,65535,65535,65535,65535,65535,63487,63487,65534,65534,65534,65534},        //39   "'"
    861                            {16,120,60,60,1084,56350,64542,64542,63519,63503,64527,64527,64527,56335,3087,1055,1054,3102,15390,15420,30780,30780,31864,15472,15600,3296},        //40   "("
    862                            {16,65535,65535,65535,65535,65535,65535,65535,65535,65519,65535,65535,65535,65535,65519,65519,65535,65535,65535,65527,65535,65535,65535,65535,65535,65534},        //41   ")"
    863                            {16,0,0,0,0,53248,61440,61440,61440,61440,61440,61440,61440,53248,0,0,0,460,13310,12796,28924,29182,30719,14335,12408,120},        //42   "*"
    864                            {16,0,0,0,0,0,0,960,960,960,960,960,960,65535,65535,65535,960,960,960,960,960,960,0,0,0,0},        //43   "+"
    865                            {5,14,28,28,31,31,31,0,0,0,0,0,0,0,0,0,0,0,0,0,0,0,0,0,0,0},        //44   ","
    866                            {9,0,0,0,0,0,0,0,0,0,0,511,511,511,0,0,0,0,0,0,0,0,0,0,0,0},        //45   "-"
    867                            {3,0,0,0,7,7,7,0,0,0,0,0,0,0,0,0,0,0,0,0,0,0,0,0,0,0},        //46   "."
    868                            {8,0,0,0,3,3,7,7,7,7,15,14,14,30,30,28,60,60,56,120,120,112,112,240,224,224},        //47   "/"
    869                            {15,0,0,0,2032,8188,8188,15934,31775,31775,30735,30735,30735,30735,30735,30735,30735,30735,30735,30735,31775,31775,15934,8188,8188,2032},        //48   "0"
    870                            {9,0,0,0,480,480,480,480,480,480,480,480,480,480,480,480,480,480,483,495,511,510,504,496,480,448},        //49   "1"
    871                            {15,0,0,0,32767,32767,32767,31,62,124,248,496,960,1920,3840,7680,15360,31744,30720,30735,30735,31775,32318,16382,8188,2032},        //50   "2"
    872                            {15,0,0,0,2032,8188,16382,15935,31775,30735,30720,30720,30720,31744,31744,16352,4064,4064,7936,15360,15375,15391,15934,8190,4092,2032},        //51   "3"
    873                            {15,0,0,0,3840,3840,3840,3840,3840,32767,32767,32767,3847,3855,3870,3870,3900,3960,3960,4080,4064,4032,4032,3968,3840,3840},        //52   "4"
    874                            {15,0,0,0,2032,8188,16382,15903,31759,30735,30720,30720,30720,30720,31744,32287,16383,8190,2046,30,30,62,60,16380,16380,16380},        //53   "5"
    875                            {15,0,0,0,2032,8188,16382,15934,31775,30735,30735,30735,30735,30751,32319,16383,8191,2031,15,15,30751,31774,15934,16380,8184,2032},        //54   "6"
    876                            //{16,65535,65535,65535,65527,65535,65535,65535,65535,65535,65535,65535,65535,65535,65535,65471,65535,65407,65535,65279,65535,65535,65535,65534,65534,65534},        //55   "7"
    877                           // 0,0,0,0,120,120,120,120,120,240,240,240,224,224,224,192,192,128,128,   0,0,0,255,255,255,255},
    878                            {14,0,0,0,120,120,120,120,120,240,240,240,224,224,480,448,960,896,1920,1792,3840, 7680,16383,16383,16383,16383},
    879                           //{0,0,0,0,0,    0,  0,  0,  0,  0,  0,  0,  0,  1,  1,  1,  3,  3,  7,  7, 15,30,63 ,63 , 63, 63},
    880                            {16,0,0,0,2032,8188,16382,32319,31775,63503,63503,63503,30735,31775,32318,16380,4088,8188,15934,31774,31775,31775,15934,16382,8188,2032},        //56   "8"
    881                            {15,0,0,0,1016,4092,8190,16190,15903,31759,31744,30720,31736,32764,32766,32319,31775,30735,30735,30735,30735,31775,15935,8190,4092,2032},        //57   "9"
    882                            {5,0,0,0,31,31,31,0,0,0,0,0,0,0,0,0,0,31,31,31,0,0,0,0,0,0},        //58   ":"
    883                            {5,14,30,28,31,31,31,0,0,0,0,0,0,0,0,0,0,31,31,31,0,0,0,0,0,0},        //59   ";"
    884                            {16,0,0,0,0,0,0,57344,63488,65280,32704,4080,1022,127,31,127,1022,4080,32704,65280,63488,57344,0,0,0,0},        //60   "<"
    885                            {16,0,0,0,0,0,0,0,0,0,65535,65535,65535,0,0,0,65535,65535,65535,0,0,0,0,0,0,0},        //61   "="
    886                            {16,0,0,0,0,0,0,7,31,255,1022,4080,32704,65024,63488,65024,32704,4080,1022,255,31,7,0,0,0,0},        //62   ">"
    887                            {15,0,0,0,480,480,480,0,0,480,992,992,960,1984,3968,7936,15872,31744,30720,30720,30735,30751,32319,16382,8188,2032},        //63   "?"
    888                            {16,504,124,60,32286,65438,65423,59343,33743,975,975,975,975,975,1999,3998,40862,65310,65084,63612,248,1008,4064,65472,65280,64512},        //64   "@"
    889                            {16,0,0,0,7,32775,32783,49167,49183,49183,57374,65534,65532,65532,61564,63608,30968,31984,15600,15856,16352,8160,8128,4032,3968,1920},        //65   "A"
    890                            {16,65535,65535,65535,65534,65534,65534,61438,65534,65534,65534,65534,65534,61438,65534,65534,65534,65534,65534,65534,65534,65534,65534,65534,65534,65534},        //66   "B"
    891                            {16,0,0,0,32704,65520,65528,57852,49278,32830,31,31,15,15,15,15,15,15,31,31,32830,49278,57596,65528,65520,32640},        //67   "C"
    892                            {16,65535,65535,65535,65534,65534,65534,65534,65534,65534,65534,65534,65534,65534,32766,32766,65534,65534,65534,65534,65534,65534,65534,65534,65534,65534},        //68   "D"
    893                            {16,65535,65535,65535,65534,65534,65534,65534,65534,65534,65534,65534,65534,65534,65534,65534,65534,65534,65534,65534,65534,65534,65534,65534,65534,65534},        //69   "E"
    894                            {16,65535,65535,65535,65534,65534,65534,65534,65534,65534,65534,65534,65534,65534,65534,65534,65534,65534,65534,65534,65534,65534,65534,65534,65534,65534},        //70   "F"
    895                            {16,0,0,0,65408,65504,65528,33276,126,62,31,31,63503,63503,63503,15,15,15,31,30,62,126,49660,65528,65504,65408},        //71   "G"
    896                            {16,65535,65535,65535,65534,65534,65534,65534,65534,65534,65534,65534,65534,65534,65534,65534,65534,65534,65534,65534,65534,65534,65534,65534,65534,65534},        //72   "H"
    897                            {16,65535,65535,65535,65534,65534,65534,65534,65534,65534,65534,65534,65534,65534,65534,65534,65534,65534,65534,65534,65534,65534,65534,65534,65534,65534},        //73   "I"
    898                            {13,0,0,0,1016,2046,4095,8095,7951,7695,7695,7680,7680,7680,7680,7680,7680,7680,7680,7680,7680,7680,7680,7680,7680,7680},        //74   "J"
    899                            {16,65535,65535,65535,65534,65534,57342,65534,65534,65534,64510,65534,65534,65534,65534,65534,65518,65502,65534,65534,65534,65534,65534,65534,65534,65534},        //75   "K"
    900                            {16,65535,65535,65535,65534,65534,65534,65534,65534,65534,65534,65534,65534,65534,65534,65534,65534,65534,65534,65534,65534,65534,65534,65534,65534,65534},        //76   "L"
    901                            {16,65535,65535,65535,65534,65534,65534,65534,65534,65534,65534,65534,65534,65534,65534,65534,65534,65534,65534,65534,65534,65534,65534,65534,65534,65534},        //77   "M"
    902                            {16,65535,65535,65535,65534,65534,65534,65534,65534,65534,65534,65534,65534,65534,65534,65534,65534,65534,65534,65534,65534,65534,65534,65534,65534,65534},        //78   "N"
    903                            {16,0,0,0,32640,65504,65528,57852,32894,62,31,31,15,15,15,15,15,31,31,31,62,32894,57852,65528,65504,32640},        //79   "O"
    904                            {16,65535,65535,65535,65534,65534,65534,65534,65534,65534,65534,65534,65534,65534,65534,65534,61438,65534,65534,65534,65534,65534,65534,65534,65534,65534},        //80   "P"
    905                            {16,0,0,0,32640,65504,65528,57852,63614,30782,6175,31,15,15,15,15,15,15,31,31,62,32894,57852,65528,65520,32640},        //81   "Q"
    906                            {16,65535,65535,65535,65534,65534,65534,65534,65534,61438,65534,65534,65534,65534,65534,65534,65534,65534,65534,65534,65534,65534,65534,65534,65534,65534},        //82   "R"
    907                            {16,0,0,0,16352,65528,65532,61566,49183,32783,32783,49152,57344,64512,65472,65528,8188,254,62,30,49182,57374,61566,65532,65528,16352},        //83   "S"
    908                            {16,65535,65535,65535,65535,65535,65535,65535,65535,65535,65535,65535,65535,65535,65535,65535,65535,65535,65535,65535,65535,65535,65535,65534,65534,65534},        //84   "T"
    909                            {16,65535,65535,65535,65535,65535,65535,65533,57343,65535,49151,65534,65534,65534,65534,65534,65534,65534,65534,65534,65534,65534,65534,65534,65534,65534},        //85   "U"
    910                            {16,65535,65535,65535,64767,63743,64255,62335,63359,63295,61375,61375,53151,57311,57295,40943,49135,16359,32759,32755,32755,65531,65529,65529,65532,65532},        //86   "V"
    911                            {16,65535,65535,65535,65087,65087,65087,65215,64991,64991,64991,63951,64495,64495,62447,63463,63479,59383,61427,61427,61435,53241,57337,8185,8189,16380},        //87   "W"
    912                            {16,65535,65535,65535,65535,65535,65535,57343,65531,65535,65535,65535,65535,65535,65535,65535,65535,65535,65535,65535,65535,61431,65535,65535,65535,32766},        //88   "X"
    913                            {16,65535,65535,65535,65023,65023,65023,65023,65023,65023,65023,65023,65023,64767,63743,63615,62271,59199,61343,53199,40911,16359,16371,32755,65529,65532},        //89   "Y"
    914                            {16,65535,65535,65535,65535,65535,65535,65535,65535,65535,65535,65535,65535,65535,65503,65535,65535,65535,65535,65535,64511,65535,65535,65534,65534,65534},        //90   "Z"
    915                            {16,65535,65535,65535,65535,65535,65535,65535,65535,65535,65535,65535,65535,65535,65535,65535,65535,65535,65535,65535,65535,65535,65535,65528,65528,65528},        //91   "["
    916                            {16,65535,65535,65535,65471,65471,65535,65535,65503,65535,65535,65519,65519,65535,65527,65527,65535,65531,65531,65535,65535,65533,65535,65535,65534,65534},        //92   "\"
    917                            {16,65535,65535,65535,65535,65535,65535,65535,65535,65535,65535,65535,65535,65535,65535,65535,65535,65535,65535,65535,65535,65535,65535,65534,65534,65534},        //93   "]"
    918                            {13,0,0,0,0,0,0,0,0,0,0,0,0,0,0,7687,3855,3855,3999,1950,1950,1020,1020,504,504,504},        //94   "^"
    919                            {0,0,0,0,0,0,0,0,0,0,0,0,0,0,0,0,0,0,0,0,0,0,0,0,0,0},        //95   "_"
    920                            {16,65535,65535,65535,65535,65535,65535,65535,65535,65535,65535,65535,65535,65535,65535,65535,65535,65535,65535,65535,65535,65535,65535,65535,65535,65534},        //96   "`"
    921                            {15,0,0,0,32252,16383,16383,16271,15887,15887,15375,15870,16380,16128,15360,15887,15903,8190,8190,2040,0,0,0,0,0,0},        //97   "a"
    922                            {16,65535,65535,65535,65502,65534,65534,65534,64510,65534,63486,63486,63486,63486,65534,65534,65022,65534,65534,65502,65534,65534,65534,65534,65534,65534},        //98   "b"
    923                            {14,0,0,0,2032,4092,8190,15935,15391,15375,15,15,15,15,15,15391,15935,8190,4092,2032,0,0,0,0,0,0},        //99   "c"
    924                            {15,0,0,0,32248,32764,32766,32575,32287,31759,31759,31751,31751,31759,31759,32271,32575,32766,32764,32248,31744,31744,31744,31744,31744,31744},        //100   "d"
    925                            {15,0,0,0,2040,8188,16382,15935,31759,15,7,32767,32767,31751,31759,15375,16191,8190,4092,1016,0,0,0,0,0,0},        //101   "e"
    926                            {15,0,0,0,1054,7198,15390,15390,31774,30,30,31774,31774,31774,31774,15390,15390,7423,3327,255,30,30,30,510,508,504},        //102   "f"
    927                            {15,15903,15375,15360,16376,32764,32766,32575,32271,31759,31759,31751,31751,31759,31759,32271,32575,32766,32764,32760,0,0,0,0,0,0},        //103   "g"
    928                            {16,65535,65535,65535,65534,65534,65534,65534,65534,65534,65534,65534,65534,65534,65534,65534,65534,65534,65534,65534,65534,65534,65534,65534,65534,65534},        //104   "h"
    929                            {16,65535,65535,65535,64510,64510,64510,64510,64510,64510,64510,64510,64510,64510,64510,65534,65534,65534,65534,65534,65535,65535,65535,65534,65534,65534},        //105   "i"
    930                            {16,65535,65535,65535,65534,65534,65534,65534,65534,65534,65534,65534,65534,65534,65534,65534,65534,65534,65534,65534,65535,65535,65535,65534,65534,65534},        //106   "j"
    931                            {16,65535,65535,65535,65534,65534,65278,65534,65534,65534,65534,65534,65534,65534,65534,65534,65534,65534,65534,65534,65534,65534,65534,65534,65534,65534},        //107   "k"
    932                            {16,65535,65535,65535,65022,65534,65534,65406,65534,65534,65534,65534,65534,65534,65534,65534,65534,65534,65534,65278,65534,65534,65534,65534,65534,65534},        //108   "l"
    933                            {16,0,0,0,31775,31775,31775,31775,31775,31775,31775,31775,31775,31775,31775,31775,65151,65535,57343,4047,0,0,0,0,0,0},        //109   "m"
    934                            {15,0,0,0,31775,31775,31775,31775,31775,31775,31775,31775,31775,31775,31775,31775,15999,16383,8191,4095,0,0,0,0,0,0},        //110   "n"
    935                            {15,0,0,0,1016,4092,8190,16191,15903,15375,31759,31759,31759,31759,15375,15903,16191,8190,4092,2032,0,0,0,0,0,0},        //111   "o"
    936                            {15,15,15,15,2031,8191,16383,15935,31775,30751,30735,30735,30735,30735,30751,31775,15999,16383,8191,2031,0,0,0,0,0,0},        //112   "p"
    937                            {15,31744,31744,31744,32752,32764,32766,32575,32271,31759,31759,31751,31751,31759,31759,32271,32575,32766,32764,32248,0,0,0,0,0,0},        //113   "q"
    938                            {15,30720,30720,30720,30751,30751,30751,30751,30751,30751,30751,30751,30751,30751,30751,30751,30783,31231,31743,31743,0,0,0,0,0,0},        //114   "r"
    939                            {14,0,0,0,1016,4094,8191,7967,15887,15872,8064,8184,4094,511,31,15,7951,3999,4094,1020,0,0,0,0,0,0},        //115   "s"
    940                            {14,0,0,0,764,3838,7934,7710,15902,15902,7710,7710,3614,30,30,30,7710,3839,3839,767,30,30,30,30,28,16},        //116   "t"
    941                            {15,0,0,0,32248,32764,32766,32574,31775,31775,31775,31775,31775,31775,31775,31775,31775,31775,31775,31775,0,0,0,0,0,0},        //117   "u"
    942                            {14,0,0,0,496,496,1008,1016,1016,2044,1980,1980,3870,3870,7967,7695,7695,15887,15367,15367,0,0,0,0,0,0},        //118   "v"
    943                            {16,0,0,0,57592,57592,61688,61948,61948,63996,63966,31710,31710,16335,16271,16271,16271,7943,7943,7943,0,0,0,0,0,0},        //119   "w"
    944                            {16,0,0,0,56839,57103,53007,51102,51198,50172,49656,16888,16624,504,1020,1020,2046,3999,3855,7951,0,0,0,0,0,0},        //120   "x"
    945                            {16,248,240,240,33248,33264,33264,33776,33784,34808,34748,1980,3900,3870,3870,7711,7695,15887,15375,15367,0,0,0,0,0,0},        //121   "y"
    946                            {16,0,0,0,49151,49151,49151,32783,32799,32830,32892,248,496,992,1984,3968,7936,8191,8191,8191,0,0,0,0,0,0},        //122   "z"
    947                            {16,124,60,60,48188,48188,48188,32828,32828,32830,32798,15,7,15,1054,3134,7228,7228,7228,7228,60,60,60,508,504,496},        //123   "{"
    948                            {0,0,0,0,0,0,0,0,0,0,0,0,0,0,0,0,0,0,0,0,0,0,0,0,0,0},        //124   "|"
    949                            {16,65511,65519,65519,65519,65519,65519,65519,65519,65519,65487,65311,65407,65311,65487,65519,65511,65511,65511,65511,65511,65511,65527,65520,65520,65528},        //125   "}"
    950                            {16,0,0,0,0,0,0,0,0,0,0,15873,32643,65511,59391,49662,32892,0,0,0,0,0,0,0,0,0},        //126   "~"
    951                            //{16,0,0,0,32771,32771,32771,32771,32771,32771,32771,32771,32771,32771,32771,32771,32771,32771,32771,32771,32771,32771,32771,0,0,0},        //127   ""
    952                            {8,0,0,0,0,0,0,0,0,0,0,0,0,0,56,124,110,6,6,110,124,56,2,5,2},  //127   "*C"
    953                            {16,0,0,0,32704,65520,65528,57596,126,62,30,31,16383,16383,15,15,16383,32767,31,31,62,126,57596,65528,65520,32640},        //128   "€"
    954                            {16,0,0,0,32771,32771,32771,32771,32771,32771,32771,32771,32771,32771,32771,32771,32771,32771,32771,32771,32771,32771,32771,0,0,0},        //129   ""
    955                            };
    956          
    957          
    958          //*-----------------------------------------------------------------------------
    959          //* Nazwa funkcji :    Label
    960          //* Funkcja wrysowania napisu
    961          //*-----------------------------------------------------------------------------
    962          //*  Vstring    - wskaŸnik do tablicy znaków
    963          //*  alig       - wyrównanie -0=do lewej, 1=do prawej, 2=wyœrodkowany
    964          //*  X          - wspó³¿êdna X zale¿na od wyrównania 
    965          //*  Y          - wspó³¿êdna Y do³u napisu
    966          //*  maxChar    - maksymalna d³ugoœæ napisu w znakach 
    967          //*  clean      - d³ugoœæ (w pikselach) obszaru czyszczenia t³a 
    968          //*  minY, maxY - obszar roboczy
    969          //*  negatyw    - 0-brak, 1-negatyw
    970          //*  funkcja zwraca d³ugoœæ napisu w pikselach
    971          //*-----------------------------------------------------------------------------
    972          

   \                                 In section Debug.txt, align 4, keep-with-next
    973          char Label (char *Vstring, char alig, char X, int Y, char maxChar, char clean, char minY, char maxY, char negatyw) 
    974          { 
   \                     Label:
   \   00000000   FFB5               PUSH     {R0-R7,LR}
   \   00000002   85B0               SUB      SP,SP,#+20
   \   00000004   0EA8               ADD      R0,SP,#+56
   \   00000006   0078               LDRB     R0,[R0, #+0]
   \   00000008   0021               MOVS     R1,#+0
    975            //char offset=43;
    976            char offset=30;
    977            
    978            
    979            int kol=0;
    980            char linia=0;
    981            char bit=0;
    982            char ill_znak=0;
    983            
    984            char pocz_X=X;
   \   0000000A   6A46               MOV      R2,SP
   \   0000000C   127F               LDRB     R2,[R2, #+28]
   \   0000000E   0492               STR      R2,[SP, #+16]
    985            
    986            kol=X/8;
    987            bit=X%8;
    988            linia=Y;
    989             
    990            char dlugosc=0;
   \   00000010   0A00               MOVS     R2,R1
    991            char clean_offset=0;
   \   00000012   0B00               MOVS     R3,R1
   \   00000014   0193               STR      R3,[SP, #+4]
    992            
    993            
    994          
    995            
    996            
    997            
    998            if (alig==1)
   \   00000016   6B46               MOV      R3,SP
   \   00000018   1B7E               LDRB     R3,[R3, #+24]
   \   0000001A   012B               CMP      R3,#+1
   \   0000001C   2AD1               BNE      ??Label_0
    999            {
   1000              do {       
   1001                 
   1002                 if (Vstring[ill_znak]>=offset)  
   \                     ??Label_1:
   \   0000001E   0B00               MOVS     R3,R1
   \   00000020   059C               LDR      R4,[SP, #+20]
   \   00000022   E418               ADDS     R4,R4,R3
   \   00000024   2378               LDRB     R3,[R4, #+0]
   \   00000026   1E2B               CMP      R3,#+30
   \   00000028   0AD3               BCC      ??Label_2
   1003                  {
   1004                    dlugosc += Arial_7[Vstring[ill_znak]-offset][0];
   \   0000002A   CA4B               LDR      R3,??Label_3     ;; 0xfffffed4
   \   0000002C   2478               LDRB     R4,[R4, #+0]
   \   0000002E   0A25               MOVS     R5,#+10
   \   00000030   6C43               MULS     R4,R5,R4
   \   00000032   C94D               LDR      R5,??Label_3+0x4  ;; Arial_7
   \   00000034   2C19               ADDS     R4,R5,R4
   \   00000036   E35C               LDRB     R3,[R4, R3]
   \   00000038   D218               ADDS     R2,R2,R3
   \   0000003A   1206               LSLS     R2,R2,#+24
   \   0000003C   120E               LSRS     R2,R2,#+24
   \   0000003E   02E0               B        ??Label_4
   1005                  }
   1006                 else
   1007                 {
   1008                   dlugosc++;
   1009                   dlugosc++;
   1010                   dlugosc++;
   \                     ??Label_2:
   \   00000040   D21C               ADDS     R2,R2,#+3
   \   00000042   1206               LSLS     R2,R2,#+24
   \   00000044   120E               LSRS     R2,R2,#+24
   1011                 }
   1012                 dlugosc++;
   \                     ??Label_4:
   \   00000046   521C               ADDS     R2,R2,#+1
   \   00000048   1206               LSLS     R2,R2,#+24
   \   0000004A   120E               LSRS     R2,R2,#+24
   1013                 ill_znak++;
   \   0000004C   491C               ADDS     R1,R1,#+1
   \   0000004E   0906               LSLS     R1,R1,#+24
   \   00000050   090E               LSRS     R1,R1,#+24
   1014                } while ((Vstring[ill_znak]) && (ill_znak<maxChar) && (X-dlugosc>=0) );
   \   00000052   0B00               MOVS     R3,R1
   \   00000054   059C               LDR      R4,[SP, #+20]
   \   00000056   E35C               LDRB     R3,[R4, R3]
   \   00000058   002B               CMP      R3,#+0
   \   0000005A   07D0               BEQ      ??Label_5
   \   0000005C   0B00               MOVS     R3,R1
   \   0000005E   8342               CMP      R3,R0
   \   00000060   04D2               BCS      ??Label_5
   \   00000062   6B46               MOV      R3,SP
   \   00000064   1B7F               LDRB     R3,[R3, #+28]
   \   00000066   1400               MOVS     R4,R2
   \   00000068   1B1B               SUBS     R3,R3,R4
   \   0000006A   D8D5               BPL      ??Label_1
   1015           
   1016              clean_offset=clean;
   \                     ??Label_5:
   \   0000006C   0FA8               ADD      R0,SP,#+60
   \   0000006E   0078               LDRB     R0,[R0, #+0]
   \   00000070   0190               STR      R0,[SP, #+4]
   \   00000072   29E0               B        ??Label_6
   1017            }
   1018            else
   1019            {
   1020              do {   
   1021                 
   1022                 
   1023                 if (Vstring[ill_znak]>=offset)  
   \                     ??Label_0:
   \   00000074   0B00               MOVS     R3,R1
   \   00000076   059C               LDR      R4,[SP, #+20]
   \   00000078   E418               ADDS     R4,R4,R3
   \   0000007A   2378               LDRB     R3,[R4, #+0]
   \   0000007C   1E2B               CMP      R3,#+30
   \   0000007E   0AD3               BCC      ??Label_7
   1024                  {
   1025                    dlugosc += Arial_7[Vstring[ill_znak]-offset][0];
   \   00000080   B44B               LDR      R3,??Label_3     ;; 0xfffffed4
   \   00000082   2478               LDRB     R4,[R4, #+0]
   \   00000084   0A25               MOVS     R5,#+10
   \   00000086   6C43               MULS     R4,R5,R4
   \   00000088   B34D               LDR      R5,??Label_3+0x4  ;; Arial_7
   \   0000008A   2C19               ADDS     R4,R5,R4
   \   0000008C   E35C               LDRB     R3,[R4, R3]
   \   0000008E   D218               ADDS     R2,R2,R3
   \   00000090   1206               LSLS     R2,R2,#+24
   \   00000092   120E               LSRS     R2,R2,#+24
   \   00000094   02E0               B        ??Label_8
   1026                  }
   1027                 else
   1028                 {
   1029                   dlugosc++;
   1030                   dlugosc++;
   1031                   dlugosc++;
   \                     ??Label_7:
   \   00000096   D21C               ADDS     R2,R2,#+3
   \   00000098   1206               LSLS     R2,R2,#+24
   \   0000009A   120E               LSRS     R2,R2,#+24
   1032                 }
   1033                 
   1034                 
   1035                 dlugosc++;
   \                     ??Label_8:
   \   0000009C   521C               ADDS     R2,R2,#+1
   \   0000009E   1206               LSLS     R2,R2,#+24
   \   000000A0   120E               LSRS     R2,R2,#+24
   1036                 ill_znak++;
   \   000000A2   491C               ADDS     R1,R1,#+1
   \   000000A4   0906               LSLS     R1,R1,#+24
   \   000000A6   090E               LSRS     R1,R1,#+24
   1037               } while ((Vstring[ill_znak]) && (ill_znak<maxChar) && (X+dlugosc<=64));
   \   000000A8   0B00               MOVS     R3,R1
   \   000000AA   059C               LDR      R4,[SP, #+20]
   \   000000AC   E35C               LDRB     R3,[R4, R3]
   \   000000AE   002B               CMP      R3,#+0
   \   000000B0   0AD0               BEQ      ??Label_6
   \   000000B2   0B00               MOVS     R3,R1
   \   000000B4   8342               CMP      R3,R0
   \   000000B6   07D2               BCS      ??Label_6
   \   000000B8   6B46               MOV      R3,SP
   \   000000BA   1B7F               LDRB     R3,[R3, #+28]
   \   000000BC   1400               MOVS     R4,R2
   \   000000BE   1B19               ADDS     R3,R3,R4
   \   000000C0   1B04               LSLS     R3,R3,#+16
   \   000000C2   1B0C               LSRS     R3,R3,#+16
   \   000000C4   412B               CMP      R3,#+65
   \   000000C6   D5D3               BCC      ??Label_0
   1038              
   1039            }
   1040              
   1041            dlugosc--;
   \                     ??Label_6:
   \   000000C8   501E               SUBS     R0,R2,#+1
   \   000000CA   0006               LSLS     R0,R0,#+24
   \   000000CC   000E               LSRS     R0,R0,#+24
   \   000000CE   0390               STR      R0,[SP, #+12]
   \   000000D0   089A               LDR      R2,[SP, #+32]
   \   000000D2   1206               LSLS     R2,R2,#+24
   \   000000D4   120E               LSRS     R2,R2,#+24
   \   000000D6   0120               MOVS     R0,#+1
   \   000000D8   0090               STR      R0,[SP, #+0]
   \   000000DA   05E0               B        ??Label_9
   1042            
   1043             //Czyszczenie obszaru ----------------------
   1044            linia=Y;
   1045            for (int i=1; i<=9; i++)
   1046             {
   1047              if ((linia>=minY) && (linia<=maxY))
   1048              {
   1049               kol=(X-clean_offset)/8;
   1050               bit=(X-clean_offset)%8;
   1051                 
   1052                for (int j=0; j<=clean; j++)
   1053                {
   1054                  LCD_Canvas[kol][linia] &=~(1<<bit);
   1055                  
   1056                  if (bit<7) { bit++;} else {bit=0;  kol++; }
   1057                }   
   1058          
   1059          
   1060             }
   1061              linia++;
   \                     ??Label_10:
   \   000000DC   521C               ADDS     R2,R2,#+1
   \   000000DE   1206               LSLS     R2,R2,#+24
   \   000000E0   120E               LSRS     R2,R2,#+24
   \   000000E2   0098               LDR      R0,[SP, #+0]
   \   000000E4   401C               ADDS     R0,R0,#+1
   \   000000E6   0090               STR      R0,[SP, #+0]
   \                     ??Label_9:
   \   000000E8   0098               LDR      R0,[SP, #+0]
   \   000000EA   0A28               CMP      R0,#+10
   \   000000EC   37DA               BGE      ??Label_11
   \   000000EE   1000               MOVS     R0,R2
   \   000000F0   10AB               ADD      R3,SP,#+64
   \   000000F2   1B78               LDRB     R3,[R3, #+0]
   \   000000F4   9842               CMP      R0,R3
   \   000000F6   F1D3               BCC      ??Label_10
   \   000000F8   11A8               ADD      R0,SP,#+68
   \   000000FA   0078               LDRB     R0,[R0, #+0]
   \   000000FC   1300               MOVS     R3,R2
   \   000000FE   9842               CMP      R0,R3
   \   00000100   ECD3               BCC      ??Label_10
   \   00000102   0198               LDR      R0,[SP, #+4]
   \   00000104   0006               LSLS     R0,R0,#+24
   \   00000106   000E               LSRS     R0,R0,#+24
   \   00000108   6B46               MOV      R3,SP
   \   0000010A   1B7F               LDRB     R3,[R3, #+28]
   \   0000010C   181A               SUBS     R0,R3,R0
   \   0000010E   0300               MOVS     R3,R0
   \   00000110   9B10               ASRS     R3,R3,#+2
   \   00000112   5B0F               LSRS     R3,R3,#+29
   \   00000114   1B18               ADDS     R3,R3,R0
   \   00000116   DB10               ASRS     R3,R3,#+3
   \   00000118   1D00               MOVS     R5,R3
   \   0000011A   6C46               MOV      R4,SP
   \   0000011C   247F               LDRB     R4,[R4, #+28]
   \   0000011E   019E               LDR      R6,[SP, #+4]
   \   00000120   A41B               SUBS     R4,R4,R6
   \   00000122   DB00               LSLS     R3,R3,#+3
   \   00000124   E41A               SUBS     R4,R4,R3
   \   00000126   2406               LSLS     R4,R4,#+24
   \   00000128   240E               LSRS     R4,R4,#+24
   \   0000012A   0023               MOVS     R3,#+0
   \   0000012C   02E0               B        ??Label_12
   \                     ??Label_13:
   \   0000012E   0024               MOVS     R4,#+0
   \   00000130   6D1C               ADDS     R5,R5,#+1
   \                     ??Label_14:
   \   00000132   5B1C               ADDS     R3,R3,#+1
   \                     ??Label_12:
   \   00000134   0FA8               ADD      R0,SP,#+60
   \   00000136   0078               LDRB     R0,[R0, #+0]
   \   00000138   9842               CMP      R0,R3
   \   0000013A   CFDB               BLT      ??Label_10
   \   0000013C   9048               LDR      R0,??Label_15    ;; LCD_Canvas
   \   0000013E   1600               MOVS     R6,R2
   \   00000140   EF01               LSLS     R7,R5,#+7
   \   00000142   C019               ADDS     R0,R0,R7
   \   00000144   8019               ADDS     R0,R0,R6
   \   00000146   0678               LDRB     R6,[R0, #+0]
   \   00000148   0127               MOVS     R7,#+1
   \   0000014A   A740               LSLS     R7,R7,R4
   \   0000014C   BE43               BICS     R6,R6,R7
   \   0000014E   0670               STRB     R6,[R0, #+0]
   \   00000150   2000               MOVS     R0,R4
   \   00000152   0728               CMP      R0,#+7
   \   00000154   EBD2               BCS      ??Label_13
   \   00000156   641C               ADDS     R4,R4,#+1
   \   00000158   2406               LSLS     R4,R4,#+24
   \   0000015A   240E               LSRS     R4,R4,#+24
   \   0000015C   E9E7               B        ??Label_14
   1062            }
   1063            //------------------------------------------------------
   1064              
   1065            if (alig==1)
   \                     ??Label_11:
   \   0000015E   6846               MOV      R0,SP
   \   00000160   007E               LDRB     R0,[R0, #+24]
   \   00000162   0128               CMP      R0,#+1
   \   00000164   05D1               BNE      ??Label_16
   1066            {  
   1067              X-=dlugosc;
   \   00000166   6846               MOV      R0,SP
   \   00000168   6A46               MOV      R2,SP
   \   0000016A   127F               LDRB     R2,[R2, #+28]
   \   0000016C   039B               LDR      R3,[SP, #+12]
   \   0000016E   D21A               SUBS     R2,R2,R3
   \   00000170   0277               STRB     R2,[R0, #+28]
   1068            }  
   1069           
   1070            if (alig==2)
   \                     ??Label_16:
   \   00000172   6846               MOV      R0,SP
   \   00000174   007E               LDRB     R0,[R0, #+24]
   \   00000176   0228               CMP      R0,#+2
   \   00000178   18D1               BNE      ??Label_17
   \   0000017A   0FA8               ADD      R0,SP,#+60
   \   0000017C   0078               LDRB     R0,[R0, #+0]
   \   0000017E   039A               LDR      R2,[SP, #+12]
   \   00000180   1206               LSLS     R2,R2,#+24
   \   00000182   120E               LSRS     R2,R2,#+24
   \   00000184   801A               SUBS     R0,R0,R2
   \   00000186   0200               MOVS     R2,R0
   \   00000188   D20F               LSRS     R2,R2,#+31
   \   0000018A   1218               ADDS     R2,R2,R0
   \   0000018C   5210               ASRS     R2,R2,#+1
   \   0000018E   6B46               MOV      R3,SP
   \   00000190   6C46               MOV      R4,SP
   \   00000192   247F               LDRB     R4,[R4, #+28]
   \   00000194   1500               MOVS     R5,R2
   \   00000196   6419               ADDS     R4,R4,R5
   \   00000198   1C77               STRB     R4,[R3, #+28]
   1071            {  
   1072              X+=(clean-dlugosc)/2;
   1073              
   1074              if (((clean-dlugosc)%2)>0) X++;
   \   0000019A   5200               LSLS     R2,R2,#+1
   \   0000019C   821A               SUBS     R2,R0,R2
   \   0000019E   012A               CMP      R2,#+1
   \   000001A0   04DB               BLT      ??Label_17
   \   000001A2   6846               MOV      R0,SP
   \   000001A4   6A46               MOV      R2,SP
   \   000001A6   127F               LDRB     R2,[R2, #+28]
   \   000001A8   521C               ADDS     R2,R2,#+1
   \   000001AA   0277               STRB     R2,[R0, #+28]
   1075            }  
   1076          
   1077              
   1078            //wklejanie napisu do LCD_Canvas ----------------------
   1079            linia=Y;
   \                     ??Label_17:
   \   000001AC   089A               LDR      R2,[SP, #+32]
   \   000001AE   1206               LSLS     R2,R2,#+24
   \   000001B0   120E               LSRS     R2,R2,#+24
   1080            for (int i=1; i<=9; i++)
   \   000001B2   0120               MOVS     R0,#+1
   \   000001B4   0290               STR      R0,[SP, #+8]
   \   000001B6   05E0               B        ??Label_18
   1081             {
   1082              if ((linia>=minY) && (linia<=maxY))
   1083              {
   1084               kol=X/8;
   1085               bit=X%8;
   1086              for (int k=0; k<=(ill_znak-1); k++)
   1087              {     
   1088                
   1089                if ((Vstring[k]>=offset) &&  (Vstring[k]!=32))
   1090                {
   1091                  for (int j=0; j<=Arial_7[Vstring[k]-offset][0]; j++)
   1092                  {
   1093                      LCD_Canvas[kol][linia] |= (((Arial_7[Vstring[k]-offset][i])>>j)&0x1)<<bit;
   1094                      if (bit<7) { bit++;} else {bit=0;  kol++; } 
   1095                  }
   1096                }
   1097                else 
   1098                {
   1099                     if (bit<7) { bit++;} else {bit=0;  kol++; } 
   1100                     if (bit<7) { bit++;} else {bit=0;  kol++; } 
   1101                     if (bit<7) { bit++;} else {bit=0;  kol++; } 
   1102          
   1103                }
   1104                
   1105                
   1106              }
   1107             }
   1108              linia++;
   \                     ??Label_19:
   \   000001B8   521C               ADDS     R2,R2,#+1
   \   000001BA   1206               LSLS     R2,R2,#+24
   \   000001BC   120E               LSRS     R2,R2,#+24
   \   000001BE   0298               LDR      R0,[SP, #+8]
   \   000001C0   401C               ADDS     R0,R0,#+1
   \   000001C2   0290               STR      R0,[SP, #+8]
   \                     ??Label_18:
   \   000001C4   0298               LDR      R0,[SP, #+8]
   \   000001C6   0A28               CMP      R0,#+10
   \   000001C8   79DA               BGE      ??Label_20
   \   000001CA   1000               MOVS     R0,R2
   \   000001CC   10AB               ADD      R3,SP,#+64
   \   000001CE   1B78               LDRB     R3,[R3, #+0]
   \   000001D0   9842               CMP      R0,R3
   \   000001D2   F1D3               BCC      ??Label_19
   \   000001D4   11A8               ADD      R0,SP,#+68
   \   000001D6   0078               LDRB     R0,[R0, #+0]
   \   000001D8   1300               MOVS     R3,R2
   \   000001DA   9842               CMP      R0,R3
   \   000001DC   ECD3               BCC      ??Label_19
   \   000001DE   6846               MOV      R0,SP
   \   000001E0   007F               LDRB     R0,[R0, #+28]
   \   000001E2   0500               MOVS     R5,R0
   \   000001E4   ED08               LSRS     R5,R5,#+3
   \   000001E6   6846               MOV      R0,SP
   \   000001E8   007F               LDRB     R0,[R0, #+28]
   \   000001EA   EB00               LSLS     R3,R5,#+3
   \   000001EC   C41A               SUBS     R4,R0,R3
   \   000001EE   2406               LSLS     R4,R4,#+24
   \   000001F0   240E               LSRS     R4,R4,#+24
   \   000001F2   0023               MOVS     R3,#+0
   \   000001F4   02E0               B        ??Label_21
   \                     ??Label_22:
   \   000001F6   0024               MOVS     R4,#+0
   \   000001F8   6D1C               ADDS     R5,R5,#+1
   \                     ??Label_23:
   \   000001FA   5B1C               ADDS     R3,R3,#+1
   \                     ??Label_21:
   \   000001FC   0800               MOVS     R0,R1
   \   000001FE   401E               SUBS     R0,R0,#+1
   \   00000200   9842               CMP      R0,R3
   \   00000202   D9DB               BLT      ??Label_19
   \   00000204   0598               LDR      R0,[SP, #+20]
   \   00000206   C05C               LDRB     R0,[R0, R3]
   \   00000208   1E28               CMP      R0,#+30
   \   0000020A   3FD3               BCC      ??Label_24
   \   0000020C   0598               LDR      R0,[SP, #+20]
   \   0000020E   C05C               LDRB     R0,[R0, R3]
   \   00000210   2028               CMP      R0,#+32
   \   00000212   3BD0               BEQ      ??Label_24
   \   00000214   0026               MOVS     R6,#+0
   \   00000216   02E0               B        ??Label_25
   \                     ??Label_26:
   \   00000218   0024               MOVS     R4,#+0
   \   0000021A   6D1C               ADDS     R5,R5,#+1
   \                     ??Label_27:
   \   0000021C   761C               ADDS     R6,R6,#+1
   \                     ??Label_25:
   \   0000021E   4D4F               LDR      R7,??Label_3     ;; 0xfffffed4
   \   00000220   BC46               MOV      R12,R7
   \   00000222   0598               LDR      R0,[SP, #+20]
   \   00000224   C05C               LDRB     R0,[R0, R3]
   \   00000226   0A27               MOVS     R7,#+10
   \   00000228   7843               MULS     R0,R7,R0
   \   0000022A   4B4F               LDR      R7,??Label_3+0x4  ;; Arial_7
   \   0000022C   3818               ADDS     R0,R7,R0
   \   0000022E   6746               MOV      R7,R12
   \   00000230   C05D               LDRB     R0,[R0, R7]
   \   00000232   B042               CMP      R0,R6
   \   00000234   E1DB               BLT      ??Label_23
   \   00000236   5248               LDR      R0,??Label_15    ;; LCD_Canvas
   \   00000238   1700               MOVS     R7,R2
   \   0000023A   BC46               MOV      R12,R7
   \   0000023C   EF01               LSLS     R7,R5,#+7
   \   0000023E   C019               ADDS     R0,R0,R7
   \   00000240   6746               MOV      R7,R12
   \   00000242   C019               ADDS     R0,R0,R7
   \   00000244   0090               STR      R0,[SP, #+0]
   \   00000246   0700               MOVS     R7,R0
   \   00000248   80B5               PUSH     {R7,LR}
   \   0000024A   0778               LDRB     R7,[R0, #+0]
   \   0000024C   0197               STR      R7,[SP, #+4]
   \   0000024E   414F               LDR      R7,??Label_3     ;; 0xfffffed4
   \   00000250   80B5               PUSH     {R7,LR}
   \   00000252   069F               LDR      R7,[SP, #+24]
   \   00000254   BC46               MOV      R12,R7
   \   00000256   0998               LDR      R0,[SP, #+36]
   \   00000258   C05C               LDRB     R0,[R0, R3]
   \   0000025A   0A27               MOVS     R7,#+10
   \   0000025C   7843               MULS     R0,R7,R0
   \   0000025E   3E4F               LDR      R7,??Label_3+0x4  ;; Arial_7
   \   00000260   3818               ADDS     R0,R7,R0
   \   00000262   6746               MOV      R7,R12
   \   00000264   C019               ADDS     R0,R0,R7
   \   00000266   009F               LDR      R7,[SP, #0]
   \   00000268   02B0               ADD      SP,SP,#+8
   \   0000026A   C75D               LDRB     R7,[R0, R7]
   \   0000026C   3741               ASRS     R7,R7,R6
   \   0000026E   0120               MOVS     R0,#+1
   \   00000270   3840               ANDS     R0,R0,R7
   \   00000272   A040               LSLS     R0,R0,R4
   \   00000274   019F               LDR      R7,[SP, #+4]
   \   00000276   3843               ORRS     R0,R0,R7
   \   00000278   009F               LDR      R7,[SP, #0]
   \   0000027A   02B0               ADD      SP,SP,#+8
   \   0000027C   3870               STRB     R0,[R7, #+0]
   \   0000027E   2000               MOVS     R0,R4
   \   00000280   0728               CMP      R0,#+7
   \   00000282   C9D2               BCS      ??Label_26
   \   00000284   641C               ADDS     R4,R4,#+1
   \   00000286   2406               LSLS     R4,R4,#+24
   \   00000288   240E               LSRS     R4,R4,#+24
   \   0000028A   C7E7               B        ??Label_27
   \                     ??Label_24:
   \   0000028C   2000               MOVS     R0,R4
   \   0000028E   0728               CMP      R0,#+7
   \   00000290   03D2               BCS      ??Label_28
   \   00000292   641C               ADDS     R4,R4,#+1
   \   00000294   2406               LSLS     R4,R4,#+24
   \   00000296   240E               LSRS     R4,R4,#+24
   \   00000298   01E0               B        ??Label_29
   \                     ??Label_28:
   \   0000029A   0024               MOVS     R4,#+0
   \   0000029C   6D1C               ADDS     R5,R5,#+1
   \                     ??Label_29:
   \   0000029E   2000               MOVS     R0,R4
   \   000002A0   0728               CMP      R0,#+7
   \   000002A2   03D2               BCS      ??Label_30
   \   000002A4   641C               ADDS     R4,R4,#+1
   \   000002A6   2406               LSLS     R4,R4,#+24
   \   000002A8   240E               LSRS     R4,R4,#+24
   \   000002AA   01E0               B        ??Label_31
   \                     ??Label_30:
   \   000002AC   0024               MOVS     R4,#+0
   \   000002AE   6D1C               ADDS     R5,R5,#+1
   \                     ??Label_31:
   \   000002B0   2000               MOVS     R0,R4
   \   000002B2   0728               CMP      R0,#+7
   \   000002B4   9FD2               BCS      ??Label_22
   \   000002B6   641C               ADDS     R4,R4,#+1
   \   000002B8   2406               LSLS     R4,R4,#+24
   \   000002BA   240E               LSRS     R4,R4,#+24
   \   000002BC   9DE7               B        ??Label_23
   1109            }
   1110            //------------------------------------------------------
   1111              
   1112          
   1113            //negatyw obszaru ----------------------
   1114           if (negatyw)
   \                     ??Label_20:
   \   000002BE   12A8               ADD      R0,SP,#+72
   \   000002C0   0078               LDRB     R0,[R0, #+0]
   \   000002C2   0028               CMP      R0,#+0
   \   000002C4   55D0               BEQ      ??Label_32
   1115           {
   1116            linia=Y;
   \   000002C6   089A               LDR      R2,[SP, #+32]
   \   000002C8   1206               LSLS     R2,R2,#+24
   \   000002CA   120E               LSRS     R2,R2,#+24
   1117            for (int i=1; i<=9; i++)
   \   000002CC   0120               MOVS     R0,#+1
   \   000002CE   0090               STR      R0,[SP, #+0]
   \   000002D0   05E0               B        ??Label_33
   1118             {
   1119              if ((linia>=minY) && (linia<=maxY))
   1120              {
   1121               
   1122               kol=(pocz_X-clean_offset)/8;
   1123               bit=(pocz_X-clean_offset)%8;
   1124                 
   1125                for (int j=0; j<=clean; j++)
   1126                {
   1127                 
   1128                  if (((LCD_Canvas[kol][linia]>>bit)&0x1)>0)
   1129                  {
   1130                     LCD_Canvas[kol][linia] &=~(1<<bit);   
   1131                    
   1132                  }
   1133                  else
   1134                  {
   1135                    LCD_Canvas[kol][linia] |=(1<<bit); 
   1136                    
   1137                  }
   1138                  
   1139                  
   1140                  
   1141                  if (bit<7) { bit++;} else {bit=0;  kol++; }
   1142                }   
   1143          
   1144          
   1145             }
   1146              linia++;
   \                     ??Label_34:
   \   000002D2   521C               ADDS     R2,R2,#+1
   \   000002D4   1206               LSLS     R2,R2,#+24
   \   000002D6   120E               LSRS     R2,R2,#+24
   \   000002D8   0098               LDR      R0,[SP, #+0]
   \   000002DA   401C               ADDS     R0,R0,#+1
   \   000002DC   0090               STR      R0,[SP, #+0]
   \                     ??Label_33:
   \   000002DE   0098               LDR      R0,[SP, #+0]
   \   000002E0   0A28               CMP      R0,#+10
   \   000002E2   46DA               BGE      ??Label_32
   \   000002E4   1000               MOVS     R0,R2
   \   000002E6   10A9               ADD      R1,SP,#+64
   \   000002E8   0978               LDRB     R1,[R1, #+0]
   \   000002EA   8842               CMP      R0,R1
   \   000002EC   F1D3               BCC      ??Label_34
   \   000002EE   11A8               ADD      R0,SP,#+68
   \   000002F0   0078               LDRB     R0,[R0, #+0]
   \   000002F2   1100               MOVS     R1,R2
   \   000002F4   8842               CMP      R0,R1
   \   000002F6   ECD3               BCC      ??Label_34
   \   000002F8   0198               LDR      R0,[SP, #+4]
   \   000002FA   0006               LSLS     R0,R0,#+24
   \   000002FC   000E               LSRS     R0,R0,#+24
   \   000002FE   0499               LDR      R1,[SP, #+16]
   \   00000300   0906               LSLS     R1,R1,#+24
   \   00000302   090E               LSRS     R1,R1,#+24
   \   00000304   081A               SUBS     R0,R1,R0
   \   00000306   0100               MOVS     R1,R0
   \   00000308   8910               ASRS     R1,R1,#+2
   \   0000030A   490F               LSRS     R1,R1,#+29
   \   0000030C   0918               ADDS     R1,R1,R0
   \   0000030E   C910               ASRS     R1,R1,#+3
   \   00000310   0D00               MOVS     R5,R1
   \   00000312   049B               LDR      R3,[SP, #+16]
   \   00000314   019C               LDR      R4,[SP, #+4]
   \   00000316   1B1B               SUBS     R3,R3,R4
   \   00000318   C900               LSLS     R1,R1,#+3
   \   0000031A   5C1A               SUBS     R4,R3,R1
   \   0000031C   2406               LSLS     R4,R4,#+24
   \   0000031E   240E               LSRS     R4,R4,#+24
   \   00000320   0021               MOVS     R1,#+0
   \   00000322   02E0               B        ??Label_35
   \                     ??Label_36:
   \   00000324   0024               MOVS     R4,#+0
   \   00000326   6D1C               ADDS     R5,R5,#+1
   \                     ??Label_37:
   \   00000328   491C               ADDS     R1,R1,#+1
   \                     ??Label_35:
   \   0000032A   0FA8               ADD      R0,SP,#+60
   \   0000032C   0078               LDRB     R0,[R0, #+0]
   \   0000032E   8842               CMP      R0,R1
   \   00000330   CFDB               BLT      ??Label_34
   \   00000332   1348               LDR      R0,??Label_15    ;; LCD_Canvas
   \   00000334   1300               MOVS     R3,R2
   \   00000336   EE01               LSLS     R6,R5,#+7
   \   00000338   8019               ADDS     R0,R0,R6
   \   0000033A   C318               ADDS     R3,R0,R3
   \   0000033C   1878               LDRB     R0,[R3, #+0]
   \   0000033E   0600               MOVS     R6,R0
   \   00000340   2641               ASRS     R6,R6,R4
   \   00000342   0127               MOVS     R7,#+1
   \   00000344   3740               ANDS     R7,R7,R6
   \   00000346   012F               CMP      R7,#+1
   \   00000348   08DB               BLT      ??Label_38
   \   0000034A   0126               MOVS     R6,#+1
   \   0000034C   A640               LSLS     R6,R6,R4
   \   0000034E   B043               BICS     R0,R0,R6
   \   00000350   1870               STRB     R0,[R3, #+0]
   \   00000352   07E0               B        ??Label_39
   \                     ??Label_3:
   \   00000354   D4FEFFFF           DC32     0xfffffed4
   \   00000358   ........           DC32     Arial_7
   \                     ??Label_38:
   \   0000035C   0126               MOVS     R6,#+1
   \   0000035E   A640               LSLS     R6,R6,R4
   \   00000360   0643               ORRS     R6,R6,R0
   \   00000362   1E70               STRB     R6,[R3, #+0]
   \                     ??Label_39:
   \   00000364   2000               MOVS     R0,R4
   \   00000366   0728               CMP      R0,#+7
   \   00000368   DCD2               BCS      ??Label_36
   \   0000036A   641C               ADDS     R4,R4,#+1
   \   0000036C   2406               LSLS     R4,R4,#+24
   \   0000036E   240E               LSRS     R4,R4,#+24
   \   00000370   DAE7               B        ??Label_37
   1147            }
   1148            }
   1149            //------------------------------------------------------
   1150             
   1151           return dlugosc;
   \                     ??Label_32:
   \   00000372   0398               LDR      R0,[SP, #+12]
   \   00000374   0006               LSLS     R0,R0,#+24
   \   00000376   000E               LSRS     R0,R0,#+24
   \   00000378   09B0               ADD      SP,SP,#+36
   \   0000037A   F0BC               POP      {R4-R7}
   \   0000037C   02BC               POP      {R1}
   \   0000037E   0847               BX       R1               ;; return
   \                     ??Label_15:
   \   00000380   ........           DC32     LCD_Canvas
   1152            
   1153          }//_______________________ Koniec funkcji Label __________________________
   1154          
   1155          
   1156          
   1157          
   1158          
   1159          
   1160          
   1161          
   1162          //*-----------------------------------------------------------------------------
   1163          //* Nazwa funkcji :    LabelLength
   1164          //* Funkcja wrysowania napisu
   1165          //*-----------------------------------------------------------------------------
   1166          //*  Vstring    - wskaŸnik do tablicy znaków
   1167          //*  maxChar    - maksymalna d³ugoœæ napisu w znakach 
   1168          //*  funkcja zwraca d³ugoœæ napisu w pikselach
   1169          //*-----------------------------------------------------------------------------
   1170          

   \                                 In section Debug.txt, align 4, keep-with-next
   1171          char LabelLength (char *Vstring, char maxChar)
   1172          { 
   \                     LabelLength:
   \   00000000   70B5               PUSH     {R4-R6,LR}
   1173            //char offset=43;
   1174            char offset=30;
   1175            
   1176            
   1177            int kol=0;
                       ^
Warning[Pe177]: variable "kol" was declared but never referenced
   1178            char linia=0;
                        ^
Warning[Pe177]: variable "linia" was declared but never referenced
   1179            char bit=0;
                        ^
Warning[Pe177]: variable "bit" was declared but never referenced
   1180            char ill_znak=0;
   \   00000002   0022               MOVS     R2,#+0
   1181          
   1182             
   1183            char dlugosc=0;
   \   00000004   1300               MOVS     R3,R2
   1184            char clean_offset=0;
                        ^
Warning[Pe177]: variable "clean_offset" was declared but never referenced
   1185            
   1186           
   1187              do {   
   1188                 
   1189                 
   1190                 if (Vstring[ill_znak]>=offset)  
   \                     ??LabelLength_0:
   \   00000006   1400               MOVS     R4,R2
   \   00000008   0519               ADDS     R5,R0,R4
   \   0000000A   2C78               LDRB     R4,[R5, #+0]
   \   0000000C   1E2C               CMP      R4,#+30
   \   0000000E   0AD3               BCC      ??LabelLength_1
   1191                  {
   1192                    dlugosc += Arial_7[Vstring[ill_znak]-offset][0];
   \   00000010   114C               LDR      R4,??LabelLength_2  ;; 0xfffffed4
   \   00000012   2D78               LDRB     R5,[R5, #+0]
   \   00000014   0A26               MOVS     R6,#+10
   \   00000016   7543               MULS     R5,R6,R5
   \   00000018   104E               LDR      R6,??LabelLength_2+0x4  ;; Arial_7
   \   0000001A   7519               ADDS     R5,R6,R5
   \   0000001C   2C5D               LDRB     R4,[R5, R4]
   \   0000001E   1B19               ADDS     R3,R3,R4
   \   00000020   1B06               LSLS     R3,R3,#+24
   \   00000022   1B0E               LSRS     R3,R3,#+24
   \   00000024   02E0               B        ??LabelLength_3
   1193                  }
   1194                 else
   1195                 {
   1196                   dlugosc++;
   1197                   dlugosc++;
   1198                   dlugosc++;
   \                     ??LabelLength_1:
   \   00000026   DB1C               ADDS     R3,R3,#+3
   \   00000028   1B06               LSLS     R3,R3,#+24
   \   0000002A   1B0E               LSRS     R3,R3,#+24
   1199                 }
   1200                 
   1201                 
   1202                 dlugosc++;
   \                     ??LabelLength_3:
   \   0000002C   5B1C               ADDS     R3,R3,#+1
   \   0000002E   1B06               LSLS     R3,R3,#+24
   \   00000030   1B0E               LSRS     R3,R3,#+24
   1203                 ill_znak++;
   \   00000032   521C               ADDS     R2,R2,#+1
   \   00000034   1206               LSLS     R2,R2,#+24
   \   00000036   120E               LSRS     R2,R2,#+24
   1204               } while ((Vstring[ill_znak]) && (ill_znak<maxChar) && (dlugosc<=64));
   \   00000038   1400               MOVS     R4,R2
   \   0000003A   045D               LDRB     R4,[R0, R4]
   \   0000003C   002C               CMP      R4,#+0
   \   0000003E   05D0               BEQ      ??LabelLength_4
   \   00000040   1400               MOVS     R4,R2
   \   00000042   8C42               CMP      R4,R1
   \   00000044   02D2               BCS      ??LabelLength_4
   \   00000046   1C00               MOVS     R4,R3
   \   00000048   412C               CMP      R4,#+65
   \   0000004A   DCD3               BCC      ??LabelLength_0
   1205              
   1206            
   1207              
   1208            dlugosc--;
   1209            
   1210             
   1211           return dlugosc;
   \                     ??LabelLength_4:
   \   0000004C   581E               SUBS     R0,R3,#+1
   \   0000004E   0006               LSLS     R0,R0,#+24
   \   00000050   000E               LSRS     R0,R0,#+24
   \   00000052   70BC               POP      {R4-R6}
   \   00000054   02BC               POP      {R1}
   \   00000056   0847               BX       R1               ;; return
   \                     ??LabelLength_2:
   \   00000058   D4FEFFFF           DC32     0xfffffed4
   \   0000005C   ........           DC32     Arial_7
   1212            
   1213          }//_______________________ Koniec funkcji LabelLength __________________________
   1214          
   1215          
   1216          
   1217          
   1218          
   1219          
   1220          
   1221          
   1222          //*-----------------------------------------------------------------------------
   1223          //* Nazwa funkcji :    Label
   1224          //* Funkcja wrysowania napisu
   1225          //*-----------------------------------------------------------------------------
   1226          //*  Vstring    - wskaŸnik do tablicy znaków
   1227          //*  alig       - wyrównanie -0=do lewej, 1=do prawej, 2=wyœrodkowany
   1228          //*  X          - wspó³¿êdna X zale¿na od wyrównania 
   1229          //*  Y          - wspó³¿êdna Y do³u napisu
   1230          //*  maxChar    - maksymalna d³ugoœæ napisu w znakach 
   1231          //*  clean      - d³ugoœæ (w pikselach) obszaru czyszczenia t³a 
   1232          //*  minY, maxY - obszar roboczy
   1233          //*  negatyw    - 0-brak, 1-negatyw
   1234          //*-----------------------------------------------------------------------------
   1235          

   \                                 In section Debug.txt, align 4, keep-with-next
   1236          void Label20 (char *Vstring, char alig, char X, int Y, char maxChar, char clean, char minY, char maxY, char negatyw) 
   1237          { 
   \                     Label20:
   \   00000000   FFB5               PUSH     {R0-R7,LR}
   \   00000002   85B0               SUB      SP,SP,#+20
   \   00000004   0EA8               ADD      R0,SP,#+56
   \   00000006   0078               LDRB     R0,[R0, #+0]
   \   00000008   0021               MOVS     R1,#+0
   1238            //char offset=43;
   1239            char offset=30;
   1240            
   1241            
   1242            int kol=0;
   1243            char linia=0;
   1244            char bit=0;
   1245            char ill_znak=0;
   1246            
   1247            char pocz_X=X;
   \   0000000A   6A46               MOV      R2,SP
   \   0000000C   127F               LDRB     R2,[R2, #+28]
   \   0000000E   0392               STR      R2,[SP, #+12]
   1248            
   1249            kol=X/8;
   1250            bit=X%8;
   1251            linia=Y;
   1252             
   1253            char dlugosc=0;
   \   00000010   0A00               MOVS     R2,R1
   1254            char clean_offset=0;
   \   00000012   0B00               MOVS     R3,R1
   \   00000014   0293               STR      R3,[SP, #+8]
   1255            
   1256            
   1257          
   1258            
   1259            
   1260            
   1261            if (alig==1)
   \   00000016   6B46               MOV      R3,SP
   \   00000018   1B7E               LDRB     R3,[R3, #+24]
   \   0000001A   012B               CMP      R3,#+1
   \   0000001C   2AD1               BNE      ??Label20_0
   1262            {
   1263              do {       
   1264                 
   1265                 if (Vstring[ill_znak]>=offset)  
   \                     ??Label20_1:
   \   0000001E   0B00               MOVS     R3,R1
   \   00000020   059C               LDR      R4,[SP, #+20]
   \   00000022   E418               ADDS     R4,R4,R3
   \   00000024   2378               LDRB     R3,[R4, #+0]
   \   00000026   1E2B               CMP      R3,#+30
   \   00000028   0AD3               BCC      ??Label20_2
   1266                  {
   1267                    dlugosc += Arial_18[Vstring[ill_znak]-offset][0];
   \   0000002A   CB4B               LDR      R3,??Label20_3   ;; 0xfffff9e8
   \   0000002C   2478               LDRB     R4,[R4, #+0]
   \   0000002E   3425               MOVS     R5,#+52
   \   00000030   6C43               MULS     R4,R5,R4
   \   00000032   CA4D               LDR      R5,??Label20_3+0x4  ;; Arial_18
   \   00000034   2C19               ADDS     R4,R5,R4
   \   00000036   E35A               LDRH     R3,[R4, R3]
   \   00000038   D218               ADDS     R2,R2,R3
   \   0000003A   1206               LSLS     R2,R2,#+24
   \   0000003C   120E               LSRS     R2,R2,#+24
   \   0000003E   02E0               B        ??Label20_4
   1268                  }
   1269                 else
   1270                 {
   1271                   dlugosc++;
   1272                   dlugosc++;
   1273                   dlugosc++;
   \                     ??Label20_2:
   \   00000040   D21C               ADDS     R2,R2,#+3
   \   00000042   1206               LSLS     R2,R2,#+24
   \   00000044   120E               LSRS     R2,R2,#+24
   1274                 }
   1275                 dlugosc++;
   \                     ??Label20_4:
   \   00000046   521C               ADDS     R2,R2,#+1
   \   00000048   1206               LSLS     R2,R2,#+24
   \   0000004A   120E               LSRS     R2,R2,#+24
   1276                 ill_znak++;
   \   0000004C   491C               ADDS     R1,R1,#+1
   \   0000004E   0906               LSLS     R1,R1,#+24
   \   00000050   090E               LSRS     R1,R1,#+24
   1277                } while ((Vstring[ill_znak]) && (ill_znak<maxChar) && (X-dlugosc>=0) );
   \   00000052   0B00               MOVS     R3,R1
   \   00000054   059C               LDR      R4,[SP, #+20]
   \   00000056   E35C               LDRB     R3,[R4, R3]
   \   00000058   002B               CMP      R3,#+0
   \   0000005A   07D0               BEQ      ??Label20_5
   \   0000005C   0B00               MOVS     R3,R1
   \   0000005E   8342               CMP      R3,R0
   \   00000060   04D2               BCS      ??Label20_5
   \   00000062   6B46               MOV      R3,SP
   \   00000064   1B7F               LDRB     R3,[R3, #+28]
   \   00000066   1400               MOVS     R4,R2
   \   00000068   1B1B               SUBS     R3,R3,R4
   \   0000006A   D8D5               BPL      ??Label20_1
   1278           
   1279              clean_offset=clean;
   \                     ??Label20_5:
   \   0000006C   0FA8               ADD      R0,SP,#+60
   \   0000006E   0078               LDRB     R0,[R0, #+0]
   \   00000070   0290               STR      R0,[SP, #+8]
   \   00000072   29E0               B        ??Label20_6
   1280            }
   1281            else
   1282            {
   1283              do {   
   1284                 
   1285                 
   1286                 if (Vstring[ill_znak]>=offset)  
   \                     ??Label20_0:
   \   00000074   0B00               MOVS     R3,R1
   \   00000076   059C               LDR      R4,[SP, #+20]
   \   00000078   E418               ADDS     R4,R4,R3
   \   0000007A   2378               LDRB     R3,[R4, #+0]
   \   0000007C   1E2B               CMP      R3,#+30
   \   0000007E   0AD3               BCC      ??Label20_7
   1287                  {
   1288                    dlugosc += Arial_18[Vstring[ill_znak]-offset][0];
   \   00000080   B54B               LDR      R3,??Label20_3   ;; 0xfffff9e8
   \   00000082   2478               LDRB     R4,[R4, #+0]
   \   00000084   3425               MOVS     R5,#+52
   \   00000086   6C43               MULS     R4,R5,R4
   \   00000088   B44D               LDR      R5,??Label20_3+0x4  ;; Arial_18
   \   0000008A   2C19               ADDS     R4,R5,R4
   \   0000008C   E35A               LDRH     R3,[R4, R3]
   \   0000008E   D218               ADDS     R2,R2,R3
   \   00000090   1206               LSLS     R2,R2,#+24
   \   00000092   120E               LSRS     R2,R2,#+24
   \   00000094   02E0               B        ??Label20_8
   1289                  }
   1290                 else
   1291                 {
   1292                   dlugosc++;
   1293                   dlugosc++;
   1294                   dlugosc++;
   \                     ??Label20_7:
   \   00000096   D21C               ADDS     R2,R2,#+3
   \   00000098   1206               LSLS     R2,R2,#+24
   \   0000009A   120E               LSRS     R2,R2,#+24
   1295                 }
   1296                 
   1297                 
   1298                 dlugosc++;
   \                     ??Label20_8:
   \   0000009C   521C               ADDS     R2,R2,#+1
   \   0000009E   1206               LSLS     R2,R2,#+24
   \   000000A0   120E               LSRS     R2,R2,#+24
   1299                 ill_znak++;
   \   000000A2   491C               ADDS     R1,R1,#+1
   \   000000A4   0906               LSLS     R1,R1,#+24
   \   000000A6   090E               LSRS     R1,R1,#+24
   1300               } while ((Vstring[ill_znak]) && (ill_znak<maxChar) && (X+dlugosc<=64));
   \   000000A8   0B00               MOVS     R3,R1
   \   000000AA   059C               LDR      R4,[SP, #+20]
   \   000000AC   E35C               LDRB     R3,[R4, R3]
   \   000000AE   002B               CMP      R3,#+0
   \   000000B0   0AD0               BEQ      ??Label20_6
   \   000000B2   0B00               MOVS     R3,R1
   \   000000B4   8342               CMP      R3,R0
   \   000000B6   07D2               BCS      ??Label20_6
   \   000000B8   6B46               MOV      R3,SP
   \   000000BA   1B7F               LDRB     R3,[R3, #+28]
   \   000000BC   1400               MOVS     R4,R2
   \   000000BE   1B19               ADDS     R3,R3,R4
   \   000000C0   1B04               LSLS     R3,R3,#+16
   \   000000C2   1B0C               LSRS     R3,R3,#+16
   \   000000C4   412B               CMP      R3,#+65
   \   000000C6   D5D3               BCC      ??Label20_0
   1301              
   1302            }
   1303              
   1304            dlugosc--;
   \                     ??Label20_6:
   \   000000C8   501E               SUBS     R0,R2,#+1
   \   000000CA   0006               LSLS     R0,R0,#+24
   \   000000CC   000E               LSRS     R0,R0,#+24
   \   000000CE   0090               STR      R0,[SP, #+0]
   \   000000D0   089A               LDR      R2,[SP, #+32]
   \   000000D2   1206               LSLS     R2,R2,#+24
   \   000000D4   120E               LSRS     R2,R2,#+24
   \   000000D6   0120               MOVS     R0,#+1
   \   000000D8   0190               STR      R0,[SP, #+4]
   \   000000DA   05E0               B        ??Label20_9
   1305            
   1306             //Czyszczenie obszaru ----------------------
   1307            linia=Y;
   1308            for (int i=1; i<=25; i++)
   1309             {
   1310              if ((linia>=minY) && (linia<=maxY))
   1311              {
   1312               kol=(X-clean_offset)/8;
   1313               bit=(X-clean_offset)%8;
   1314                 
   1315                for (int j=0; j<=clean; j++)
   1316                {
   1317                  LCD_Canvas[kol][linia] &=~(1<<bit);
   1318                  
   1319                  if (bit<7) { bit++;} else {bit=0;  kol++; }
   1320                }   
   1321          
   1322          
   1323             }
   1324              linia++;
   \                     ??Label20_10:
   \   000000DC   521C               ADDS     R2,R2,#+1
   \   000000DE   1206               LSLS     R2,R2,#+24
   \   000000E0   120E               LSRS     R2,R2,#+24
   \   000000E2   0198               LDR      R0,[SP, #+4]
   \   000000E4   401C               ADDS     R0,R0,#+1
   \   000000E6   0190               STR      R0,[SP, #+4]
   \                     ??Label20_9:
   \   000000E8   0198               LDR      R0,[SP, #+4]
   \   000000EA   1A28               CMP      R0,#+26
   \   000000EC   37DA               BGE      ??Label20_11
   \   000000EE   1000               MOVS     R0,R2
   \   000000F0   10AB               ADD      R3,SP,#+64
   \   000000F2   1B78               LDRB     R3,[R3, #+0]
   \   000000F4   9842               CMP      R0,R3
   \   000000F6   F1D3               BCC      ??Label20_10
   \   000000F8   11A8               ADD      R0,SP,#+68
   \   000000FA   0078               LDRB     R0,[R0, #+0]
   \   000000FC   1300               MOVS     R3,R2
   \   000000FE   9842               CMP      R0,R3
   \   00000100   ECD3               BCC      ??Label20_10
   \   00000102   0298               LDR      R0,[SP, #+8]
   \   00000104   0006               LSLS     R0,R0,#+24
   \   00000106   000E               LSRS     R0,R0,#+24
   \   00000108   6B46               MOV      R3,SP
   \   0000010A   1B7F               LDRB     R3,[R3, #+28]
   \   0000010C   181A               SUBS     R0,R3,R0
   \   0000010E   0300               MOVS     R3,R0
   \   00000110   9B10               ASRS     R3,R3,#+2
   \   00000112   5B0F               LSRS     R3,R3,#+29
   \   00000114   1B18               ADDS     R3,R3,R0
   \   00000116   DB10               ASRS     R3,R3,#+3
   \   00000118   1D00               MOVS     R5,R3
   \   0000011A   6C46               MOV      R4,SP
   \   0000011C   247F               LDRB     R4,[R4, #+28]
   \   0000011E   029E               LDR      R6,[SP, #+8]
   \   00000120   A41B               SUBS     R4,R4,R6
   \   00000122   DB00               LSLS     R3,R3,#+3
   \   00000124   E41A               SUBS     R4,R4,R3
   \   00000126   2406               LSLS     R4,R4,#+24
   \   00000128   240E               LSRS     R4,R4,#+24
   \   0000012A   0023               MOVS     R3,#+0
   \   0000012C   02E0               B        ??Label20_12
   \                     ??Label20_13:
   \   0000012E   0024               MOVS     R4,#+0
   \   00000130   6D1C               ADDS     R5,R5,#+1
   \                     ??Label20_14:
   \   00000132   5B1C               ADDS     R3,R3,#+1
   \                     ??Label20_12:
   \   00000134   0FA8               ADD      R0,SP,#+60
   \   00000136   0078               LDRB     R0,[R0, #+0]
   \   00000138   9842               CMP      R0,R3
   \   0000013A   CFDB               BLT      ??Label20_10
   \   0000013C   9048               LDR      R0,??Label20_15  ;; LCD_Canvas
   \   0000013E   1600               MOVS     R6,R2
   \   00000140   EF01               LSLS     R7,R5,#+7
   \   00000142   C019               ADDS     R0,R0,R7
   \   00000144   8019               ADDS     R0,R0,R6
   \   00000146   0678               LDRB     R6,[R0, #+0]
   \   00000148   0127               MOVS     R7,#+1
   \   0000014A   A740               LSLS     R7,R7,R4
   \   0000014C   BE43               BICS     R6,R6,R7
   \   0000014E   0670               STRB     R6,[R0, #+0]
   \   00000150   2000               MOVS     R0,R4
   \   00000152   0728               CMP      R0,#+7
   \   00000154   EBD2               BCS      ??Label20_13
   \   00000156   641C               ADDS     R4,R4,#+1
   \   00000158   2406               LSLS     R4,R4,#+24
   \   0000015A   240E               LSRS     R4,R4,#+24
   \   0000015C   E9E7               B        ??Label20_14
   1325            }
   1326            //------------------------------------------------------
   1327              
   1328            if (alig==1)
   \                     ??Label20_11:
   \   0000015E   6846               MOV      R0,SP
   \   00000160   007E               LDRB     R0,[R0, #+24]
   \   00000162   0128               CMP      R0,#+1
   \   00000164   05D1               BNE      ??Label20_16
   1329            {  
   1330              X-=dlugosc;
   \   00000166   6846               MOV      R0,SP
   \   00000168   6A46               MOV      R2,SP
   \   0000016A   127F               LDRB     R2,[R2, #+28]
   \   0000016C   009B               LDR      R3,[SP, #+0]
   \   0000016E   D21A               SUBS     R2,R2,R3
   \   00000170   0277               STRB     R2,[R0, #+28]
   1331            }  
   1332           
   1333            if (alig==2)
   \                     ??Label20_16:
   \   00000172   6846               MOV      R0,SP
   \   00000174   007E               LDRB     R0,[R0, #+24]
   \   00000176   0228               CMP      R0,#+2
   \   00000178   18D1               BNE      ??Label20_17
   \   0000017A   0FA8               ADD      R0,SP,#+60
   \   0000017C   0078               LDRB     R0,[R0, #+0]
   \   0000017E   009A               LDR      R2,[SP, #+0]
   \   00000180   1206               LSLS     R2,R2,#+24
   \   00000182   120E               LSRS     R2,R2,#+24
   \   00000184   801A               SUBS     R0,R0,R2
   \   00000186   0200               MOVS     R2,R0
   \   00000188   D20F               LSRS     R2,R2,#+31
   \   0000018A   1218               ADDS     R2,R2,R0
   \   0000018C   5210               ASRS     R2,R2,#+1
   \   0000018E   6B46               MOV      R3,SP
   \   00000190   6C46               MOV      R4,SP
   \   00000192   247F               LDRB     R4,[R4, #+28]
   \   00000194   1500               MOVS     R5,R2
   \   00000196   6419               ADDS     R4,R4,R5
   \   00000198   1C77               STRB     R4,[R3, #+28]
   1334            {  
   1335              X+=(clean-dlugosc)/2;
   1336              
   1337              if (((clean-dlugosc)%2)>0) X++;
   \   0000019A   5200               LSLS     R2,R2,#+1
   \   0000019C   821A               SUBS     R2,R0,R2
   \   0000019E   012A               CMP      R2,#+1
   \   000001A0   04DB               BLT      ??Label20_17
   \   000001A2   6846               MOV      R0,SP
   \   000001A4   6A46               MOV      R2,SP
   \   000001A6   127F               LDRB     R2,[R2, #+28]
   \   000001A8   521C               ADDS     R2,R2,#+1
   \   000001AA   0277               STRB     R2,[R0, #+28]
   1338            }  
   1339          
   1340              
   1341            //wklejanie napisu do LCD_Canvas ----------------------
   1342            linia=Y;
   \                     ??Label20_17:
   \   000001AC   089A               LDR      R2,[SP, #+32]
   \   000001AE   1206               LSLS     R2,R2,#+24
   \   000001B0   120E               LSRS     R2,R2,#+24
   1343            for (int i=1; i<=25; i++)
   \   000001B2   0120               MOVS     R0,#+1
   \   000001B4   0090               STR      R0,[SP, #+0]
   \   000001B6   05E0               B        ??Label20_18
   1344             {
   1345              if ((linia>=minY) && (linia<=maxY))
   1346              {
   1347               kol=X/8;
   1348               bit=X%8;
   1349              for (int k=0; k<=(ill_znak-1); k++)
   1350              {     
   1351                
   1352                if ((Vstring[k]>=offset) &&  (Vstring[k]!=32))
   1353                {
   1354                  for (int j=0; j<=Arial_18[Vstring[k]-offset][0]; j++)
   1355                  {
   1356                      LCD_Canvas[kol][linia] |= (((Arial_18[Vstring[k]-offset][i])>>j)&0x1)<<bit;
   1357                      if (bit<7) { bit++;} else {bit=0;  kol++; } 
   1358                  }
   1359                }
   1360                else 
   1361                {
   1362                     if (bit<7) { bit++;} else {bit=0;  kol++; } 
   1363                     if (bit<7) { bit++;} else {bit=0;  kol++; } 
   1364                     if (bit<7) { bit++;} else {bit=0;  kol++; } 
   1365          
   1366                }
   1367                
   1368                
   1369              }
   1370             }
   1371              linia++;
   \                     ??Label20_19:
   \   000001B8   521C               ADDS     R2,R2,#+1
   \   000001BA   1206               LSLS     R2,R2,#+24
   \   000001BC   120E               LSRS     R2,R2,#+24
   \   000001BE   0098               LDR      R0,[SP, #+0]
   \   000001C0   401C               ADDS     R0,R0,#+1
   \   000001C2   0090               STR      R0,[SP, #+0]
   \                     ??Label20_18:
   \   000001C4   0098               LDR      R0,[SP, #+0]
   \   000001C6   1A28               CMP      R0,#+26
   \   000001C8   7ADA               BGE      ??Label20_20
   \   000001CA   1000               MOVS     R0,R2
   \   000001CC   10AB               ADD      R3,SP,#+64
   \   000001CE   1B78               LDRB     R3,[R3, #+0]
   \   000001D0   9842               CMP      R0,R3
   \   000001D2   F1D3               BCC      ??Label20_19
   \   000001D4   11A8               ADD      R0,SP,#+68
   \   000001D6   0078               LDRB     R0,[R0, #+0]
   \   000001D8   1300               MOVS     R3,R2
   \   000001DA   9842               CMP      R0,R3
   \   000001DC   ECD3               BCC      ??Label20_19
   \   000001DE   6846               MOV      R0,SP
   \   000001E0   007F               LDRB     R0,[R0, #+28]
   \   000001E2   0500               MOVS     R5,R0
   \   000001E4   ED08               LSRS     R5,R5,#+3
   \   000001E6   6846               MOV      R0,SP
   \   000001E8   007F               LDRB     R0,[R0, #+28]
   \   000001EA   EB00               LSLS     R3,R5,#+3
   \   000001EC   C41A               SUBS     R4,R0,R3
   \   000001EE   2406               LSLS     R4,R4,#+24
   \   000001F0   240E               LSRS     R4,R4,#+24
   \   000001F2   0023               MOVS     R3,#+0
   \   000001F4   02E0               B        ??Label20_21
   \                     ??Label20_22:
   \   000001F6   0024               MOVS     R4,#+0
   \   000001F8   6D1C               ADDS     R5,R5,#+1
   \                     ??Label20_23:
   \   000001FA   5B1C               ADDS     R3,R3,#+1
   \                     ??Label20_21:
   \   000001FC   0800               MOVS     R0,R1
   \   000001FE   401E               SUBS     R0,R0,#+1
   \   00000200   9842               CMP      R0,R3
   \   00000202   D9DB               BLT      ??Label20_19
   \   00000204   0598               LDR      R0,[SP, #+20]
   \   00000206   C05C               LDRB     R0,[R0, R3]
   \   00000208   1E28               CMP      R0,#+30
   \   0000020A   40D3               BCC      ??Label20_24
   \   0000020C   0598               LDR      R0,[SP, #+20]
   \   0000020E   C05C               LDRB     R0,[R0, R3]
   \   00000210   2028               CMP      R0,#+32
   \   00000212   3CD0               BEQ      ??Label20_24
   \   00000214   0026               MOVS     R6,#+0
   \   00000216   02E0               B        ??Label20_25
   \                     ??Label20_26:
   \   00000218   0024               MOVS     R4,#+0
   \   0000021A   6D1C               ADDS     R5,R5,#+1
   \                     ??Label20_27:
   \   0000021C   761C               ADDS     R6,R6,#+1
   \                     ??Label20_25:
   \   0000021E   4E4F               LDR      R7,??Label20_3   ;; 0xfffff9e8
   \   00000220   BC46               MOV      R12,R7
   \   00000222   0598               LDR      R0,[SP, #+20]
   \   00000224   C05C               LDRB     R0,[R0, R3]
   \   00000226   3427               MOVS     R7,#+52
   \   00000228   7843               MULS     R0,R7,R0
   \   0000022A   4C4F               LDR      R7,??Label20_3+0x4  ;; Arial_18
   \   0000022C   3818               ADDS     R0,R7,R0
   \   0000022E   6746               MOV      R7,R12
   \   00000230   C05B               LDRH     R0,[R0, R7]
   \   00000232   B042               CMP      R0,R6
   \   00000234   E1DB               BLT      ??Label20_23
   \   00000236   5248               LDR      R0,??Label20_15  ;; LCD_Canvas
   \   00000238   1700               MOVS     R7,R2
   \   0000023A   BC46               MOV      R12,R7
   \   0000023C   EF01               LSLS     R7,R5,#+7
   \   0000023E   C019               ADDS     R0,R0,R7
   \   00000240   6746               MOV      R7,R12
   \   00000242   C019               ADDS     R0,R0,R7
   \   00000244   0190               STR      R0,[SP, #+4]
   \   00000246   0700               MOVS     R7,R0
   \   00000248   80B5               PUSH     {R7,LR}
   \   0000024A   0778               LDRB     R7,[R0, #+0]
   \   0000024C   0197               STR      R7,[SP, #+4]
   \   0000024E   424F               LDR      R7,??Label20_3   ;; 0xfffff9e8
   \   00000250   80B5               PUSH     {R7,LR}
   \   00000252   0498               LDR      R0,[SP, #+16]
   \   00000254   4700               LSLS     R7,R0,#+1
   \   00000256   BC46               MOV      R12,R7
   \   00000258   0998               LDR      R0,[SP, #+36]
   \   0000025A   C05C               LDRB     R0,[R0, R3]
   \   0000025C   3427               MOVS     R7,#+52
   \   0000025E   7843               MULS     R0,R7,R0
   \   00000260   3E4F               LDR      R7,??Label20_3+0x4  ;; Arial_18
   \   00000262   3818               ADDS     R0,R7,R0
   \   00000264   6746               MOV      R7,R12
   \   00000266   C019               ADDS     R0,R0,R7
   \   00000268   009F               LDR      R7,[SP, #0]
   \   0000026A   02B0               ADD      SP,SP,#+8
   \   0000026C   C75B               LDRH     R7,[R0, R7]
   \   0000026E   3741               ASRS     R7,R7,R6
   \   00000270   0120               MOVS     R0,#+1
   \   00000272   3840               ANDS     R0,R0,R7
   \   00000274   A040               LSLS     R0,R0,R4
   \   00000276   019F               LDR      R7,[SP, #+4]
   \   00000278   3843               ORRS     R0,R0,R7
   \   0000027A   009F               LDR      R7,[SP, #0]
   \   0000027C   02B0               ADD      SP,SP,#+8
   \   0000027E   3870               STRB     R0,[R7, #+0]
   \   00000280   2000               MOVS     R0,R4
   \   00000282   0728               CMP      R0,#+7
   \   00000284   C8D2               BCS      ??Label20_26
   \   00000286   641C               ADDS     R4,R4,#+1
   \   00000288   2406               LSLS     R4,R4,#+24
   \   0000028A   240E               LSRS     R4,R4,#+24
   \   0000028C   C6E7               B        ??Label20_27
   \                     ??Label20_24:
   \   0000028E   2000               MOVS     R0,R4
   \   00000290   0728               CMP      R0,#+7
   \   00000292   03D2               BCS      ??Label20_28
   \   00000294   641C               ADDS     R4,R4,#+1
   \   00000296   2406               LSLS     R4,R4,#+24
   \   00000298   240E               LSRS     R4,R4,#+24
   \   0000029A   01E0               B        ??Label20_29
   \                     ??Label20_28:
   \   0000029C   0024               MOVS     R4,#+0
   \   0000029E   6D1C               ADDS     R5,R5,#+1
   \                     ??Label20_29:
   \   000002A0   2000               MOVS     R0,R4
   \   000002A2   0728               CMP      R0,#+7
   \   000002A4   03D2               BCS      ??Label20_30
   \   000002A6   641C               ADDS     R4,R4,#+1
   \   000002A8   2406               LSLS     R4,R4,#+24
   \   000002AA   240E               LSRS     R4,R4,#+24
   \   000002AC   01E0               B        ??Label20_31
   \                     ??Label20_30:
   \   000002AE   0024               MOVS     R4,#+0
   \   000002B0   6D1C               ADDS     R5,R5,#+1
   \                     ??Label20_31:
   \   000002B2   2000               MOVS     R0,R4
   \   000002B4   0728               CMP      R0,#+7
   \   000002B6   9ED2               BCS      ??Label20_22
   \   000002B8   641C               ADDS     R4,R4,#+1
   \   000002BA   2406               LSLS     R4,R4,#+24
   \   000002BC   240E               LSRS     R4,R4,#+24
   \   000002BE   9CE7               B        ??Label20_23
   1372            }
   1373            //------------------------------------------------------
   1374              
   1375          
   1376            //negatyw obszaru ----------------------
   1377           if (negatyw)
   \                     ??Label20_20:
   \   000002C0   12A8               ADD      R0,SP,#+72
   \   000002C2   0078               LDRB     R0,[R0, #+0]
   \   000002C4   0028               CMP      R0,#+0
   \   000002C6   56D0               BEQ      ??Label20_32
   1378           {
   1379            linia=Y;
   \   000002C8   089A               LDR      R2,[SP, #+32]
   \   000002CA   1206               LSLS     R2,R2,#+24
   \   000002CC   120E               LSRS     R2,R2,#+24
   1380            for (int i=1; i<=9; i++)
   \   000002CE   0120               MOVS     R0,#+1
   \   000002D0   0090               STR      R0,[SP, #+0]
   \   000002D2   05E0               B        ??Label20_33
   1381             {
   1382              if ((linia>=minY) && (linia<=maxY))
   1383              {
   1384               
   1385               kol=(pocz_X-clean_offset)/8;
   1386               bit=(pocz_X-clean_offset)%8;
   1387                 
   1388                for (int j=0; j<=clean; j++)
   1389                {
   1390                 
   1391                  if (((LCD_Canvas[kol][linia]>>bit)&0x1)>0)
   1392                  {
   1393                     LCD_Canvas[kol][linia] &=~(1<<bit);   
   1394                    
   1395                  }
   1396                  else
   1397                  {
   1398                    LCD_Canvas[kol][linia] |=(1<<bit); 
   1399                    
   1400                  }
   1401                  
   1402                  
   1403                  
   1404                  if (bit<7) { bit++;} else {bit=0;  kol++; }
   1405                }   
   1406          
   1407          
   1408             }
   1409              linia++;
   \                     ??Label20_34:
   \   000002D4   521C               ADDS     R2,R2,#+1
   \   000002D6   1206               LSLS     R2,R2,#+24
   \   000002D8   120E               LSRS     R2,R2,#+24
   \   000002DA   0098               LDR      R0,[SP, #+0]
   \   000002DC   401C               ADDS     R0,R0,#+1
   \   000002DE   0090               STR      R0,[SP, #+0]
   \                     ??Label20_33:
   \   000002E0   0098               LDR      R0,[SP, #+0]
   \   000002E2   0A28               CMP      R0,#+10
   \   000002E4   47DA               BGE      ??Label20_32
   \   000002E6   1000               MOVS     R0,R2
   \   000002E8   10A9               ADD      R1,SP,#+64
   \   000002EA   0978               LDRB     R1,[R1, #+0]
   \   000002EC   8842               CMP      R0,R1
   \   000002EE   F1D3               BCC      ??Label20_34
   \   000002F0   11A8               ADD      R0,SP,#+68
   \   000002F2   0078               LDRB     R0,[R0, #+0]
   \   000002F4   1100               MOVS     R1,R2
   \   000002F6   8842               CMP      R0,R1
   \   000002F8   ECD3               BCC      ??Label20_34
   \   000002FA   0298               LDR      R0,[SP, #+8]
   \   000002FC   0006               LSLS     R0,R0,#+24
   \   000002FE   000E               LSRS     R0,R0,#+24
   \   00000300   0399               LDR      R1,[SP, #+12]
   \   00000302   0906               LSLS     R1,R1,#+24
   \   00000304   090E               LSRS     R1,R1,#+24
   \   00000306   081A               SUBS     R0,R1,R0
   \   00000308   0100               MOVS     R1,R0
   \   0000030A   8910               ASRS     R1,R1,#+2
   \   0000030C   490F               LSRS     R1,R1,#+29
   \   0000030E   0918               ADDS     R1,R1,R0
   \   00000310   C910               ASRS     R1,R1,#+3
   \   00000312   0D00               MOVS     R5,R1
   \   00000314   039B               LDR      R3,[SP, #+12]
   \   00000316   029C               LDR      R4,[SP, #+8]
   \   00000318   1B1B               SUBS     R3,R3,R4
   \   0000031A   C900               LSLS     R1,R1,#+3
   \   0000031C   5C1A               SUBS     R4,R3,R1
   \   0000031E   2406               LSLS     R4,R4,#+24
   \   00000320   240E               LSRS     R4,R4,#+24
   \   00000322   0021               MOVS     R1,#+0
   \   00000324   02E0               B        ??Label20_35
   \                     ??Label20_36:
   \   00000326   0024               MOVS     R4,#+0
   \   00000328   6D1C               ADDS     R5,R5,#+1
   \                     ??Label20_37:
   \   0000032A   491C               ADDS     R1,R1,#+1
   \                     ??Label20_35:
   \   0000032C   0FA8               ADD      R0,SP,#+60
   \   0000032E   0078               LDRB     R0,[R0, #+0]
   \   00000330   8842               CMP      R0,R1
   \   00000332   CFDB               BLT      ??Label20_34
   \   00000334   1248               LDR      R0,??Label20_15  ;; LCD_Canvas
   \   00000336   1300               MOVS     R3,R2
   \   00000338   EE01               LSLS     R6,R5,#+7
   \   0000033A   8019               ADDS     R0,R0,R6
   \   0000033C   C318               ADDS     R3,R0,R3
   \   0000033E   1878               LDRB     R0,[R3, #+0]
   \   00000340   0600               MOVS     R6,R0
   \   00000342   2641               ASRS     R6,R6,R4
   \   00000344   0127               MOVS     R7,#+1
   \   00000346   3740               ANDS     R7,R7,R6
   \   00000348   012F               CMP      R7,#+1
   \   0000034A   09DB               BLT      ??Label20_38
   \   0000034C   0126               MOVS     R6,#+1
   \   0000034E   A640               LSLS     R6,R6,R4
   \   00000350   B043               BICS     R0,R0,R6
   \   00000352   1870               STRB     R0,[R3, #+0]
   \   00000354   08E0               B        ??Label20_39
   \   00000356   C046               Nop      
   \                     ??Label20_3:
   \   00000358   E8F9FFFF           DC32     0xfffff9e8
   \   0000035C   ........           DC32     Arial_18
   \                     ??Label20_38:
   \   00000360   0126               MOVS     R6,#+1
   \   00000362   A640               LSLS     R6,R6,R4
   \   00000364   0643               ORRS     R6,R6,R0
   \   00000366   1E70               STRB     R6,[R3, #+0]
   \                     ??Label20_39:
   \   00000368   2000               MOVS     R0,R4
   \   0000036A   0728               CMP      R0,#+7
   \   0000036C   DBD2               BCS      ??Label20_36
   \   0000036E   641C               ADDS     R4,R4,#+1
   \   00000370   2406               LSLS     R4,R4,#+24
   \   00000372   240E               LSRS     R4,R4,#+24
   \   00000374   D9E7               B        ??Label20_37
   1410            }
   1411            }
   1412            //------------------------------------------------------
   1413             
   1414          
   1415            
   1416          }//_______________________ Koniec funkcji Label __________________________
   \                     ??Label20_32:
   \   00000376   09B0               ADD      SP,SP,#+36
   \   00000378   F0BC               POP      {R4-R7}
   \   0000037A   01BC               POP      {R0}
   \   0000037C   0047               BX       R0               ;; return
   \   0000037E   C046               Nop      
   \                     ??Label20_15:
   \   00000380   ........           DC32     LCD_Canvas
   1417          
   1418          
   1419          
   1420          
   1421          
   1422          
   1423          
   1424          
   1425          
   1426          //*-----------------------------------------------------------------------------
   1427          //* Nazwa funkcji :    TimeToStr
   1428          //* Funkcja Czasu na string
   1429          //*-----------------------------------------------------------------------------
   1430          //*-----------------------------------------------------------------------------

   \                                 In section Debug.txt, align 4, keep-with-next
   1431          void TimeToStr (char godz, char min, char sek, char Vstring[8]) 
   1432          { 
   \                     TimeToStr:
   \   00000000   F1B5               PUSH     {R0,R4-R7,LR}
   \   00000002   0600               MOVS     R6,R0
   \   00000004   0F00               MOVS     R7,R1
   \   00000006   1400               MOVS     R4,R2
   \   00000008   1D00               MOVS     R5,R3
   1433                 if (godz<10) 
   \   0000000A   0A2E               CMP      R6,#+10
   \   0000000C   04D2               BCS      ??TimeToStr_0
   1434                 {
   1435                   Vstring[0]=48;
   \   0000000E   3020               MOVS     R0,#+48
   \   00000010   2870               STRB     R0,[R5, #+0]
   1436                   Vstring[1]=godz+48;
   \   00000012   3036               ADDS     R6,R6,#+48
   \   00000014   6E70               STRB     R6,[R5, #+1]
   \   00000016   0AE0               B        ??TimeToStr_1
   1437                 }
   1438                 else
   1439                 {
   1440                   Vstring[0]=godz/10+48;
   \                     ??TimeToStr_0:
   \   00000018   0A21               MOVS     R1,#+10
   \   0000001A   ........           BL       __aeabi_idivmod
   \   0000001E   3030               ADDS     R0,R0,#+48
   \   00000020   2870               STRB     R0,[R5, #+0]
   1441                   Vstring[1]=godz%10+48;
   \   00000022   3000               MOVS     R0,R6
   \   00000024   0A21               MOVS     R1,#+10
   \   00000026   ........           BL       __aeabi_idivmod
   \   0000002A   3031               ADDS     R1,R1,#+48
   \   0000002C   6970               STRB     R1,[R5, #+1]
   1442                 }
   1443                 Vstring[2]=58;
   \                     ??TimeToStr_1:
   \   0000002E   3A26               MOVS     R6,#+58
   \   00000030   AE70               STRB     R6,[R5, #+2]
   1444                 
   1445                 if (min<10) 
   \   00000032   0A2F               CMP      R7,#+10
   \   00000034   04D2               BCS      ??TimeToStr_2
   1446                 {
   1447                   Vstring[3]=48;
   \   00000036   3020               MOVS     R0,#+48
   \   00000038   E870               STRB     R0,[R5, #+3]
   1448                   Vstring[4]=min+48;
   \   0000003A   3037               ADDS     R7,R7,#+48
   \   0000003C   2F71               STRB     R7,[R5, #+4]
   \   0000003E   0BE0               B        ??TimeToStr_3
   1449                 }
   1450                 else
   1451                 {
   1452                   Vstring[3]=min/10+48;
   \                     ??TimeToStr_2:
   \   00000040   3800               MOVS     R0,R7
   \   00000042   0A21               MOVS     R1,#+10
   \   00000044   ........           BL       __aeabi_idivmod
   \   00000048   3030               ADDS     R0,R0,#+48
   \   0000004A   E870               STRB     R0,[R5, #+3]
   1453                   Vstring[4]=min%10+48;
   \   0000004C   3800               MOVS     R0,R7
   \   0000004E   0A21               MOVS     R1,#+10
   \   00000050   ........           BL       __aeabi_idivmod
   \   00000054   3031               ADDS     R1,R1,#+48
   \   00000056   2971               STRB     R1,[R5, #+4]
   1454                 }
   1455                 Vstring[5]=58;
   \                     ??TimeToStr_3:
   \   00000058   6E71               STRB     R6,[R5, #+5]
   1456                 
   1457                 
   1458                 if (sek<10) 
   \   0000005A   0A2C               CMP      R4,#+10
   \   0000005C   04D2               BCS      ??TimeToStr_4
   1459                 {
   1460                   Vstring[6]=48;
   \   0000005E   3020               MOVS     R0,#+48
   \   00000060   A871               STRB     R0,[R5, #+6]
   1461                   Vstring[7]=sek+48;
   \   00000062   3034               ADDS     R4,R4,#+48
   \   00000064   EC71               STRB     R4,[R5, #+7]
   \   00000066   0BE0               B        ??TimeToStr_5
   1462                 }
   1463                 else
   1464                 {
   1465                   Vstring[6]=sek/10+48;
   \                     ??TimeToStr_4:
   \   00000068   2000               MOVS     R0,R4
   \   0000006A   0A21               MOVS     R1,#+10
   \   0000006C   ........           BL       __aeabi_idivmod
   \   00000070   3030               ADDS     R0,R0,#+48
   \   00000072   A871               STRB     R0,[R5, #+6]
   1466                   Vstring[7]=sek%10+48;
   \   00000074   2000               MOVS     R0,R4
   \   00000076   0A21               MOVS     R1,#+10
   \   00000078   ........           BL       __aeabi_idivmod
   \   0000007C   3031               ADDS     R1,R1,#+48
   \   0000007E   E971               STRB     R1,[R5, #+7]
   1467                 }
   1468          
   1469                 
   1470          }//_______________________ Koniec funkcji TimeToStr____________________________
   \                     ??TimeToStr_5:
   \   00000080   F8BC               POP      {R3-R7}
   \   00000082   01BC               POP      {R0}
   \   00000084   0047               BX       R0               ;; return
   1471          
   1472          
   1473          
   1474          //*-----------------------------------------------------------------------------
   1475          //* Nazwa funkcji :    DateToStr
   1476          //* Funkcja Daty na string
   1477          //*-----------------------------------------------------------------------------
   1478          //*-----------------------------------------------------------------------------

   \                                 In section Debug.txt, align 4, keep-with-next
   1479          void DateToStr (char dzin, char mies, char rok, char Vstring[8]) 
   1480          { 
   \                     DateToStr:
   \   00000000   F1B5               PUSH     {R0,R4-R7,LR}
   \   00000002   0600               MOVS     R6,R0
   \   00000004   0F00               MOVS     R7,R1
   \   00000006   1400               MOVS     R4,R2
   \   00000008   1D00               MOVS     R5,R3
   1481                 if (dzin<10) 
   \   0000000A   0A2E               CMP      R6,#+10
   \   0000000C   04D2               BCS      ??DateToStr_0
   1482                 {
   1483                   Vstring[0]=48;
   \   0000000E   3020               MOVS     R0,#+48
   \   00000010   2870               STRB     R0,[R5, #+0]
   1484                   Vstring[1]=dzin+48;
   \   00000012   3036               ADDS     R6,R6,#+48
   \   00000014   6E70               STRB     R6,[R5, #+1]
   \   00000016   0AE0               B        ??DateToStr_1
   1485                 }
   1486                 else
   1487                 {
   1488                   Vstring[0]=dzin/10+48;
   \                     ??DateToStr_0:
   \   00000018   0A21               MOVS     R1,#+10
   \   0000001A   ........           BL       __aeabi_idivmod
   \   0000001E   3030               ADDS     R0,R0,#+48
   \   00000020   2870               STRB     R0,[R5, #+0]
   1489                   Vstring[1]=dzin%10+48;
   \   00000022   3000               MOVS     R0,R6
   \   00000024   0A21               MOVS     R1,#+10
   \   00000026   ........           BL       __aeabi_idivmod
   \   0000002A   3031               ADDS     R1,R1,#+48
   \   0000002C   6970               STRB     R1,[R5, #+1]
   1490                 }
   1491                 Vstring[2]=45; //"-"
   \                     ??DateToStr_1:
   \   0000002E   2D26               MOVS     R6,#+45
   \   00000030   AE70               STRB     R6,[R5, #+2]
   1492                 
   1493                 if (mies<10) 
   \   00000032   0A2F               CMP      R7,#+10
   \   00000034   04D2               BCS      ??DateToStr_2
   1494                 {
   1495                   Vstring[3]=48;
   \   00000036   3020               MOVS     R0,#+48
   \   00000038   E870               STRB     R0,[R5, #+3]
   1496                   Vstring[4]=mies+48;
   \   0000003A   3037               ADDS     R7,R7,#+48
   \   0000003C   2F71               STRB     R7,[R5, #+4]
   \   0000003E   0BE0               B        ??DateToStr_3
   1497                 }
   1498                 else
   1499                 {
   1500                   Vstring[3]=mies/10+48;
   \                     ??DateToStr_2:
   \   00000040   3800               MOVS     R0,R7
   \   00000042   0A21               MOVS     R1,#+10
   \   00000044   ........           BL       __aeabi_idivmod
   \   00000048   3030               ADDS     R0,R0,#+48
   \   0000004A   E870               STRB     R0,[R5, #+3]
   1501                   Vstring[4]=mies%10+48;
   \   0000004C   3800               MOVS     R0,R7
   \   0000004E   0A21               MOVS     R1,#+10
   \   00000050   ........           BL       __aeabi_idivmod
   \   00000054   3031               ADDS     R1,R1,#+48
   \   00000056   2971               STRB     R1,[R5, #+4]
   1502                 }
   1503                 Vstring[5]=45; //"-"
   \                     ??DateToStr_3:
   \   00000058   6E71               STRB     R6,[R5, #+5]
   1504                 
   1505                 
   1506                 if (rok<10) 
   \   0000005A   0A2C               CMP      R4,#+10
   \   0000005C   04D2               BCS      ??DateToStr_4
   1507                 {
   1508                   Vstring[6]=48;
   \   0000005E   3020               MOVS     R0,#+48
   \   00000060   A871               STRB     R0,[R5, #+6]
   1509                   Vstring[7]=rok+48;
   \   00000062   3034               ADDS     R4,R4,#+48
   \   00000064   EC71               STRB     R4,[R5, #+7]
   \   00000066   0BE0               B        ??DateToStr_5
   1510                 }
   1511                 else
   1512                 {
   1513                   Vstring[6]=rok/10+48;
   \                     ??DateToStr_4:
   \   00000068   2000               MOVS     R0,R4
   \   0000006A   0A21               MOVS     R1,#+10
   \   0000006C   ........           BL       __aeabi_idivmod
   \   00000070   3030               ADDS     R0,R0,#+48
   \   00000072   A871               STRB     R0,[R5, #+6]
   1514                   Vstring[7]=rok%10+48;
   \   00000074   2000               MOVS     R0,R4
   \   00000076   0A21               MOVS     R1,#+10
   \   00000078   ........           BL       __aeabi_idivmod
   \   0000007C   3031               ADDS     R1,R1,#+48
   \   0000007E   E971               STRB     R1,[R5, #+7]
   1515                 }
   1516          
   1517                 
   1518          }//_______________________ Koniec funkcji DateToStr ____________________________
   \                     ??DateToStr_5:
   \   00000080   F8BC               POP      {R3-R7}
   \   00000082   01BC               POP      {R0}
   \   00000084   0047               BX       R0               ;; return
   1519          
   1520          
   1521          
   1522          
   1523          //*-----------------------------------------------------------------------------
   1524          //* Nazwa funkcji :    CharToStr
   1525          //* Funkcja konwersji zmiennej float na ³añcuch string   
   1526          //*-----------------------------------------------------------------------------
   1527          //*  Value   - zmienna typu float
   1528          //*  Vstring - tablica znaków
   1529          //*  ill     - liloœæ znaków (max=9) , ostatnia wartoœæ zapisanego ³añcucha to zawsze 0
   1530          //* return   - iloœæ cyfr w stringu
   1531          //*-----------------------------------------------------------------------------

   \                                 In section Debug.txt, align 4, keep-with-next
   1532          char CharToStr (char Value, char *Vstring, char ill) 
   1533          { 
   \                     CharToStr:
   \   00000000   F1B5               PUSH     {R0,R4-R7,LR}
   \   00000002   0D00               MOVS     R5,R1
   1534                char set=0;
   1535                char dzies=0;
   1536                char jedn=0;
   1537                char ind;
   1538                
   1539                for (int i=0; i<ill; i++) Vstring[i]=0;
   \   00000004   0024               MOVS     R4,#+0
   \   00000006   2100               MOVS     R1,R4
   \   00000008   2300               MOVS     R3,R4
   \   0000000A   01E0               B        ??CharToStr_0
   \                     ??CharToStr_1:
   \   0000000C   6B54               STRB     R3,[R5, R1]
   \   0000000E   491C               ADDS     R1,R1,#+1
   \                     ??CharToStr_0:
   \   00000010   9142               CMP      R1,R2
   \   00000012   FBDB               BLT      ??CharToStr_1
   1540                  
   1541                
   1542                set= Value/100;
   \   00000014   0700               MOVS     R7,R0
   \   00000016   6421               MOVS     R1,#+100
   \   00000018   ........           BL       __aeabi_idivmod
   \   0000001C   0600               MOVS     R6,R0
   \   0000001E   3606               LSLS     R6,R6,#+24
   \   00000020   360E               LSRS     R6,R6,#+24
   1543                dzies= (Value%100)/10;
   \   00000022   3800               MOVS     R0,R7
   \   00000024   6421               MOVS     R1,#+100
   \   00000026   ........           BL       __aeabi_idivmod
   \   0000002A   0800               MOVS     R0,R1
   \   0000002C   0A21               MOVS     R1,#+10
   \   0000002E   ........           BL       __aeabi_idivmod
   \   00000032   0100               MOVS     R1,R0
   \   00000034   0906               LSLS     R1,R1,#+24
   \   00000036   090E               LSRS     R1,R1,#+24
   1544                jedn = Value- (set*100) - (dzies*10);
   \   00000038   3000               MOVS     R0,R6
   \   0000003A   6422               MOVS     R2,#+100
   \   0000003C   5043               MULS     R0,R2,R0
   \   0000003E   381A               SUBS     R0,R7,R0
   \   00000040   0A00               MOVS     R2,R1
   \   00000042   0A23               MOVS     R3,#+10
   \   00000044   5A43               MULS     R2,R3,R2
   \   00000046   821A               SUBS     R2,R0,R2
   1545                
   1546                if (ill==0) ill=1; 
   1547                ill--;
   1548                 
   1549                ind=0;
   \   00000048   2000               MOVS     R0,R4
   1550                if (set>0) 
   \   0000004A   3300               MOVS     R3,R6
   \   0000004C   03D0               BEQ      ??CharToStr_2
   1551                {
   1552                  Vstring[ind]=set+48;
   \   0000004E   3000               MOVS     R0,R6
   \   00000050   3030               ADDS     R0,R0,#+48
   \   00000052   2870               STRB     R0,[R5, #+0]
   1553                  ind++;
   \   00000054   0120               MOVS     R0,#+1
   1554                }
   1555                if (set+dzies>0) 
   \                     ??CharToStr_2:
   \   00000056   0B00               MOVS     R3,R1
   \   00000058   F318               ADDS     R3,R6,R3
   \   0000005A   1B04               LSLS     R3,R3,#+16
   \   0000005C   05D0               BEQ      ??CharToStr_3
   1556                {
   1557                  Vstring[ind]=dzies+48;
   \   0000005E   0300               MOVS     R3,R0
   \   00000060   3031               ADDS     R1,R1,#+48
   \   00000062   E954               STRB     R1,[R5, R3]
   1558                  ind++;
   \   00000064   401C               ADDS     R0,R0,#+1
   \   00000066   0006               LSLS     R0,R0,#+24
   \   00000068   000E               LSRS     R0,R0,#+24
   1559                }
   1560                Vstring[ind]=jedn+48;
   \                     ??CharToStr_3:
   \   0000006A   0100               MOVS     R1,R0
   \   0000006C   3032               ADDS     R2,R2,#+48
   \   0000006E   6A54               STRB     R2,[R5, R1]
   1561          
   1562                ind++;
   1563                return ind;
   \   00000070   401C               ADDS     R0,R0,#+1
   \   00000072   0006               LSLS     R0,R0,#+24
   \   00000074   000E               LSRS     R0,R0,#+24
   \   00000076   F8BC               POP      {R3-R7}
   \   00000078   02BC               POP      {R1}
   \   0000007A   0847               BX       R1               ;; return
   1564                
   1565                 
   1566          }//_______________________ Koniec funkcji konwersji float na string ____________________________
   1567          
   1568          
   1569          
   1570          
   1571          
   1572          
   1573          //*-----------------------------------------------------------------------------
   1574          //* Nazwa funkcji :    CharToStr2
   1575          //* Funkcja konwersji zmiennej float na ³añcuch string  w formacie 00 
   1576          //*-----------------------------------------------------------------------------
   1577          //*  Value   - zmienna typu float
   1578          //*  Vstring - tablica znaków
   1579          //*-----------------------------------------------------------------------------

   \                                 In section Debug.txt, align 4, keep-with-next
   1580          void CharToStr2 (char Value, char *Vstring) 
   1581          { 
   \                     CharToStr2:
   \   00000000   70B5               PUSH     {R4-R6,LR}
   \   00000002   0600               MOVS     R6,R0
   \   00000004   0C00               MOVS     R4,R1
   1582                char set=0;
   1583                char dzies=0;
   1584                char jedn=0;
   1585          
   1586                set= Value/100;
   1587                dzies= (Value%100)/10;
   \   00000006   6421               MOVS     R1,#+100
   \   00000008   ........           BL       __aeabi_idivmod
   \   0000000C   0800               MOVS     R0,R1
   \   0000000E   0A21               MOVS     R1,#+10
   \   00000010   ........           BL       __aeabi_idivmod
   \   00000014   0500               MOVS     R5,R0
   \   00000016   2D06               LSLS     R5,R5,#+24
   \   00000018   2D0E               LSRS     R5,R5,#+24
   1588                jedn = Value- (set*100) - (dzies*10);      
   1589                
   1590                Vstring[1]=jedn+48;
   \   0000001A   3000               MOVS     R0,R6
   \   0000001C   6421               MOVS     R1,#+100
   \   0000001E   ........           BL       __aeabi_idivmod
   \   00000022   6421               MOVS     R1,#+100
   \   00000024   4843               MULS     R0,R1,R0
   \   00000026   301A               SUBS     R0,R6,R0
   \   00000028   2900               MOVS     R1,R5
   \   0000002A   0A22               MOVS     R2,#+10
   \   0000002C   5143               MULS     R1,R2,R1
   \   0000002E   401A               SUBS     R0,R0,R1
   \   00000030   3030               ADDS     R0,R0,#+48
   \   00000032   6070               STRB     R0,[R4, #+1]
   1591                Vstring[0]=dzies+48;        
   \   00000034   3035               ADDS     R5,R5,#+48
   \   00000036   2570               STRB     R5,[R4, #+0]
   1592          }//_______________________ Koniec funkcji konwersji float na string ____________________________
   \   00000038   70BC               POP      {R4-R6}
   \   0000003A   01BC               POP      {R0}
   \   0000003C   0047               BX       R0               ;; return
   1593          
   1594          
   1595          
   1596          
   1597          
   1598          
   1599          
   1600          
   1601          //*-----------------------------------------------------------------------------
   1602          //* Nazwa funkcji :    CharToStr
   1603          //* Funkcja konwersji zmiennej char na ³añcuch znakowy string -2 elementowy   
   1604          //*-----------------------------------------------------------------------------
   1605          //*  Value   - zmienna typu float
   1606          //*  Vstring - tablica znaków
   1607          //*-----------------------------------------------------------------------------

   \                                 In section Debug.txt, align 4, keep-with-next
   1608          void CharToStrData (char Value, char *Vstring) 
   1609          { 
   \                     CharToStrData:
   \   00000000   31B5               PUSH     {R0,R4,R5,LR}
   \   00000002   0400               MOVS     R4,R0
   \   00000004   0D00               MOVS     R5,R1
   1610          
   1611                
   1612                for (int i=0; i<2; i++) Vstring[i]=0;
   \   00000006   0020               MOVS     R0,#+0
   \   00000008   0100               MOVS     R1,R0
   \   0000000A   0200               MOVS     R2,R0
   \   0000000C   01E0               B        ??CharToStrData_0
   \                     ??CharToStrData_1:
   \   0000000E   6A54               STRB     R2,[R5, R1]
   \   00000010   491C               ADDS     R1,R1,#+1
   \                     ??CharToStrData_0:
   \   00000012   0229               CMP      R1,#+2
   \   00000014   FBDB               BLT      ??CharToStrData_1
   1613                
   1614                Vstring[0]=(Value/10)+48;
   \   00000016   2000               MOVS     R0,R4
   \   00000018   0A21               MOVS     R1,#+10
   \   0000001A   ........           BL       __aeabi_idivmod
   \   0000001E   3030               ADDS     R0,R0,#+48
   \   00000020   2870               STRB     R0,[R5, #+0]
   1615                Vstring[1]=(Value%10)+48;
   \   00000022   2000               MOVS     R0,R4
   \   00000024   0A21               MOVS     R1,#+10
   \   00000026   ........           BL       __aeabi_idivmod
   \   0000002A   3031               ADDS     R1,R1,#+48
   \   0000002C   6970               STRB     R1,[R5, #+1]
   1616          
   1617          }//_______________________ Koniec funkcji konwersji char na string ____________________________
   \   0000002E   38BC               POP      {R3-R5}
   \   00000030   01BC               POP      {R0}
   \   00000032   0047               BX       R0               ;; return
   1618          
   1619          
   1620          
   1621          
   1622          
   1623          //*-----------------------------------------------------------------------------
   1624          //* Nazwa funkcji :    sIntToStr
   1625          //* Funkcja konwersji zmiennej short int na ³añcuch string  wed³óg schematu dla zmiennej analogowej systemu (-3276.8 + 3276.7)
   1626          //*-----------------------------------------------------------------------------
   1627          //*  Value   - zmienna typu float
   1628          //*  Vstring - tablica znaków
   1629          //* return   - iloœæ cyfr w stringu
   1630          //*-----------------------------------------------------------------------------

   \                                 In section Debug.txt, align 4, keep-with-next
   1631          char sIntToStr (signed short int Value, char *Vstring) 
   1632          { 
   \                     sIntToStr:
   \   00000000   F7B5               PUSH     {R0-R2,R4-R7,LR}
   \   00000002   0C00               MOVS     R4,R1
   1633                char znak=0;
   \   00000004   0025               MOVS     R5,#+0
   \   00000006   6946               MOV      R1,SP
   \   00000008   2A00               MOVS     R2,R5
   \   0000000A   0A72               STRB     R2,[R1, #+8]
   1634                char ind=0;
   \   0000000C   2E00               MOVS     R6,R5
   1635                if (Value<0) znak='-';
   \   0000000E   0028               CMP      R0,#+0
   \   00000010   01D5               BPL      ??sIntToStr_0
   \   00000012   2D22               MOVS     R2,#+45
   \   00000014   0A72               STRB     R2,[R1, #+8]
   1636                
   1637                short int ValueTmp=abs(Value);
                                          ^
Warning[Pe223]: function "abs" declared implicitly
   \                     ??sIntToStr_0:
   \   00000016   ........           BL       abs
   \   0000001A   0700               MOVS     R7,R0
   \   0000001C   3F04               LSLS     R7,R7,#+16
   \   0000001E   3F14               ASRS     R7,R7,#+16
   1638                
   1639                char wartosc[6];
   1640                
   1641                for (int i=0; i<5; i++) 
   \   00000020   2800               MOVS     R0,R5
   \   00000022   2A00               MOVS     R2,R5
   \   00000024   04E0               B        ??sIntToStr_1
   1642                {
   1643                  Vstring[i]=0;
   \                     ??sIntToStr_2:
   \   00000026   2900               MOVS     R1,R5
   \   00000028   2154               STRB     R1,[R4, R0]
   1644                  wartosc[i]=0;
   \   0000002A   6946               MOV      R1,SP
   \   0000002C   0A54               STRB     R2,[R1, R0]
   1645                }
   \   0000002E   401C               ADDS     R0,R0,#+1
   \                     ??sIntToStr_1:
   \   00000030   0528               CMP      R0,#+5
   \   00000032   F8DB               BLT      ??sIntToStr_2
   \   00000034   3800               MOVS     R0,R7
   \   00000036   4049               LDR      R1,??sIntToStr_3  ;; 0x2710
   \   00000038   ........           BL       __aeabi_idivmod
   \   0000003C   6946               MOV      R1,SP
   \   0000003E   0870               STRB     R0,[R1, #+0]
   1646                  
   1647                
   1648                wartosc[0]   = ValueTmp/10000;
   1649                wartosc[1]   = (ValueTmp-(wartosc[0]*10000))/1000;
   \   00000040   6846               MOV      R0,SP
   \   00000042   0078               LDRB     R0,[R0, #+0]
   \   00000044   3C49               LDR      R1,??sIntToStr_3  ;; 0x2710
   \   00000046   4843               MULS     R0,R1,R0
   \   00000048   3F1A               SUBS     R7,R7,R0
   \   0000004A   3800               MOVS     R0,R7
   \   0000004C   FA21               MOVS     R1,#+250
   \   0000004E   8900               LSLS     R1,R1,#+2        ;; #+1000
   \   00000050   ........           BL       __aeabi_idivmod
   \   00000054   6946               MOV      R1,SP
   \   00000056   4870               STRB     R0,[R1, #+1]
   \   00000058   6846               MOV      R0,SP
   \   0000005A   4078               LDRB     R0,[R0, #+1]
   \   0000005C   FA21               MOVS     R1,#+250
   \   0000005E   8900               LSLS     R1,R1,#+2        ;; #+1000
   \   00000060   4843               MULS     R0,R1,R0
   \   00000062   3F1A               SUBS     R7,R7,R0
   \   00000064   3800               MOVS     R0,R7
   \   00000066   6421               MOVS     R1,#+100
   \   00000068   ........           BL       __aeabi_idivmod
   \   0000006C   6946               MOV      R1,SP
   \   0000006E   8870               STRB     R0,[R1, #+2]
   \   00000070   6846               MOV      R0,SP
   \   00000072   8078               LDRB     R0,[R0, #+2]
   \   00000074   6421               MOVS     R1,#+100
   \   00000076   4843               MULS     R0,R1,R0
   \   00000078   3F1A               SUBS     R7,R7,R0
   \   0000007A   3800               MOVS     R0,R7
   \   0000007C   0A21               MOVS     R1,#+10
   \   0000007E   ........           BL       __aeabi_idivmod
   \   00000082   6946               MOV      R1,SP
   \   00000084   C870               STRB     R0,[R1, #+3]
   1650                wartosc[2]   = (ValueTmp-(wartosc[0]*10000)-(wartosc[1]*1000))/100;
   1651                wartosc[3]   = (ValueTmp-(wartosc[0]*10000)-(wartosc[1]*1000)-(wartosc[2]*100))/10;
   1652                wartosc[4]   = '.';
   \   00000086   2E21               MOVS     R1,#+46
   \   00000088   6846               MOV      R0,SP
   \   0000008A   0171               STRB     R1,[R0, #+4]
   1653                wartosc[5]   = (ValueTmp-(wartosc[0]*10000)-(wartosc[1]*1000)-(wartosc[2]*100)-(wartosc[3]*10));
   \   0000008C   6A46               MOV      R2,SP
   \   0000008E   D278               LDRB     R2,[R2, #+3]
   \   00000090   0A23               MOVS     R3,#+10
   \   00000092   5A43               MULS     R2,R3,R2
   \   00000094   BA1A               SUBS     R2,R7,R2
   \   00000096   4271               STRB     R2,[R0, #+5]
   1654                
   1655                char PP=0;
   1656                for (char i=0; i<5; i++) 
   \   00000098   2800               MOVS     R0,R5
   \   0000009A   06E0               B        ??sIntToStr_4
   1657                  if ((wartosc[i]>0) && (PP==0)) 
   1658                  {
   1659                    if (wartosc[i]=='.') PP=i; else PP=i+1;
   \                     ??sIntToStr_5:
   \   0000009C   0500               MOVS     R5,R0
   \   0000009E   6D1C               ADDS     R5,R5,#+1
   \   000000A0   2D06               LSLS     R5,R5,#+24
   \   000000A2   2D0E               LSRS     R5,R5,#+24
   \                     ??sIntToStr_6:
   \   000000A4   401C               ADDS     R0,R0,#+1
   \   000000A6   0006               LSLS     R0,R0,#+24
   \   000000A8   000E               LSRS     R0,R0,#+24
   \                     ??sIntToStr_4:
   \   000000AA   0200               MOVS     R2,R0
   \   000000AC   052A               CMP      R2,#+5
   \   000000AE   0AD2               BCS      ??sIntToStr_7
   \   000000B0   6B46               MOV      R3,SP
   \   000000B2   9A5C               LDRB     R2,[R3, R2]
   \   000000B4   002A               CMP      R2,#+0
   \   000000B6   F5D0               BEQ      ??sIntToStr_6
   \   000000B8   2B00               MOVS     R3,R5
   \   000000BA   1B06               LSLS     R3,R3,#+24
   \   000000BC   F2D1               BNE      ??sIntToStr_6
   \   000000BE   2E2A               CMP      R2,#+46
   \   000000C0   ECD1               BNE      ??sIntToStr_5
   \   000000C2   0500               MOVS     R5,R0
   \   000000C4   EEE7               B        ??sIntToStr_6
   1660                  
   1661                  }
   1662                
   1663                if ((PP==0) && (wartosc[5]==0))
   \                     ??sIntToStr_7:
   \   000000C6   2800               MOVS     R0,R5
   \   000000C8   0006               LSLS     R0,R0,#+24
   \   000000CA   07D1               BNE      ??sIntToStr_8
   \   000000CC   6846               MOV      R0,SP
   \   000000CE   4079               LDRB     R0,[R0, #+5]
   \   000000D0   0028               CMP      R0,#+0
   \   000000D2   03D1               BNE      ??sIntToStr_8
   1664                {
   1665                  ind=1;
   \   000000D4   0120               MOVS     R0,#+1
   1666                  Vstring[0]='0';
   \   000000D6   3021               MOVS     R1,#+48
   \   000000D8   2170               STRB     R1,[R4, #+0]
   \   000000DA   2AE0               B        ??sIntToStr_9
   1667                }
   1668                else
   1669                {
   1670                  if (znak) 
   \                     ??sIntToStr_8:
   \   000000DC   6846               MOV      R0,SP
   \   000000DE   007A               LDRB     R0,[R0, #+8]
   \   000000E0   0028               CMP      R0,#+0
   \   000000E2   02D0               BEQ      ??sIntToStr_10
   1671                  {
   1672                    Vstring[ind++]='-';
   \   000000E4   2D20               MOVS     R0,#+45
   \   000000E6   2070               STRB     R0,[R4, #+0]
   \   000000E8   0126               MOVS     R6,#+1
   1673                  }
   1674                  if (PP>0)
   \                     ??sIntToStr_10:
   \   000000EA   2800               MOVS     R0,R5
   \   000000EC   0006               LSLS     R0,R0,#+24
   \   000000EE   12D0               BEQ      ??sIntToStr_11
   1675                  for (char i=PP-1; i<4; i++)
   \   000000F0   681E               SUBS     R0,R5,#+1
   \   000000F2   0006               LSLS     R0,R0,#+24
   \   000000F4   000E               LSRS     R0,R0,#+24
   \   000000F6   6D46               MOV      R5,SP
   \   000000F8   0AE0               B        ??sIntToStr_12
   1676                  {
   1677                    Vstring[ind]=48+wartosc[i];
   \                     ??sIntToStr_13:
   \   000000FA   3200               MOVS     R2,R6
   \   000000FC   0300               MOVS     R3,R0
   \   000000FE   EB5C               LDRB     R3,[R5, R3]
   \   00000100   3033               ADDS     R3,R3,#+48
   \   00000102   A354               STRB     R3,[R4, R2]
   1678                    ind++;
   \   00000104   761C               ADDS     R6,R6,#+1
   \   00000106   3606               LSLS     R6,R6,#+24
   \   00000108   360E               LSRS     R6,R6,#+24
   1679                  }
   \   0000010A   401C               ADDS     R0,R0,#+1
   \   0000010C   0006               LSLS     R0,R0,#+24
   \   0000010E   000E               LSRS     R0,R0,#+24
   \                     ??sIntToStr_12:
   \   00000110   0200               MOVS     R2,R0
   \   00000112   042A               CMP      R2,#+4
   \   00000114   F1D3               BCC      ??sIntToStr_13
   1680                  
   1681                    Vstring[ind]='.';
   \                     ??sIntToStr_11:
   \   00000116   3000               MOVS     R0,R6
   \   00000118   2154               STRB     R1,[R4, R0]
   1682                    Vstring[++ind]=48+wartosc[5];
   \   0000011A   761C               ADDS     R6,R6,#+1
   \   0000011C   3606               LSLS     R6,R6,#+24
   \   0000011E   360E               LSRS     R6,R6,#+24
   \   00000120   3000               MOVS     R0,R6
   \   00000122   0100               MOVS     R1,R0
   \   00000124   6A46               MOV      R2,SP
   \   00000126   5279               LDRB     R2,[R2, #+5]
   \   00000128   3032               ADDS     R2,R2,#+48
   \   0000012A   6254               STRB     R2,[R4, R1]
   1683                    ind++;
   \   0000012C   401C               ADDS     R0,R0,#+1
   \   0000012E   0006               LSLS     R0,R0,#+24
   \   00000130   000E               LSRS     R0,R0,#+24
   1684                }
   1685                
   1686                return ind;
   \                     ??sIntToStr_9:
   \   00000132   FEBC               POP      {R1-R7}
   \   00000134   02BC               POP      {R1}
   \   00000136   0847               BX       R1               ;; return
   \                     ??sIntToStr_3:
   \   00000138   10270000           DC32     0x2710
   1687                
   1688                 
   1689          }//_______________________ Koniec funkcji konwersji float na string ____________________________
   1690          
   1691          
   1692          
   1693          
   1694          
   1695          
   1696          
   1697          //*-----------------------------------------------------------------------------
   1698          //* Nazwa funkcji :    FloToStr
   1699          //* Funkcja konwersji zmiennej float na ³añcuch string   
   1700          //*-----------------------------------------------------------------------------
   1701          //*  Value   - zmienna typu float
   1702          //*  Vstring - tablica znaków
   1703          //*  ill     - liloœæ znaków (max=9) , ostatnia wartoœæ zapisanego ³añcucha to zawsze 0
   1704          //*  Funkcja zwraca d³ugoœæ ³añcucha
   1705          //*-----------------------------------------------------------------------------

   \                                 In section Debug.txt, align 4, keep-with-next
   1706          void HexToStr (int Value, char Vstring[8],char length) 
   1707          { 
   \                     HexToStr:
   \   00000000   70B5               PUSH     {R4-R6,LR}
   1708                length=length-1; 
   \   00000002   521E               SUBS     R2,R2,#+1
   1709                for (int i=0; i<=length; i++) Vstring[i]=0;
   \   00000004   0023               MOVS     R3,#+0
   \   00000006   1C00               MOVS     R4,R3
   \   00000008   1D00               MOVS     R5,R3
   \   0000000A   01E0               B        ??HexToStr_0
   \                     ??HexToStr_1:
   \   0000000C   0D55               STRB     R5,[R1, R4]
   \   0000000E   641C               ADDS     R4,R4,#+1
   \                     ??HexToStr_0:
   \   00000010   1206               LSLS     R2,R2,#+24
   \   00000012   120E               LSRS     R2,R2,#+24
   \   00000014   A242               CMP      R2,R4
   \   00000016   F9DA               BGE      ??HexToStr_1
   1710                 
   1711                 for (int i=0; i<=length; i++)
   \   00000018   0FE0               B        ??HexToStr_2
   1712                 {
   1713                    Vstring[length-i]=((Value>>(4*i))&0xf)+48;  
   \                     ??HexToStr_3:
   \   0000001A   D41A               SUBS     R4,R2,R3
   \   0000001C   0C19               ADDS     R4,R1,R4
   \   0000001E   1D00               MOVS     R5,R3
   \   00000020   AD00               LSLS     R5,R5,#+2
   \   00000022   0600               MOVS     R6,R0
   \   00000024   2E41               ASRS     R6,R6,R5
   \   00000026   3507               LSLS     R5,R6,#+28
   \   00000028   2D0F               LSRS     R5,R5,#+28
   \   0000002A   3035               ADDS     R5,R5,#+48
   \   0000002C   2570               STRB     R5,[R4, #+0]
   1714                    
   1715                    if (Vstring[length-i]>57) {Vstring[length-i]+=7;}
   \   0000002E   2578               LDRB     R5,[R4, #+0]
   \   00000030   3A2D               CMP      R5,#+58
   \   00000032   01D3               BCC      ??HexToStr_4
   \   00000034   ED1D               ADDS     R5,R5,#+7
   \   00000036   2570               STRB     R5,[R4, #+0]
   1716          
   1717                    
   1718                 }   
   \                     ??HexToStr_4:
   \   00000038   5B1C               ADDS     R3,R3,#+1
   \                     ??HexToStr_2:
   \   0000003A   9A42               CMP      R2,R3
   \   0000003C   EDDA               BGE      ??HexToStr_3
   1719             
   1720             
   1721             
   1722          }//_______________________ Koniec funkcji konwersji float na string ____________________________
   \   0000003E   70BC               POP      {R4-R6}
   \   00000040   01BC               POP      {R0}
   \   00000042   0047               BX       R0               ;; return
   1723          
   1724          
   1725          
   1726          
   1727          
   1728          
   1729          
   1730          
   1731          
   1732          
   1733          //*-----------------------------------------------------------------------------
   1734          //* Nazwa funkcji :    List_Paint
   1735          //* Funkcja rysowania listy
   1736          //*-----------------------------------------------------------------------------
   1737          //* name[7]   -  Nazwa listy
   1738          //* Rows      -  ilosc wierszy
   1739          //* RowWith   -  szerokosc wiersza
   1740          //* Y         -  odsuniecie od górnej krawêdzi
   1741          //* FormStyle -  rodzaj formy 0-zwyk³a 1..-coraz mniejsze
   1742          //* Algin     - wyrównanie 0-pion œrodek, poziom lowo, 1-pion góra, poziom lowo, 2 pion dó³, poziom lowo, 3-pion œrodek, poziom wyœrodkowanie
   1743          //* p1...p8   - nazwy kolejnych pól
   1744          //*-----------------------------------------------------------------------------
   1745          
   1746          char RealRows;
   1747          char RowsPoz;

   \                                 In section Debug.txt, align 4, keep-with-next
   1748          void List_Paint(char name[10], char Rows, char RowWith, char Y, char FormStyle, char Algin, __String p,...)
   1749          {
   \                     List_Paint:
   \   00000000   F9B5               PUSH     {R0,R3-R7,LR}
   \   00000002   BBB0               SUB      SP,SP,#+236
   \   00000004   0C00               MOVS     R4,R1
   \   00000006   1500               MOVS     R5,R2
   \   00000008   42A8               ADD      R0,SP,#+264
   \   0000000A   0678               LDRB     R6,[R0, #+0]
   \   0000000C   4498               LDR      R0,[SP, #+272]
   1750            
   1751            
   1752           va_list parg; 
   1753           va_start( parg, p);// pocz¹tek pracy ze zmienn¹ list¹ parametrów 
   \   0000000E   45AA               ADD      R2,SP,#+276
   \   00000010   0021               MOVS     R1,#+0
   1754          char *par[20];
   1755          char idf=0;
   1756          par[0] =p;
   \   00000012   2790               STR      R0,[SP, #+156]
   \   00000014   09E0               B        ??List_Paint_0
   1757          while(idf<Rows) {par[++idf] = va_arg( parg, char*);} 
   \                     ??List_Paint_1:
   \   00000016   491C               ADDS     R1,R1,#+1
   \   00000018   0906               LSLS     R1,R1,#+24
   \   0000001A   090E               LSRS     R1,R1,#+24
   \   0000001C   1700               MOVS     R7,R2
   \   0000001E   121D               ADDS     R2,R2,#+4
   \   00000020   0800               MOVS     R0,R1
   \   00000022   8300               LSLS     R3,R0,#+2
   \   00000024   27A8               ADD      R0,SP,#+156
   \   00000026   3F68               LDR      R7,[R7, #+0]
   \   00000028   C750               STR      R7,[R0, R3]
   \                     ??List_Paint_0:
   \   0000002A   0800               MOVS     R0,R1
   \   0000002C   A042               CMP      R0,R4
   \   0000002E   F2D3               BCC      ??List_Paint_1
   \   00000030   AC48               LDR      R0,??List_Paint_2  ;; RealRows
   \   00000032   0470               STRB     R4,[R0, #+0]
   1758          va_end(parg); 
   1759            
   1760          
   1761            RealRows=Rows;
   1762            if ((Rows>7) && (RowWith>13)) Rows=6;
   \   00000034   082C               CMP      R4,#+8
   \   00000036   02D3               BCC      ??List_Paint_3
   \   00000038   0E2D               CMP      R5,#+14
   \   0000003A   00D3               BCC      ??List_Paint_3
   \   0000003C   0624               MOVS     R4,#+6
   1763            if ((Rows>8) && (RowWith<=13)) Rows=7;
   \                     ??List_Paint_3:
   \   0000003E   092C               CMP      R4,#+9
   \   00000040   02D3               BCC      ??List_Paint_4
   \   00000042   0E2D               CMP      R5,#+14
   \   00000044   00D2               BCS      ??List_Paint_4
   \   00000046   0724               MOVS     R4,#+7
   1764            
   1765            if (FormStyle<4) 
   \                     ??List_Paint_4:
   \   00000048   042E               CMP      R6,#+4
   \   0000004A   02D2               BCS      ??List_Paint_5
   1766            {
   1767              CleanCanvas();
   \   0000004C   ........           BL       CleanCanvas
   \   00000050   32E0               B        ??List_Paint_6
   1768            }
   1769            else
   1770            {
   1771              //  HalfCleanCanvas();
   1772              if (FormStyle)
   \                     ??List_Paint_5:
   \   00000052   002E               CMP      R6,#+0
   \   00000054   1DD0               BEQ      ??List_Paint_7
   1773              {     
   1774                CleanCanvasArea(FormStyle-1, 127-(Y+18+(RowWith*Rows))-2, 62-2*FormStyle+4,(RowWith*Rows)+5,0);
   \   00000056   82B0               SUB      SP,SP,#+8
   \   00000058   0020               MOVS     R0,#+0
   \   0000005A   0090               STR      R0,[SP, #+0]
   \   0000005C   2B00               MOVS     R3,R5
   \   0000005E   6343               MULS     R3,R4,R3
   \   00000060   5B1D               ADDS     R3,R3,#+5
   \   00000062   1B06               LSLS     R3,R3,#+24
   \   00000064   1B0E               LSRS     R3,R3,#+24
   \   00000066   4220               MOVS     R0,#+66
   \   00000068   7100               LSLS     R1,R6,#+1
   \   0000006A   421A               SUBS     R2,R0,R1
   \   0000006C   1206               LSLS     R2,R2,#+24
   \   0000006E   120E               LSRS     R2,R2,#+24
   \   00000070   7F20               MOVS     R0,#+127
   \   00000072   3EA9               ADD      R1,SP,#+248
   \   00000074   0978               LDRB     R1,[R1, #+0]
   \   00000076   411A               SUBS     R1,R0,R1
   \   00000078   2800               MOVS     R0,R5
   \   0000007A   6043               MULS     R0,R4,R0
   \   0000007C   091A               SUBS     R1,R1,R0
   \   0000007E   1439               SUBS     R1,R1,#+20
   \   00000080   0906               LSLS     R1,R1,#+24
   \   00000082   090E               LSRS     R1,R1,#+24
   \   00000084   701E               SUBS     R0,R6,#+1
   \   00000086   0006               LSLS     R0,R0,#+24
   \   00000088   000E               LSRS     R0,R0,#+24
   \   0000008A   ........           BL       CleanCanvasArea
   \   0000008E   02B0               ADD      SP,SP,#+8
   \   00000090   12E0               B        ??List_Paint_6
   1775              
   1776              }
   1777              else
   1778              {
   1779                CleanCanvasArea(0, 127-(18+(RowWith*Rows))+Y, 62,(RowWith*Rows),0);
   \                     ??List_Paint_7:
   \   00000092   2B00               MOVS     R3,R5
   \   00000094   6343               MULS     R3,R4,R3
   \   00000096   82B0               SUB      SP,SP,#+8
   \   00000098   0020               MOVS     R0,#+0
   \   0000009A   0090               STR      R0,[SP, #+0]
   \   0000009C   1B06               LSLS     R3,R3,#+24
   \   0000009E   1B0E               LSRS     R3,R3,#+24
   \   000000A0   3E22               MOVS     R2,#+62
   \   000000A2   6D20               MOVS     R0,#+109
   \   000000A4   C01A               SUBS     R0,R0,R3
   \   000000A6   3EA9               ADD      R1,SP,#+248
   \   000000A8   0978               LDRB     R1,[R1, #+0]
   \   000000AA   4118               ADDS     R1,R0,R1
   \   000000AC   0906               LSLS     R1,R1,#+24
   \   000000AE   090E               LSRS     R1,R1,#+24
   \   000000B0   0020               MOVS     R0,#+0
   \   000000B2   ........           BL       CleanCanvasArea
   \   000000B6   02B0               ADD      SP,SP,#+8
   1780          
   1781              }
   1782            }
   1783            
   1784             
   1785            
   1786           
   1787            if (FormStyle==0)
   \                     ??List_Paint_6:
   \   000000B8   002E               CMP      R6,#+0
   \   000000BA   26D1               BNE      ??List_Paint_8
   1788            {
   1789            char ekran_tab[8][18] = {
   1790                            {255,1,255,255,255,255,255,255,255,255,255,255,255,255,255,255,254,252},
   1791                            {255,0,255,255,255,255,255,255,255,255,255,255,255,255,255,255,255,255},
   1792                            {255,0,255,255,255,255,255,255,255,255,255,255,255,255,255,255,255,255},
   1793                            {255,0,255,255,255,255,255,255,255,255,255,255,255,255,255,255,255,255},
   1794                            {255,0,255,255,255,255,255,255,255,255,255,255,255,255,255,255,255,255},
   1795                            {255,0,255,255,127,127,127,127,127,127,127,127,127,127,127,127,255,255},
   1796                            {255,0,255,0,254,255,251,247,111,159,159,111,247,251,255,254,0,255},
   1797                            {255,128,255,240,231,239,237,238,239,239,239,239,238,237,111,103,48,31}
   1798                            };
   \   000000BC   03A8               ADD      R0,SP,#+12
   \   000000BE   8A49               LDR      R1,??List_Paint_2+0x4  ;; `?<Constant {{255, 1, 255, 255, 255, 255, 255, `
   \   000000C0   9022               MOVS     R2,#+144
   \   000000C2   ........           BL       __aeabi_memcpy4
   1799              
   1800              CopyToCanvasPoint((char *)ekran_tab,0,109-Y,64,18); 
   \   000000C6   82B0               SUB      SP,SP,#+8
   \   000000C8   1220               MOVS     R0,#+18
   \   000000CA   0090               STR      R0,[SP, #+0]
   \   000000CC   4023               MOVS     R3,#+64
   \   000000CE   6D20               MOVS     R0,#+109
   \   000000D0   3EA9               ADD      R1,SP,#+248
   \   000000D2   0978               LDRB     R1,[R1, #+0]
   \   000000D4   421A               SUBS     R2,R0,R1
   \   000000D6   1206               LSLS     R2,R2,#+24
   \   000000D8   120E               LSRS     R2,R2,#+24
   \   000000DA   0021               MOVS     R1,#+0
   \   000000DC   05A8               ADD      R0,SP,#+20
   \   000000DE   ........           BL       CopyToCanvasPoint
   \   000000E2   02B0               ADD      SP,SP,#+8
   1801              Label(name,0,2,114-Y,10,42,0,127,1);  //(char *Vstring, char alig, char X, int Y, char maxChar, char clean, char minY, char maxY, char negatyw) 
   \   000000E4   82B0               SUB      SP,SP,#+8
   \   000000E6   0120               MOVS     R0,#+1
   \   000000E8   0090               STR      R0,[SP, #+0]
   \   000000EA   7F21               MOVS     R1,#+127
   \   000000EC   0020               MOVS     R0,#+0
   \   000000EE   03B4               PUSH     {R0,R1}
   \   000000F0   2A21               MOVS     R1,#+42
   \   000000F2   0A20               MOVS     R0,#+10
   \   000000F4   03B4               PUSH     {R0,R1}
   \   000000F6   7220               MOVS     R0,#+114
   \   000000F8   42A9               ADD      R1,SP,#+264
   \   000000FA   0978               LDRB     R1,[R1, #+0]
   \   000000FC   431A               SUBS     R3,R0,R1
   \   000000FE   0222               MOVS     R2,#+2
   \   00000100   0021               MOVS     R1,#+0
   \   00000102   4198               LDR      R0,[SP, #+260]
   \   00000104   ........           BL       Label
   \   00000108   06B0               ADD      SP,SP,#+24
   1802              
   1803             } 
   1804              
   1805           if (Rows>0)
   \                     ??List_Paint_8:
   \   0000010A   002C               CMP      R4,#+0
   \   0000010C   00D1               BNE      .+4
   \   0000010E   B5E1               B        ??List_Paint_9
   1806           {
   1807              
   1808              char napis1_Y=110-Y-(RowWith/2)-5;
   \   00000110   6E20               MOVS     R0,#+110
   \   00000112   3CA9               ADD      R1,SP,#+240
   \   00000114   0978               LDRB     R1,[R1, #+0]
   \   00000116   401A               SUBS     R0,R0,R1
   \   00000118   2900               MOVS     R1,R5
   \   0000011A   4908               LSRS     R1,R1,#+1
   \   0000011C   401A               SUBS     R0,R0,R1
   \   0000011E   401F               SUBS     R0,R0,#+5
   \   00000120   0006               LSLS     R0,R0,#+24
   \   00000122   000E               LSRS     R0,R0,#+24
   \   00000124   0190               STR      R0,[SP, #+4]
   1809          
   1810              
   1811          
   1812              for (char i=0; i<=Rows-1; i++)
   \   00000126   0020               MOVS     R0,#+0
   \   00000128   0090               STR      R0,[SP, #+0]
   \   0000012A   1EE0               B        ??List_Paint_10
   1813              {
   1814                 if (par[i+RowsPoz]>0)
   1815                 switch (Algin)
   1816                 {
   1817                    case 0: Label(par[i+RowsPoz],0,2+FormStyle,napis1_Y-RowWith*i,15,58-2*FormStyle,0,127,0);     break; //(char *Vstring, char alig, char X, int Y, char maxChar, char clean, char minY, char maxY, char negatyw) 
   1818                    case 1: Label(par[i+RowsPoz],0,2+FormStyle,110-Y-10-RowWith*i,15,58-2*FormStyle,0,127,0);     break; //(char *Vstring, char alig, char X, int Y, char maxChar, char clean, char minY, char maxY, char negatyw) 
   1819                    case 2: Label(par[i+RowsPoz],0,2+FormStyle,110-Y+1-RowWith*(i+1),15,58-2*FormStyle,0,127,0);  break; //(char *Vstring, char alig, char X, int Y, char maxChar, char clean, char minY, char maxY, char negatyw)   
   1820                    case 3: Label(par[i+RowsPoz],2,2+FormStyle,napis1_Y-RowWith*i,15,58-2*FormStyle,0,127,0);     break; //(char *Vstring, char alig, char X, int Y, char maxChar, char clean, char minY, char maxY, char negatyw) 
   \                     ??List_Paint_11:
   \   0000012C   82B0               SUB      SP,SP,#+8
   \   0000012E   0020               MOVS     R0,#+0
   \   00000130   0090               STR      R0,[SP, #+0]
   \   00000132   7F21               MOVS     R1,#+127
   \   00000134   03B4               PUSH     {R0,R1}
   \   00000136   3A20               MOVS     R0,#+58
   \   00000138   7100               LSLS     R1,R6,#+1
   \   0000013A   411A               SUBS     R1,R0,R1
   \   0000013C   0F20               MOVS     R0,#+15
   \   0000013E   0906               LSLS     R1,R1,#+24
   \   00000140   090E               LSRS     R1,R1,#+24
   \   00000142   03B4               PUSH     {R0,R1}
   \   00000144   0798               LDR      R0,[SP, #+28]
   \   00000146   0006               LSLS     R0,R0,#+24
   \   00000148   000E               LSRS     R0,R0,#+24
   \   0000014A   6A43               MULS     R2,R5,R2
   \   0000014C   831A               SUBS     R3,R0,R2
   \   0000014E   3200               MOVS     R2,R6
   \   00000150   921C               ADDS     R2,R2,#+2
   \   00000152   1206               LSLS     R2,R2,#+24
   \   00000154   120E               LSRS     R2,R2,#+24
   \   00000156   0221               MOVS     R1,#+2
   \   00000158   3800               MOVS     R0,R7
   \   0000015A   ........           BL       Label
   \   0000015E   06B0               ADD      SP,SP,#+24
   \                     ??List_Paint_12:
   \   00000160   0098               LDR      R0,[SP, #+0]
   \   00000162   401C               ADDS     R0,R0,#+1
   \   00000164   0006               LSLS     R0,R0,#+24
   \   00000166   000E               LSRS     R0,R0,#+24
   \   00000168   0090               STR      R0,[SP, #+0]
   \                     ??List_Paint_10:
   \   0000016A   009A               LDR      R2,[SP, #+0]
   \   0000016C   1206               LSLS     R2,R2,#+24
   \   0000016E   120E               LSRS     R2,R2,#+24
   \   00000170   601E               SUBS     R0,R4,#+1
   \   00000172   9042               CMP      R0,R2
   \   00000174   65DB               BLT      ??List_Paint_13
   \   00000176   D248               LDR      R0,??List_Paint_14  ;; RealRows + 1
   \   00000178   0078               LDRB     R0,[R0, #+0]
   \   0000017A   1018               ADDS     R0,R2,R0
   \   0000017C   8000               LSLS     R0,R0,#+2
   \   0000017E   27A9               ADD      R1,SP,#+156
   \   00000180   0F58               LDR      R7,[R1, R0]
   \   00000182   002F               CMP      R7,#+0
   \   00000184   ECD0               BEQ      ??List_Paint_12
   \   00000186   43A8               ADD      R0,SP,#+268
   \   00000188   0078               LDRB     R0,[R0, #+0]
   \   0000018A   0028               CMP      R0,#+0
   \   0000018C   06D0               BEQ      ??List_Paint_15
   \   0000018E   0128               CMP      R0,#+1
   \   00000190   1ED0               BEQ      ??List_Paint_16
   \   00000192   0228               CMP      R0,#+2
   \   00000194   38D0               BEQ      ??List_Paint_17
   \   00000196   0328               CMP      R0,#+3
   \   00000198   C8D0               BEQ      ??List_Paint_11
   \   0000019A   E1E7               B        ??List_Paint_12
   \                     ??List_Paint_15:
   \   0000019C   82B0               SUB      SP,SP,#+8
   \   0000019E   0090               STR      R0,[SP, #+0]
   \   000001A0   7F21               MOVS     R1,#+127
   \   000001A2   03B4               PUSH     {R0,R1}
   \   000001A4   3A20               MOVS     R0,#+58
   \   000001A6   7100               LSLS     R1,R6,#+1
   \   000001A8   411A               SUBS     R1,R0,R1
   \   000001AA   0F20               MOVS     R0,#+15
   \   000001AC   0906               LSLS     R1,R1,#+24
   \   000001AE   090E               LSRS     R1,R1,#+24
   \   000001B0   03B4               PUSH     {R0,R1}
   \   000001B2   0798               LDR      R0,[SP, #+28]
   \   000001B4   0006               LSLS     R0,R0,#+24
   \   000001B6   000E               LSRS     R0,R0,#+24
   \   000001B8   6A43               MULS     R2,R5,R2
   \   000001BA   831A               SUBS     R3,R0,R2
   \   000001BC   3200               MOVS     R2,R6
   \   000001BE   921C               ADDS     R2,R2,#+2
   \   000001C0   1206               LSLS     R2,R2,#+24
   \   000001C2   120E               LSRS     R2,R2,#+24
   \   000001C4   0021               MOVS     R1,#+0
   \   000001C6   3800               MOVS     R0,R7
   \   000001C8   ........           BL       Label
   \   000001CC   06B0               ADD      SP,SP,#+24
   \   000001CE   C7E7               B        ??List_Paint_12
   \                     ??List_Paint_16:
   \   000001D0   82B0               SUB      SP,SP,#+8
   \   000001D2   0020               MOVS     R0,#+0
   \   000001D4   0090               STR      R0,[SP, #+0]
   \   000001D6   7F21               MOVS     R1,#+127
   \   000001D8   03B4               PUSH     {R0,R1}
   \   000001DA   3A20               MOVS     R0,#+58
   \   000001DC   7100               LSLS     R1,R6,#+1
   \   000001DE   411A               SUBS     R1,R0,R1
   \   000001E0   0F20               MOVS     R0,#+15
   \   000001E2   0906               LSLS     R1,R1,#+24
   \   000001E4   090E               LSRS     R1,R1,#+24
   \   000001E6   03B4               PUSH     {R0,R1}
   \   000001E8   6420               MOVS     R0,#+100
   \   000001EA   42A9               ADD      R1,SP,#+264
   \   000001EC   0978               LDRB     R1,[R1, #+0]
   \   000001EE   401A               SUBS     R0,R0,R1
   \   000001F0   6A43               MULS     R2,R5,R2
   \   000001F2   831A               SUBS     R3,R0,R2
   \   000001F4   3200               MOVS     R2,R6
   \   000001F6   921C               ADDS     R2,R2,#+2
   \   000001F8   1206               LSLS     R2,R2,#+24
   \   000001FA   120E               LSRS     R2,R2,#+24
   \   000001FC   0021               MOVS     R1,#+0
   \   000001FE   3800               MOVS     R0,R7
   \   00000200   ........           BL       Label
   \   00000204   06B0               ADD      SP,SP,#+24
   \   00000206   ABE7               B        ??List_Paint_12
   \                     ??List_Paint_17:
   \   00000208   82B0               SUB      SP,SP,#+8
   \   0000020A   0020               MOVS     R0,#+0
   \   0000020C   0090               STR      R0,[SP, #+0]
   \   0000020E   7F21               MOVS     R1,#+127
   \   00000210   03B4               PUSH     {R0,R1}
   \   00000212   3A20               MOVS     R0,#+58
   \   00000214   7100               LSLS     R1,R6,#+1
   \   00000216   411A               SUBS     R1,R0,R1
   \   00000218   0F20               MOVS     R0,#+15
   \   0000021A   0906               LSLS     R1,R1,#+24
   \   0000021C   090E               LSRS     R1,R1,#+24
   \   0000021E   03B4               PUSH     {R0,R1}
   \   00000220   6F20               MOVS     R0,#+111
   \   00000222   42A9               ADD      R1,SP,#+264
   \   00000224   0978               LDRB     R1,[R1, #+0]
   \   00000226   401A               SUBS     R0,R0,R1
   \   00000228   521C               ADDS     R2,R2,#+1
   \   0000022A   6A43               MULS     R2,R5,R2
   \   0000022C   831A               SUBS     R3,R0,R2
   \   0000022E   3200               MOVS     R2,R6
   \   00000230   921C               ADDS     R2,R2,#+2
   \   00000232   1206               LSLS     R2,R2,#+24
   \   00000234   120E               LSRS     R2,R2,#+24
   \   00000236   0021               MOVS     R1,#+0
   \   00000238   3800               MOVS     R0,R7
   \   0000023A   ........           BL       Label
   \   0000023E   06B0               ADD      SP,SP,#+24
   \   00000240   8EE7               B        ??List_Paint_12
   1821                 }   
   1822              }
   1823              
   1824              
   1825              if (~FormStyle) H_line(2,127-(17)-Y,54,0); 
   \                     ??List_Paint_13:
   \   00000242   3CA8               ADD      R0,SP,#+240
   \   00000244   0078               LDRB     R0,[R0, #+0]
   \   00000246   0090               STR      R0,[SP, #+0]
   \   00000248   0023               MOVS     R3,#+0
   \   0000024A   3622               MOVS     R2,#+54
   \   0000024C   6E20               MOVS     R0,#+110
   \   0000024E   0099               LDR      R1,[SP, #+0]
   \   00000250   411A               SUBS     R1,R0,R1
   \   00000252   0220               MOVS     R0,#+2
   \   00000254   ........           BL       H_line
   \   00000258   2000               MOVS     R0,R4
   \   0000025A   6843               MULS     R0,R5,R0
   \   0000025C   0190               STR      R0,[SP, #+4]
   \   0000025E   6D20               MOVS     R0,#+109
   \   00000260   0199               LDR      R1,[SP, #+4]
   \   00000262   401A               SUBS     R0,R0,R1
   \   00000264   0099               LDR      R1,[SP, #+0]
   \   00000266   471A               SUBS     R7,R0,R1
   \   00000268   6946               MOV      R1,SP
   \   0000026A   2000               MOVS     R0,R4
   \   0000026C   6843               MULS     R0,R5,R0
   \   0000026E   0872               STRB     R0,[R1, #+8]
   \   00000270   0123               MOVS     R3,#+1
   \   00000272   6846               MOV      R0,SP
   \   00000274   027A               LDRB     R2,[R0, #+8]
   \   00000276   3900               MOVS     R1,R7
   \   00000278   3E20               MOVS     R0,#+62
   \   0000027A   801B               SUBS     R0,R0,R6
   \   0000027C   0006               LSLS     R0,R0,#+24
   \   0000027E   000E               LSRS     R0,R0,#+24
   1826              
   1827              V_line(62-FormStyle,127-(18+(Rows*RowWith))-Y,(Rows*RowWith),1);
   \   00000280   ........           BL       V_line
   1828              if (FormStyle)
   \   00000284   002E               CMP      R6,#+0
   \   00000286   0CD0               BEQ      ??List_Paint_18
   1829              {
   1830                  V_line(63-FormStyle,127-(18+(Rows*RowWith))-Y,(Rows*RowWith)-2,1);
   \   00000288   0123               MOVS     R3,#+1
   \   0000028A   019A               LDR      R2,[SP, #+4]
   \   0000028C   921E               SUBS     R2,R2,#+2
   \   0000028E   1206               LSLS     R2,R2,#+24
   \   00000290   120E               LSRS     R2,R2,#+24
   \   00000292   3900               MOVS     R1,R7
   \   00000294   3F20               MOVS     R0,#+63
   \   00000296   801B               SUBS     R0,R0,R6
   \   00000298   0006               LSLS     R0,R0,#+24
   \   0000029A   000E               LSRS     R0,R0,#+24
   \   0000029C   ........           BL       V_line
   \   000002A0   06E0               B        ??List_Paint_19
   1831              }
   1832              else
   1833              {
   1834                  V_line(63-FormStyle,127-(18+(Rows*RowWith))-Y,(Rows*RowWith),1); 
   \                     ??List_Paint_18:
   \   000002A2   0123               MOVS     R3,#+1
   \   000002A4   6846               MOV      R0,SP
   \   000002A6   027A               LDRB     R2,[R0, #+8]
   \   000002A8   3900               MOVS     R1,R7
   \   000002AA   3F20               MOVS     R0,#+63
   \   000002AC   ........           BL       V_line
   1835              }
   1836              
   1837              V_line(FormStyle,127-(18+(Rows*RowWith))-Y,(Rows*RowWith),1);
   \                     ??List_Paint_19:
   \   000002B0   0123               MOVS     R3,#+1
   \   000002B2   6846               MOV      R0,SP
   \   000002B4   027A               LDRB     R2,[R0, #+8]
   \   000002B6   3900               MOVS     R1,R7
   \   000002B8   3000               MOVS     R0,R6
   \   000002BA   ........           BL       V_line
   1838              
   1839              if (FormStyle) H_line(FormStyle,127-18-Y,63-2*FormStyle,1); 
   \   000002BE   002E               CMP      R6,#+0
   \   000002C0   0BD0               BEQ      ??List_Paint_20
   \   000002C2   0123               MOVS     R3,#+1
   \   000002C4   3F20               MOVS     R0,#+63
   \   000002C6   7100               LSLS     R1,R6,#+1
   \   000002C8   421A               SUBS     R2,R0,R1
   \   000002CA   1206               LSLS     R2,R2,#+24
   \   000002CC   120E               LSRS     R2,R2,#+24
   \   000002CE   6D20               MOVS     R0,#+109
   \   000002D0   0099               LDR      R1,[SP, #+0]
   \   000002D2   411A               SUBS     R1,R0,R1
   \   000002D4   3000               MOVS     R0,R6
   \   000002D6   ........           BL       H_line
   1840              
   1841              for (char i=18+RowWith; i<=18+(Rows*RowWith); i=i+RowWith)
   \                     ??List_Paint_20:
   \   000002DA   2F00               MOVS     R7,R5
   \   000002DC   1237               ADDS     R7,R7,#+18
   \   000002DE   3F06               LSLS     R7,R7,#+24
   \   000002E0   3F0E               LSRS     R7,R7,#+24
   \   000002E2   16E0               B        ??List_Paint_21
   \                     ??List_Paint_2:
   \   000002E4   ........           DC32     RealRows
   \   000002E8   ........           DC32     `?<Constant {{255, 1, 255, 255, 255, 255, 255, `
   1842              {
   1843                H_line(1+FormStyle,127-i-Y,61-2*FormStyle,1); 
   \                     ??List_Paint_22:
   \   000002EC   0123               MOVS     R3,#+1
   \   000002EE   3D21               MOVS     R1,#+61
   \   000002F0   7200               LSLS     R2,R6,#+1
   \   000002F2   8A1A               SUBS     R2,R1,R2
   \   000002F4   1206               LSLS     R2,R2,#+24
   \   000002F6   120E               LSRS     R2,R2,#+24
   \   000002F8   7F21               MOVS     R1,#+127
   \   000002FA   081A               SUBS     R0,R1,R0
   \   000002FC   0099               LDR      R1,[SP, #+0]
   \   000002FE   411A               SUBS     R1,R0,R1
   \   00000300   3000               MOVS     R0,R6
   \   00000302   401C               ADDS     R0,R0,#+1
   \   00000304   0006               LSLS     R0,R0,#+24
   \   00000306   000E               LSRS     R0,R0,#+24
   \   00000308   ........           BL       H_line
   1844              }
   \   0000030C   7F19               ADDS     R7,R7,R5
   \   0000030E   3F06               LSLS     R7,R7,#+24
   \   00000310   3F0E               LSRS     R7,R7,#+24
   \                     ??List_Paint_21:
   \   00000312   3800               MOVS     R0,R7
   \   00000314   0199               LDR      R1,[SP, #+4]
   \   00000316   1231               ADDS     R1,R1,#+18
   \   00000318   8142               CMP      R1,R0
   \   0000031A   E7DA               BGE      ??List_Paint_22
   1845              
   1846              H_line(4+FormStyle,127-(18+(Rows*RowWith))-1-Y,60-(2*FormStyle),1); 
   \   0000031C   0123               MOVS     R3,#+1
   \   0000031E   3C20               MOVS     R0,#+60
   \   00000320   7100               LSLS     R1,R6,#+1
   \   00000322   421A               SUBS     R2,R0,R1
   \   00000324   1206               LSLS     R2,R2,#+24
   \   00000326   120E               LSRS     R2,R2,#+24
   \   00000328   6C20               MOVS     R0,#+108
   \   0000032A   0199               LDR      R1,[SP, #+4]
   \   0000032C   401A               SUBS     R0,R0,R1
   \   0000032E   0099               LDR      R1,[SP, #+0]
   \   00000330   411A               SUBS     R1,R0,R1
   \   00000332   361D               ADDS     R6,R6,#+4
   \   00000334   3000               MOVS     R0,R6
   \   00000336   0006               LSLS     R0,R0,#+24
   \   00000338   000E               LSRS     R0,R0,#+24
   \   0000033A   ........           BL       H_line
   1847            
   1848           
   1849              if (RealRows!=Rows) //je¿eli wiêcej pozycji ni¿ na ekranie
   \   0000033E   6148               LDR      R0,??List_Paint_14+0x4  ;; RealRows
   \   00000340   0078               LDRB     R0,[R0, #+0]
   \   00000342   A042               CMP      R0,R4
   \   00000344   65D0               BEQ      ??List_Paint_23
   1850              {
   1851                 char LabelButt1[2], LabelButt2[2];
   1852                 LabelButt1[1]=0; LabelButt2[1]=0;  //LabelButt1 -góra, LabelButt2-dó³
   \   00000346   6846               MOV      R0,SP
   \   00000348   0021               MOVS     R1,#+0
   \   0000034A   4170               STRB     R1,[R0, #+1]
   \   0000034C   01A9               ADD      R1,SP,#+4
   \   0000034E   0022               MOVS     R2,#+0
   \   00000350   4A70               STRB     R2,[R1, #+1]
   1853                 LabelButt1[0]=30; LabelButt2[0]=31;
   \   00000352   1E22               MOVS     R2,#+30
   \   00000354   0270               STRB     R2,[R0, #+0]
   \   00000356   1F20               MOVS     R0,#+31
   \   00000358   0870               STRB     R0,[R1, #+0]
   1854                 
   1855                 if (RowsPoz==0)
   \   0000035A   5948               LDR      R0,??List_Paint_14  ;; RealRows + 1
   \   0000035C   0078               LDRB     R0,[R0, #+0]
   \   0000035E   0028               CMP      R0,#+0
   \   00000360   12D1               BNE      ??List_Paint_24
   1856                 {
   1857                    Button(LabelButt2,0,127-(18+(Rows*RowWith))-1-Y-15,64,16); //(etykieta char poz_X , char poz_Y ,char width, char height) 
   \   00000362   82B0               SUB      SP,SP,#+8
   \   00000364   1020               MOVS     R0,#+16
   \   00000366   0090               STR      R0,[SP, #+0]
   \   00000368   4023               MOVS     R3,#+64
   \   0000036A   6C20               MOVS     R0,#+108
   \   0000036C   02A9               ADD      R1,SP,#+8
   \   0000036E   097A               LDRB     R1,[R1, #+8]
   \   00000370   401A               SUBS     R0,R0,R1
   \   00000372   3EA9               ADD      R1,SP,#+248
   \   00000374   0978               LDRB     R1,[R1, #+0]
   \   00000376   421A               SUBS     R2,R0,R1
   \   00000378   0F3A               SUBS     R2,R2,#+15
   \   0000037A   1206               LSLS     R2,R2,#+24
   \   0000037C   120E               LSRS     R2,R2,#+24
   \   0000037E   0021               MOVS     R1,#+0
   \   00000380   03A8               ADD      R0,SP,#+12
   \   00000382   ........           BL       Button
   \   00000386   02B0               ADD      SP,SP,#+8
   1858                 } 
   1859                 if ((RowsPoz>0) && (RowsPoz<RealRows-Rows))
   \                     ??List_Paint_24:
   \   00000388   4D48               LDR      R0,??List_Paint_14  ;; RealRows + 1
   \   0000038A   0078               LDRB     R0,[R0, #+0]
   \   0000038C   0028               CMP      R0,#+0
   \   0000038E   24D0               BEQ      ??List_Paint_25
   \   00000390   4C49               LDR      R1,??List_Paint_14+0x4  ;; RealRows
   \   00000392   0978               LDRB     R1,[R1, #+0]
   \   00000394   091B               SUBS     R1,R1,R4
   \   00000396   8842               CMP      R0,R1
   \   00000398   1FDA               BGE      ??List_Paint_25
   \   0000039A   6C20               MOVS     R0,#+108
   \   0000039C   6946               MOV      R1,SP
   \   0000039E   097A               LDRB     R1,[R1, #+8]
   \   000003A0   401A               SUBS     R0,R0,R1
   \   000003A2   3CA9               ADD      R1,SP,#+240
   \   000003A4   0978               LDRB     R1,[R1, #+0]
   \   000003A6   451A               SUBS     R5,R0,R1
   \   000003A8   0F3D               SUBS     R5,R5,#+15
   \   000003AA   82B0               SUB      SP,SP,#+8
   \   000003AC   1020               MOVS     R0,#+16
   \   000003AE   0090               STR      R0,[SP, #+0]
   \   000003B0   2023               MOVS     R3,#+32
   \   000003B2   2A00               MOVS     R2,R5
   \   000003B4   1206               LSLS     R2,R2,#+24
   \   000003B6   120E               LSRS     R2,R2,#+24
   \   000003B8   0021               MOVS     R1,#+0
   \   000003BA   02A8               ADD      R0,SP,#+8
   1860                 {
   1861                   Button(LabelButt1,0,127-(18+(Rows*RowWith))-1-Y-15,32,16); //(etykieta ,char poz_X , char poz_Y ,char width, char height)
   \   000003BC   ........           BL       Button
   \   000003C0   02B0               ADD      SP,SP,#+8
   1862                   Button(LabelButt2,32,127-(18+(Rows*RowWith))-1-Y-15,32,16); //(etykieta char poz_X , char poz_Y ,char width, char height) 
   \   000003C2   82B0               SUB      SP,SP,#+8
   \   000003C4   1020               MOVS     R0,#+16
   \   000003C6   0090               STR      R0,[SP, #+0]
   \   000003C8   2023               MOVS     R3,#+32
   \   000003CA   2A00               MOVS     R2,R5
   \   000003CC   1206               LSLS     R2,R2,#+24
   \   000003CE   120E               LSRS     R2,R2,#+24
   \   000003D0   1900               MOVS     R1,R3
   \   000003D2   03A8               ADD      R0,SP,#+12
   \   000003D4   ........           BL       Button
   \   000003D8   02B0               ADD      SP,SP,#+8
   1863                 }
   1864                 if ((RowsPoz>0) && (RowsPoz>=RealRows-Rows))
   \                     ??List_Paint_25:
   \   000003DA   3948               LDR      R0,??List_Paint_14  ;; RealRows + 1
   \   000003DC   0078               LDRB     R0,[R0, #+0]
   \   000003DE   0028               CMP      R0,#+0
   \   000003E0   17D0               BEQ      ??List_Paint_23
   \   000003E2   3849               LDR      R1,??List_Paint_14+0x4  ;; RealRows
   \   000003E4   0978               LDRB     R1,[R1, #+0]
   \   000003E6   091B               SUBS     R1,R1,R4
   \   000003E8   8842               CMP      R0,R1
   \   000003EA   12DB               BLT      ??List_Paint_23
   1865                 {
   1866                   Button(LabelButt1,0,127-(18+(Rows*RowWith))-1-Y-15,64,16); //(etykieta ,char poz_X , char poz_Y ,char width, char height)
   \   000003EC   82B0               SUB      SP,SP,#+8
   \   000003EE   1020               MOVS     R0,#+16
   \   000003F0   0090               STR      R0,[SP, #+0]
   \   000003F2   4023               MOVS     R3,#+64
   \   000003F4   6C20               MOVS     R0,#+108
   \   000003F6   02A9               ADD      R1,SP,#+8
   \   000003F8   097A               LDRB     R1,[R1, #+8]
   \   000003FA   401A               SUBS     R0,R0,R1
   \   000003FC   3EA9               ADD      R1,SP,#+248
   \   000003FE   0978               LDRB     R1,[R1, #+0]
   \   00000400   421A               SUBS     R2,R0,R1
   \   00000402   0F3A               SUBS     R2,R2,#+15
   \   00000404   1206               LSLS     R2,R2,#+24
   \   00000406   120E               LSRS     R2,R2,#+24
   \   00000408   0021               MOVS     R1,#+0
   \   0000040A   02A8               ADD      R0,SP,#+8
   \   0000040C   ........           BL       Button
   \   00000410   02B0               ADD      SP,SP,#+8
   1867                 }
   1868                 
   1869                
   1870              }
   1871              
   1872              
   1873              
   1874              //bar poziomy
   1875              if (RealRows!=Rows)
   \                     ??List_Paint_23:
   \   00000412   2C48               LDR      R0,??List_Paint_14+0x4  ;; RealRows
   \   00000414   0178               LDRB     R1,[R0, #+0]
   \   00000416   A142               CMP      R1,R4
   \   00000418   4ED0               BEQ      ??List_Paint_26
   1876              {
   1877                 char MaxPoz = 127-19;
   1878                 char MinPoz = 127-(18+(Rows*RowWith))-1-Y+2;
   \   0000041A   6C20               MOVS     R0,#+108
   \   0000041C   6A46               MOV      R2,SP
   \   0000041E   127A               LDRB     R2,[R2, #+8]
   \   00000420   801A               SUBS     R0,R0,R2
   \   00000422   3CAA               ADD      R2,SP,#+240
   \   00000424   1278               LDRB     R2,[R2, #+0]
   \   00000426   851A               SUBS     R5,R0,R2
   \   00000428   AD1C               ADDS     R5,R5,#+2
   \   0000042A   2D06               LSLS     R5,R5,#+24
   \   0000042C   2D0E               LSRS     R5,R5,#+24
   1879                 char Zakres =MaxPoz-MinPoz;
   \   0000042E   6C20               MOVS     R0,#+108
   \   00000430   2A00               MOVS     R2,R5
   \   00000432   861A               SUBS     R6,R0,R2
   \   00000434   3606               LSLS     R6,R6,#+24
   \   00000436   360E               LSRS     R6,R6,#+24
   1880                 char DlOdc=RealRows-Rows;
   1881                 DlOdc=RealRows-Rows+1;
   1882                 DlOdc=Zakres/DlOdc;
   \   00000438   3000               MOVS     R0,R6
   \   0000043A   091B               SUBS     R1,R1,R4
   \   0000043C   491C               ADDS     R1,R1,#+1
   \   0000043E   0906               LSLS     R1,R1,#+24
   \   00000440   090E               LSRS     R1,R1,#+24
   \   00000442   ........           BL       __aeabi_idivmod
   \   00000446   0400               MOVS     R4,R0
   \   00000448   2406               LSLS     R4,R4,#+24
   \   0000044A   240E               LSRS     R4,R4,#+24
   1883                 char poz=RowsPoz*DlOdc;
   1884                 poz=MaxPoz-poz-DlOdc;
   1885                 V_line (61, MinPoz,Zakres+1, 1);  //V_line (char X, int Y, char lenght, char typ) 
   \   0000044C   0123               MOVS     R3,#+1
   \   0000044E   761C               ADDS     R6,R6,#+1
   \   00000450   3200               MOVS     R2,R6
   \   00000452   1206               LSLS     R2,R2,#+24
   \   00000454   120E               LSRS     R2,R2,#+24
   \   00000456   2900               MOVS     R1,R5
   \   00000458   3D20               MOVS     R0,#+61
   \   0000045A   ........           BL       V_line
   1886                 V_line (62, poz,DlOdc, 0);  //V_line (char X, int Y, char lenght, char typ) 
   \   0000045E   0023               MOVS     R3,#+0
   \   00000460   2200               MOVS     R2,R4
   \   00000462   6C20               MOVS     R0,#+108
   \   00000464   1649               LDR      R1,??List_Paint_14  ;; RealRows + 1
   \   00000466   0978               LDRB     R1,[R1, #+0]
   \   00000468   2500               MOVS     R5,R4
   \   0000046A   6943               MULS     R1,R5,R1
   \   0000046C   401A               SUBS     R0,R0,R1
   \   0000046E   011B               SUBS     R1,R0,R4
   \   00000470   0906               LSLS     R1,R1,#+24
   \   00000472   090E               LSRS     R1,R1,#+24
   \   00000474   3E20               MOVS     R0,#+62
   \   00000476   ........           BL       V_line
   \   0000047A   1DE0               B        ??List_Paint_26
   1887              }
   1888              
   1889           }else{
   1890             V_line(0,1,115,1); 
   \                     ??List_Paint_9:
   \   0000047C   0123               MOVS     R3,#+1
   \   0000047E   7322               MOVS     R2,#+115
   \   00000480   1900               MOVS     R1,R3
   \   00000482   0020               MOVS     R0,#+0
   \   00000484   ........           BL       V_line
   1891             V_line(63,0,115,1);
   \   00000488   0123               MOVS     R3,#+1
   \   0000048A   7322               MOVS     R2,#+115
   \   0000048C   0021               MOVS     R1,#+0
   \   0000048E   3F20               MOVS     R0,#+63
   \   00000490   ........           BL       V_line
   1892             V_line(62,0,115,1);
   \   00000494   0123               MOVS     R3,#+1
   \   00000496   7322               MOVS     R2,#+115
   \   00000498   0021               MOVS     R1,#+0
   \   0000049A   3E20               MOVS     R0,#+62
   \   0000049C   ........           BL       V_line
   1893             H_line(0,1,63,1);
   \   000004A0   0123               MOVS     R3,#+1
   \   000004A2   3F22               MOVS     R2,#+63
   \   000004A4   1900               MOVS     R1,R3
   \   000004A6   0020               MOVS     R0,#+0
   \   000004A8   ........           BL       H_line
   1894             H_line(4,0,59,1);
   \   000004AC   0123               MOVS     R3,#+1
   \   000004AE   3B22               MOVS     R2,#+59
   \   000004B0   0021               MOVS     R1,#+0
   \   000004B2   0420               MOVS     R0,#+4
   \   000004B4   ........           BL       H_line
   1895           }
   1896              
   1897          }//_______________________ Koniec funkcji List_Paint __________________________
   \                     ??List_Paint_26:
   \   000004B8   3DB0               ADD      SP,SP,#+244
   \   000004BA   F0BC               POP      {R4-R7}
   \   000004BC   01BC               POP      {R0}
   \   000004BE   0047               BX       R0               ;; return
   \                     ??List_Paint_14:
   \   000004C0   ........           DC32     RealRows + 1
   \   000004C4   ........           DC32     RealRows
   1898          
   1899          
   1900          
   1901              
   1902          
   1903          
   1904          
   1905          
   1906          
   1907          //*-----------------------------------------------------------------------------
   1908          //* Nazwa funkcji :    List_Event
   1909          //* Funkcja rysowania listy
   1910          //*-----------------------------------------------------------------------------
   1911          //* name[7]   -  Nazwa listy
   1912          //* Rows      -  ilosc wierszy
   1913          //* RowWith   -  szerokosc wiersza
   1914          //* Y         -  odsuniecie od górnej krawêdzi
   1915          //* p1...p8   - nazwy kolejnych pól
   1916          //*-----------------------------------------------------------------------------
   1917          

   \                                 In section Debug.txt, align 4, keep-with-next
   1918          int List_Event(int X_up, int Y_up, int X_down, int Y_down, char Rows, char RowWith, char FormStyle, char Y)
   1919          {
   \                     List_Event:
   \   00000000   FFB5               PUSH     {R0-R7,LR}
   \   00000002   85B0               SUB      SP,SP,#+20
   \   00000004   0EA8               ADD      R0,SP,#+56
   \   00000006   0478               LDRB     R4,[R0, #+0]
   \   00000008   10A8               ADD      R0,SP,#+64
   \   0000000A   0578               LDRB     R5,[R0, #+0]
   \   0000000C   6846               MOV      R0,SP
   \   0000000E   0021               MOVS     R1,#+0
   \   00000010   0172               STRB     R1,[R0, #+8]
   1920            static char SelectRow; 
   1921            char podswietl=0;
   1922            int ans = 0;
   \   00000012   0800               MOVS     R0,R1
   \   00000014   0190               STR      R0,[SP, #+4]
   1923            char AnsDown;
   1924             static char DownAction=0;
   1925          char Y_up_tmp=127-Y_up;
   \   00000016   7F20               MOVS     R0,#+127
   \   00000018   0699               LDR      R1,[SP, #+24]
   \   0000001A   401A               SUBS     R0,R0,R1
   \   0000001C   0006               LSLS     R0,R0,#+24
   \   0000001E   000E               LSRS     R0,R0,#+24
   \   00000020   0390               STR      R0,[SP, #+12]
   1926          
   1927              static char Xdown=0;
   1928          
   1929            //zdarzenie typu down "X"
   1930              if ((FormStyle==0) && (X_down>46) && (X_down<63) && (Y_down>112-Y) && (Y_down<127-Y))    //"X"
   \   00000022   002D               CMP      R5,#+0
   \   00000024   49D1               BNE      ??List_Event_0
   \   00000026   1000               MOVS     R0,R2
   \   00000028   2F28               CMP      R0,#+47
   \   0000002A   46DB               BLT      ??List_Event_0
   \   0000002C   3F28               CMP      R0,#+63
   \   0000002E   44DA               BGE      ??List_Event_0
   \   00000030   11A8               ADD      R0,SP,#+68
   \   00000032   0678               LDRB     R6,[R0, #+0]
   \   00000034   7020               MOVS     R0,#+112
   \   00000036   801B               SUBS     R0,R0,R6
   \   00000038   1900               MOVS     R1,R3
   \   0000003A   8842               CMP      R0,R1
   \   0000003C   3DDA               BGE      ??List_Event_0
   \   0000003E   0800               MOVS     R0,R1
   \   00000040   7F21               MOVS     R1,#+127
   \   00000042   891B               SUBS     R1,R1,R6
   \   00000044   8842               CMP      R0,R1
   \   00000046   38DA               BGE      ??List_Event_0
   1931              {
   1932                MenuPaint();
                       ^
Warning[Pe223]: function "MenuPaint" declared implicitly
   \   00000048   ........           BL       MenuPaint
   1933                H_line(49,114-Y,10,0);
   \   0000004C   7220               MOVS     R0,#+114
   \   0000004E   871B               SUBS     R7,R0,R6
   \   00000050   0023               MOVS     R3,#+0
   \   00000052   0A22               MOVS     R2,#+10
   \   00000054   3900               MOVS     R1,R7
   \   00000056   3120               MOVS     R0,#+49
   \   00000058   ........           BL       H_line
   1934                H_line(49,123-Y,10,0); 
   \   0000005C   0023               MOVS     R3,#+0
   \   0000005E   0A22               MOVS     R2,#+10
   \   00000060   7B20               MOVS     R0,#+123
   \   00000062   811B               SUBS     R1,R0,R6
   \   00000064   3120               MOVS     R0,#+49
   \   00000066   ........           BL       H_line
   1935                V_line(49,114-Y,10,0); 
   \   0000006A   0023               MOVS     R3,#+0
   \   0000006C   0A22               MOVS     R2,#+10
   \   0000006E   3900               MOVS     R1,R7
   \   00000070   3120               MOVS     R0,#+49
   \   00000072   ........           BL       V_line
   1936                V_line(58,114-Y,10,0); 
   \   00000076   0023               MOVS     R3,#+0
   \   00000078   0A22               MOVS     R2,#+10
   \   0000007A   3900               MOVS     R1,R7
   \   0000007C   3A20               MOVS     R0,#+58
   \   0000007E   ........           BL       V_line
   1937                podswietl=1;
   \   00000082   0122               MOVS     R2,#+1
   \   00000084   6846               MOV      R0,SP
   \   00000086   1100               MOVS     R1,R2
   \   00000088   0172               STRB     R1,[R0, #+8]
   1938          
   1939                DownAction=1;
   \   0000008A   A14E               LDR      R6,??List_Event_1  ;; RealRows
   \   0000008C   1000               MOVS     R0,R2
   \   0000008E   F070               STRB     R0,[R6, #+3]
   1940                AnsDown=0xFF;
   \   00000090   FF27               MOVS     R7,#+255
   1941                
   1942                if ((!(AT91C_IFLASH_MEM->Config.SoundOff)) && (Xdown==0)) {
   \   00000092   A048               LDR      R0,??List_Event_1+0x4  ;; 0x13d7e9
   \   00000094   0078               LDRB     R0,[R0, #+0]
   \   00000096   3179               LDRB     R1,[R6, #+4]
   \   00000098   0143               ORRS     R1,R1,R0
   \   0000009A   0DD1               BNE      ??List_Event_2
   1943                  ButtonBipCounter=g_counter+8;
   \   0000009C   3300               MOVS     R3,R6
   \   0000009E   1033               ADDS     R3,R3,#+16
   \   000000A0   9C46               MOV      R12,R3
   \   000000A2   9D48               LDR      R0,??List_Event_1+0x8  ;; g_counter
   \   000000A4   03C8               LDM      R0!,{R0,R1}
   \   000000A6   0023               MOVS     R3,#+0
   \   000000A8   0830               ADDS     R0,R0,#+8
   \   000000AA   5941               ADCS     R1,R1,R3
   \   000000AC   6346               MOV      R3,R12
   \   000000AE   03C3               STM      R3!,{R0,R1}
   1944                    AT91C_BASE_PIOA->PIO_SODR =SpeakerPin;
                                                      ^
Warning[Pe068]: integer conversion resulted in a change of sign
   \   000000B0   9A48               LDR      R0,??List_Event_1+0xC  ;; 0xfffff430
   \   000000B2   8021               MOVS     R1,#+128
   \   000000B4   0906               LSLS     R1,R1,#+24       ;; #-2147483648
   \   000000B6   0160               STR      R1,[R0, #+0]
   1945                  } 
   1946                Xdown=1;
   \                     ??List_Event_2:
   \   000000B8   3271               STRB     R2,[R6, #+4]
   1947                
   1948              }
   1949            
   1950              
   1951              if ((FormStyle==0) && (X_up>46) && (X_up<63) && (Y_up>112-Y) && (Y_up<127-Y))                    //"X"
   \                     ??List_Event_0:
   \   000000BA   002D               CMP      R5,#+0
   \   000000BC   2AD1               BNE      ??List_Event_3
   \   000000BE   0598               LDR      R0,[SP, #+20]
   \   000000C0   2F28               CMP      R0,#+47
   \   000000C2   27DB               BLT      ??List_Event_3
   \   000000C4   3F28               CMP      R0,#+63
   \   000000C6   25DA               BGE      ??List_Event_3
   \   000000C8   11A8               ADD      R0,SP,#+68
   \   000000CA   0678               LDRB     R6,[R0, #+0]
   \   000000CC   7020               MOVS     R0,#+112
   \   000000CE   801B               SUBS     R0,R0,R6
   \   000000D0   0699               LDR      R1,[SP, #+24]
   \   000000D2   8842               CMP      R0,R1
   \   000000D4   1EDA               BGE      ??List_Event_3
   \   000000D6   0800               MOVS     R0,R1
   \   000000D8   7F21               MOVS     R1,#+127
   \   000000DA   891B               SUBS     R1,R1,R6
   \   000000DC   8842               CMP      R0,R1
   \   000000DE   19DA               BGE      ??List_Event_3
   1952              {
   1953                RowsPoz=0;
   \   000000E0   8B4E               LDR      R6,??List_Event_1  ;; RealRows
   \   000000E2   0020               MOVS     R0,#+0
   \   000000E4   7070               STRB     R0,[R6, #+1]
   1954                ans = -1;
   \   000000E6   C043               MVNS     R0,R0            ;; #-1
   \   000000E8   0190               STR      R0,[SP, #+4]
   1955                      if ((!(AT91C_IFLASH_MEM->Config.SoundOff)) && (Xdown==1)) 
   \   000000EA   8A48               LDR      R0,??List_Event_1+0x4  ;; 0x13d7e9
   \   000000EC   0078               LDRB     R0,[R0, #+0]
   \   000000EE   0028               CMP      R0,#+0
   \   000000F0   0ED1               BNE      ??List_Event_4
   \   000000F2   3079               LDRB     R0,[R6, #+4]
   \   000000F4   0128               CMP      R0,#+1
   \   000000F6   0BD1               BNE      ??List_Event_4
   1956                      {
   1957                        ButtonBipCounter=g_counter+8;
   \   000000F8   3200               MOVS     R2,R6
   \   000000FA   1032               ADDS     R2,R2,#+16
   \   000000FC   8648               LDR      R0,??List_Event_1+0x8  ;; g_counter
   \   000000FE   03C8               LDM      R0!,{R0,R1}
   \   00000100   0023               MOVS     R3,#+0
   \   00000102   0830               ADDS     R0,R0,#+8
   \   00000104   5941               ADCS     R1,R1,R3
   \   00000106   03C2               STM      R2!,{R0,R1}
   1958                        AT91C_BASE_PIOA->PIO_SODR =SpeakerPin;
                                                          ^
Warning[Pe068]: integer conversion resulted in a change of sign
   \   00000108   8448               LDR      R0,??List_Event_1+0xC  ;; 0xfffff430
   \   0000010A   8021               MOVS     R1,#+128
   \   0000010C   0906               LSLS     R1,R1,#+24       ;; #-2147483648
   \   0000010E   0160               STR      R1,[R0, #+0]
   1959                      } 
   1960                      Xdown=0;
   \                     ??List_Event_4:
   \   00000110   0020               MOVS     R0,#+0
   \   00000112   3071               STRB     R0,[R6, #+4]
   1961              }  
   1962          
   1963              
   1964              if (Rows>0)
   \                     ??List_Event_3:
   \   00000114   002C               CMP      R4,#+0
   \   00000116   00D1               BNE      .+4
   \   00000118   81E1               B        ??List_Event_5
   1965              {
   1966          
   1967          
   1968              if ((Rows>7) && (RowWith>13)) Rows=6;
   \   0000011A   082C               CMP      R4,#+8
   \   0000011C   04D3               BCC      ??List_Event_6
   \   0000011E   0FA8               ADD      R0,SP,#+60
   \   00000120   0078               LDRB     R0,[R0, #+0]
   \   00000122   0E28               CMP      R0,#+14
   \   00000124   00D3               BCC      ??List_Event_6
   \   00000126   0624               MOVS     R4,#+6
   1969              if ((Rows>8) && (RowWith<=13)) Rows=7;
   \                     ??List_Event_6:
   \   00000128   092C               CMP      R4,#+9
   \   0000012A   04D3               BCC      ??List_Event_7
   \   0000012C   0FA8               ADD      R0,SP,#+60
   \   0000012E   0078               LDRB     R0,[R0, #+0]
   \   00000130   0E28               CMP      R0,#+14
   \   00000132   00D2               BCS      ??List_Event_7
   \   00000134   0724               MOVS     R4,#+7
   \                     ??List_Event_7:
   \   00000136   0798               LDR      R0,[SP, #+28]
   \   00000138   8542               CMP      R5,R0
   \   0000013A   00DB               BLT      .+4
   \   0000013C   86E0               B        ??List_Event_8
   \   0000013E   3F21               MOVS     R1,#+63
   \   00000140   491B               SUBS     R1,R1,R5
   \   00000142   8842               CMP      R0,R1
   \   00000144   00DB               BLT      .+4
   \   00000146   81E0               B        ??List_Event_8
   \   00000148   0FA8               ADD      R0,SP,#+60
   \   0000014A   0078               LDRB     R0,[R0, #+0]
   \   0000014C   0090               STR      R0,[SP, #+0]
   \   0000014E   11A8               ADD      R0,SP,#+68
   \   00000150   0678               LDRB     R6,[R0, #+0]
   \   00000152   6E20               MOVS     R0,#+110
   \   00000154   0099               LDR      R1,[SP, #+0]
   \   00000156   6143               MULS     R1,R4,R1
   \   00000158   401A               SUBS     R0,R0,R1
   \   0000015A   801B               SUBS     R0,R0,R6
   \   0000015C   0899               LDR      R1,[SP, #+32]
   \   0000015E   8842               CMP      R0,R1
   \   00000160   74DA               BGE      ??List_Event_8
   \   00000162   0800               MOVS     R0,R1
   \   00000164   6E21               MOVS     R1,#+110
   \   00000166   891B               SUBS     R1,R1,R6
   \   00000168   8842               CMP      R0,R1
   \   0000016A   6FDA               BGE      ??List_Event_8
   \   0000016C   0FA8               ADD      R0,SP,#+60
   \   0000016E   0078               LDRB     R0,[R0, #+0]
   \   00000170   0028               CMP      R0,#+0
   \   00000172   6BD0               BEQ      ??List_Event_8
   1970          
   1971            //zdarzenie typu down
   1972              if ((X_down>FormStyle) && (X_down<63-FormStyle) && (Y_down>127-(17+(Rows*RowWith))-Y) && (Y_down<127-(17)-Y) && (RowWith))   
   1973              {
   1974                char Y_down_tmp=127-Y_down;
   \   00000174   7F20               MOVS     R0,#+127
   \   00000176   0899               LDR      R1,[SP, #+32]
   \   00000178   471A               SUBS     R7,R0,R1
   \   0000017A   3F06               LSLS     R7,R7,#+24
   \   0000017C   3F0E               LSRS     R7,R7,#+24
   1975                MenuPaint();
                       ^
Warning[Pe223]: function "MenuPaint" declared implicitly
   \   0000017E   ........           BL       MenuPaint
   1976                H_line(2+FormStyle,127-(  (((Y_down_tmp-18-Y) / RowWith)*RowWith)    +18+Y)-1,61-2*FormStyle,1);
   \   00000182   123F               SUBS     R7,R7,#+18
   \   00000184   B81B               SUBS     R0,R7,R6
   \   00000186   0099               LDR      R1,[SP, #+0]
   \   00000188   ........           BL       __aeabi_idivmod
   \   0000018C   0700               MOVS     R7,R0
   \   0000018E   7F20               MOVS     R0,#+127
   \   00000190   0099               LDR      R1,[SP, #+0]
   \   00000192   7943               MULS     R1,R7,R1
   \   00000194   401A               SUBS     R0,R0,R1
   \   00000196   861B               SUBS     R6,R0,R6
   \   00000198   6846               MOV      R0,SP
   \   0000019A   3D21               MOVS     R1,#+61
   \   0000019C   6A00               LSLS     R2,R5,#+1
   \   0000019E   891A               SUBS     R1,R1,R2
   \   000001A0   4172               STRB     R1,[R0, #+9]
   \   000001A2   0123               MOVS     R3,#+1
   \   000001A4   427A               LDRB     R2,[R0, #+9]
   \   000001A6   3100               MOVS     R1,R6
   \   000001A8   1339               SUBS     R1,R1,#+19
   \   000001AA   2800               MOVS     R0,R5
   \   000001AC   801C               ADDS     R0,R0,#+2
   \   000001AE   0006               LSLS     R0,R0,#+24
   \   000001B0   000E               LSRS     R0,R0,#+24
   \   000001B2   ........           BL       H_line
   1977                H_line(2+FormStyle,127-(  (((Y_down_tmp-18-Y) / RowWith)*RowWith)    +18+Y)-(RowWith-1),61-2*FormStyle,1);
   \   000001B6   123E               SUBS     R6,R6,#+18
   \   000001B8   0098               LDR      R0,[SP, #+0]
   \   000001BA   361A               SUBS     R6,R6,R0
   \   000001BC   0123               MOVS     R3,#+1
   \   000001BE   6846               MOV      R0,SP
   \   000001C0   427A               LDRB     R2,[R0, #+9]
   \   000001C2   3100               MOVS     R1,R6
   \   000001C4   491C               ADDS     R1,R1,#+1
   \   000001C6   2800               MOVS     R0,R5
   \   000001C8   801C               ADDS     R0,R0,#+2
   \   000001CA   0006               LSLS     R0,R0,#+24
   \   000001CC   000E               LSRS     R0,R0,#+24
   \   000001CE   ........           BL       H_line
   1978                V_line(1+FormStyle,127-(  (((Y_down_tmp-18-Y) / RowWith)*RowWith)    +18+Y)-(RowWith-1),RowWith-1,1);
   \   000001D2   0123               MOVS     R3,#+1
   \   000001D4   0FA8               ADD      R0,SP,#+60
   \   000001D6   0078               LDRB     R0,[R0, #+0]
   \   000001D8   421E               SUBS     R2,R0,#+1
   \   000001DA   1206               LSLS     R2,R2,#+24
   \   000001DC   120E               LSRS     R2,R2,#+24
   \   000001DE   3100               MOVS     R1,R6
   \   000001E0   491C               ADDS     R1,R1,#+1
   \   000001E2   2800               MOVS     R0,R5
   \   000001E4   401C               ADDS     R0,R0,#+1
   \   000001E6   0006               LSLS     R0,R0,#+24
   \   000001E8   000E               LSRS     R0,R0,#+24
   \   000001EA   ........           BL       V_line
   1979                V_line(61-FormStyle,127-(  (((Y_down_tmp-18-Y) / RowWith)*RowWith)    +18+Y)-(RowWith-2),RowWith-3,1);
   \   000001EE   0123               MOVS     R3,#+1
   \   000001F0   0FA8               ADD      R0,SP,#+60
   \   000001F2   0078               LDRB     R0,[R0, #+0]
   \   000001F4   C21E               SUBS     R2,R0,#+3
   \   000001F6   1206               LSLS     R2,R2,#+24
   \   000001F8   120E               LSRS     R2,R2,#+24
   \   000001FA   B61C               ADDS     R6,R6,#+2
   \   000001FC   3100               MOVS     R1,R6
   \   000001FE   3D20               MOVS     R0,#+61
   \   00000200   401B               SUBS     R0,R0,R5
   \   00000202   0006               LSLS     R0,R0,#+24
   \   00000204   000E               LSRS     R0,R0,#+24
   \   00000206   ........           BL       V_line
   1980                podswietl=1;
   \   0000020A   0122               MOVS     R2,#+1
   \   0000020C   6846               MOV      R0,SP
   \   0000020E   1100               MOVS     R1,R2
   \   00000210   0172               STRB     R1,[R0, #+8]
   1981                DownAction=1;
   1982                
   1983                DownAction=1;
   \   00000212   3F4E               LDR      R6,??List_Event_1  ;; RealRows
   \   00000214   F270               STRB     R2,[R6, #+3]
   1984                AnsDown=((Y_down_tmp-18-Y) / RowWith)+1;
   \   00000216   7F1C               ADDS     R7,R7,#+1
   \   00000218   3F06               LSLS     R7,R7,#+24
   \   0000021A   3F0E               LSRS     R7,R7,#+24
   1985                
   1986                //dzwiêk przyciœniêcia
   1987                    static char LastAnsD=-1;
                                                ^
Warning[Pe068]: integer conversion resulted in a change of sign
   1988                    if ((AnsDown>=0) && (AnsDown!=LastAnsD))
                                       ^
Warning[Pe186]: pointless comparison of unsigned integer with zero
   \   0000021C   3800               MOVS     R0,R7
   \   0000021E   7179               LDRB     R1,[R6, #+5]
   \   00000220   8842               CMP      R0,R1
   \   00000222   0FD0               BEQ      ??List_Event_9
   1989                    {
   1990                      if ((!(AT91C_IFLASH_MEM->Config.SoundOff))) {
   \   00000224   3B48               LDR      R0,??List_Event_1+0x4  ;; 0x13d7e9
   \   00000226   0078               LDRB     R0,[R0, #+0]
   \   00000228   0028               CMP      R0,#+0
   \   0000022A   0BD1               BNE      ??List_Event_9
   1991                          ButtonBipCounter=g_counter+8;
   \   0000022C   3200               MOVS     R2,R6
   \   0000022E   1032               ADDS     R2,R2,#+16
   \   00000230   3948               LDR      R0,??List_Event_1+0x8  ;; g_counter
   \   00000232   03C8               LDM      R0!,{R0,R1}
   \   00000234   0023               MOVS     R3,#+0
   \   00000236   0830               ADDS     R0,R0,#+8
   \   00000238   5941               ADCS     R1,R1,R3
   \   0000023A   03C2               STM      R2!,{R0,R1}
   1992                          AT91C_BASE_PIOA->PIO_SODR =SpeakerPin;
                                                            ^
Warning[Pe068]: integer conversion resulted in a change of sign
   \   0000023C   3748               LDR      R0,??List_Event_1+0xC  ;; 0xfffff430
   \   0000023E   8021               MOVS     R1,#+128
   \   00000240   0906               LSLS     R1,R1,#+24       ;; #-2147483648
   \   00000242   0160               STR      R1,[R0, #+0]
   1993                          
   1994                        } 
   1995                    }
   1996                    LastAnsD=AnsDown;
   \                     ??List_Event_9:
   \   00000244   3800               MOVS     R0,R7
   \   00000246   7071               STRB     R0,[R6, #+5]
   1997                    Xdown=0;
   \   00000248   0020               MOVS     R0,#+0
   \   0000024A   3071               STRB     R0,[R6, #+4]
   1998                
   1999           }
   2000              
   2001          
   2002          
   2003              
   2004              
   2005              
   2006              if ((RowWith) &(X_up>3) && (X_up<59) && (Y_up<127-(  (((Y_up_tmp-18-Y) / RowWith)*RowWith)    +18+Y)-1) && (Y_up>127-(  (((Y_up_tmp-18-Y) / RowWith)*RowWith)    +18+Y)-(RowWith-1)))                        //ustawienia
   \                     ??List_Event_8:
   \   0000024C   0598               LDR      R0,[SP, #+20]
   \   0000024E   0428               CMP      R0,#+4
   \   00000250   01DB               BLT      ??List_Event_10
   \   00000252   0120               MOVS     R0,#+1
   \   00000254   02E0               B        ??List_Event_11
   \                     ??List_Event_10:
   \   00000256   0021               MOVS     R1,#+0
   \   00000258   0120               MOVS     R0,#+1
   \   0000025A   0840               ANDS     R0,R0,R1
   \                     ??List_Event_11:
   \   0000025C   0FA9               ADD      R1,SP,#+60
   \   0000025E   0978               LDRB     R1,[R1, #+0]
   \   00000260   0122               MOVS     R2,#+1
   \   00000262   0A40               ANDS     R2,R2,R1
   \   00000264   0242               TST      R2,R0
   \   00000266   24D0               BEQ      ??List_Event_12
   \   00000268   0598               LDR      R0,[SP, #+20]
   \   0000026A   3B28               CMP      R0,#+59
   \   0000026C   21DA               BGE      ??List_Event_12
   \   0000026E   0800               MOVS     R0,R1
   \   00000270   0090               STR      R0,[SP, #+0]
   \   00000272   11A8               ADD      R0,SP,#+68
   \   00000274   0678               LDRB     R6,[R0, #+0]
   \   00000276   0398               LDR      R0,[SP, #+12]
   \   00000278   0006               LSLS     R0,R0,#+24
   \   0000027A   000E               LSRS     R0,R0,#+24
   \   0000027C   1238               SUBS     R0,R0,#+18
   \   0000027E   801B               SUBS     R0,R0,R6
   \   00000280   ........           BL       __aeabi_idivmod
   \   00000284   0100               MOVS     R1,R0
   \   00000286   7F20               MOVS     R0,#+127
   \   00000288   009A               LDR      R2,[SP, #+0]
   \   0000028A   4A43               MULS     R2,R1,R2
   \   0000028C   801A               SUBS     R0,R0,R2
   \   0000028E   821B               SUBS     R2,R0,R6
   \   00000290   069B               LDR      R3,[SP, #+24]
   \   00000292   1000               MOVS     R0,R2
   \   00000294   1338               SUBS     R0,R0,#+19
   \   00000296   8342               CMP      R3,R0
   \   00000298   0BDA               BGE      ??List_Event_12
   \   0000029A   123A               SUBS     R2,R2,#+18
   \   0000029C   0098               LDR      R0,[SP, #+0]
   \   0000029E   101A               SUBS     R0,R2,R0
   \   000002A0   401C               ADDS     R0,R0,#+1
   \   000002A2   1A00               MOVS     R2,R3
   \   000002A4   9042               CMP      R0,R2
   \   000002A6   04DA               BGE      ??List_Event_12
   2007              {
   2008                ans=RowsPoz+((Y_up_tmp-18-Y) / RowWith)+1;
   \   000002A8   7148               LDR      R0,??List_Event_13  ;; RealRows + 1
   \   000002AA   0078               LDRB     R0,[R0, #+0]
   \   000002AC   4018               ADDS     R0,R0,R1
   \   000002AE   401C               ADDS     R0,R0,#+1
   \   000002B0   0190               STR      R0,[SP, #+4]
   2009               // MenuPaint();
   2010              }
   2011              
   2012              if ((FormStyle==0) && (X_up>46) && (X_up<63) && (Y_up>112-Y) && (Y_up<127-Y))                    //"X"
   \                     ??List_Event_12:
   \   000002B2   002D               CMP      R5,#+0
   \   000002B4   13D1               BNE      ??List_Event_14
   \   000002B6   0598               LDR      R0,[SP, #+20]
   \   000002B8   2F28               CMP      R0,#+47
   \   000002BA   10DB               BLT      ??List_Event_14
   \   000002BC   3F28               CMP      R0,#+63
   \   000002BE   0EDA               BGE      ??List_Event_14
   \   000002C0   11A8               ADD      R0,SP,#+68
   \   000002C2   0678               LDRB     R6,[R0, #+0]
   \   000002C4   7020               MOVS     R0,#+112
   \   000002C6   801B               SUBS     R0,R0,R6
   \   000002C8   0699               LDR      R1,[SP, #+24]
   \   000002CA   8842               CMP      R0,R1
   \   000002CC   07DA               BGE      ??List_Event_14
   \   000002CE   0800               MOVS     R0,R1
   \   000002D0   7F21               MOVS     R1,#+127
   \   000002D2   891B               SUBS     R1,R1,R6
   \   000002D4   8842               CMP      R0,R1
   \   000002D6   02DA               BGE      ??List_Event_14
   2013              {
   2014                ans = -1;
   \   000002D8   0020               MOVS     R0,#+0
   \   000002DA   C043               MVNS     R0,R0            ;; #-1
   \   000002DC   0190               STR      R0,[SP, #+4]
   2015             
   2016              }   
   2017              if ((podswietl==0)) MenuPaint();
                                         ^
Warning[Pe223]: function "MenuPaint" declared implicitly
   \                     ??List_Event_14:
   \   000002DE   6846               MOV      R0,SP
   \   000002E0   007A               LDRB     R0,[R0, #+8]
   \   000002E2   0028               CMP      R0,#+0
   \   000002E4   01D1               BNE      ??List_Event_15
   \   000002E6   ........           BL       MenuPaint
   2018              
   2019              if (ans>RowsPoz+Rows) ans=0;  
   \                     ??List_Event_15:
   \   000002EA   094E               LDR      R6,??List_Event_1  ;; RealRows
   \   000002EC   7078               LDRB     R0,[R6, #+1]
   \   000002EE   0119               ADDS     R1,R0,R4
   \   000002F0   019A               LDR      R2,[SP, #+4]
   \   000002F2   9142               CMP      R1,R2
   \   000002F4   01DA               BGE      ??List_Event_16
   \   000002F6   0021               MOVS     R1,#+0
   \   000002F8   0191               STR      R1,[SP, #+4]
   2020           
   2021          
   2022              if ((AnsDown>0) && (SelectRow!=AnsDown))
   \                     ??List_Event_16:
   \   000002FA   3900               MOVS     R1,R7
   \   000002FC   0906               LSLS     R1,R1,#+24
   \   000002FE   0FD0               BEQ      ??List_Event_17
   \   00000300   B178               LDRB     R1,[R6, #+2]
   \   00000302   3A00               MOVS     R2,R7
   \   00000304   1206               LSLS     R2,R2,#+24
   \   00000306   120E               LSRS     R2,R2,#+24
   \   00000308   9142               CMP      R1,R2
   \   0000030A   09D0               BEQ      ??List_Event_17
   2023              {
   2024                 SelectRow=AnsDown;
   \   0000030C   B770               STRB     R7,[R6, #+2]
   \   0000030E   0CE0               B        ??List_Event_18
   \                     ??List_Event_1:
   \   00000310   ........           DC32     RealRows
   \   00000314   E9D71300           DC32     0x13d7e9
   \   00000318   ........           DC32     g_counter
   \   0000031C   30F4FFFF           DC32     0xfffff430
   2025                  
   2026              }else if (ans<0)
   \                     ??List_Event_17:
   \   00000320   0199               LDR      R1,[SP, #+4]
   \   00000322   0029               CMP      R1,#+0
   \   00000324   01D5               BPL      ??List_Event_18
   2027              {
   2028                SelectRow=0;
   \   00000326   0021               MOVS     R1,#+0
   \   00000328   B170               STRB     R1,[R6, #+2]
   2029              }
   2030              
   2031              char Button1Action=0;
   \                     ??List_Event_18:
   \   0000032A   0025               MOVS     R5,#+0
   2032              char Button2Action=0;
   \   0000032C   2F00               MOVS     R7,R5
   2033              if (RealRows!=Rows) //je¿eli wiêcej pozycji ni¿ na ekranie
   \   0000032E   3178               LDRB     R1,[R6, #+0]
   \   00000330   A142               CMP      R1,R4
   \   00000332   74D0               BEQ      ??List_Event_5
   2034              {
   2035                 char LabelButt1[2], LabelButt2[2];
   2036                 LabelButt1[1]=0; LabelButt2[1]=0;
   \   00000334   6946               MOV      R1,SP
   \   00000336   2A00               MOVS     R2,R5
   \   00000338   4A70               STRB     R2,[R1, #+1]
   \   0000033A   03AA               ADD      R2,SP,#+12
   \   0000033C   2B00               MOVS     R3,R5
   \   0000033E   5370               STRB     R3,[R2, #+1]
   2037                 LabelButt1[0]=30; LabelButt2[0]=31;
   \   00000340   1E23               MOVS     R3,#+30
   \   00000342   0B70               STRB     R3,[R1, #+0]
   \   00000344   1F21               MOVS     R1,#+31
   \   00000346   1170               STRB     R1,[R2, #+0]
   2038                 //LabelButt1 -góra, LabelButt2-dó³
   2039                 if (RowsPoz==0)
   \   00000348   0028               CMP      R0,#+0
   \   0000034A   14D1               BNE      ??List_Event_19
   2040                 {
   2041                    Button2Action=Button(LabelButt2,0,127-(18+(Rows*RowWith))-1-Y-15,64,16); //(etykieta char poz_X , char poz_Y ,char width, char height) 
   \   0000034C   82B0               SUB      SP,SP,#+8
   \   0000034E   1020               MOVS     R0,#+16
   \   00000350   0090               STR      R0,[SP, #+0]
   \   00000352   4023               MOVS     R3,#+64
   \   00000354   6C20               MOVS     R0,#+108
   \   00000356   11A9               ADD      R1,SP,#+68
   \   00000358   0978               LDRB     R1,[R1, #+0]
   \   0000035A   6143               MULS     R1,R4,R1
   \   0000035C   401A               SUBS     R0,R0,R1
   \   0000035E   13A9               ADD      R1,SP,#+76
   \   00000360   0978               LDRB     R1,[R1, #+0]
   \   00000362   421A               SUBS     R2,R0,R1
   \   00000364   0F3A               SUBS     R2,R2,#+15
   \   00000366   1206               LSLS     R2,R2,#+24
   \   00000368   120E               LSRS     R2,R2,#+24
   \   0000036A   2900               MOVS     R1,R5
   \   0000036C   05A8               ADD      R0,SP,#+20
   \   0000036E   ........           BL       Button
   \   00000372   02B0               ADD      SP,SP,#+8
   \   00000374   0700               MOVS     R7,R0
   2042                 } 
   2043                 if ((RowsPoz>0) && (RowsPoz<RealRows-Rows))
   \                     ??List_Event_19:
   \   00000376   7078               LDRB     R0,[R6, #+1]
   \   00000378   0028               CMP      R0,#+0
   \   0000037A   26D0               BEQ      ??List_Event_20
   \   0000037C   3178               LDRB     R1,[R6, #+0]
   \   0000037E   091B               SUBS     R1,R1,R4
   \   00000380   8842               CMP      R0,R1
   \   00000382   22DA               BGE      ??List_Event_20
   2044                 {
   2045                   Button1Action=Button(LabelButt1,0,127-(18+(Rows*RowWith))-1-Y-15,32,16); //(etykieta ,char poz_X , char poz_Y ,char width, char height)
   \   00000384   6C20               MOVS     R0,#+108
   \   00000386   0FA9               ADD      R1,SP,#+60
   \   00000388   0978               LDRB     R1,[R1, #+0]
   \   0000038A   6143               MULS     R1,R4,R1
   \   0000038C   401A               SUBS     R0,R0,R1
   \   0000038E   11A9               ADD      R1,SP,#+68
   \   00000390   0978               LDRB     R1,[R1, #+0]
   \   00000392   471A               SUBS     R7,R0,R1
   \   00000394   0F3F               SUBS     R7,R7,#+15
   \   00000396   82B0               SUB      SP,SP,#+8
   \   00000398   1020               MOVS     R0,#+16
   \   0000039A   0090               STR      R0,[SP, #+0]
   \   0000039C   2023               MOVS     R3,#+32
   \   0000039E   3A00               MOVS     R2,R7
   \   000003A0   1206               LSLS     R2,R2,#+24
   \   000003A2   120E               LSRS     R2,R2,#+24
   \   000003A4   2900               MOVS     R1,R5
   \   000003A6   02A8               ADD      R0,SP,#+8
   \   000003A8   ........           BL       Button
   \   000003AC   02B0               ADD      SP,SP,#+8
   \   000003AE   0500               MOVS     R5,R0
   2046                   Button2Action=Button(LabelButt2,32,127-(18+(Rows*RowWith))-1-Y-15,32,16); //(etykieta char poz_X , char poz_Y ,char width, char height) 
   \   000003B0   82B0               SUB      SP,SP,#+8
   \   000003B2   1020               MOVS     R0,#+16
   \   000003B4   0090               STR      R0,[SP, #+0]
   \   000003B6   2023               MOVS     R3,#+32
   \   000003B8   3A00               MOVS     R2,R7
   \   000003BA   1206               LSLS     R2,R2,#+24
   \   000003BC   120E               LSRS     R2,R2,#+24
   \   000003BE   1900               MOVS     R1,R3
   \   000003C0   05A8               ADD      R0,SP,#+20
   \   000003C2   ........           BL       Button
   \   000003C6   02B0               ADD      SP,SP,#+8
   \   000003C8   0700               MOVS     R7,R0
   2047                 }
   2048                 if ((RowsPoz>0) && (RowsPoz>=RealRows-Rows))
   \                     ??List_Event_20:
   \   000003CA   7078               LDRB     R0,[R6, #+1]
   \   000003CC   0028               CMP      R0,#+0
   \   000003CE   18D0               BEQ      ??List_Event_21
   \   000003D0   3178               LDRB     R1,[R6, #+0]
   \   000003D2   091B               SUBS     R1,R1,R4
   \   000003D4   8842               CMP      R0,R1
   \   000003D6   14DB               BLT      ??List_Event_21
   2049                 {
   2050                   Button1Action=Button(LabelButt1,0,127-(18+(Rows*RowWith))-1-Y-15,64,16); //(etykieta ,char poz_X , char poz_Y ,char width, char height)
   \   000003D8   82B0               SUB      SP,SP,#+8
   \   000003DA   1020               MOVS     R0,#+16
   \   000003DC   0090               STR      R0,[SP, #+0]
   \   000003DE   4023               MOVS     R3,#+64
   \   000003E0   6C20               MOVS     R0,#+108
   \   000003E2   11A9               ADD      R1,SP,#+68
   \   000003E4   0978               LDRB     R1,[R1, #+0]
   \   000003E6   4C43               MULS     R4,R1,R4
   \   000003E8   001B               SUBS     R0,R0,R4
   \   000003EA   13A9               ADD      R1,SP,#+76
   \   000003EC   0978               LDRB     R1,[R1, #+0]
   \   000003EE   421A               SUBS     R2,R0,R1
   \   000003F0   0F3A               SUBS     R2,R2,#+15
   \   000003F2   1206               LSLS     R2,R2,#+24
   \   000003F4   120E               LSRS     R2,R2,#+24
   \   000003F6   0021               MOVS     R1,#+0
   \   000003F8   02A8               ADD      R0,SP,#+8
   \   000003FA   ........           BL       Button
   \   000003FE   02B0               ADD      SP,SP,#+8
   \   00000400   0500               MOVS     R5,R0
   2051                 }
   2052              
   2053                 if (Button1Action==1) {RowsPoz--;  MenuPaint(); }
   \                     ??List_Event_21:
   \   00000402   012D               CMP      R5,#+1
   \   00000404   04D1               BNE      ??List_Event_22
   \   00000406   7078               LDRB     R0,[R6, #+1]
   \   00000408   401E               SUBS     R0,R0,#+1
   \   0000040A   7070               STRB     R0,[R6, #+1]
   \   0000040C   ........           BL       MenuPaint
   2054                 if (Button2Action==1) {RowsPoz++;  MenuPaint(); }
   \                     ??List_Event_22:
   \   00000410   012F               CMP      R7,#+1
   \   00000412   04D1               BNE      ??List_Event_5
   \   00000414   7078               LDRB     R0,[R6, #+1]
   \   00000416   401C               ADDS     R0,R0,#+1
   \   00000418   7070               STRB     R0,[R6, #+1]
   \   0000041A   ........           BL       MenuPaint
   2055              }
   2056              
   2057              }
   2058              
   2059             // if (ans>0) RowsPoz=0;
   2060              static char LastAns=-1;
                                         ^
Warning[Pe068]: integer conversion resulted in a change of sign
   2061              if ((ans>=0) && (ans!=LastAns))
   \                     ??List_Event_5:
   \   0000041E   0198               LDR      R0,[SP, #+4]
   \   00000420   0028               CMP      R0,#+0
   \   00000422   14D4               BMI      ??List_Event_23
   \   00000424   134E               LDR      R6,??List_Event_13+0x4  ;; RealRows
   \   00000426   B179               LDRB     R1,[R6, #+6]
   \   00000428   8842               CMP      R0,R1
   \   0000042A   10D0               BEQ      ??List_Event_23
   2062              {
   2063                Xdown=0;
   \   0000042C   0020               MOVS     R0,#+0
   \   0000042E   3071               STRB     R0,[R6, #+4]
   2064                if ((!(AT91C_IFLASH_MEM->Config.SoundOff))) {
   \   00000430   1148               LDR      R0,??List_Event_13+0x8  ;; 0x13d7e9
   \   00000432   0078               LDRB     R0,[R0, #+0]
   \   00000434   0028               CMP      R0,#+0
   \   00000436   0AD1               BNE      ??List_Event_23
   2065                  ButtonBipCounter=g_counter+8;
   \   00000438   1036               ADDS     R6,R6,#+16
   \   0000043A   1048               LDR      R0,??List_Event_13+0xC  ;; g_counter
   \   0000043C   03C8               LDM      R0!,{R0,R1}
   \   0000043E   0022               MOVS     R2,#+0
   \   00000440   0830               ADDS     R0,R0,#+8
   \   00000442   5141               ADCS     R1,R1,R2
   \   00000444   03C6               STM      R6!,{R0,R1}
   2066                    AT91C_BASE_PIOA->PIO_SODR =SpeakerPin;
                                                      ^
Warning[Pe068]: integer conversion resulted in a change of sign

     static char DownAction=0;
                 ^
"D:\Zeuron\Projekty\S300\S300-program v0.9 - 23.10.2012\Framework\lcd.c",1924  Warning[Pe550]: 
          variable "DownAction" was set but never used
   \   00000446   0E48               LDR      R0,??List_Event_13+0x10  ;; 0xfffff430
   \   00000448   8021               MOVS     R1,#+128
   \   0000044A   0906               LSLS     R1,R1,#+24       ;; #-2147483648
   \   0000044C   0160               STR      R1,[R0, #+0]
   2067                  } 
   2068              }
   2069              
   2070              if ((X_up>0)|| (Y_up>0)) Xdown=0;
   \                     ??List_Event_23:
   \   0000044E   0598               LDR      R0,[SP, #+20]
   \   00000450   0128               CMP      R0,#+1
   \   00000452   02DA               BGE      ??List_Event_24
   \   00000454   0698               LDR      R0,[SP, #+24]
   \   00000456   0128               CMP      R0,#+1
   \   00000458   02DB               BLT      ??List_Event_25
   \                     ??List_Event_24:
   \   0000045A   0A48               LDR      R0,??List_Event_13+0x14  ;; RealRows + 4
   \   0000045C   0021               MOVS     R1,#+0
   \   0000045E   0170               STRB     R1,[R0, #+0]
   2071              LastAns=ans;
   \                     ??List_Event_25:
   \   00000460   0948               LDR      R0,??List_Event_13+0x18  ;; RealRows + 6
   \   00000462   0199               LDR      R1,[SP, #+4]
   \   00000464   0170               STRB     R1,[R0, #+0]
   2072              return ans;
   \   00000466   0198               LDR      R0,[SP, #+4]
   \   00000468   09B0               ADD      SP,SP,#+36
   \   0000046A   F0BC               POP      {R4-R7}
   \   0000046C   02BC               POP      {R1}
   \   0000046E   0847               BX       R1               ;; return
   \                     ??List_Event_13:
   \   00000470   ........           DC32     RealRows + 1
   \   00000474   ........           DC32     RealRows
   \   00000478   E9D71300           DC32     0x13d7e9
   \   0000047C   ........           DC32     g_counter
   \   00000480   30F4FFFF           DC32     0xfffff430
   \   00000484   ........           DC32     RealRows + 4
   \   00000488   ........           DC32     RealRows + 6
   2073            
   2074              
   2075              
   2076          }//_______________________ Koniec funkcji List_Event __________________________
   2077          
   2078          
   2079          
   2080          
   2081          //*-----------------------------------------------------------------------------
   2082          //* Nazwa funkcji :    ScrollList_Paint
   2083          //* Funkcja rysowania listy
   2084          //*-----------------------------------------------------------------------------
   2085          //* name[7]   -  Nazwa listy
   2086          //* Size_scroll  -  wielkosc listy
   2087          //* poz   -1 -  poziome linie rozdzielaj¹ce
   2088          
   2089          //*-----------------------------------------------------------------------------
   2090          

   \                                 In section Debug.txt, align 4, keep-with-next
   2091          void ScrollList_Paint(char name[15], int Size_scroll, int *_Suw_poz, char poz)
   2092              {
   \                     ScrollList_Paint:
   \   00000000   F5B5               PUSH     {R0,R2,R4-R7,LR}
   \   00000002   324C               LDR      R4,??ScrollList_Paint_0  ;; 0xfffffbec
   \   00000004   A544               ADD      SP,SP,R4
   \   00000006   0D00               MOVS     R5,R1
   \   00000008   1E00               MOVS     R6,R3
   2093          
   2094                 char ekran_tab[8][128] = {
   2095                            {254,1,1,1,1,1,1,1,1,1,1,1,1,1,1,1,1,1,1,1,1,1,1,1,1,1,1,1,1,1,1,1,1,1,1,1,1,1,1,1,1,1,1,1,1,1,1,1,1,1,1,1,1,1,1,1,1,1,1,1,1,1,1,1,1,1,1,1,1,1,1,1,1,1,1,1,1,1,1,1,1,1,1,1,1,1,1,1,1,1,1,1,1,1,1,1,1,1,1,1,1,1,1,1,1,1,1,1,1,1,1,1,1,1,255,3,253,245,237,221,61,61,221,237,245,253,3,254},
   2096                            {255,0,0,0,0,0,0,0,0,0,0,0,0,0,0,0,0,0,0,0,0,0,0,0,0,0,0,0,0,0,0,0,0,0,0,0,0,0,0,0,0,0,0,0,0,0,0,0,0,0,0,0,0,0,0,0,0,0,0,0,0,0,0,0,0,0,0,0,0,0,0,0,0,0,0,0,0,0,0,0,0,0,0,0,0,0,0,0,0,0,0,0,0,0,0,0,0,0,0,0,0,0,0,0,0,0,0,0,0,0,0,0,0,0,255,240,239,235,237,238,239,239,238,237,235,239,240,255},
   2097                            {255,0,0,0,0,0,0,0,0,0,0,0,0,0,0,0,0,0,0,0,0,0,0,0,0,0,0,0,0,0,0,0,0,0,0,0,0,0,0,0,0,0,0,0,0,0,0,0,0,0,0,0,0,0,0,0,0,0,0,0,0,0,0,0,0,0,0,0,0,0,0,0,0,0,0,0,0,0,0,0,0,0,0,0,0,0,0,0,0,0,0,0,0,0,0,0,0,0,0,0,0,0,0,0,0,0,0,0,0,0,0,0,0,0,255,255,255,255,255,255,255,255,255,255,255,255,255,255},
   2098                            {255,0,0,0,0,0,0,0,0,0,0,0,0,0,0,0,0,0,0,0,0,0,0,0,0,0,0,0,0,0,0,0,0,0,0,0,0,0,0,0,0,0,0,0,0,0,0,0,0,0,0,0,0,0,0,0,0,0,0,0,0,0,0,0,0,0,0,0,0,0,0,0,0,0,0,0,0,0,0,0,0,0,0,0,0,0,0,0,0,0,0,0,0,0,0,0,0,0,0,0,0,0,0,0,0,0,0,0,0,0,0,0,0,0,255,255,255,255,255,255,255,255,255,255,255,255,255,255},
   2099                            {255,0,0,0,0,0,0,0,0,0,0,0,0,0,0,0,0,0,0,0,0,0,0,0,0,0,0,0,0,0,0,0,0,0,0,0,0,0,0,0,0,0,0,0,0,0,0,0,0,0,0,0,0,0,0,0,0,0,0,0,0,0,0,0,0,0,0,0,0,0,0,0,0,0,0,0,0,0,0,0,0,0,0,0,0,0,0,0,0,0,0,0,0,0,0,0,0,0,0,0,0,0,0,0,0,0,0,0,0,0,0,0,0,0,255,255,255,255,255,255,255,255,255,255,255,255,255,255},
   2100                            {255,0,0,0,0,0,0,0,0,0,0,0,0,0,0,0,0,0,0,0,0,0,0,0,0,0,0,0,0,0,0,0,0,0,0,0,0,0,0,0,0,0,0,0,0,0,0,0,0,0,0,0,0,0,0,0,0,0,0,0,0,0,0,0,0,0,0,0,0,0,0,0,0,0,0,0,0,0,0,0,0,0,0,0,0,0,0,0,0,0,0,0,0,0,0,0,0,0,0,0,0,0,0,0,0,0,0,0,0,0,0,0,0,0,255,255,255,255,255,255,255,255,255,255,255,255,255,255},
   2101                            {255,96,32,32,32,32,32,32,32,32,32,32,32,32,32,32,224,96,160,96,160,96,160,96,160,96,160,96,160,96,160,96,160,96,160,96,160,96,160,96,160,96,160,96,160,96,160,96,160,96,160,96,160,96,160,96,160,96,160,96,160,96,160,96,160,96,160,96,160,96,160,96,160,96,160,96,160,96,160,96,160,96,160,96,160,96,160,96,160,96,160,96,160,96,160,96,160,96,224,32,32,32,32,32,32,32,32,32,32,32,32,32,32,96,255,255,255,255,255,255,255,255,255,255,255,255,255,255},
   2102                            {127,192,128,128,128,128,132,142,159,155,128,128,128,128,128,128,255,213,170,213,170,213,170,213,170,213,170,213,170,213,170,213,170,213,170,213,170,213,170,213,170,213,170,213,170,213,170,213,170,213,170,213,170,213,170,213,170,213,170,213,170,213,170,213,170,213,170,213,170,213,170,213,170,213,170,213,170,213,170,213,170,213,170,213,170,213,170,213,170,213,170,213,170,213,170,213,170,213,255,128,128,128,128,155,159,142,132,128,128,128,128,128,128,192,255,255,255,255,255,255,255,255,255,255,255,255,127,63},
   2103                            };
   \   0000000A   314F               LDR      R7,??ScrollList_Paint_0+0x4  ;; `?<Constant {{254, 1, 1, 1, 1, 1, 1, 1, 1, 1, 1`
   \   0000000C   04A8               ADD      R0,SP,#+16
   \   0000000E   3900               MOVS     R1,R7
   \   00000010   8022               MOVS     R2,#+128
   \   00000012   D200               LSLS     R2,R2,#+3        ;; #+1024
   \   00000014   ........           BL       __aeabi_memcpy4
   2104               
   2105                 
   2106                  char suwak[14] = {128,255,255,255,255,224,238,238,224,255,255,255,255,128};
   \   00000018   6846               MOV      R0,SP
   \   0000001A   8021               MOVS     R1,#+128
   \   0000001C   C900               LSLS     R1,R1,#+3        ;; #+1024
   \   0000001E   7918               ADDS     R1,R7,R1
   \   00000020   1022               MOVS     R2,#+16
   \   00000022   ........           BL       __aeabi_memcpy4
   2107                  
   2108                  int Suw_poz_tmp;
   2109                  //rysowanie wskaŸnika po³o¿enia
   2110                  if (Size_scroll>50)
   \   00000026   332D               CMP      R5,#+51
   \   00000028   18DB               BLT      ??ScrollList_Paint_1
   2111                  {
   2112                      Suw_poz_tmp=98-(((*_Suw_poz)*67)/Size_scroll)-14;
   \   0000002A   5424               MOVS     R4,#+84
   \   0000002C   FFA8               ADD      R0,SP,#+1020
   \   0000002E   C069               LDR      R0,[R0, #+28]
   \   00000030   0068               LDR      R0,[R0, #+0]
   \   00000032   4321               MOVS     R1,#+67
   \   00000034   4843               MULS     R0,R1,R0
   \   00000036   2900               MOVS     R1,R5
   \   00000038   ........           BL       __aeabi_idivmod
   \   0000003C   241A               SUBS     R4,R4,R0
   2113              
   2114                      for (int i=(Suw_poz_tmp); i<=Suw_poz_tmp+13; i++)
   \   0000003E   2000               MOVS     R0,R4
   \   00000040   6F46               MOV      R7,SP
   \   00000042   07E0               B        ??ScrollList_Paint_2
   2115                      {
   2116                        ekran_tab[7][i]=suwak[i-Suw_poz_tmp];
   \                     ??ScrollList_Paint_3:
   \   00000044   E021               MOVS     R1,#+224
   \   00000046   8900               LSLS     R1,R1,#+2        ;; #+896
   \   00000048   04AA               ADD      R2,SP,#+16
   \   0000004A   1218               ADDS     R2,R2,R0
   \   0000004C   031B               SUBS     R3,R0,R4
   \   0000004E   FB5C               LDRB     R3,[R7, R3]
   \   00000050   5354               STRB     R3,[R2, R1]
   2117                      }
   \   00000052   401C               ADDS     R0,R0,#+1
   \                     ??ScrollList_Paint_2:
   \   00000054   2100               MOVS     R1,R4
   \   00000056   0D31               ADDS     R1,R1,#+13
   \   00000058   8142               CMP      R1,R0
   \   0000005A   F3DA               BGE      ??ScrollList_Paint_3
   2118                  }
   2119                  
   2120                  CopyToCanvas(ekran_tab);
   \                     ??ScrollList_Paint_1:
   \   0000005C   04A8               ADD      R0,SP,#+16
   \   0000005E   ........           BL       CopyToCanvas
   2121                  
   2122                  Label(name,0,15,116,15,46,0,127,1);  //(char *Vstring, char alig, char X, int Y, char maxChar, char clean, char minY, char maxY, char negatyw) 
   \   00000062   82B0               SUB      SP,SP,#+8
   \   00000064   0120               MOVS     R0,#+1
   \   00000066   0090               STR      R0,[SP, #+0]
   \   00000068   7F21               MOVS     R1,#+127
   \   0000006A   0020               MOVS     R0,#+0
   \   0000006C   03B4               PUSH     {R0,R1}
   \   0000006E   2E21               MOVS     R1,#+46
   \   00000070   0F20               MOVS     R0,#+15
   \   00000072   03B4               PUSH     {R0,R1}
   \   00000074   7423               MOVS     R3,#+116
   \   00000076   0200               MOVS     R2,R0
   \   00000078   0021               MOVS     R1,#+0
   \   0000007A   FFA8               ADD      R0,SP,#+1020
   \   0000007C   006B               LDR      R0,[R0, #+48]
   \   0000007E   ........           BL       Label
   \   00000082   06B0               ADD      SP,SP,#+24
   2123                  if ((poz) && (Size_scroll>50))
   \   00000084   002E               CMP      R6,#+0
   \   00000086   1BD0               BEQ      ??ScrollList_Paint_4
   \   00000088   332D               CMP      R5,#+51
   \   0000008A   19DB               BLT      ??ScrollList_Paint_4
   2124                  {
   2125                    H_line(54,Suw_poz_tmp,9,0);
   \   0000008C   0023               MOVS     R3,#+0
   \   0000008E   0922               MOVS     R2,#+9
   \   00000090   2100               MOVS     R1,R4
   \   00000092   3620               MOVS     R0,#+54
   \   00000094   ........           BL       H_line
   2126                    H_line(54,Suw_poz_tmp+13,9,0);
   \   00000098   0023               MOVS     R3,#+0
   \   0000009A   0922               MOVS     R2,#+9
   \   0000009C   2100               MOVS     R1,R4
   \   0000009E   0D31               ADDS     R1,R1,#+13
   \   000000A0   3620               MOVS     R0,#+54
   \   000000A2   ........           BL       H_line
   2127                    V_line(54,Suw_poz_tmp+1,12,1); 
   \   000000A6   641C               ADDS     R4,R4,#+1
   \   000000A8   0123               MOVS     R3,#+1
   \   000000AA   0C22               MOVS     R2,#+12
   \   000000AC   2100               MOVS     R1,R4
   \   000000AE   3620               MOVS     R0,#+54
   \   000000B0   ........           BL       V_line
   2128                    V_line(55,Suw_poz_tmp+1,12,1); 
   \   000000B4   0123               MOVS     R3,#+1
   \   000000B6   0C22               MOVS     R2,#+12
   \   000000B8   2100               MOVS     R1,R4
   \   000000BA   3720               MOVS     R0,#+55
   \   000000BC   ........           BL       V_line
   2129                  }
   2130              
   2131              }//_________________________________________________________________________
   \                     ??ScrollList_Paint_4:
   \   000000C0   0448               LDR      R0,??ScrollList_Paint_0+0x8  ;; 0x41c
   \   000000C2   8544               ADD      SP,SP,R0
   \   000000C4   F0BC               POP      {R4-R7}
   \   000000C6   01BC               POP      {R0}
   \   000000C8   0047               BX       R0               ;; return
   \   000000CA   C046               Nop      
   \                     ??ScrollList_Paint_0:
   \   000000CC   ECFBFFFF           DC32     0xfffffbec
   \   000000D0   ........           DC32     `?<Constant {{254, 1, 1, 1, 1, 1, 1, 1, 1, 1, 1`
   \   000000D4   1C040000           DC32     0x41c
   2132          
   2133          
   2134          
   2135          
   2136          
   2137          //*-----------------------------------------------------------------------------
   2138          //* Nazwa funkcji :    Ask_Paint
   2139          //* Funkcja rysowania listy
   2140          //*-----------------------------------------------------------------------------
   2141          //* name[7]   -  Nazwa listy
   2142          //* p1...p2   - nazwy kolejnych pól
   2143          //*-----------------------------------------------------------------------------

   \                                 In section Debug.txt, align 4, keep-with-next
   2144          void Ask_Paint(char name[10], char p1[15], char p2[15])
   2145          {
   \                     Ask_Paint:
   \   00000000   F0B5               PUSH     {R4-R7,LR}
   \   00000002   9FB0               SUB      SP,SP,#+124
   \   00000004   0700               MOVS     R7,R0
   \   00000006   0C00               MOVS     R4,R1
   \   00000008   1500               MOVS     R5,R2
   2146          
   2147          
   2148              List_Paint(name,1,47,25,0,3," "); //(char name[7], char Rows, char RowWith, char Y, char FormStyle, char back, char p1[12], char p2[12] , char p3[12] , char p4[12] , char p5[12] , char p6[12] , char p7[12] , char p8[12])
   \   0000000A   2CA6               ADR      R6,??Ask_Paint_0  ;; 0x20, 0x00, 0x00, 0x00
   \   0000000C   82B0               SUB      SP,SP,#+8
   \   0000000E   0096               STR      R6,[SP, #+0]
   \   00000010   0321               MOVS     R1,#+3
   \   00000012   0020               MOVS     R0,#+0
   \   00000014   03B4               PUSH     {R0,R1}
   \   00000016   1923               MOVS     R3,#+25
   \   00000018   2F22               MOVS     R2,#+47
   \   0000001A   0121               MOVS     R1,#+1
   \   0000001C   3800               MOVS     R0,R7
   \   0000001E   ........           BL       List_Paint
   \   00000022   04B0               ADD      SP,SP,#+16
   2149                 
   2150              
   2151             if (p1!="") Label(p1,2,2,71,15,59,0,127,0);  //(char *Vstring, char alig, char X, int Y, char maxChar, char clean, char minY, char maxY, char negatyw) 
   \   00000024   26A7               ADR      R7,??Ask_Paint_0+0x4  ;; 0x00, 0x00, 0x00, 0x00
   \   00000026   BC42               CMP      R4,R7
   \   00000028   0ED0               BEQ      ??Ask_Paint_1
   \   0000002A   82B0               SUB      SP,SP,#+8
   \   0000002C   0020               MOVS     R0,#+0
   \   0000002E   0090               STR      R0,[SP, #+0]
   \   00000030   7F21               MOVS     R1,#+127
   \   00000032   03B4               PUSH     {R0,R1}
   \   00000034   3B21               MOVS     R1,#+59
   \   00000036   0F20               MOVS     R0,#+15
   \   00000038   03B4               PUSH     {R0,R1}
   \   0000003A   4723               MOVS     R3,#+71
   \   0000003C   0222               MOVS     R2,#+2
   \   0000003E   1100               MOVS     R1,R2
   \   00000040   2000               MOVS     R0,R4
   \   00000042   ........           BL       Label
   \   00000046   06B0               ADD      SP,SP,#+24
   2152             if (p2!="")  Label(p2,2,2,62,15,59,0,127,0);  //(char *Vstring, char alig, char X, int Y, char maxChar, char clean, char minY, char maxY, char negatyw) 
   \                     ??Ask_Paint_1:
   \   00000048   BD42               CMP      R5,R7
   \   0000004A   0ED0               BEQ      ??Ask_Paint_2
   \   0000004C   82B0               SUB      SP,SP,#+8
   \   0000004E   0020               MOVS     R0,#+0
   \   00000050   0090               STR      R0,[SP, #+0]
   \   00000052   7F21               MOVS     R1,#+127
   \   00000054   03B4               PUSH     {R0,R1}
   \   00000056   3B21               MOVS     R1,#+59
   \   00000058   0F20               MOVS     R0,#+15
   \   0000005A   03B4               PUSH     {R0,R1}
   \   0000005C   3E23               MOVS     R3,#+62
   \   0000005E   0222               MOVS     R2,#+2
   \   00000060   1100               MOVS     R1,R2
   \   00000062   2800               MOVS     R0,R5
   \   00000064   ........           BL       Label
   \   00000068   06B0               ADD      SP,SP,#+24
   2153              Label(" ",2,2,53,15,59,0,127,0);  //(char *Vstring, char alig, char X, int Y, char maxChar, char clean, char minY, char maxY, char negatyw) 
   \                     ??Ask_Paint_2:
   \   0000006A   82B0               SUB      SP,SP,#+8
   \   0000006C   0020               MOVS     R0,#+0
   \   0000006E   0090               STR      R0,[SP, #+0]
   \   00000070   7F21               MOVS     R1,#+127
   \   00000072   03B4               PUSH     {R0,R1}
   \   00000074   3B21               MOVS     R1,#+59
   \   00000076   0F20               MOVS     R0,#+15
   \   00000078   03B4               PUSH     {R0,R1}
   \   0000007A   3523               MOVS     R3,#+53
   \   0000007C   0222               MOVS     R2,#+2
   \   0000007E   1100               MOVS     R1,R2
   \   00000080   3000               MOVS     R0,R6
   \   00000082   ........           BL       Label
   \   00000086   06B0               ADD      SP,SP,#+24
   2154          
   2155          
   2156              
   2157              char ekran_tab[8][15] = {
   2158                            {249,13,245,245,245,245,245,245,245,245,245,245,245,13,249},
   2159                            {255,0,255,255,119,55,55,87,103,103,119,255,255,0,255},
   2160                            {255,0,255,255,199,187,187,187,187,187,199,255,255,0,255},
   2161                            {63,96,95,95,95,95,95,95,95,95,95,95,95,96,63},
   2162                            {254,3,253,253,253,253,253,253,253,253,253,253,253,3,254},
   2163                            {255,0,255,255,227,221,221,221,221,221,227,255,255,0,255},
   2164                            {255,0,255,255,238,246,250,252,250,246,238,255,255,0,255},
   2165                            {207,216,215,215,215,215,215,215,215,215,215,215,215,216,207},
   2166                            };
   \   00000088   6846               MOV      R0,SP
   \   0000008A   0E49               LDR      R1,??Ask_Paint_0+0x8  ;; `?<Constant {{249, 13, 245, 245, 245, 245, 245,`
   \   0000008C   7822               MOVS     R2,#+120
   \   0000008E   ........           BL       __aeabi_memcpy4
   2167              
   2168              CopyToCanvasPoint((char *)ekran_tab,0,40,64,15); 
   \   00000092   82B0               SUB      SP,SP,#+8
   \   00000094   0F20               MOVS     R0,#+15
   \   00000096   0090               STR      R0,[SP, #+0]
   \   00000098   4023               MOVS     R3,#+64
   \   0000009A   2822               MOVS     R2,#+40
   \   0000009C   0021               MOVS     R1,#+0
   \   0000009E   02A8               ADD      R0,SP,#+8
   \   000000A0   ........           BL       CopyToCanvasPoint
   \   000000A4   02B0               ADD      SP,SP,#+8
   2169              H_line(2,57,59,1); 
   \   000000A6   0123               MOVS     R3,#+1
   \   000000A8   3B22               MOVS     R2,#+59
   \   000000AA   3921               MOVS     R1,#+57
   \   000000AC   0220               MOVS     R0,#+2
   \   000000AE   ........           BL       H_line
   2170              
   2171              
   2172          }//_______________________ Koniec funkcji Ask_Paint __________________________
   \   000000B2   1FB0               ADD      SP,SP,#+124
   \   000000B4   F0BC               POP      {R4-R7}
   \   000000B6   01BC               POP      {R0}
   \   000000B8   0047               BX       R0               ;; return
   \   000000BA   C046               Nop      
   \                     ??Ask_Paint_0:
   \   000000BC   20000000           DC8      0x20, 0x00, 0x00, 0x00
   \   000000C0   00000000           DC8      0x00, 0x00, 0x00, 0x00
   \   000000C4   ........           DC32     `?<Constant {{249, 13, 245, 245, 245, 245, 245,`
   2173          
   2174          
   2175          
   2176          
   2177          //*-----------------------------------------------------------------------------
   2178          //* Nazwa funkcji :    List_Event
   2179          //* Funkcja rysowania listy
   2180          //*-----------------------------------------------------------------------------
   2181          //* name[7]   -  Nazwa listy
   2182          //* Rows      -  ilosc wierszy
   2183          //* RowWith   -  szerokosc wiersza
   2184          //* Y         -  odsuniecie od górnej krawêdzi
   2185          //* p1...p8   - nazwy kolejnych pól
   2186          //*-----------------------------------------------------------------------------

   \                                 In section Debug.txt, align 4, keep-with-next
   2187          int Ask_Event(int X_up, int Y_up, int X_down, int Y_down)
   2188          {
   \                     Ask_Event:
   \   00000000   F7B5               PUSH     {R0-R2,R4-R7,LR}
   \   00000002   1D00               MOVS     R5,R3
   \   00000004   0024               MOVS     R4,#+0
   2189            char Y=25;
   2190            
   2191            char podswietl=0;
                        ^
Warning[Pe550]: variable "podswietl" was set but never used
   2192            int ans = 0;
   2193            
   2194          
   2195          
   2196          
   2197            
   2198            //zdarzenie typu down 
   2199              for (char i=0; i<=30; i=i+30)
   \   00000006   2600               MOVS     R6,R4
   \   00000008   33E0               B        ??Ask_Event_0
   2200              {
   2201            
   2202                  if ((X_down>2+i) && (X_down<51+i) &&  (Y_down>38) && (Y_down<55))   
   \                     ??Ask_Event_1:
   \   0000000A   0100               MOVS     R1,R0
   \   0000000C   891C               ADDS     R1,R1,#+2
   \   0000000E   029A               LDR      R2,[SP, #+8]
   \   00000010   9142               CMP      R1,R2
   \   00000012   2BDA               BGE      ??Ask_Event_2
   \   00000014   1100               MOVS     R1,R2
   \   00000016   3330               ADDS     R0,R0,#+51
   \   00000018   8142               CMP      R1,R0
   \   0000001A   27DA               BGE      ??Ask_Event_2
   \   0000001C   272D               CMP      R5,#+39
   \   0000001E   25DB               BLT      ??Ask_Event_2
   \   00000020   372D               CMP      R5,#+55
   \   00000022   23DA               BGE      ??Ask_Event_2
   2203                  {  
   2204                    //MenuPaint();
   2205                    H_line(4+i,41,26,1);
   \   00000024   3700               MOVS     R7,R6
   \   00000026   3F1D               ADDS     R7,R7,#+4
   \   00000028   0123               MOVS     R3,#+1
   \   0000002A   1A22               MOVS     R2,#+26
   \   0000002C   2921               MOVS     R1,#+41
   \   0000002E   3800               MOVS     R0,R7
   \   00000030   0006               LSLS     R0,R0,#+24
   \   00000032   000E               LSRS     R0,R0,#+24
   \   00000034   ........           BL       H_line
   2206                    H_line(4+i,53,26,1);
   \   00000038   0123               MOVS     R3,#+1
   \   0000003A   1A22               MOVS     R2,#+26
   \   0000003C   3521               MOVS     R1,#+53
   \   0000003E   3800               MOVS     R0,R7
   \   00000040   0006               LSLS     R0,R0,#+24
   \   00000042   000E               LSRS     R0,R0,#+24
   \   00000044   ........           BL       H_line
   2207                    V_line(3+i,41,12,1);
   \   00000048   0123               MOVS     R3,#+1
   \   0000004A   0C22               MOVS     R2,#+12
   \   0000004C   2921               MOVS     R1,#+41
   \   0000004E   3000               MOVS     R0,R6
   \   00000050   C01C               ADDS     R0,R0,#+3
   \   00000052   0006               LSLS     R0,R0,#+24
   \   00000054   000E               LSRS     R0,R0,#+24
   \   00000056   ........           BL       V_line
   2208                    V_line(29+i,42,13,1);
   \   0000005A   0123               MOVS     R3,#+1
   \   0000005C   0D22               MOVS     R2,#+13
   \   0000005E   2A21               MOVS     R1,#+42
   \   00000060   3000               MOVS     R0,R6
   \   00000062   1D30               ADDS     R0,R0,#+29
   \   00000064   0006               LSLS     R0,R0,#+24
   \   00000066   000E               LSRS     R0,R0,#+24
   \   00000068   ........           BL       V_line
   2209                    podswietl=1;
   2210                  }
   2211              }
   \                     ??Ask_Event_2:
   \   0000006C   1E36               ADDS     R6,R6,#+30
   \   0000006E   3606               LSLS     R6,R6,#+24
   \   00000070   360E               LSRS     R6,R6,#+24
   \                     ??Ask_Event_0:
   \   00000072   3000               MOVS     R0,R6
   \   00000074   1F28               CMP      R0,#+31
   \   00000076   C8D3               BCC      ??Ask_Event_1
   2212          
   2213           
   2214            //zdarzenie typu down "X"
   2215              if ((X_down>46) && (X_down<63) && (Y_down>112-Y) && (Y_down<127-Y))    //"X"
   \   00000078   0298               LDR      R0,[SP, #+8]
   \   0000007A   2F28               CMP      R0,#+47
   \   0000007C   1DDB               BLT      ??Ask_Event_3
   \   0000007E   3F28               CMP      R0,#+63
   \   00000080   1BDA               BGE      ??Ask_Event_3
   \   00000082   582D               CMP      R5,#+88
   \   00000084   19DB               BLT      ??Ask_Event_3
   \   00000086   662D               CMP      R5,#+102
   \   00000088   17DA               BGE      ??Ask_Event_3
   2216              {
   2217                //MenuPaint();
   2218                H_line(49,114-Y,10,0);
   \   0000008A   2300               MOVS     R3,R4
   \   0000008C   0A22               MOVS     R2,#+10
   \   0000008E   5921               MOVS     R1,#+89
   \   00000090   3120               MOVS     R0,#+49
   \   00000092   ........           BL       H_line
   2219                H_line(49,123-Y,10,0); 
   \   00000096   2300               MOVS     R3,R4
   \   00000098   0A22               MOVS     R2,#+10
   \   0000009A   6221               MOVS     R1,#+98
   \   0000009C   3120               MOVS     R0,#+49
   \   0000009E   ........           BL       H_line
   2220                V_line(49,114-Y,10,0); 
   \   000000A2   2300               MOVS     R3,R4
   \   000000A4   0A22               MOVS     R2,#+10
   \   000000A6   5921               MOVS     R1,#+89
   \   000000A8   3120               MOVS     R0,#+49
   \   000000AA   ........           BL       V_line
   2221                V_line(58,114-Y,10,0); 
   \   000000AE   2300               MOVS     R3,R4
   \   000000B0   0A22               MOVS     R2,#+10
   \   000000B2   5921               MOVS     R1,#+89
   \   000000B4   3A20               MOVS     R0,#+58
   \   000000B6   ........           BL       V_line
   2222                podswietl=1;
   2223              }
   2224            
   2225              
   2226              if ((X_up>46) && (X_up<63) && (Y_up>112-Y) && (Y_up<127-Y))                    //"X"
   \                     ??Ask_Event_3:
   \   000000BA   0098               LDR      R0,[SP, #+0]
   \   000000BC   2F28               CMP      R0,#+47
   \   000000BE   07DB               BLT      ??Ask_Event_4
   \   000000C0   3F28               CMP      R0,#+63
   \   000000C2   05DA               BGE      ??Ask_Event_4
   \   000000C4   0198               LDR      R0,[SP, #+4]
   \   000000C6   5828               CMP      R0,#+88
   \   000000C8   02DB               BLT      ??Ask_Event_4
   \   000000CA   6628               CMP      R0,#+102
   \   000000CC   00DA               BGE      ??Ask_Event_4
   2227              {
   2228                ans = -1;
   \   000000CE   E443               MVNS     R4,R4            ;; #-1
   2229              }  
   2230          
   2231              
   2232                //zdarzenie typu down 
   2233              for (char i=0; i<=1; i++)
   \                     ??Ask_Event_4:
   \   000000D0   0020               MOVS     R0,#+0
   \   000000D2   14E0               B        ??Ask_Event_5
   2234              {
   2235                  if ((X_up>2+(i*30)) && (X_up<51+(i*30)) &&  (Y_up>38) && (Y_up<55))   
   \                     ??Ask_Event_6:
   \   000000D4   1E22               MOVS     R2,#+30
   \   000000D6   4A43               MULS     R2,R1,R2
   \   000000D8   1300               MOVS     R3,R2
   \   000000DA   9B1C               ADDS     R3,R3,#+2
   \   000000DC   009D               LDR      R5,[SP, #+0]
   \   000000DE   AB42               CMP      R3,R5
   \   000000E0   0ADA               BGE      ??Ask_Event_7
   \   000000E2   2B00               MOVS     R3,R5
   \   000000E4   3332               ADDS     R2,R2,#+51
   \   000000E6   9342               CMP      R3,R2
   \   000000E8   06DA               BGE      ??Ask_Event_7
   \   000000EA   019A               LDR      R2,[SP, #+4]
   \   000000EC   272A               CMP      R2,#+39
   \   000000EE   03DB               BLT      ??Ask_Event_7
   \   000000F0   372A               CMP      R2,#+55
   \   000000F2   01DA               BGE      ??Ask_Event_7
   2236                  {  
   2237                     ans=i+1;
   \   000000F4   0C00               MOVS     R4,R1
   \   000000F6   641C               ADDS     R4,R4,#+1
   2238                  }
   2239              }
   \                     ??Ask_Event_7:
   \   000000F8   401C               ADDS     R0,R0,#+1
   \   000000FA   0006               LSLS     R0,R0,#+24
   \   000000FC   000E               LSRS     R0,R0,#+24
   \                     ??Ask_Event_5:
   \   000000FE   0100               MOVS     R1,R0
   \   00000100   0229               CMP      R1,#+2
   \   00000102   E7D3               BCC      ??Ask_Event_6
   2240          
   2241             // if ((X_down>=0) && (X_down<64) && (podswietl==0)) {MenuPaint();}
   2242          
   2243          
   2244              return ans;
   \   00000104   2000               MOVS     R0,R4
   \   00000106   FEBC               POP      {R1-R7}
   \   00000108   02BC               POP      {R1}
   \   0000010A   0847               BX       R1               ;; return
   2245            
   2246          }//_______________________ Koniec funkcji List_Event __________________________
   2247          
   2248          
   2249          
   2250          
   2251          //*-----------------------------------------------------------------------------
   2252          //* Nazwa funkcji :    Info_Paint
   2253          //* Funkcja info
   2254          //*-----------------------------------------------------------------------------
   2255          //* p1...p2   - nazwy kolejnych pól
   2256          //*-----------------------------------------------------------------------------

   \                                 In section Debug.txt, align 4, keep-with-next
   2257          void Message(char p1[15], char p2[15], int MenuLevelJump)
   2258          {
   \                     Message:
   \   00000000   F1B5               PUSH     {R0,R4-R7,LR}
   \   00000002   0400               MOVS     R4,R0
   \   00000004   0D00               MOVS     R5,R1
   \   00000006   1600               MOVS     R6,R2
   2259          
   2260          
   2261              List_Paint("Info ",1,47,25,0,3,0,0,0,0,0,0,0,0); //(char name[7], char Rows, char RowWith, char Y, char FormStyle, char back, char p1[12], char p2[12] , char p3[12] , char p4[12] , char p5[12] , char p6[12] , char p7[12] , char p8[12])
   \   00000008   0021               MOVS     R1,#+0
   \   0000000A   0800               MOVS     R0,R1
   \   0000000C   03B4               PUSH     {R0,R1}
   \   0000000E   03B4               PUSH     {R0,R1}
   \   00000010   03B4               PUSH     {R0,R1}
   \   00000012   03B4               PUSH     {R0,R1}
   \   00000014   0321               MOVS     R1,#+3
   \   00000016   03B4               PUSH     {R0,R1}
   \   00000018   1923               MOVS     R3,#+25
   \   0000001A   2F22               MOVS     R2,#+47
   \   0000001C   0121               MOVS     R1,#+1
   \   0000001E   2748               LDR      R0,??Message_0   ;; `?<Constant "Info ">`
   \   00000020   ........           BL       List_Paint
   \   00000024   0AB0               ADD      SP,SP,#+40
   2262                 
   2263              
   2264             if (p1!="")  Label(p1,2,2,71,15,59,0,127,0);  //(char *Vstring, char alig, char X, int Y, char maxChar, char clean, char minY, char maxY, char negatyw) 
   \   00000026   26A7               ADR      R7,??Message_0+0x4  ;; 0x00, 0x00, 0x00, 0x00
   \   00000028   BC42               CMP      R4,R7
   \   0000002A   0ED0               BEQ      ??Message_1
   \   0000002C   82B0               SUB      SP,SP,#+8
   \   0000002E   0020               MOVS     R0,#+0
   \   00000030   0090               STR      R0,[SP, #+0]
   \   00000032   7F21               MOVS     R1,#+127
   \   00000034   03B4               PUSH     {R0,R1}
   \   00000036   3B21               MOVS     R1,#+59
   \   00000038   0F20               MOVS     R0,#+15
   \   0000003A   03B4               PUSH     {R0,R1}
   \   0000003C   4723               MOVS     R3,#+71
   \   0000003E   0222               MOVS     R2,#+2
   \   00000040   1100               MOVS     R1,R2
   \   00000042   2000               MOVS     R0,R4
   \   00000044   ........           BL       Label
   \   00000048   06B0               ADD      SP,SP,#+24
   2265             if (p2!="")  Label(p2,2,2,62,15,59,0,127,0);  //(char *Vstring, char alig, char X, int Y, char maxChar, char clean, char minY, char maxY, char negatyw) 
   \                     ??Message_1:
   \   0000004A   BD42               CMP      R5,R7
   \   0000004C   0ED0               BEQ      ??Message_2
   \   0000004E   82B0               SUB      SP,SP,#+8
   \   00000050   0020               MOVS     R0,#+0
   \   00000052   0090               STR      R0,[SP, #+0]
   \   00000054   7F21               MOVS     R1,#+127
   \   00000056   03B4               PUSH     {R0,R1}
   \   00000058   3B21               MOVS     R1,#+59
   \   0000005A   0F20               MOVS     R0,#+15
   \   0000005C   03B4               PUSH     {R0,R1}
   \   0000005E   3E23               MOVS     R3,#+62
   \   00000060   0222               MOVS     R2,#+2
   \   00000062   1100               MOVS     R1,R2
   \   00000064   2800               MOVS     R0,R5
   \   00000066   ........           BL       Label
   \   0000006A   06B0               ADD      SP,SP,#+24
   2266              Label(" ",2,2,53,15,59,0,127,0);  //(char *Vstring, char alig, char X, int Y, char maxChar, char clean, char minY, char maxY, char negatyw) 
   \                     ??Message_2:
   \   0000006C   82B0               SUB      SP,SP,#+8
   \   0000006E   0020               MOVS     R0,#+0
   \   00000070   0090               STR      R0,[SP, #+0]
   \   00000072   7F21               MOVS     R1,#+127
   \   00000074   03B4               PUSH     {R0,R1}
   \   00000076   3B21               MOVS     R1,#+59
   \   00000078   0F20               MOVS     R0,#+15
   \   0000007A   03B4               PUSH     {R0,R1}
   \   0000007C   3523               MOVS     R3,#+53
   \   0000007E   0222               MOVS     R2,#+2
   \   00000080   1100               MOVS     R1,R2
   \   00000082   10A0               ADR      R0,??Message_0+0x8  ;; 0x20, 0x00, 0x00, 0x00
   \   00000084   ........           BL       Label
   \   00000088   06B0               ADD      SP,SP,#+24
   2267              H_line(2,57,59,1); 
   \   0000008A   0123               MOVS     R3,#+1
   \   0000008C   3B22               MOVS     R2,#+59
   \   0000008E   3921               MOVS     R1,#+57
   \   00000090   0220               MOVS     R0,#+2
   \   00000092   ........           BL       H_line
   2268             
   2269              if (Button("Ok ",12,40,40,15))
   \   00000096   82B0               SUB      SP,SP,#+8
   \   00000098   0F20               MOVS     R0,#+15
   \   0000009A   0090               STR      R0,[SP, #+0]
   \   0000009C   2823               MOVS     R3,#+40
   \   0000009E   1A00               MOVS     R2,R3
   \   000000A0   0C21               MOVS     R1,#+12
   \   000000A2   09A0               ADR      R0,??Message_0+0xC  ;; "Ok "
   \   000000A4   ........           BL       Button
   \   000000A8   02B0               ADD      SP,SP,#+8
   \   000000AA   0028               CMP      R0,#+0
   \   000000AC   03D0               BEQ      ??Message_3
   2270              {
   2271                MenuLevel=MenuLevelJump;
   \   000000AE   0748               LDR      R0,??Message_0+0x10  ;; MenuLevel
   \   000000B0   0660               STR      R6,[R0, #+0]
   2272                MenuPaint();
                       ^
Warning[Pe223]: function "MenuPaint" declared implicitly
   \   000000B2   ........           BL       MenuPaint
   2273              }
   2274              
   2275              
   2276          }//_______________________ Koniec funkcji Info_Paint __________________________
   \                     ??Message_3:
   \   000000B6   F8BC               POP      {R3-R7}
   \   000000B8   01BC               POP      {R0}
   \   000000BA   0047               BX       R0               ;; return
   \                     ??Message_0:
   \   000000BC   ........           DC32     `?<Constant "Info ">`
   \   000000C0   00000000           DC8      0x00, 0x00, 0x00, 0x00
   \   000000C4   20000000           DC8      0x20, 0x00, 0x00, 0x00
   \   000000C8   4F6B2000           DC8      "Ok "
   \   000000CC   ........           DC32     MenuLevel
   2277          
   2278          
   2279          
   2280          
   2281          //*-----------------------------------------------------------------------------
   2282          //* Nazwa funkcji :    List_Paint
   2283          //* Funkcja rysowania listy
   2284          //*-----------------------------------------------------------------------------
   2285          //* name[7]   -  Nazwa listy
   2286          //* Rows      -  ilosc wierszy
   2287          //* RowWith   -  szerokosc wiersza
   2288          //* Y         -  odsuniecie od górnej krawêdzi
   2289          //* FormStyle -  rodzaj formy 0-zwyk³a 1..-coraz mniejsze
   2290          //* Algin     - wyrównanie 0-pion œrodek, poziom lowo, 1-pion góra, poziom lowo, 2 pion dó³, poziom lowo, 3-pion œrodek, poziom wyœrodkowanie
   2291          //* p1...p8   - nazwy kolejnych pól
   2292          //*-----------------------------------------------------------------------------

   \                                 In section Debug.txt, align 4, keep-with-next
   2293          void Number_Paint(char name[10], char p1[1], char p2[1])
   2294          {
   \                     Number_Paint:
   \   00000000   70B5               PUSH     {R4-R6,LR}
   \   00000002   234B               LDR      R3,??Number_Paint_0  ;; 0xfffffc00
   \   00000004   9D44               ADD      SP,SP,R3
   \   00000006   0600               MOVS     R6,R0
   \   00000008   0C00               MOVS     R4,R1
   \   0000000A   1500               MOVS     R5,R2
   2295           
   2296            CleanCanvas();
   \   0000000C   ........           BL       CleanCanvas
   2297          
   2298            char ekran_tab[8][128] = {
   2299                            {254,255,3,249,5,245,245,245,245,245,245,245,245,245,245,245,245,245,245,5,249,1,1,249,5,245,245,245,245,245,245,245,245,245,245,245,245,245,245,5,249,1,1,249,5,245,245,245,245,245,245,245,245,245,245,245,245,245,245,5,249,1,1,249,5,245,245,245,245,245,245,245,245,245,245,245,245,245,245,5,249,3,255,255,255,3,3,3,3,3,3,3,3,3,3,3,3,3,3,3,3,3,3,3,3,3,3,3,3,3,3,3,255,3,255,255,255,255,255,255,255,255,255,255,255,254,252,248},
   2300                            {255,255,0,255,0,255,255,255,255,255,255,255,255,255,255,255,255,255,255,0,255,0,0,255,0,255,255,249,249,249,243,243,243,231,231,207,192,255,255,0,255,0,0,255,0,255,255,231,231,192,230,229,229,227,227,231,231,255,255,0,255,0,0,255,0,255,255,231,231,231,231,231,231,229,225,227,231,255,255,0,255,0,255,255,255,0,0,0,0,0,0,0,0,0,0,0,0,0,0,0,0,0,0,0,0,0,0,0,0,0,0,0,255,0,255,255,255,255,255,255,255,255,255,255,255,255,255,255},
   2301                            {255,255,0,7,136,139,139,139,139,139,139,139,139,139,139,139,139,139,139,136,7,0,0,7,136,139,139,139,139,139,139,139,139,139,139,139,139,139,139,136,7,0,0,7,136,139,139,139,139,139,139,139,139,139,139,139,139,139,139,136,7,0,0,7,136,139,139,139,139,139,139,139,139,139,139,139,139,139,139,136,7,0,255,255,255,0,0,0,0,0,0,0,0,0,0,0,0,0,0,0,0,0,0,0,0,0,0,0,0,0,0,0,255,0,255,255,255,255,255,255,255,255,255,255,255,255,255,255},
   2302                            {255,255,0,255,0,254,254,62,158,158,158,158,158,158,158,158,62,254,254,0,255,0,0,255,0,254,254,62,158,158,158,158,62,158,158,158,62,254,254,0,255,0,0,255,0,254,254,62,158,254,254,254,158,30,158,62,62,254,254,0,255,0,0,255,0,254,254,30,158,62,126,126,254,254,254,158,62,254,254,0,255,0,255,255,255,0,0,0,0,0,0,0,0,0,0,0,0,0,0,0,0,0,0,0,0,0,0,0,0,0,0,0,255,0,255,255,255,255,255,255,255,255,255,255,255,255,255,255},
   2303                            {255,255,0,255,0,127,127,124,121,121,121,121,121,121,121,121,124,127,127,0,255,0,0,255,0,127,127,124,121,121,121,121,124,121,121,121,124,127,127,0,255,0,0,255,0,127,127,124,121,121,121,121,121,124,127,127,120,127,127,0,255,0,0,255,0,127,127,120,127,127,126,124,124,121,121,121,124,127,127,0,255,0,255,255,255,0,0,0,0,0,0,0,0,0,0,0,0,0,0,0,0,0,0,0,0,0,0,0,0,0,0,0,255,0,255,255,255,255,255,255,255,255,255,255,255,255,255,255},
   2304                            {255,255,0,224,17,209,209,209,209,209,209,209,209,209,209,209,209,209,209,17,224,0,0,224,17,209,209,209,209,209,209,209,209,209,209,209,209,209,209,17,224,0,0,224,17,209,209,209,209,209,209,209,209,209,209,209,209,209,209,17,224,0,0,224,17,209,209,209,209,209,209,209,209,209,209,209,209,209,209,17,224,0,255,255,255,0,0,0,0,0,0,0,0,0,0,0,0,0,0,0,0,0,0,0,0,0,0,0,0,0,0,0,255,192,127,127,127,127,127,127,127,127,127,127,127,127,255,255},
   2305                            {255,255,0,255,0,255,255,255,255,255,255,255,255,255,255,255,255,255,255,0,255,0,0,255,0,255,255,199,179,63,63,7,51,51,51,51,135,255,255,0,255,0,0,255,0,255,255,135,51,51,49,49,129,241,243,55,143,255,255,0,255,0,0,255,0,255,255,135,51,63,63,63,143,63,63,51,135,255,255,0,255,0,255,255,255,0,0,0,0,0,0,0,0,0,0,0,0,0,0,0,0,0,0,0,0,0,0,0,0,0,0,0,255,0,254,255,251,247,111,159,159,111,247,251,255,254,0,255},
   2306                            {127,255,192,159,160,175,175,175,175,175,175,175,175,175,175,175,175,175,175,160,159,128,128,159,160,175,175,175,175,175,175,175,175,175,175,175,175,175,175,160,159,128,128,159,160,175,175,175,175,175,175,175,175,175,175,175,175,175,175,160,159,128,128,159,160,175,175,175,175,175,175,175,175,175,175,175,175,175,175,160,159,192,255,255,255,192,192,192,192,192,192,192,192,192,192,192,192,192,192,192,192,192,192,192,192,192,192,192,192,192,192,192,255,240,231,239,237,238,239,239,239,239,238,237,239,103,48,31},
   2307                            };
   \   00000010   6846               MOV      R0,SP
   \   00000012   2049               LDR      R1,??Number_Paint_0+0x4  ;; `?<Constant {{254, 255, 3, 249, 5, 245, 245, 24`
   \   00000014   8022               MOVS     R2,#+128
   \   00000016   D200               LSLS     R2,R2,#+3        ;; #+1024
   \   00000018   ........           BL       __aeabi_memcpy4
   2308              
   2309              CopyToCanvas(ekran_tab);
   \   0000001C   6846               MOV      R0,SP
   \   0000001E   ........           BL       CopyToCanvas
   2310              Label(name,0,2,116,10,42,0,127,1);  //(char *Vstring, char alig, char X, int Y, char maxChar, char clean, char minY, char maxY, char negatyw) 
   \   00000022   82B0               SUB      SP,SP,#+8
   \   00000024   0120               MOVS     R0,#+1
   \   00000026   0090               STR      R0,[SP, #+0]
   \   00000028   7F21               MOVS     R1,#+127
   \   0000002A   0020               MOVS     R0,#+0
   \   0000002C   03B4               PUSH     {R0,R1}
   \   0000002E   2A21               MOVS     R1,#+42
   \   00000030   0A20               MOVS     R0,#+10
   \   00000032   03B4               PUSH     {R0,R1}
   \   00000034   7423               MOVS     R3,#+116
   \   00000036   0222               MOVS     R2,#+2
   \   00000038   0021               MOVS     R1,#+0
   \   0000003A   3000               MOVS     R0,R6
   \   0000003C   ........           BL       Label
   \   00000040   06B0               ADD      SP,SP,#+24
   2311              
   2312           
   2313              
   2314          
   2315          
   2316              Label(p1,0,9,7,2,7,0,127,1);      //(char *Vstring, char alig, char X, int Y, char maxChar, char clean, char minY, char maxY, char negatyw) 
   \   00000042   82B0               SUB      SP,SP,#+8
   \   00000044   0120               MOVS     R0,#+1
   \   00000046   0090               STR      R0,[SP, #+0]
   \   00000048   7F21               MOVS     R1,#+127
   \   0000004A   0020               MOVS     R0,#+0
   \   0000004C   03B4               PUSH     {R0,R1}
   \   0000004E   0721               MOVS     R1,#+7
   \   00000050   0220               MOVS     R0,#+2
   \   00000052   03B4               PUSH     {R0,R1}
   \   00000054   0B00               MOVS     R3,R1
   \   00000056   0922               MOVS     R2,#+9
   \   00000058   0021               MOVS     R1,#+0
   \   0000005A   2000               MOVS     R0,R4
   \   0000005C   ........           BL       Label
   \   00000060   06B0               ADD      SP,SP,#+24
   2317              Label(p2,0,51,7,2,7,0,127,1);    //(char *Vstring, char alig, char X, int Y, char maxChar, char clean, char minY, char maxY, char negatyw) 
   \   00000062   82B0               SUB      SP,SP,#+8
   \   00000064   0120               MOVS     R0,#+1
   \   00000066   0090               STR      R0,[SP, #+0]
   \   00000068   7F21               MOVS     R1,#+127
   \   0000006A   0020               MOVS     R0,#+0
   \   0000006C   03B4               PUSH     {R0,R1}
   \   0000006E   0721               MOVS     R1,#+7
   \   00000070   0220               MOVS     R0,#+2
   \   00000072   03B4               PUSH     {R0,R1}
   \   00000074   0B00               MOVS     R3,R1
   \   00000076   3322               MOVS     R2,#+51
   \   00000078   0021               MOVS     R1,#+0
   \   0000007A   2800               MOVS     R0,R5
   \   0000007C   ........           BL       Label
   \   00000080   06B0               ADD      SP,SP,#+24
   2318              
   2319          }//_______________________ Koniec funkcji List_Paint __________________________
   \   00000082   8020               MOVS     R0,#+128
   \   00000084   C000               LSLS     R0,R0,#+3        ;; #+1024
   \   00000086   8544               ADD      SP,SP,R0
   \   00000088   70BC               POP      {R4-R6}
   \   0000008A   01BC               POP      {R0}
   \   0000008C   0047               BX       R0               ;; return
   \   0000008E   C046               Nop      
   \                     ??Number_Paint_0:
   \   00000090   00FCFFFF           DC32     0xfffffc00
   \   00000094   ........           DC32     `?<Constant {{254, 255, 3, 249, 5, 245, 245, 24`
   2320          
   2321          
   2322          
   2323          
   2324          
   2325          //*-----------------------------------------------------------------------------
   2326          //* Nazwa funkcji :    Number_Event
   2327          //* Funkcja rysowania listy
   2328          //*-----------------------------------------------------------------------------
   2329          //* name[7]   -  Nazwa listy
   2330          //* Rows      -  ilosc wierszy
   2331          //* RowWith   -  szerokosc wiersza
   2332          //* Y         -  odsuniecie od górnej krawêdzi
   2333          //* p1...p8   - nazwy kolejnych pól
   2334          //*-----------------------------------------------------------------------------

   \                                 In section Debug.txt, align 4, keep-with-next
   2335          int Number_Event(int X_up, int Y_up, int X_down, int Y_down)
   2336          {
   \                     Number_Event:
   \   00000000   F1B5               PUSH     {R0,R4-R7,LR}
   \   00000002   84B0               SUB      SP,SP,#+16
   \   00000004   0E00               MOVS     R6,R1
   \   00000006   1400               MOVS     R4,R2
   \   00000008   1F00               MOVS     R7,R3
   2337          
   2338            char podswietl=0;
   \   0000000A   0020               MOVS     R0,#+0
   \   0000000C   0500               MOVS     R5,R0
   2339            int ans = 0;
   \   0000000E   0290               STR      R0,[SP, #+8]
   2340            char kol = 0;
   2341            char row = 0;
   2342            
   2343          
   2344          
   2345            //zdarzenie typu down (najechanie na przycisk)
   2346            if ((X_down>1) && (X_down<62) && (Y_down>3) && (Y_down<81) && (X_down!=21) && (X_down!=42) && (Y_down!=61) && (Y_down!=41) && (Y_down!=21) )   
   \   00000010   022C               CMP      R4,#+2
   \   00000012   4CDB               BLT      ??Number_Event_0
   \   00000014   3E2C               CMP      R4,#+62
   \   00000016   4ADA               BGE      ??Number_Event_0
   \   00000018   042F               CMP      R7,#+4
   \   0000001A   48DB               BLT      ??Number_Event_0
   \   0000001C   512F               CMP      R7,#+81
   \   0000001E   46DA               BGE      ??Number_Event_0
   \   00000020   152C               CMP      R4,#+21
   \   00000022   44D0               BEQ      ??Number_Event_0
   \   00000024   2A2C               CMP      R4,#+42
   \   00000026   42D0               BEQ      ??Number_Event_0
   \   00000028   3D2F               CMP      R7,#+61
   \   0000002A   40D0               BEQ      ??Number_Event_0
   \   0000002C   292F               CMP      R7,#+41
   \   0000002E   3ED0               BEQ      ??Number_Event_0
   \   00000030   152F               CMP      R7,#+21
   \   00000032   3CD0               BEQ      ??Number_Event_0
   2347              {
   2348                kol = (((X_down-1)/21))*21;
   \   00000034   601E               SUBS     R0,R4,#+1
   \   00000036   1521               MOVS     R1,#+21
   \   00000038   ........           BL       __aeabi_idivmod
   \   0000003C   0500               MOVS     R5,R0
   \   0000003E   1520               MOVS     R0,#+21
   \   00000040   4543               MULS     R5,R0,R5
   \   00000042   2D06               LSLS     R5,R5,#+24
   \   00000044   2D0E               LSRS     R5,R5,#+24
   2349                row = (((Y_down-3)/20))*20;
   \   00000046   F81E               SUBS     R0,R7,#+3
   \   00000048   1421               MOVS     R1,#+20
   \   0000004A   ........           BL       __aeabi_idivmod
   \   0000004E   1421               MOVS     R1,#+20
   \   00000050   4843               MULS     R0,R1,R0
   \   00000052   0006               LSLS     R0,R0,#+24
   \   00000054   000E               LSRS     R0,R0,#+24
   \   00000056   0090               STR      R0,[SP, #+0]
   2350                
   2351                MenuPaint();   
                       ^
Warning[Pe223]: function "MenuPaint" declared implicitly
   \   00000058   ........           BL       MenuPaint
   2352                
   2353                H_line(kol+3, row+4, 16,1);
   \   0000005C   0098               LDR      R0,[SP, #+0]
   \   0000005E   0006               LSLS     R0,R0,#+24
   \   00000060   000E               LSRS     R0,R0,#+24
   \   00000062   0390               STR      R0,[SP, #+12]
   \   00000064   001D               ADDS     R0,R0,#+4
   \   00000066   0090               STR      R0,[SP, #+0]
   \   00000068   6846               MOV      R0,SP
   \   0000006A   2900               MOVS     R1,R5
   \   0000006C   C91C               ADDS     R1,R1,#+3
   \   0000006E   0171               STRB     R1,[R0, #+4]
   \   00000070   0123               MOVS     R3,#+1
   \   00000072   1022               MOVS     R2,#+16
   \   00000074   0099               LDR      R1,[SP, #+0]
   \   00000076   0079               LDRB     R0,[R0, #+4]
   \   00000078   ........           BL       H_line
   2354                H_line(kol+3, row+19, 16,1);
   \   0000007C   0123               MOVS     R3,#+1
   \   0000007E   1022               MOVS     R2,#+16
   \   00000080   0399               LDR      R1,[SP, #+12]
   \   00000082   1331               ADDS     R1,R1,#+19
   \   00000084   6846               MOV      R0,SP
   \   00000086   0079               LDRB     R0,[R0, #+4]
   \   00000088   ........           BL       H_line
   2355                V_line(kol+3, row+4, 16,1);
   \   0000008C   0123               MOVS     R3,#+1
   \   0000008E   1022               MOVS     R2,#+16
   \   00000090   0099               LDR      R1,[SP, #+0]
   \   00000092   6846               MOV      R0,SP
   \   00000094   0079               LDRB     R0,[R0, #+4]
   \   00000096   ........           BL       V_line
   2356                V_line(kol+18, row+4, 16,1);
   \   0000009A   0123               MOVS     R3,#+1
   \   0000009C   1022               MOVS     R2,#+16
   \   0000009E   0099               LDR      R1,[SP, #+0]
   \   000000A0   1235               ADDS     R5,R5,#+18
   \   000000A2   2800               MOVS     R0,R5
   \   000000A4   0006               LSLS     R0,R0,#+24
   \   000000A6   000E               LSRS     R0,R0,#+24
   \   000000A8   ........           BL       V_line
   2357             
   2358                podswietl=1;
   \   000000AC   0125               MOVS     R5,#+1
   2359              }
   2360           
   2361          
   2362              
   2363            //zdarzenie typu down "X"
   2364              if ((X_down>46) && (X_down<63) && (Y_down>112) && (Y_down<127))    //"X"
   \                     ??Number_Event_0:
   \   000000AE   2F2C               CMP      R4,#+47
   \   000000B0   20DB               BLT      ??Number_Event_1
   \   000000B2   3F2C               CMP      R4,#+63
   \   000000B4   1EDA               BGE      ??Number_Event_1
   \   000000B6   712F               CMP      R7,#+113
   \   000000B8   1CDB               BLT      ??Number_Event_1
   \   000000BA   7F2F               CMP      R7,#+127
   \   000000BC   1ADA               BGE      ??Number_Event_1
   2365              {
   2366                MenuPaint();
                       ^
Warning[Pe223]: function "MenuPaint" declared implicitly
   \   000000BE   ........           BL       MenuPaint
   2367                H_line(49,115,10,0);
   \   000000C2   0023               MOVS     R3,#+0
   \   000000C4   0A22               MOVS     R2,#+10
   \   000000C6   7321               MOVS     R1,#+115
   \   000000C8   3120               MOVS     R0,#+49
   \   000000CA   ........           BL       H_line
   2368                H_line(49,124,10,0); 
   \   000000CE   0023               MOVS     R3,#+0
   \   000000D0   0A22               MOVS     R2,#+10
   \   000000D2   7C21               MOVS     R1,#+124
   \   000000D4   3120               MOVS     R0,#+49
   \   000000D6   ........           BL       H_line
   2369                V_line(49,115,10,0); 
   \   000000DA   0023               MOVS     R3,#+0
   \   000000DC   0A22               MOVS     R2,#+10
   \   000000DE   7321               MOVS     R1,#+115
   \   000000E0   3120               MOVS     R0,#+49
   \   000000E2   ........           BL       V_line
   2370                V_line(58,115,10,0); 
   \   000000E6   0023               MOVS     R3,#+0
   \   000000E8   0A22               MOVS     R2,#+10
   \   000000EA   7321               MOVS     R1,#+115
   \   000000EC   3A20               MOVS     R0,#+58
   \   000000EE   ........           BL       V_line
   2371                podswietl=1;
   \   000000F2   0125               MOVS     R5,#+1
   2372              }
   2373             
   2374            
   2375             //zdarzenie typu up (naciœniêcie na "X")
   2376              if ( (X_up>46) && (X_up<63) && (Y_up>112) && (Y_up<127))                    //"X"
   \                     ??Number_Event_1:
   \   000000F4   0498               LDR      R0,[SP, #+16]
   \   000000F6   2F28               CMP      R0,#+47
   \   000000F8   08DB               BLT      ??Number_Event_2
   \   000000FA   3F28               CMP      R0,#+63
   \   000000FC   06DA               BGE      ??Number_Event_2
   \   000000FE   712E               CMP      R6,#+113
   \   00000100   04DB               BLT      ??Number_Event_2
   \   00000102   7F2E               CMP      R6,#+127
   \   00000104   02DA               BGE      ??Number_Event_2
   2377              {
   2378                ans = -1;
   \   00000106   0020               MOVS     R0,#+0
   \   00000108   C043               MVNS     R0,R0            ;; #-1
   \   0000010A   0290               STR      R0,[SP, #+8]
   2379              }  
   2380            
   2381            
   2382              if ((X_up>1) && (X_up<62) && (Y_up>3) && (Y_up<81) && (X_up!=21) && (X_up!=42) && (Y_up!=61) && (Y_up!=41) && (Y_up!=21) )   
   \                     ??Number_Event_2:
   \   0000010C   0498               LDR      R0,[SP, #+16]
   \   0000010E   0228               CMP      R0,#+2
   \   00000110   35DB               BLT      ??Number_Event_3
   \   00000112   3E28               CMP      R0,#+62
   \   00000114   33DA               BGE      ??Number_Event_3
   \   00000116   042E               CMP      R6,#+4
   \   00000118   31DB               BLT      ??Number_Event_3
   \   0000011A   512E               CMP      R6,#+81
   \   0000011C   2FDA               BGE      ??Number_Event_3
   \   0000011E   1528               CMP      R0,#+21
   \   00000120   2DD0               BEQ      ??Number_Event_3
   \   00000122   2A28               CMP      R0,#+42
   \   00000124   2BD0               BEQ      ??Number_Event_3
   \   00000126   3D2E               CMP      R6,#+61
   \   00000128   29D0               BEQ      ??Number_Event_3
   \   0000012A   292E               CMP      R6,#+41
   \   0000012C   27D0               BEQ      ??Number_Event_3
   \   0000012E   152E               CMP      R6,#+21
   \   00000130   25D0               BEQ      ??Number_Event_3
   2383              {
   2384                kol = (((X_up-1)/21)+1);
   2385                row = 3-(((Y_up-3)/20));
   2386          
   2387                ans=(row*3)+kol;
   \   00000132   0327               MOVS     R7,#+3
   \   00000134   F61E               SUBS     R6,R6,#+3
   \   00000136   3000               MOVS     R0,R6
   \   00000138   1421               MOVS     R1,#+20
   \   0000013A   ........           BL       __aeabi_idivmod
   \   0000013E   3E1A               SUBS     R6,R7,R0
   \   00000140   3606               LSLS     R6,R6,#+24
   \   00000142   360E               LSRS     R6,R6,#+24
   \   00000144   3800               MOVS     R0,R7
   \   00000146   4643               MULS     R6,R0,R6
   \   00000148   0498               LDR      R0,[SP, #+16]
   \   0000014A   401E               SUBS     R0,R0,#+1
   \   0000014C   1521               MOVS     R1,#+21
   \   0000014E   ........           BL       __aeabi_idivmod
   \   00000152   401C               ADDS     R0,R0,#+1
   \   00000154   0006               LSLS     R0,R0,#+24
   \   00000156   000E               LSRS     R0,R0,#+24
   \   00000158   3018               ADDS     R0,R6,R0
   \   0000015A   0290               STR      R0,[SP, #+8]
   2388                
   2389                if ((!(AT91C_IFLASH_MEM->Config.SoundOff)) && (AlarmOn==0)) {
   \   0000015C   0E48               LDR      R0,??Number_Event_4  ;; 0x13d7e9
   \   0000015E   0078               LDRB     R0,[R0, #+0]
   \   00000160   0E49               LDR      R1,??Number_Event_4+0x4  ;; AlarmOn
   \   00000162   0978               LDRB     R1,[R1, #+0]
   \   00000164   0143               ORRS     R1,R1,R0
   \   00000166   0AD1               BNE      ??Number_Event_3
   2390                  ButtonBipCounter=g_counter+8;
   \   00000168   0D4A               LDR      R2,??Number_Event_4+0x8  ;; RealRows + 16
   \   0000016A   0E48               LDR      R0,??Number_Event_4+0xC  ;; g_counter
   \   0000016C   03C8               LDM      R0!,{R0,R1}
   \   0000016E   0023               MOVS     R3,#+0
   \   00000170   0830               ADDS     R0,R0,#+8
   \   00000172   5941               ADCS     R1,R1,R3
   \   00000174   03C2               STM      R2!,{R0,R1}
   2391                    AT91C_BASE_PIOA->PIO_SODR =SpeakerPin;
                                                      ^
Warning[Pe068]: integer conversion resulted in a change of sign
   \   00000176   0C48               LDR      R0,??Number_Event_4+0x10  ;; 0xfffff430
   \   00000178   8021               MOVS     R1,#+128
   \   0000017A   0906               LSLS     R1,R1,#+24       ;; #-2147483648
   \   0000017C   0160               STR      R1,[R0, #+0]
   2392                  } 
   2393              }
   2394          
   2395            
   2396              if ((X_down>=0) && (X_down<64) && (podswietl==0)) MenuPaint();
                                                                       ^
Warning[Pe223]: function "MenuPaint" declared implicitly
   \                     ??Number_Event_3:
   \   0000017E   002C               CMP      R4,#+0
   \   00000180   05D4               BMI      ??Number_Event_5
   \   00000182   402C               CMP      R4,#+64
   \   00000184   03DA               BGE      ??Number_Event_5
   \   00000186   002D               CMP      R5,#+0
   \   00000188   01D1               BNE      ??Number_Event_5
   \   0000018A   ........           BL       MenuPaint
   2397          
   2398           
   2399          
   2400              return ans;
   \                     ??Number_Event_5:
   \   0000018E   0298               LDR      R0,[SP, #+8]
   \   00000190   05B0               ADD      SP,SP,#+20
   \   00000192   F0BC               POP      {R4-R7}
   \   00000194   02BC               POP      {R1}
   \   00000196   0847               BX       R1               ;; return
   \                     ??Number_Event_4:
   \   00000198   E9D71300           DC32     0x13d7e9
   \   0000019C   ........           DC32     AlarmOn
   \   000001A0   ........           DC32     RealRows + 16
   \   000001A4   ........           DC32     g_counter
   \   000001A8   30F4FFFF           DC32     0xfffff430
   2401            
   2402              
   2403          }//_______________________ Koniec funkcji List_Event __________________________
   2404          
   2405          
   2406          
   2407          
   2408          
   2409          
   2410          
   2411          
   2412          
   2413          //*-----------------------------------------------------------------------------
   2414          //* Nazwa funkcji :    Message_Paint
   2415          //* Funkcja wiadomosci
   2416          //*-----------------------------------------------------------------------------
   2417          //* algin    - wyrównanie tekstu
   2418          //* p1..p3   -   napisy kolejnych lini
   2419          
   2420          //*-----------------------------------------------------------------------------
   2421          extern  char g_Message;

   \                                 In section Debug.txt, align 4, keep-with-next
   2422          void Message_Paint(char algin, char p1[15], char p2[15], char p3[15],char p4[15],char p5[15])
   2423          {
   \                     Message_Paint:
   \   00000000   FEB5               PUSH     {R1-R7,LR}
   \   00000002   3C4C               LDR      R4,??Message_Paint_0  ;; 0xfffffc00
   \   00000004   A544               ADD      SP,SP,R4
   \   00000006   0400               MOVS     R4,R0
   \   00000008   FFAD               ADD      R5,SP,#+1020
   \   0000000A   6D6A               LDR      R5,[R5, #+36]
   \   0000000C   FFAE               ADD      R6,SP,#+1020
   \   0000000E   B66A               LDR      R6,[R6, #+40]
   2424            g_Message=1;
   \   00000010   0120               MOVS     R0,#+1
   \   00000012   3949               LDR      R1,??Message_Paint_0+0x4  ;; g_Message
   \   00000014   0870               STRB     R0,[R1, #+0]
   2425            g_info=1;
   \   00000016   3949               LDR      R1,??Message_Paint_0+0x8  ;; g_info
   \   00000018   0870               STRB     R0,[R1, #+0]
   2426            
   2427            char ekran_tab[8][128] = {
   2428                            {0,0,0,0,0,0,0,0,0,0,0,0,0,0,0,0,0,0,0,0,0,0,0,0,0,0,0,0,0,0,0,255,1,253,5,5,5,5,5,5,5,5,5,5,5,5,5,5,5,5,5,5,229,5,5,5,5,5,5,5,5,5,5,5,5,5,5,5,5,5,5,5,5,5,5,5,5,5,5,5,5,5,5,5,5,5,5,5,5,5,5,5,5,5,5,5,5,5,5,5,253,1,255,0,0,0,0,0,0,0,0,0,0,0,0,0,0,0,0,0,0,0,0,0,0,0,0,0},
   2429                            {0,0,0,0,0,0,0,0,0,0,0,0,0,0,0,0,0,0,0,0,0,0,0,0,0,0,0,0,0,0,0,255,0,255,0,0,248,12,244,244,244,244,244,244,244,244,244,244,12,248,0,0,255,0,0,0,0,0,0,0,0,0,0,0,0,0,0,0,0,0,0,0,0,0,0,0,0,0,0,0,0,0,0,0,0,0,0,0,0,0,0,0,0,0,0,0,0,0,0,0,255,0,255,0,0,0,0,0,0,0,0,0,0,0,0,0,0,0,0,0,0,0,0,0,0,0,0,0},
   2430                            {0,0,0,0,0,0,0,0,0,0,0,0,0,0,0,0,0,0,0,0,0,0,0,0,0,0,0,0,0,0,0,255,0,255,0,0,255,0,255,255,255,255,255,255,255,255,255,255,0,255,0,0,255,0,0,0,0,0,0,0,0,0,0,0,0,0,0,0,0,0,0,0,0,0,0,0,0,0,0,0,0,0,0,0,0,0,0,0,0,0,0,0,0,0,0,0,0,0,0,0,255,0,255,0,0,0,0,0,0,0,0,0,0,0,0,0,0,0,0,0,0,0,0,0,0,0,0,0},
   2431                            {0,0,0,0,0,0,0,0,0,0,0,0,0,0,0,0,0,0,0,0,0,0,0,0,0,0,0,0,0,0,0,255,0,255,0,0,255,0,255,255,199,187,187,187,187,187,199,255,0,255,0,0,255,0,0,0,0,0,0,0,0,0,0,0,0,0,0,0,0,0,0,0,0,0,0,0,0,0,0,0,0,0,0,0,0,0,0,0,0,0,0,0,0,0,0,0,0,0,0,0,255,0,255,0,0,0,0,0,0,0,0,0,0,0,0,0,0,0,0,0,0,0,0,0,0,0,0,0},
   2432                            {0,0,0,0,0,0,0,0,0,0,0,0,0,0,0,0,0,0,0,0,0,0,0,0,0,0,0,0,0,0,0,255,0,255,0,0,255,0,255,255,221,237,245,249,245,237,221,255,0,255,0,0,255,0,0,0,0,0,0,0,0,0,0,0,0,0,0,0,0,0,0,0,0,0,0,0,0,0,0,0,0,0,0,0,0,0,0,0,0,0,0,0,0,0,0,0,0,0,0,0,255,0,255,0,0,0,0,0,0,0,0,0,0,0,0,0,0,0,0,0,0,0,0,0,0,0,0,0},
   2433                            {0,0,0,0,0,0,0,0,0,0,0,0,0,0,0,0,0,0,0,0,0,0,0,0,0,0,0,0,0,0,0,255,0,255,0,0,255,0,255,255,255,255,255,255,255,255,255,255,0,255,0,0,255,0,0,0,0,0,0,0,0,0,0,0,0,0,0,0,0,0,0,0,0,0,0,0,0,0,0,0,0,0,0,0,0,0,0,0,0,0,0,0,0,0,0,0,0,0,0,0,255,0,255,0,0,0,0,0,0,0,0,0,0,0,0,0,0,0,0,0,0,0,0,0,0,0,0,0},
   2434                            {0,0,0,0,0,0,0,0,0,0,0,0,0,0,0,0,0,0,0,0,0,0,0,0,0,0,0,0,0,0,0,255,0,255,0,0,63,96,95,95,95,95,95,95,95,95,95,95,96,63,0,0,255,0,0,0,0,0,0,0,0,0,0,0,0,0,0,0,0,0,0,0,0,0,0,0,0,0,0,0,0,0,0,0,0,0,0,0,0,0,0,0,0,0,0,0,0,0,0,0,255,0,255,0,0,0,0,0,0,0,0,0,0,0,0,0,0,0,0,0,0,0,0,0,0,0,0,0},
   2435                            {0,0,0,0,0,0,0,0,0,0,0,0,0,0,0,0,0,0,0,0,0,0,0,0,0,0,0,0,0,0,0,255,128,191,160,160,160,160,160,160,160,160,160,160,160,160,160,160,160,160,160,160,167,160,160,160,160,160,160,160,160,160,160,160,160,160,160,160,160,160,160,160,160,160,160,160,160,160,160,160,160,160,160,160,160,160,160,160,160,160,160,160,160,160,160,160,160,160,160,160,191,128,255,0,0,0,0,0,0,0,0,0,0,0,0,0,0,0,0,0,0,0,0,0,0,0,0,0},
   2436                            };
   \   0000001A   6846               MOV      R0,SP
   \   0000001C   3849               LDR      R1,??Message_Paint_0+0xC  ;; `?<Constant {{0, 0, 0, 0, 0, 0, 0, 0, 0, 0, 0, `
   \   0000001E   8022               MOVS     R2,#+128
   \   00000020   D200               LSLS     R2,R2,#+3        ;; #+1024
   \   00000022   ........           BL       __aeabi_memcpy4
   2437              
   2438              CopyToCanvas(ekran_tab);
   \   00000026   6846               MOV      R0,SP
   \   00000028   ........           BL       CopyToCanvas
   2439          
   2440          
   2441              if (p1!="") Label(p1,algin,4,90,15,56,0,127,0);      //(char *Vstring, char alig, char X, int Y, char maxChar, char clean, char minY, char maxY, char negatyw) 
   \   0000002C   35A7               ADR      R7,??Message_Paint_0+0x10  ;; 0x00, 0x00, 0x00, 0x00
   \   0000002E   FFA8               ADD      R0,SP,#+1020
   \   00000030   4068               LDR      R0,[R0, #+4]
   \   00000032   B842               CMP      R0,R7
   \   00000034   0FD0               BEQ      ??Message_Paint_1
   \   00000036   82B0               SUB      SP,SP,#+8
   \   00000038   0020               MOVS     R0,#+0
   \   0000003A   0090               STR      R0,[SP, #+0]
   \   0000003C   7F21               MOVS     R1,#+127
   \   0000003E   03B4               PUSH     {R0,R1}
   \   00000040   3821               MOVS     R1,#+56
   \   00000042   0F20               MOVS     R0,#+15
   \   00000044   03B4               PUSH     {R0,R1}
   \   00000046   5A23               MOVS     R3,#+90
   \   00000048   0422               MOVS     R2,#+4
   \   0000004A   2100               MOVS     R1,R4
   \   0000004C   FFA8               ADD      R0,SP,#+1020
   \   0000004E   C069               LDR      R0,[R0, #+28]
   \   00000050   ........           BL       Label
   \   00000054   06B0               ADD      SP,SP,#+24
   2442              if (p2!="") Label(p2,algin,4,90-9,15,56,0,127,0);    //(char *Vstring, char alig, char X, int Y, char maxChar, char clean, char minY, char maxY, char negatyw) 
   \                     ??Message_Paint_1:
   \   00000056   FFA8               ADD      R0,SP,#+1020
   \   00000058   8068               LDR      R0,[R0, #+8]
   \   0000005A   B842               CMP      R0,R7
   \   0000005C   0FD0               BEQ      ??Message_Paint_2
   \   0000005E   82B0               SUB      SP,SP,#+8
   \   00000060   0020               MOVS     R0,#+0
   \   00000062   0090               STR      R0,[SP, #+0]
   \   00000064   7F21               MOVS     R1,#+127
   \   00000066   03B4               PUSH     {R0,R1}
   \   00000068   3821               MOVS     R1,#+56
   \   0000006A   0F20               MOVS     R0,#+15
   \   0000006C   03B4               PUSH     {R0,R1}
   \   0000006E   5123               MOVS     R3,#+81
   \   00000070   0422               MOVS     R2,#+4
   \   00000072   2100               MOVS     R1,R4
   \   00000074   FFA8               ADD      R0,SP,#+1020
   \   00000076   006A               LDR      R0,[R0, #+32]
   \   00000078   ........           BL       Label
   \   0000007C   06B0               ADD      SP,SP,#+24
   2443              if (p3!="") Label(p3,algin,4,90-18,15,56,0,127,0);    //(char *Vstring, char alig, char X, int Y, char maxChar, char clean, char minY, char maxY, char negatyw) 
   \                     ??Message_Paint_2:
   \   0000007E   FFA8               ADD      R0,SP,#+1020
   \   00000080   C068               LDR      R0,[R0, #+12]
   \   00000082   B842               CMP      R0,R7
   \   00000084   0FD0               BEQ      ??Message_Paint_3
   \   00000086   82B0               SUB      SP,SP,#+8
   \   00000088   0020               MOVS     R0,#+0
   \   0000008A   0090               STR      R0,[SP, #+0]
   \   0000008C   7F21               MOVS     R1,#+127
   \   0000008E   03B4               PUSH     {R0,R1}
   \   00000090   3821               MOVS     R1,#+56
   \   00000092   0F20               MOVS     R0,#+15
   \   00000094   03B4               PUSH     {R0,R1}
   \   00000096   4823               MOVS     R3,#+72
   \   00000098   0422               MOVS     R2,#+4
   \   0000009A   2100               MOVS     R1,R4
   \   0000009C   FFA8               ADD      R0,SP,#+1020
   \   0000009E   406A               LDR      R0,[R0, #+36]
   \   000000A0   ........           BL       Label
   \   000000A4   06B0               ADD      SP,SP,#+24
   2444              if (p4!="") Label(p4,algin,4,90-27,15,56,0,127,0);    //(char *Vstring, char alig, char X, int Y, char maxChar, char clean, char minY, char maxY, char negatyw) 
   \                     ??Message_Paint_3:
   \   000000A6   BD42               CMP      R5,R7
   \   000000A8   0ED0               BEQ      ??Message_Paint_4
   \   000000AA   82B0               SUB      SP,SP,#+8
   \   000000AC   0020               MOVS     R0,#+0
   \   000000AE   0090               STR      R0,[SP, #+0]
   \   000000B0   7F21               MOVS     R1,#+127
   \   000000B2   03B4               PUSH     {R0,R1}
   \   000000B4   3821               MOVS     R1,#+56
   \   000000B6   0F20               MOVS     R0,#+15
   \   000000B8   03B4               PUSH     {R0,R1}
   \   000000BA   3F23               MOVS     R3,#+63
   \   000000BC   0422               MOVS     R2,#+4
   \   000000BE   2100               MOVS     R1,R4
   \   000000C0   2800               MOVS     R0,R5
   \   000000C2   ........           BL       Label
   \   000000C6   06B0               ADD      SP,SP,#+24
   2445              if (p5!="") Label(p5,algin,4,90-36,15,56,0,127,0);    //(char *Vstring, char alig, char X, int Y, char maxChar, char clean, char minY, char maxY, char negatyw) 
   \                     ??Message_Paint_4:
   \   000000C8   BE42               CMP      R6,R7
   \   000000CA   0ED0               BEQ      ??Message_Paint_5
   \   000000CC   82B0               SUB      SP,SP,#+8
   \   000000CE   0020               MOVS     R0,#+0
   \   000000D0   0090               STR      R0,[SP, #+0]
   \   000000D2   7F21               MOVS     R1,#+127
   \   000000D4   03B4               PUSH     {R0,R1}
   \   000000D6   3821               MOVS     R1,#+56
   \   000000D8   0F20               MOVS     R0,#+15
   \   000000DA   03B4               PUSH     {R0,R1}
   \   000000DC   3623               MOVS     R3,#+54
   \   000000DE   0422               MOVS     R2,#+4
   \   000000E0   2100               MOVS     R1,R4
   \   000000E2   3000               MOVS     R0,R6
   \   000000E4   ........           BL       Label
   \   000000E8   06B0               ADD      SP,SP,#+24
   2446              
   2447              
   2448          }//_______________________ Koniec funkcji Mesage_Paint __________________________
   \                     ??Message_Paint_5:
   \   000000EA   0748               LDR      R0,??Message_Paint_0+0x14  ;; 0x40c
   \   000000EC   8544               ADD      SP,SP,R0
   \   000000EE   F0BC               POP      {R4-R7}
   \   000000F0   01BC               POP      {R0}
   \   000000F2   0047               BX       R0               ;; return
   \                     ??Message_Paint_0:
   \   000000F4   00FCFFFF           DC32     0xfffffc00
   \   000000F8   ........           DC32     g_Message
   \   000000FC   ........           DC32     g_info
   \   00000100   ........           DC32     `?<Constant {{0, 0, 0, 0, 0, 0, 0, 0, 0, 0, 0, `
   \   00000104   00000000           DC8      0x00, 0x00, 0x00, 0x00
   \   00000108   0C040000           DC32     0x40c
   2449          
   2450          
   2451          
   2452          
   2453          
   2454          
   2455          
   2456          //*-----------------------------------------------------------------------------
   2457          //* Nazwa funkcji :    FloToStr
   2458          //* Funkcja konwersji zmiennej float na ³añcuch string   
   2459          //*-----------------------------------------------------------------------------
   2460          //*  Value   - zmienna typu float
   2461          //*  Vstring - tablica znaków
   2462          //*  ill     - liloœæ znaków (max=9) , ostatnia wartoœæ zapisanego ³añcucha to zawsze 0
   2463          //*  Funkcja zwraca d³ugoœæ ³añcucha
   2464          //*-----------------------------------------------------------------------------

   \                                 In section Debug.txt, align 4, keep-with-next
   2465          char FloToStr (float Value, char Vstring[8],char ill) 
   2466          { 
   \                     FloToStr:
   \   00000000   F3B5               PUSH     {R0,R1,R4-R7,LR}
   \   00000002   97B0               SUB      SP,SP,#+92
   \   00000004   1400               MOVS     R4,R2
   2467            float str_tmp[15]={0,0,0,0,0,0,0,0,0,0,0,0,0,0,0};        
   \   00000006   07A8               ADD      R0,SP,#+28
   \   00000008   3C21               MOVS     R1,#+60
   \   0000000A   ........           BL       __aeabi_memclr4
   2468             int min;
   2469             ill-=1;
   \   0000000E   6846               MOV      R0,SP
   \   00000010   611E               SUBS     R1,R4,#+1
   \   00000012   0170               STRB     R1,[R0, #+0]
   \   00000014   0020               MOVS     R0,#+0
   \   00000016   0300               MOVS     R3,R0
   \   00000018   04E0               B        ??FloToStr_0
   2470            
   2471             for (char i=0; i<=7; i++)  Vstring[i]=0;
   \                     ??FloToStr_1:
   \   0000001A   189A               LDR      R2,[SP, #+96]
   \   0000001C   5354               STRB     R3,[R2, R1]
   \   0000001E   401C               ADDS     R0,R0,#+1
   \   00000020   0006               LSLS     R0,R0,#+24
   \   00000022   000E               LSRS     R0,R0,#+24
   \                     ??FloToStr_0:
   \   00000024   0100               MOVS     R1,R0
   \   00000026   0829               CMP      R1,#+8
   \   00000028   F7D3               BCC      ??FloToStr_1
   2472             for (char i=0; i<=14; i++)  str_tmp[i]=0;
   \   0000002A   1800               MOVS     R0,R3
   \   0000002C   07AA               ADD      R2,SP,#+28
   \   0000002E   04E0               B        ??FloToStr_2
   \                     ??FloToStr_3:
   \   00000030   8900               LSLS     R1,R1,#+2
   \   00000032   5350               STR      R3,[R2, R1]
   \   00000034   401C               ADDS     R0,R0,#+1
   \   00000036   0006               LSLS     R0,R0,#+24
   \   00000038   000E               LSRS     R0,R0,#+24
   \                     ??FloToStr_2:
   \   0000003A   0100               MOVS     R1,R0
   \   0000003C   0F29               CMP      R1,#+15
   \   0000003E   F7D3               BCC      ??FloToStr_3
   2473             
   2474             min=0;
   \   00000040   1800               MOVS     R0,R3
   \   00000042   0190               STR      R0,[SP, #+4]
   2475             if (Value<0)
   \   00000044   1798               LDR      R0,[SP, #+92]
   \   00000046   1900               MOVS     R1,R3
   \   00000048   ........           BL       __aeabi_cfcmple
   \   0000004C   0BD2               BCS      ??FloToStr_4
   2476             {
   2477               Value=Value*(-1); 
   \   0000004E   0100               MOVS     R1,R0
   \   00000050   1A48               LDR      R0,??FloToStr_5  ;; 0xbf800000
   \   00000052   ........           BL       __aeabi_fmul
   \   00000056   1790               STR      R0,[SP, #+92]
   2478               min=1;
   \   00000058   0120               MOVS     R0,#+1
   \   0000005A   0190               STR      R0,[SP, #+4]
   2479               ill-=1;
   \   0000005C   6846               MOV      R0,SP
   \   0000005E   6946               MOV      R1,SP
   \   00000060   0978               LDRB     R1,[R1, #+0]
   \   00000062   491E               SUBS     R1,R1,#+1
   \   00000064   0170               STRB     R1,[R0, #+0]
   2480             }
   2481             
   2482           
   2483             int E_tmp=0;
   \                     ??FloToStr_4:
   \   00000066   0025               MOVS     R5,#+0
   2484             int ill_tmp=0;
   \   00000068   2C00               MOVS     R4,R5
   2485             int ill_cor=0;
   \   0000006A   2000               MOVS     R0,R4
   \   0000006C   0690               STR      R0,[SP, #+24]
   2486             
   2487             
   2488             if (Value==0)
   \   0000006E   1798               LDR      R0,[SP, #+92]
   \   00000070   2100               MOVS     R1,R4
   \   00000072   ........           BL       __aeabi_cfcmpeq
   \   00000076   05D1               BNE      ??FloToStr_6
   2489             {
   2490               Vstring[0]=48;
   \   00000078   1898               LDR      R0,[SP, #+96]
   \   0000007A   3021               MOVS     R1,#+48
   \   0000007C   0170               STRB     R1,[R0, #+0]
   2491               ill_tmp=1;
   \   0000007E   0124               MOVS     R4,#+1
   \   00000080   00F0FBFC           BL       ??FloToStr_7
   2492             }
   2493             else
   2494             {
   2495              if (Value>=1000000000000) 
   \                     ??FloToStr_6:
   \   00000084   0E49               LDR      R1,??FloToStr_5+0x4  ;; 0x5368d4a5
   \   00000086   ........           BL       __aeabi_cfrcmple
   \   0000008A   1BD8               BHI      ??FloToStr_8
   2496              {
   2497                 Vstring[0]=0x4C; //L
   \   0000008C   1898               LDR      R0,[SP, #+96]
   \   0000008E   4C21               MOVS     R1,#+76
   \   00000090   0170               STRB     R1,[R0, #+0]
   2498                 Vstring[1]=0x4F; //O
   \   00000092   1898               LDR      R0,[SP, #+96]
   \   00000094   4F21               MOVS     R1,#+79
   \   00000096   4170               STRB     R1,[R0, #+1]
   2499                 Vstring[2]=0x4E; //N
   \   00000098   1898               LDR      R0,[SP, #+96]
   \   0000009A   4E21               MOVS     R1,#+78
   \   0000009C   8170               STRB     R1,[R0, #+2]
   2500                 Vstring[3]=0x47; //G
   \   0000009E   1898               LDR      R0,[SP, #+96]
   \   000000A0   4721               MOVS     R1,#+71
   \   000000A2   C170               STRB     R1,[R0, #+3]
   2501                 Vstring[4]=0; Vstring[5]=0; Vstring[6]=0; Vstring[7]=0;
   \   000000A4   1898               LDR      R0,[SP, #+96]
   \   000000A6   2100               MOVS     R1,R4
   \   000000A8   0171               STRB     R1,[R0, #+4]
   \   000000AA   1898               LDR      R0,[SP, #+96]
   \   000000AC   4171               STRB     R1,[R0, #+5]
   \   000000AE   1898               LDR      R0,[SP, #+96]
   \   000000B0   8171               STRB     R1,[R0, #+6]
   \   000000B2   1898               LDR      R0,[SP, #+96]
   \   000000B4   C171               STRB     R1,[R0, #+7]
   \   000000B6   00F0E0FC           BL       ??FloToStr_7
   \   000000BA   C046               Nop      
   \                     ??FloToStr_5:
   \   000000BC   000080BF           DC32     0xbf800000
   \   000000C0   A5D46853           DC32     0x5368d4a5
   2502              }  
   \                     ??FloToStr_8:
   \   000000C4   0100               MOVS     R1,R0
   \   000000C6   D348               LDR      R0,??FloToStr_9  ;; 0x49742400
   \   000000C8   ........           BL       __aeabi_fmul
   \   000000CC   ........           BL       __aeabi_f2lz
   \   000000D0   04AA               ADD      R2,SP,#+16
   \   000000D2   03C2               STM      R2!,{R0,R1}
   2503              else 
   2504              {  
   2505                long long int __Value=(long long int)(Value*1000000);
   2506                long long int __ValueRST=__Value;
   \   000000D4   04A8               ADD      R0,SP,#+16
   \   000000D6   C0C8               LDM      R0!,{R6,R7}
   \   000000D8   02AA               ADD      R2,SP,#+8
   \   000000DA   2000               MOVS     R0,R4
   \   000000DC   0100               MOVS     R1,R0
   \   000000DE   03C2               STM      R2!,{R0,R1}
   2507                long long int NastDiel=0;
   2508               
   2509                 if (Value>=100000000000 ) {if (E_tmp==0) E_tmp=12;     if (ill_tmp<ill)                   { ill_tmp++;  str_tmp[ill_tmp]=48+__Value    / 100000000000000000; __ValueRST=__Value    % 100000000000000000; }};
   \   000000E0   1798               LDR      R0,[SP, #+92]
   \   000000E2   CD49               LDR      R1,??FloToStr_9+0x4  ;; 0x51ba43b7
   \   000000E4   ........           BL       __aeabi_cfrcmple
   \   000000E8   19D8               BHI      ??FloToStr_10
   \   000000EA   0C25               MOVS     R5,#+12
   \   000000EC   6846               MOV      R0,SP
   \   000000EE   0078               LDRB     R0,[R0, #+0]
   \   000000F0   0028               CMP      R0,#+0
   \   000000F2   14D0               BEQ      ??FloToStr_10
   \   000000F4   0124               MOVS     R4,#+1
   \   000000F6   04A8               ADD      R0,SP,#+16
   \   000000F8   03C8               LDM      R0!,{R0,R1}
   \   000000FA   C84A               LDR      R2,??FloToStr_9+0x8  ;; 0x5d8a0000
   \   000000FC   C84B               LDR      R3,??FloToStr_9+0xC  ;; 0x1634578
   \   000000FE   ........           BL       __aeabi_ldivmod
   \   00000102   0022               MOVS     R2,#+0
   \   00000104   3030               ADDS     R0,R0,#+48
   \   00000106   5141               ADCS     R1,R1,R2
   \   00000108   ........           BL       __aeabi_l2f
   \   0000010C   0890               STR      R0,[SP, #+32]
   \   0000010E   04A8               ADD      R0,SP,#+16
   \   00000110   03C8               LDM      R0!,{R0,R1}
   \   00000112   C24A               LDR      R2,??FloToStr_9+0x8  ;; 0x5d8a0000
   \   00000114   C24B               LDR      R3,??FloToStr_9+0xC  ;; 0x1634578
   \   00000116   ........           BL       __aeabi_ldivmod
   \   0000011A   1600               MOVS     R6,R2
   \   0000011C   1F00               MOVS     R7,R3
   2510                 if (Value>=10000000000  ) {if (E_tmp==0) E_tmp=11;     if (ill_tmp<ill)                   { ill_tmp++;  str_tmp[ill_tmp]=48+__ValueRST / 10000000000000000 ; __ValueRST=__ValueRST % 10000000000000000 ; }};
   \                     ??FloToStr_10:
   \   0000011E   1798               LDR      R0,[SP, #+92]
   \   00000120   C049               LDR      R1,??FloToStr_9+0x10  ;; 0x501502f9
   \   00000122   ........           BL       __aeabi_cfrcmple
   \   00000126   1DD8               BHI      ??FloToStr_11
   \   00000128   002D               CMP      R5,#+0
   \   0000012A   00D1               BNE      ??FloToStr_12
   \   0000012C   0B25               MOVS     R5,#+11
   \                     ??FloToStr_12:
   \   0000012E   6846               MOV      R0,SP
   \   00000130   0078               LDRB     R0,[R0, #+0]
   \   00000132   8442               CMP      R4,R0
   \   00000134   16DA               BGE      ??FloToStr_11
   \   00000136   641C               ADDS     R4,R4,#+1
   \   00000138   3000               MOVS     R0,R6
   \   0000013A   3900               MOVS     R1,R7
   \   0000013C   BA4A               LDR      R2,??FloToStr_9+0x14  ;; 0x6fc10000
   \   0000013E   BB4B               LDR      R3,??FloToStr_9+0x18  ;; 0x2386f2
   \   00000140   ........           BL       __aeabi_ldivmod
   \   00000144   0022               MOVS     R2,#+0
   \   00000146   3030               ADDS     R0,R0,#+48
   \   00000148   5141               ADCS     R1,R1,R2
   \   0000014A   ........           BL       __aeabi_l2f
   \   0000014E   A100               LSLS     R1,R4,#+2
   \   00000150   07AA               ADD      R2,SP,#+28
   \   00000152   5050               STR      R0,[R2, R1]
   \   00000154   3000               MOVS     R0,R6
   \   00000156   3900               MOVS     R1,R7
   \   00000158   B34A               LDR      R2,??FloToStr_9+0x14  ;; 0x6fc10000
   \   0000015A   B44B               LDR      R3,??FloToStr_9+0x18  ;; 0x2386f2
   \   0000015C   ........           BL       __aeabi_ldivmod
   \   00000160   1600               MOVS     R6,R2
   \   00000162   1F00               MOVS     R7,R3
   2511                 if (Value>=1000000000   ) {if (E_tmp==0) E_tmp=10;     if (ill_tmp<ill)                   { ill_tmp++;  str_tmp[ill_tmp]=48+__ValueRST / 1000000000000000  ; __ValueRST=__ValueRST % 1000000000000000  ; }};
   \                     ??FloToStr_11:
   \   00000164   1798               LDR      R0,[SP, #+92]
   \   00000166   B249               LDR      R1,??FloToStr_9+0x1C  ;; 0x4e6e6b28
   \   00000168   ........           BL       __aeabi_cfrcmple
   \   0000016C   1DD8               BHI      ??FloToStr_13
   \   0000016E   002D               CMP      R5,#+0
   \   00000170   00D1               BNE      ??FloToStr_14
   \   00000172   0A25               MOVS     R5,#+10
   \                     ??FloToStr_14:
   \   00000174   6846               MOV      R0,SP
   \   00000176   0078               LDRB     R0,[R0, #+0]
   \   00000178   8442               CMP      R4,R0
   \   0000017A   16DA               BGE      ??FloToStr_13
   \   0000017C   641C               ADDS     R4,R4,#+1
   \   0000017E   3000               MOVS     R0,R6
   \   00000180   3900               MOVS     R1,R7
   \   00000182   AC4A               LDR      R2,??FloToStr_9+0x20  ;; 0xa4c68000
   \   00000184   AC4B               LDR      R3,??FloToStr_9+0x24  ;; 0x38d7e
   \   00000186   ........           BL       __aeabi_ldivmod
   \   0000018A   0022               MOVS     R2,#+0
   \   0000018C   3030               ADDS     R0,R0,#+48
   \   0000018E   5141               ADCS     R1,R1,R2
   \   00000190   ........           BL       __aeabi_l2f
   \   00000194   A100               LSLS     R1,R4,#+2
   \   00000196   07AA               ADD      R2,SP,#+28
   \   00000198   5050               STR      R0,[R2, R1]
   \   0000019A   3000               MOVS     R0,R6
   \   0000019C   3900               MOVS     R1,R7
   \   0000019E   A54A               LDR      R2,??FloToStr_9+0x20  ;; 0xa4c68000
   \   000001A0   A54B               LDR      R3,??FloToStr_9+0x24  ;; 0x38d7e
   \   000001A2   ........           BL       __aeabi_ldivmod
   \   000001A6   1600               MOVS     R6,R2
   \   000001A8   1F00               MOVS     R7,R3
   2512                 if (Value>=100000000    ) {if (E_tmp==0) E_tmp=9;      if (ill_tmp<ill)                   { ill_tmp++;  str_tmp[ill_tmp]=48+__ValueRST / 100000000000000   ; __ValueRST=__ValueRST % 100000000000000   ; }};
   \                     ??FloToStr_13:
   \   000001AA   1798               LDR      R0,[SP, #+92]
   \   000001AC   A349               LDR      R1,??FloToStr_9+0x28  ;; 0x4cbebc20
   \   000001AE   ........           BL       __aeabi_cfrcmple
   \   000001B2   1DD8               BHI      ??FloToStr_15
   \   000001B4   002D               CMP      R5,#+0
   \   000001B6   00D1               BNE      ??FloToStr_16
   \   000001B8   0925               MOVS     R5,#+9
   \                     ??FloToStr_16:
   \   000001BA   6846               MOV      R0,SP
   \   000001BC   0078               LDRB     R0,[R0, #+0]
   \   000001BE   8442               CMP      R4,R0
   \   000001C0   16DA               BGE      ??FloToStr_15
   \   000001C2   641C               ADDS     R4,R4,#+1
   \   000001C4   3000               MOVS     R0,R6
   \   000001C6   3900               MOVS     R1,R7
   \   000001C8   9D4A               LDR      R2,??FloToStr_9+0x2C  ;; 0x107a4000
   \   000001CA   9E4B               LDR      R3,??FloToStr_9+0x30  ;; 0x5af3
   \   000001CC   ........           BL       __aeabi_ldivmod
   \   000001D0   0022               MOVS     R2,#+0
   \   000001D2   3030               ADDS     R0,R0,#+48
   \   000001D4   5141               ADCS     R1,R1,R2
   \   000001D6   ........           BL       __aeabi_l2f
   \   000001DA   A100               LSLS     R1,R4,#+2
   \   000001DC   07AA               ADD      R2,SP,#+28
   \   000001DE   5050               STR      R0,[R2, R1]
   \   000001E0   3000               MOVS     R0,R6
   \   000001E2   3900               MOVS     R1,R7
   \   000001E4   964A               LDR      R2,??FloToStr_9+0x2C  ;; 0x107a4000
   \   000001E6   974B               LDR      R3,??FloToStr_9+0x30  ;; 0x5af3
   \   000001E8   ........           BL       __aeabi_ldivmod
   \   000001EC   1600               MOVS     R6,R2
   \   000001EE   1F00               MOVS     R7,R3
   2513                 if (Value>=10000000     ) {if (E_tmp==0) E_tmp=8;      if (ill_tmp<ill)                   { ill_tmp++;  str_tmp[ill_tmp]=48+__ValueRST / 10000000000000    ; __ValueRST=__ValueRST % 10000000000000    ; }};
   \                     ??FloToStr_15:
   \   000001F0   1798               LDR      R0,[SP, #+92]
   \   000001F2   9549               LDR      R1,??FloToStr_9+0x34  ;; 0x4b189680
   \   000001F4   ........           BL       __aeabi_cfrcmple
   \   000001F8   1DD8               BHI      ??FloToStr_17
   \   000001FA   002D               CMP      R5,#+0
   \   000001FC   00D1               BNE      ??FloToStr_18
   \   000001FE   0825               MOVS     R5,#+8
   \                     ??FloToStr_18:
   \   00000200   6846               MOV      R0,SP
   \   00000202   0078               LDRB     R0,[R0, #+0]
   \   00000204   8442               CMP      R4,R0
   \   00000206   16DA               BGE      ??FloToStr_17
   \   00000208   641C               ADDS     R4,R4,#+1
   \   0000020A   3000               MOVS     R0,R6
   \   0000020C   3900               MOVS     R1,R7
   \   0000020E   8F4A               LDR      R2,??FloToStr_9+0x38  ;; 0x4e72a000
   \   00000210   8F4B               LDR      R3,??FloToStr_9+0x3C  ;; 0x918
   \   00000212   ........           BL       __aeabi_ldivmod
   \   00000216   0022               MOVS     R2,#+0
   \   00000218   3030               ADDS     R0,R0,#+48
   \   0000021A   5141               ADCS     R1,R1,R2
   \   0000021C   ........           BL       __aeabi_l2f
   \   00000220   A100               LSLS     R1,R4,#+2
   \   00000222   07AA               ADD      R2,SP,#+28
   \   00000224   5050               STR      R0,[R2, R1]
   \   00000226   3000               MOVS     R0,R6
   \   00000228   3900               MOVS     R1,R7
   \   0000022A   884A               LDR      R2,??FloToStr_9+0x38  ;; 0x4e72a000
   \   0000022C   884B               LDR      R3,??FloToStr_9+0x3C  ;; 0x918
   \   0000022E   ........           BL       __aeabi_ldivmod
   \   00000232   1600               MOVS     R6,R2
   \   00000234   1F00               MOVS     R7,R3
   2514                 if (Value>=1000000      ) {if (E_tmp==0) E_tmp=7;      if (ill_tmp<ill)                   { ill_tmp++;  str_tmp[ill_tmp]=48+__ValueRST / 1000000000000     ; __ValueRST=__ValueRST % 1000000000000     ; NastDiel=100000000000; }};
   \                     ??FloToStr_17:
   \   00000236   1798               LDR      R0,[SP, #+92]
   \   00000238   7649               LDR      R1,??FloToStr_9  ;; 0x49742400
   \   0000023A   ........           BL       __aeabi_cfrcmple
   \   0000023E   21D8               BHI      ??FloToStr_19
   \   00000240   002D               CMP      R5,#+0
   \   00000242   00D1               BNE      ??FloToStr_20
   \   00000244   0725               MOVS     R5,#+7
   \                     ??FloToStr_20:
   \   00000246   6846               MOV      R0,SP
   \   00000248   0078               LDRB     R0,[R0, #+0]
   \   0000024A   8442               CMP      R4,R0
   \   0000024C   1ADA               BGE      ??FloToStr_19
   \   0000024E   641C               ADDS     R4,R4,#+1
   \   00000250   3000               MOVS     R0,R6
   \   00000252   3900               MOVS     R1,R7
   \   00000254   7F4A               LDR      R2,??FloToStr_9+0x40  ;; 0xd4a51000
   \   00000256   E823               MOVS     R3,#+232
   \   00000258   ........           BL       __aeabi_ldivmod
   \   0000025C   0022               MOVS     R2,#+0
   \   0000025E   3030               ADDS     R0,R0,#+48
   \   00000260   5141               ADCS     R1,R1,R2
   \   00000262   ........           BL       __aeabi_l2f
   \   00000266   A100               LSLS     R1,R4,#+2
   \   00000268   07AA               ADD      R2,SP,#+28
   \   0000026A   5050               STR      R0,[R2, R1]
   \   0000026C   3000               MOVS     R0,R6
   \   0000026E   3900               MOVS     R1,R7
   \   00000270   784A               LDR      R2,??FloToStr_9+0x40  ;; 0xd4a51000
   \   00000272   E823               MOVS     R3,#+232
   \   00000274   ........           BL       __aeabi_ldivmod
   \   00000278   1600               MOVS     R6,R2
   \   0000027A   1F00               MOVS     R7,R3
   \   0000027C   02AA               ADD      R2,SP,#+8
   \   0000027E   7648               LDR      R0,??FloToStr_9+0x44  ;; 0x4876e800
   \   00000280   1721               MOVS     R1,#+23
   \   00000282   03C2               STM      R2!,{R0,R1}
   2515                 if (Value>=100000       ) {if (E_tmp==0) E_tmp=6;      if (ill_tmp<ill)                   { ill_tmp++;  str_tmp[ill_tmp]=48+__ValueRST / 100000000000      ; __ValueRST=__ValueRST % 100000000000      ; NastDiel=10000000000 ; }};
   \                     ??FloToStr_19:
   \   00000284   1798               LDR      R0,[SP, #+92]
   \   00000286   7549               LDR      R1,??FloToStr_9+0x48  ;; 0x47c35000
   \   00000288   ........           BL       __aeabi_cfrcmple
   \   0000028C   21D8               BHI      ??FloToStr_21
   \   0000028E   002D               CMP      R5,#+0
   \   00000290   00D1               BNE      ??FloToStr_22
   \   00000292   0625               MOVS     R5,#+6
   \                     ??FloToStr_22:
   \   00000294   6846               MOV      R0,SP
   \   00000296   0078               LDRB     R0,[R0, #+0]
   \   00000298   8442               CMP      R4,R0
   \   0000029A   1ADA               BGE      ??FloToStr_21
   \   0000029C   641C               ADDS     R4,R4,#+1
   \   0000029E   3000               MOVS     R0,R6
   \   000002A0   3900               MOVS     R1,R7
   \   000002A2   6D4A               LDR      R2,??FloToStr_9+0x44  ;; 0x4876e800
   \   000002A4   1723               MOVS     R3,#+23
   \   000002A6   ........           BL       __aeabi_ldivmod
   \   000002AA   0022               MOVS     R2,#+0
   \   000002AC   3030               ADDS     R0,R0,#+48
   \   000002AE   5141               ADCS     R1,R1,R2
   \   000002B0   ........           BL       __aeabi_l2f
   \   000002B4   A100               LSLS     R1,R4,#+2
   \   000002B6   07AA               ADD      R2,SP,#+28
   \   000002B8   5050               STR      R0,[R2, R1]
   \   000002BA   3000               MOVS     R0,R6
   \   000002BC   3900               MOVS     R1,R7
   \   000002BE   664A               LDR      R2,??FloToStr_9+0x44  ;; 0x4876e800
   \   000002C0   1723               MOVS     R3,#+23
   \   000002C2   ........           BL       __aeabi_ldivmod
   \   000002C6   1600               MOVS     R6,R2
   \   000002C8   1F00               MOVS     R7,R3
   \   000002CA   02AA               ADD      R2,SP,#+8
   \   000002CC   6448               LDR      R0,??FloToStr_9+0x4C  ;; 0x540be400
   \   000002CE   0221               MOVS     R1,#+2
   \   000002D0   03C2               STM      R2!,{R0,R1}
   2516                 if (Value>=10000        ) {if (E_tmp==0) E_tmp=5;      if (ill_tmp<ill) { ill_tmp++;  str_tmp[ill_tmp]=48+__ValueRST / 10000000000       ; __ValueRST=__ValueRST % 10000000000       ; NastDiel=1000000000  ; }};
   \                     ??FloToStr_21:
   \   000002D2   1798               LDR      R0,[SP, #+92]
   \   000002D4   6349               LDR      R1,??FloToStr_9+0x50  ;; 0x461c4000
   \   000002D6   ........           BL       __aeabi_cfrcmple
   \   000002DA   21D8               BHI      ??FloToStr_23
   \   000002DC   002D               CMP      R5,#+0
   \   000002DE   00D1               BNE      ??FloToStr_24
   \   000002E0   0525               MOVS     R5,#+5
   \                     ??FloToStr_24:
   \   000002E2   6846               MOV      R0,SP
   \   000002E4   0078               LDRB     R0,[R0, #+0]
   \   000002E6   8442               CMP      R4,R0
   \   000002E8   1ADA               BGE      ??FloToStr_23
   \   000002EA   641C               ADDS     R4,R4,#+1
   \   000002EC   3000               MOVS     R0,R6
   \   000002EE   3900               MOVS     R1,R7
   \   000002F0   5B4A               LDR      R2,??FloToStr_9+0x4C  ;; 0x540be400
   \   000002F2   0223               MOVS     R3,#+2
   \   000002F4   ........           BL       __aeabi_ldivmod
   \   000002F8   0022               MOVS     R2,#+0
   \   000002FA   3030               ADDS     R0,R0,#+48
   \   000002FC   5141               ADCS     R1,R1,R2
   \   000002FE   ........           BL       __aeabi_l2f
   \   00000302   A100               LSLS     R1,R4,#+2
   \   00000304   07AA               ADD      R2,SP,#+28
   \   00000306   5050               STR      R0,[R2, R1]
   \   00000308   3000               MOVS     R0,R6
   \   0000030A   3900               MOVS     R1,R7
   \   0000030C   544A               LDR      R2,??FloToStr_9+0x4C  ;; 0x540be400
   \   0000030E   0223               MOVS     R3,#+2
   \   00000310   ........           BL       __aeabi_ldivmod
   \   00000314   1600               MOVS     R6,R2
   \   00000316   1F00               MOVS     R7,R3
   \   00000318   02AA               ADD      R2,SP,#+8
   \   0000031A   5348               LDR      R0,??FloToStr_9+0x54  ;; 0x3b9aca00
   \   0000031C   0021               MOVS     R1,#+0
   \   0000031E   03C2               STM      R2!,{R0,R1}
   2517                 if (Value>=1000         ) {if (E_tmp==0) E_tmp=4;      if (ill_tmp<ill) { ill_tmp++;  str_tmp[ill_tmp]=48+__ValueRST / 1000000000        ; __ValueRST=__ValueRST % 1000000000        ; NastDiel=100000000   ; }};
   \                     ??FloToStr_23:
   \   00000320   1798               LDR      R0,[SP, #+92]
   \   00000322   5249               LDR      R1,??FloToStr_9+0x58  ;; 0x447a0000
   \   00000324   ........           BL       __aeabi_cfrcmple
   \   00000328   21D8               BHI      ??FloToStr_25
   \   0000032A   002D               CMP      R5,#+0
   \   0000032C   00D1               BNE      ??FloToStr_26
   \   0000032E   0425               MOVS     R5,#+4
   \                     ??FloToStr_26:
   \   00000330   6846               MOV      R0,SP
   \   00000332   0078               LDRB     R0,[R0, #+0]
   \   00000334   8442               CMP      R4,R0
   \   00000336   1ADA               BGE      ??FloToStr_25
   \   00000338   641C               ADDS     R4,R4,#+1
   \   0000033A   3000               MOVS     R0,R6
   \   0000033C   3900               MOVS     R1,R7
   \   0000033E   4A4A               LDR      R2,??FloToStr_9+0x54  ;; 0x3b9aca00
   \   00000340   0023               MOVS     R3,#+0
   \   00000342   ........           BL       __aeabi_ldivmod
   \   00000346   0022               MOVS     R2,#+0
   \   00000348   3030               ADDS     R0,R0,#+48
   \   0000034A   5141               ADCS     R1,R1,R2
   \   0000034C   ........           BL       __aeabi_l2f
   \   00000350   A100               LSLS     R1,R4,#+2
   \   00000352   07AA               ADD      R2,SP,#+28
   \   00000354   5050               STR      R0,[R2, R1]
   \   00000356   3000               MOVS     R0,R6
   \   00000358   3900               MOVS     R1,R7
   \   0000035A   434A               LDR      R2,??FloToStr_9+0x54  ;; 0x3b9aca00
   \   0000035C   0023               MOVS     R3,#+0
   \   0000035E   ........           BL       __aeabi_ldivmod
   \   00000362   1600               MOVS     R6,R2
   \   00000364   1F00               MOVS     R7,R3
   \   00000366   02AA               ADD      R2,SP,#+8
   \   00000368   4148               LDR      R0,??FloToStr_9+0x5C  ;; 0x5f5e100
   \   0000036A   0021               MOVS     R1,#+0
   \   0000036C   03C2               STM      R2!,{R0,R1}
   2518                 if (Value>=100          ) {if (E_tmp==0) E_tmp=3;      if (ill_tmp<ill) { ill_tmp++;  str_tmp[ill_tmp]=48+__ValueRST / 100000000         ; __ValueRST=__ValueRST % 100000000         ; NastDiel=10000000    ; }};
   \                     ??FloToStr_25:
   \   0000036E   1798               LDR      R0,[SP, #+92]
   \   00000370   4049               LDR      R1,??FloToStr_9+0x60  ;; 0x42c80000
   \   00000372   ........           BL       __aeabi_cfrcmple
   \   00000376   21D8               BHI      ??FloToStr_27
   \   00000378   002D               CMP      R5,#+0
   \   0000037A   00D1               BNE      ??FloToStr_28
   \   0000037C   0325               MOVS     R5,#+3
   \                     ??FloToStr_28:
   \   0000037E   6846               MOV      R0,SP
   \   00000380   0078               LDRB     R0,[R0, #+0]
   \   00000382   8442               CMP      R4,R0
   \   00000384   1ADA               BGE      ??FloToStr_27
   \   00000386   641C               ADDS     R4,R4,#+1
   \   00000388   3000               MOVS     R0,R6
   \   0000038A   3900               MOVS     R1,R7
   \   0000038C   384A               LDR      R2,??FloToStr_9+0x5C  ;; 0x5f5e100
   \   0000038E   0023               MOVS     R3,#+0
   \   00000390   ........           BL       __aeabi_ldivmod
   \   00000394   0022               MOVS     R2,#+0
   \   00000396   3030               ADDS     R0,R0,#+48
   \   00000398   5141               ADCS     R1,R1,R2
   \   0000039A   ........           BL       __aeabi_l2f
   \   0000039E   A100               LSLS     R1,R4,#+2
   \   000003A0   07AA               ADD      R2,SP,#+28
   \   000003A2   5050               STR      R0,[R2, R1]
   \   000003A4   3000               MOVS     R0,R6
   \   000003A6   3900               MOVS     R1,R7
   \   000003A8   314A               LDR      R2,??FloToStr_9+0x5C  ;; 0x5f5e100
   \   000003AA   0023               MOVS     R3,#+0
   \   000003AC   ........           BL       __aeabi_ldivmod
   \   000003B0   1600               MOVS     R6,R2
   \   000003B2   1F00               MOVS     R7,R3
   \   000003B4   02AA               ADD      R2,SP,#+8
   \   000003B6   3048               LDR      R0,??FloToStr_9+0x64  ;; 0x989680
   \   000003B8   0021               MOVS     R1,#+0
   \   000003BA   03C2               STM      R2!,{R0,R1}
   2519                 if (Value>=10           ) {if (E_tmp==0) E_tmp=2;      if (ill_tmp<ill) { ill_tmp++;  str_tmp[ill_tmp]=48+__ValueRST / 10000000          ; __ValueRST=__ValueRST % 10000000          ; NastDiel=1000000     ; }};
   \                     ??FloToStr_27:
   \   000003BC   1798               LDR      R0,[SP, #+92]
   \   000003BE   2F49               LDR      R1,??FloToStr_9+0x68  ;; 0x41200000
   \   000003C0   ........           BL       __aeabi_cfrcmple
   \   000003C4   21D8               BHI      ??FloToStr_29
   \   000003C6   002D               CMP      R5,#+0
   \   000003C8   00D1               BNE      ??FloToStr_30
   \   000003CA   0225               MOVS     R5,#+2
   \                     ??FloToStr_30:
   \   000003CC   6846               MOV      R0,SP
   \   000003CE   0078               LDRB     R0,[R0, #+0]
   \   000003D0   8442               CMP      R4,R0
   \   000003D2   1ADA               BGE      ??FloToStr_29
   \   000003D4   641C               ADDS     R4,R4,#+1
   \   000003D6   3000               MOVS     R0,R6
   \   000003D8   3900               MOVS     R1,R7
   \   000003DA   274A               LDR      R2,??FloToStr_9+0x64  ;; 0x989680
   \   000003DC   0023               MOVS     R3,#+0
   \   000003DE   ........           BL       __aeabi_ldivmod
   \   000003E2   0022               MOVS     R2,#+0
   \   000003E4   3030               ADDS     R0,R0,#+48
   \   000003E6   5141               ADCS     R1,R1,R2
   \   000003E8   ........           BL       __aeabi_l2f
   \   000003EC   A100               LSLS     R1,R4,#+2
   \   000003EE   07AA               ADD      R2,SP,#+28
   \   000003F0   5050               STR      R0,[R2, R1]
   \   000003F2   3000               MOVS     R0,R6
   \   000003F4   3900               MOVS     R1,R7
   \   000003F6   204A               LDR      R2,??FloToStr_9+0x64  ;; 0x989680
   \   000003F8   0023               MOVS     R3,#+0
   \   000003FA   ........           BL       __aeabi_ldivmod
   \   000003FE   1600               MOVS     R6,R2
   \   00000400   1F00               MOVS     R7,R3
   \   00000402   02AA               ADD      R2,SP,#+8
   \   00000404   1E48               LDR      R0,??FloToStr_9+0x6C  ;; 0xf4240
   \   00000406   0021               MOVS     R1,#+0
   \   00000408   03C2               STM      R2!,{R0,R1}
   \                     ??FloToStr_29:
   \   0000040A   1798               LDR      R0,[SP, #+92]
   \   0000040C   FE21               MOVS     R1,#+254
   \   0000040E   8905               LSLS     R1,R1,#+22       ;; #+1065353216
   \   00000410   38E0               B.N      ??FloToStr_31
   \   00000412   C046               Nop      
   \                     ??FloToStr_9:
   \   00000414   00247449           DC32     0x49742400
   \   00000418   B743BA51           DC32     0x51ba43b7
   \   0000041C   00008A5D           DC32     0x5d8a0000
   \   00000420   78456301           DC32     0x1634578
   \   00000424   F9021550           DC32     0x501502f9
   \   00000428   0000C16F           DC32     0x6fc10000
   \   0000042C   F2862300           DC32     0x2386f2
   \   00000430   286B6E4E           DC32     0x4e6e6b28
   \   00000434   0080C6A4           DC32     0xa4c68000
   \   00000438   7E8D0300           DC32     0x38d7e
   \   0000043C   20BCBE4C           DC32     0x4cbebc20
   \   00000440   00407A10           DC32     0x107a4000
   \   00000444   F35A0000           DC32     0x5af3
   \   00000448   8096184B           DC32     0x4b189680
   \   0000044C   00A0724E           DC32     0x4e72a000
   \   00000450   18090000           DC32     0x918
   \   00000454   0010A5D4           DC32     0xd4a51000
   \   00000458   00E87648           DC32     0x4876e800
   \   0000045C   0050C347           DC32     0x47c35000
   \   00000460   00E40B54           DC32     0x540be400
   \   00000464   00401C46           DC32     0x461c4000
   \   00000468   00CA9A3B           DC32     0x3b9aca00
   \   0000046C   00007A44           DC32     0x447a0000
   \   00000470   00E1F505           DC32     0x5f5e100
   \   00000474   0000C842           DC32     0x42c80000
   \   00000478   80969800           DC32     0x989680
   \   0000047C   00002041           DC32     0x41200000
   \   00000480   40420F00           DC32     0xf4240
   \                     ??FloToStr_31:
   \   00000484   ........           BL       __aeabi_cfrcmple
   \   00000488   21D8               BHI      ??FloToStr_32
   2520                 if (Value>=1            ) {if (E_tmp==0) E_tmp=1;      if (ill_tmp<ill) { ill_tmp++;  str_tmp[ill_tmp]=48+__ValueRST / 1000000           ; __ValueRST=__ValueRST % 1000000           ; NastDiel=100000      ; }};
   \   0000048A   002D               CMP      R5,#+0
   \   0000048C   00D1               BNE      ??FloToStr_33
   \   0000048E   0125               MOVS     R5,#+1
   \                     ??FloToStr_33:
   \   00000490   6846               MOV      R0,SP
   \   00000492   0078               LDRB     R0,[R0, #+0]
   \   00000494   8442               CMP      R4,R0
   \   00000496   1ADA               BGE      ??FloToStr_32
   \   00000498   641C               ADDS     R4,R4,#+1
   \   0000049A   3000               MOVS     R0,R6
   \   0000049C   3900               MOVS     R1,R7
   \   0000049E   C14A               LDR      R2,??FloToStr_34  ;; 0xf4240
   \   000004A0   0023               MOVS     R3,#+0
   \   000004A2   ........           BL       __aeabi_ldivmod
   \   000004A6   0022               MOVS     R2,#+0
   \   000004A8   3030               ADDS     R0,R0,#+48
   \   000004AA   5141               ADCS     R1,R1,R2
   \   000004AC   ........           BL       __aeabi_l2f
   \   000004B0   A100               LSLS     R1,R4,#+2
   \   000004B2   07AA               ADD      R2,SP,#+28
   \   000004B4   5050               STR      R0,[R2, R1]
   \   000004B6   3000               MOVS     R0,R6
   \   000004B8   3900               MOVS     R1,R7
   \   000004BA   BA4A               LDR      R2,??FloToStr_34  ;; 0xf4240
   \   000004BC   0023               MOVS     R3,#+0
   \   000004BE   ........           BL       __aeabi_ldivmod
   \   000004C2   1600               MOVS     R6,R2
   \   000004C4   1F00               MOVS     R7,R3
   \   000004C6   02AA               ADD      R2,SP,#+8
   \   000004C8   B748               LDR      R0,??FloToStr_34+0x4  ;; 0x186a0
   \   000004CA   0021               MOVS     R1,#+0
   \   000004CC   03C2               STM      R2!,{R0,R1}
   2521                 if (Value>=0.09999      ) {if (E_tmp==0) E_tmp=100;    if ((ill_tmp<ill)&&(__ValueRST>0)) { ill_tmp++;  str_tmp[ill_tmp]=0x2E; ill_tmp++;  str_tmp[ill_tmp]=48+__ValueRST / 100000            ; __ValueRST=__ValueRST % 100000            ; NastDiel=10000; }};
   \                     ??FloToStr_32:
   \   000004CE   1798               LDR      R0,[SP, #+92]
   \   000004D0   B649               LDR      R1,??FloToStr_34+0x8  ;; 0x3dccc78f
   \   000004D2   ........           BL       __aeabi_cfrcmple
   \   000004D6   2BD8               BHI      ??FloToStr_35
   \   000004D8   002D               CMP      R5,#+0
   \   000004DA   00D1               BNE      ??FloToStr_36
   \   000004DC   6425               MOVS     R5,#+100
   \                     ??FloToStr_36:
   \   000004DE   6846               MOV      R0,SP
   \   000004E0   0078               LDRB     R0,[R0, #+0]
   \   000004E2   8442               CMP      R4,R0
   \   000004E4   24DA               BGE      ??FloToStr_35
   \   000004E6   002F               CMP      R7,#+0
   \   000004E8   22DB               BLT      ??FloToStr_35
   \   000004EA   01DC               BGT      ??FloToStr_37
   \   000004EC   012E               CMP      R6,#+1
   \   000004EE   1FD3               BCC      ??FloToStr_35
   \                     ??FloToStr_37:
   \   000004F0   641C               ADDS     R4,R4,#+1
   \   000004F2   A000               LSLS     R0,R4,#+2
   \   000004F4   07A9               ADD      R1,SP,#+28
   \   000004F6   AE4A               LDR      R2,??FloToStr_34+0xC  ;; 0x42380000
   \   000004F8   0A50               STR      R2,[R1, R0]
   \   000004FA   641C               ADDS     R4,R4,#+1
   \   000004FC   3000               MOVS     R0,R6
   \   000004FE   3900               MOVS     R1,R7
   \   00000500   A94A               LDR      R2,??FloToStr_34+0x4  ;; 0x186a0
   \   00000502   0023               MOVS     R3,#+0
   \   00000504   ........           BL       __aeabi_ldivmod
   \   00000508   0022               MOVS     R2,#+0
   \   0000050A   3030               ADDS     R0,R0,#+48
   \   0000050C   5141               ADCS     R1,R1,R2
   \   0000050E   ........           BL       __aeabi_l2f
   \   00000512   A100               LSLS     R1,R4,#+2
   \   00000514   07AA               ADD      R2,SP,#+28
   \   00000516   5050               STR      R0,[R2, R1]
   \   00000518   3000               MOVS     R0,R6
   \   0000051A   3900               MOVS     R1,R7
   \   0000051C   A24A               LDR      R2,??FloToStr_34+0x4  ;; 0x186a0
   \   0000051E   0023               MOVS     R3,#+0
   \   00000520   ........           BL       __aeabi_ldivmod
   \   00000524   1600               MOVS     R6,R2
   \   00000526   1F00               MOVS     R7,R3
   \   00000528   02AA               ADD      R2,SP,#+8
   \   0000052A   A248               LDR      R0,??FloToStr_34+0x10  ;; 0x2710
   \   0000052C   0021               MOVS     R1,#+0
   \   0000052E   03C2               STM      R2!,{R0,R1}
   2522                 if (Value>=0.009999     ) {if (E_tmp==0) E_tmp=101;    if ((ill_tmp<ill)&&(__ValueRST>0)) { ill_tmp++;  str_tmp[ill_tmp]=48+(__ValueRST / 10000)           ; __ValueRST=__ValueRST % 10000             ; NastDiel=1000        ; }};
   \                     ??FloToStr_35:
   \   00000530   1798               LDR      R0,[SP, #+92]
   \   00000532   A149               LDR      R1,??FloToStr_34+0x14  ;; 0x3c23d2d9
   \   00000534   ........           BL       __aeabi_cfrcmple
   \   00000538   27D8               BHI      ??FloToStr_38
   \   0000053A   002D               CMP      R5,#+0
   \   0000053C   00D1               BNE      ??FloToStr_39
   \   0000053E   6525               MOVS     R5,#+101
   \                     ??FloToStr_39:
   \   00000540   6846               MOV      R0,SP
   \   00000542   0078               LDRB     R0,[R0, #+0]
   \   00000544   8442               CMP      R4,R0
   \   00000546   20DA               BGE      ??FloToStr_38
   \   00000548   002F               CMP      R7,#+0
   \   0000054A   1EDB               BLT      ??FloToStr_38
   \   0000054C   01DC               BGT      ??FloToStr_40
   \   0000054E   012E               CMP      R6,#+1
   \   00000550   1BD3               BCC      ??FloToStr_38
   \                     ??FloToStr_40:
   \   00000552   641C               ADDS     R4,R4,#+1
   \   00000554   3000               MOVS     R0,R6
   \   00000556   3900               MOVS     R1,R7
   \   00000558   964A               LDR      R2,??FloToStr_34+0x10  ;; 0x2710
   \   0000055A   0023               MOVS     R3,#+0
   \   0000055C   ........           BL       __aeabi_ldivmod
   \   00000560   0022               MOVS     R2,#+0
   \   00000562   3030               ADDS     R0,R0,#+48
   \   00000564   5141               ADCS     R1,R1,R2
   \   00000566   ........           BL       __aeabi_l2f
   \   0000056A   A100               LSLS     R1,R4,#+2
   \   0000056C   07AA               ADD      R2,SP,#+28
   \   0000056E   5050               STR      R0,[R2, R1]
   \   00000570   3000               MOVS     R0,R6
   \   00000572   3900               MOVS     R1,R7
   \   00000574   8F4A               LDR      R2,??FloToStr_34+0x10  ;; 0x2710
   \   00000576   0023               MOVS     R3,#+0
   \   00000578   ........           BL       __aeabi_ldivmod
   \   0000057C   1600               MOVS     R6,R2
   \   0000057E   1F00               MOVS     R7,R3
   \   00000580   02AA               ADD      R2,SP,#+8
   \   00000582   FA20               MOVS     R0,#+250
   \   00000584   8000               LSLS     R0,R0,#+2        ;; #+1000
   \   00000586   0021               MOVS     R1,#+0
   \   00000588   03C2               STM      R2!,{R0,R1}
   2523                 if (Value>=0.0009999    ) {if (E_tmp==0) E_tmp=102;    if ((ill_tmp<ill)&&(__ValueRST>0)) { ill_tmp++;  str_tmp[ill_tmp]=48+(__ValueRST / 1000)            ; __ValueRST=__ValueRST % 1000              ; NastDiel=100         ; }};
   \                     ??FloToStr_38:
   \   0000058A   1798               LDR      R0,[SP, #+92]
   \   0000058C   8B49               LDR      R1,??FloToStr_34+0x18  ;; 0x3a830f14
   \   0000058E   ........           BL       __aeabi_cfrcmple
   \   00000592   28D8               BHI      ??FloToStr_41
   \   00000594   002D               CMP      R5,#+0
   \   00000596   00D1               BNE      ??FloToStr_42
   \   00000598   6625               MOVS     R5,#+102
   \                     ??FloToStr_42:
   \   0000059A   6846               MOV      R0,SP
   \   0000059C   0078               LDRB     R0,[R0, #+0]
   \   0000059E   8442               CMP      R4,R0
   \   000005A0   21DA               BGE      ??FloToStr_41
   \   000005A2   002F               CMP      R7,#+0
   \   000005A4   1FDB               BLT      ??FloToStr_41
   \   000005A6   01DC               BGT      ??FloToStr_43
   \   000005A8   012E               CMP      R6,#+1
   \   000005AA   1CD3               BCC      ??FloToStr_41
   \                     ??FloToStr_43:
   \   000005AC   641C               ADDS     R4,R4,#+1
   \   000005AE   3000               MOVS     R0,R6
   \   000005B0   3900               MOVS     R1,R7
   \   000005B2   FA22               MOVS     R2,#+250
   \   000005B4   9200               LSLS     R2,R2,#+2        ;; #+1000
   \   000005B6   0023               MOVS     R3,#+0
   \   000005B8   ........           BL       __aeabi_ldivmod
   \   000005BC   0022               MOVS     R2,#+0
   \   000005BE   3030               ADDS     R0,R0,#+48
   \   000005C0   5141               ADCS     R1,R1,R2
   \   000005C2   ........           BL       __aeabi_l2f
   \   000005C6   A100               LSLS     R1,R4,#+2
   \   000005C8   07AA               ADD      R2,SP,#+28
   \   000005CA   5050               STR      R0,[R2, R1]
   \   000005CC   3000               MOVS     R0,R6
   \   000005CE   3900               MOVS     R1,R7
   \   000005D0   FA22               MOVS     R2,#+250
   \   000005D2   9200               LSLS     R2,R2,#+2        ;; #+1000
   \   000005D4   0023               MOVS     R3,#+0
   \   000005D6   ........           BL       __aeabi_ldivmod
   \   000005DA   1600               MOVS     R6,R2
   \   000005DC   1F00               MOVS     R7,R3
   \   000005DE   02AA               ADD      R2,SP,#+8
   \   000005E0   6420               MOVS     R0,#+100
   \   000005E2   0021               MOVS     R1,#+0
   \   000005E4   03C2               STM      R2!,{R0,R1}
   2524                 if (Value>=0.00009999   ) {if (E_tmp==0) E_tmp=103;    if ((ill_tmp<ill)&&(__ValueRST>0)) { ill_tmp++;  str_tmp[ill_tmp]=48+(__ValueRST / 100)             ; __ValueRST=__ValueRST % 100               ; NastDiel=10          ; }};
   \                     ??FloToStr_41:
   \   000005E6   1798               LDR      R0,[SP, #+92]
   \   000005E8   7549               LDR      R1,??FloToStr_34+0x1C  ;; 0x38d1b1b9
   \   000005EA   ........           BL       __aeabi_cfrcmple
   \   000005EE   26D8               BHI      ??FloToStr_44
   \   000005F0   002D               CMP      R5,#+0
   \   000005F2   00D1               BNE      ??FloToStr_45
   \   000005F4   6725               MOVS     R5,#+103
   \                     ??FloToStr_45:
   \   000005F6   6846               MOV      R0,SP
   \   000005F8   0078               LDRB     R0,[R0, #+0]
   \   000005FA   8442               CMP      R4,R0
   \   000005FC   1FDA               BGE      ??FloToStr_44
   \   000005FE   002F               CMP      R7,#+0
   \   00000600   1DDB               BLT      ??FloToStr_44
   \   00000602   01DC               BGT      ??FloToStr_46
   \   00000604   012E               CMP      R6,#+1
   \   00000606   1AD3               BCC      ??FloToStr_44
   \                     ??FloToStr_46:
   \   00000608   641C               ADDS     R4,R4,#+1
   \   0000060A   3000               MOVS     R0,R6
   \   0000060C   3900               MOVS     R1,R7
   \   0000060E   6422               MOVS     R2,#+100
   \   00000610   0023               MOVS     R3,#+0
   \   00000612   ........           BL       __aeabi_ldivmod
   \   00000616   0022               MOVS     R2,#+0
   \   00000618   3030               ADDS     R0,R0,#+48
   \   0000061A   5141               ADCS     R1,R1,R2
   \   0000061C   ........           BL       __aeabi_l2f
   \   00000620   A100               LSLS     R1,R4,#+2
   \   00000622   07AA               ADD      R2,SP,#+28
   \   00000624   5050               STR      R0,[R2, R1]
   \   00000626   3000               MOVS     R0,R6
   \   00000628   3900               MOVS     R1,R7
   \   0000062A   6422               MOVS     R2,#+100
   \   0000062C   0023               MOVS     R3,#+0
   \   0000062E   ........           BL       __aeabi_ldivmod
   \   00000632   1600               MOVS     R6,R2
   \   00000634   1F00               MOVS     R7,R3
   \   00000636   02AA               ADD      R2,SP,#+8
   \   00000638   0A20               MOVS     R0,#+10
   \   0000063A   0021               MOVS     R1,#+0
   \   0000063C   03C2               STM      R2!,{R0,R1}
   2525                 if (Value>=0.000009999  ) {if (E_tmp==0) E_tmp=104;    if ((ill_tmp<ill)&&(__ValueRST>0)) { ill_tmp++;  str_tmp[ill_tmp]=48+(__ValueRST / 10)              ; __ValueRST=__ValueRST % 10                ; NastDiel=1           ; }};
   \                     ??FloToStr_44:
   \   0000063E   1798               LDR      R0,[SP, #+92]
   \   00000640   6049               LDR      R1,??FloToStr_34+0x20  ;; 0x3727c161
   \   00000642   ........           BL       __aeabi_cfrcmple
   \   00000646   26D8               BHI      ??FloToStr_47
   \   00000648   002D               CMP      R5,#+0
   \   0000064A   00D1               BNE      ??FloToStr_48
   \   0000064C   6825               MOVS     R5,#+104
   \                     ??FloToStr_48:
   \   0000064E   6846               MOV      R0,SP
   \   00000650   0078               LDRB     R0,[R0, #+0]
   \   00000652   8442               CMP      R4,R0
   \   00000654   1FDA               BGE      ??FloToStr_47
   \   00000656   002F               CMP      R7,#+0
   \   00000658   1DDB               BLT      ??FloToStr_47
   \   0000065A   01DC               BGT      ??FloToStr_49
   \   0000065C   012E               CMP      R6,#+1
   \   0000065E   1AD3               BCC      ??FloToStr_47
   \                     ??FloToStr_49:
   \   00000660   641C               ADDS     R4,R4,#+1
   \   00000662   3000               MOVS     R0,R6
   \   00000664   3900               MOVS     R1,R7
   \   00000666   0A22               MOVS     R2,#+10
   \   00000668   0023               MOVS     R3,#+0
   \   0000066A   ........           BL       __aeabi_ldivmod
   \   0000066E   0022               MOVS     R2,#+0
   \   00000670   3030               ADDS     R0,R0,#+48
   \   00000672   5141               ADCS     R1,R1,R2
   \   00000674   ........           BL       __aeabi_l2f
   \   00000678   A100               LSLS     R1,R4,#+2
   \   0000067A   07AA               ADD      R2,SP,#+28
   \   0000067C   5050               STR      R0,[R2, R1]
   \   0000067E   3000               MOVS     R0,R6
   \   00000680   3900               MOVS     R1,R7
   \   00000682   0A22               MOVS     R2,#+10
   \   00000684   0023               MOVS     R3,#+0
   \   00000686   ........           BL       __aeabi_ldivmod
   \   0000068A   1600               MOVS     R6,R2
   \   0000068C   1F00               MOVS     R7,R3
   \   0000068E   02AA               ADD      R2,SP,#+8
   \   00000690   0120               MOVS     R0,#+1
   \   00000692   0021               MOVS     R1,#+0
   \   00000694   03C2               STM      R2!,{R0,R1}
   2526                 if (Value>=0.0000009999 ) {if (E_tmp==0) E_tmp=105;    if ((ill_tmp<ill)&&(__ValueRST>0)) { ill_tmp++;  str_tmp[ill_tmp]=48+(__ValueRST / 1)               ; __ValueRST=__ValueRST % 1                 ; NastDiel=0           ; }};
   \                     ??FloToStr_47:
   \   00000696   1798               LDR      R0,[SP, #+92]
   \   00000698   4B49               LDR      R1,??FloToStr_34+0x24  ;; 0x3586344e
   \   0000069A   ........           BL       __aeabi_cfrcmple
   \   0000069E   1CD8               BHI      ??FloToStr_50
   \   000006A0   002D               CMP      R5,#+0
   \   000006A2   00D1               BNE      ??FloToStr_51
   \   000006A4   6925               MOVS     R5,#+105
   \                     ??FloToStr_51:
   \   000006A6   6846               MOV      R0,SP
   \   000006A8   0078               LDRB     R0,[R0, #+0]
   \   000006AA   8442               CMP      R4,R0
   \   000006AC   15DA               BGE      ??FloToStr_50
   \   000006AE   002F               CMP      R7,#+0
   \   000006B0   13DB               BLT      ??FloToStr_50
   \   000006B2   01DC               BGT      ??FloToStr_52
   \   000006B4   012E               CMP      R6,#+1
   \   000006B6   10D3               BCC      ??FloToStr_50
   \                     ??FloToStr_52:
   \   000006B8   641C               ADDS     R4,R4,#+1
   \   000006BA   3000               MOVS     R0,R6
   \   000006BC   3900               MOVS     R1,R7
   \   000006BE   0022               MOVS     R2,#+0
   \   000006C0   3030               ADDS     R0,R0,#+48
   \   000006C2   5141               ADCS     R1,R1,R2
   \   000006C4   ........           BL       __aeabi_l2f
   \   000006C8   A100               LSLS     R1,R4,#+2
   \   000006CA   07AA               ADD      R2,SP,#+28
   \   000006CC   5050               STR      R0,[R2, R1]
   \   000006CE   0026               MOVS     R6,#+0
   \   000006D0   3700               MOVS     R7,R6
   \   000006D2   02AA               ADD      R2,SP,#+8
   \   000006D4   3000               MOVS     R0,R6
   \   000006D6   0100               MOVS     R1,R0
   \   000006D8   03C2               STM      R2!,{R0,R1}
   2527             
   2528                 if ((__ValueRST) && (NastDiel))
   \                     ??FloToStr_50:
   \   000006DA   002F               CMP      R7,#+0
   \   000006DC   02D1               BNE      ??FloToStr_53
   \   000006DE   002E               CMP      R6,#+0
   \   000006E0   00D1               BNE      .+4
   \   000006E2   E1E0               B        ??FloToStr_54
   \                     ??FloToStr_53:
   \   000006E4   02A8               ADD      R0,SP,#+8
   \   000006E6   03C8               LDM      R0!,{R0,R1}
   \   000006E8   0029               CMP      R1,#+0
   \   000006EA   02D1               BNE      ??FloToStr_55
   \   000006EC   0028               CMP      R0,#+0
   \   000006EE   00D1               BNE      .+4
   \   000006F0   DAE0               B        ??FloToStr_54
   2529                 {
   2530                   if (((__ValueRST/NastDiel)>5) && (str_tmp[ill_tmp]<57)) { str_tmp[ill_tmp]++; }
   \                     ??FloToStr_55:
   \   000006F2   3000               MOVS     R0,R6
   \   000006F4   3900               MOVS     R1,R7
   \   000006F6   02AA               ADD      R2,SP,#+8
   \   000006F8   0CCA               LDM      R2!,{R2,R3}
   \   000006FA   ........           BL       __aeabi_ldivmod
   \   000006FE   04AA               ADD      R2,SP,#+16
   \   00000700   03C2               STM      R2!,{R0,R1}
   \   00000702   04A8               ADD      R0,SP,#+16
   \   00000704   03C8               LDM      R0!,{R0,R1}
   \   00000706   0029               CMP      R1,#+0
   \   00000708   0FDB               BLT      ??FloToStr_56
   \   0000070A   01DC               BGT      ??FloToStr_57
   \   0000070C   0628               CMP      R0,#+6
   \   0000070E   0CD3               BCC      ??FloToStr_56
   \                     ??FloToStr_57:
   \   00000710   A000               LSLS     R0,R4,#+2
   \   00000712   07A9               ADD      R1,SP,#+28
   \   00000714   0F18               ADDS     R7,R1,R0
   \   00000716   3868               LDR      R0,[R7, #+0]
   \   00000718   2C49               LDR      R1,??FloToStr_34+0x28  ;; 0x42640000
   \   0000071A   ........           BL       __aeabi_cfcmple
   \   0000071E   04D2               BCS      ??FloToStr_56
   \   00000720   FE21               MOVS     R1,#+254
   \   00000722   8905               LSLS     R1,R1,#+22       ;; #+1065353216
   \   00000724   ........           BL       __aeabi_fadd
   \   00000728   3860               STR      R0,[R7, #+0]
   2531                   if (((__ValueRST/NastDiel)>5) && (str_tmp[ill_tmp]==57)) 
   \                     ??FloToStr_56:
   \   0000072A   04A8               ADD      R0,SP,#+16
   \   0000072C   03C8               LDM      R0!,{R0,R1}
   \   0000072E   0029               CMP      R1,#+0
   \   00000730   00DA               BGE      .+4
   \   00000732   B9E0               B        ??FloToStr_54
   \   00000734   02DC               BGT      ??FloToStr_58
   \   00000736   0628               CMP      R0,#+6
   \   00000738   00D2               BCS      .+4
   \   0000073A   B5E0               B        ??FloToStr_54
   \                     ??FloToStr_58:
   \   0000073C   A000               LSLS     R0,R4,#+2
   \   0000073E   07A9               ADD      R1,SP,#+28
   \   00000740   0F18               ADDS     R7,R1,R0
   \   00000742   224E               LDR      R6,??FloToStr_34+0x28  ;; 0x42640000
   \   00000744   3868               LDR      R0,[R7, #+0]
   \   00000746   3100               MOVS     R1,R6
   \   00000748   ........           BL       __aeabi_cfcmpeq
   \   0000074C   00D0               BEQ      .+4
   \   0000074E   ABE0               B        ??FloToStr_54
   \   00000750   0020               MOVS     R0,#+0
   \   00000752   3860               STR      R0,[R7, #+0]
   2532                      { 
   2533                        str_tmp[ill_tmp]=0;
   2534                        ill_cor++;
   \   00000754   0120               MOVS     R0,#+1
   \   00000756   0690               STR      R0,[SP, #+24]
   2535                        if ((str_tmp[ill_tmp-1]>53) && (str_tmp[ill_tmp-1]<57) && ((ill_tmp-1)<1)  )
   \   00000758   143F               SUBS     R7,R7,#+20
   \   0000075A   3869               LDR      R0,[R7, #+16]
   \   0000075C   1C49               LDR      R1,??FloToStr_34+0x2C  ;; 0x42540001
   \   0000075E   ........           BL       __aeabi_cfrcmple
   \   00000762   0CD8               BHI      ??FloToStr_59
   \   00000764   3100               MOVS     R1,R6
   \   00000766   ........           BL       __aeabi_cfcmple
   \   0000076A   08D2               BCS      ??FloToStr_59
   \   0000076C   611E               SUBS     R1,R4,#+1
   \   0000076E   0129               CMP      R1,#+1
   \   00000770   05DA               BGE      ??FloToStr_59
   2536                          { 
   2537                            str_tmp[ill_tmp-1]++; 
   \   00000772   0100               MOVS     R1,R0
   \   00000774   FE20               MOVS     R0,#+254
   \   00000776   8005               LSLS     R0,R0,#+22       ;; #+1065353216
   \   00000778   ........           BL       __aeabi_fadd
   \   0000077C   3861               STR      R0,[R7, #+16]
   2538                          }
   2539                          if ((str_tmp[ill_tmp-1]==57) && ((ill_tmp-1)>0)  )
   \                     ??FloToStr_59:
   \   0000077E   3869               LDR      R0,[R7, #+16]
   \   00000780   3100               MOVS     R1,R6
   \   00000782   ........           BL       __aeabi_cfcmpeq
   \   00000786   00D0               BEQ      .+4
   \   00000788   8EE0               B        ??FloToStr_54
   \   0000078A   601E               SUBS     R0,R4,#+1
   \   0000078C   0128               CMP      R0,#+1
   \   0000078E   00DA               BGE      .+4
   \   00000790   8AE0               B        ??FloToStr_54
   2540                          {
   2541                            ill_cor++;
   \   00000792   0220               MOVS     R0,#+2
   \   00000794   0690               STR      R0,[SP, #+24]
   2542                            str_tmp[ill_tmp-1]=0;
   \   00000796   0020               MOVS     R0,#+0
   \   00000798   3861               STR      R0,[R7, #+16]
   2543                            
   2544                              if ((str_tmp[ill_tmp-2]>53) && (str_tmp[ill_tmp-2]<57) && ((ill_tmp-2)<1)  )
   \   0000079A   F868               LDR      R0,[R7, #+12]
   \   0000079C   0C49               LDR      R1,??FloToStr_34+0x2C  ;; 0x42540001
   \   0000079E   ........           BL       __aeabi_cfrcmple
   \   000007A2   17E0               B.N      ??FloToStr_60
   \                     ??FloToStr_34:
   \   000007A4   40420F00           DC32     0xf4240
   \   000007A8   A0860100           DC32     0x186a0
   \   000007AC   8FC7CC3D           DC32     0x3dccc78f
   \   000007B0   00003842           DC32     0x42380000
   \   000007B4   10270000           DC32     0x2710
   \   000007B8   D9D2233C           DC32     0x3c23d2d9
   \   000007BC   140F833A           DC32     0x3a830f14
   \   000007C0   B9B1D138           DC32     0x38d1b1b9
   \   000007C4   61C12737           DC32     0x3727c161
   \   000007C8   4E348635           DC32     0x3586344e
   \   000007CC   00006442           DC32     0x42640000
   \   000007D0   01005442           DC32     0x42540001
   \                     ??FloToStr_60:
   \   000007D4   0CD8               BHI      ??FloToStr_61
   \   000007D6   3100               MOVS     R1,R6
   \   000007D8   ........           BL       __aeabi_cfcmple
   \   000007DC   08D2               BCS      ??FloToStr_61
   \   000007DE   A11E               SUBS     R1,R4,#+2
   \   000007E0   0129               CMP      R1,#+1
   \   000007E2   05DA               BGE      ??FloToStr_61
   2545                              { 
   2546                                str_tmp[ill_tmp-2]++; 
   \   000007E4   0100               MOVS     R1,R0
   \   000007E6   FE20               MOVS     R0,#+254
   \   000007E8   8005               LSLS     R0,R0,#+22       ;; #+1065353216
   \   000007EA   ........           BL       __aeabi_fadd
   \   000007EE   F860               STR      R0,[R7, #+12]
   2547                              }
   2548                            
   2549                              if ((str_tmp[ill_tmp-2]==57) && ((ill_tmp-2)>0)  )
   \                     ??FloToStr_61:
   \   000007F0   F868               LDR      R0,[R7, #+12]
   \   000007F2   3100               MOVS     R1,R6
   \   000007F4   ........           BL       __aeabi_cfcmpeq
   \   000007F8   56D1               BNE      ??FloToStr_54
   \   000007FA   A01E               SUBS     R0,R4,#+2
   \   000007FC   0128               CMP      R0,#+1
   \   000007FE   53DB               BLT      ??FloToStr_54
   2550                              {
   2551                                  str_tmp[ill_tmp-2]=0;
   \   00000800   0020               MOVS     R0,#+0
   \   00000802   F860               STR      R0,[R7, #+12]
   2552                                  if ((str_tmp[ill_tmp-3]>53) && (str_tmp[ill_tmp-3]<57) && ((ill_tmp-3)<1)  )
   \   00000804   B868               LDR      R0,[R7, #+8]
   \   00000806   A049               LDR      R1,??FloToStr_62  ;; 0x42540001
   \   00000808   ........           BL       __aeabi_cfrcmple
   \   0000080C   0ED8               BHI      ??FloToStr_63
   \   0000080E   3100               MOVS     R1,R6
   \   00000810   ........           BL       __aeabi_cfcmple
   \   00000814   0AD2               BCS      ??FloToStr_63
   \   00000816   E11E               SUBS     R1,R4,#+3
   \   00000818   0129               CMP      R1,#+1
   \   0000081A   07DA               BGE      ??FloToStr_63
   2553                                  { 
   2554                                    ill_cor++;
   \   0000081C   0321               MOVS     R1,#+3
   \   0000081E   0691               STR      R1,[SP, #+24]
   2555                                    str_tmp[ill_tmp-3]++; 
   \   00000820   0100               MOVS     R1,R0
   \   00000822   FE20               MOVS     R0,#+254
   \   00000824   8005               LSLS     R0,R0,#+22       ;; #+1065353216
   \   00000826   ........           BL       __aeabi_fadd
   \   0000082A   B860               STR      R0,[R7, #+8]
   2556                                  }
   2557                                  if ((str_tmp[ill_tmp-3]==57) && ((ill_tmp-3)>0)  )
   \                     ??FloToStr_63:
   \   0000082C   B868               LDR      R0,[R7, #+8]
   \   0000082E   3100               MOVS     R1,R6
   \   00000830   ........           BL       __aeabi_cfcmpeq
   \   00000834   38D1               BNE      ??FloToStr_54
   \   00000836   E01E               SUBS     R0,R4,#+3
   \   00000838   0128               CMP      R0,#+1
   \   0000083A   35DB               BLT      ??FloToStr_54
   2558                                  {
   2559                                      str_tmp[ill_tmp-3]=0;
   \   0000083C   0020               MOVS     R0,#+0
   \   0000083E   B860               STR      R0,[R7, #+8]
   2560                                      if ((str_tmp[ill_tmp-4]>53) && (str_tmp[ill_tmp-4]<57) && ((ill_tmp-4)<1)  )
   \   00000840   7868               LDR      R0,[R7, #+4]
   \   00000842   9149               LDR      R1,??FloToStr_62  ;; 0x42540001
   \   00000844   ........           BL       __aeabi_cfrcmple
   \   00000848   0FD8               BHI      ??FloToStr_64
   \   0000084A   3100               MOVS     R1,R6
   \   0000084C   ........           BL       __aeabi_cfcmple
   \   00000850   0BD2               BCS      ??FloToStr_64
   \   00000852   211F               SUBS     R1,R4,#+4
   \   00000854   0129               CMP      R1,#+1
   \   00000856   08DA               BGE      ??FloToStr_64
   2561                                      { 
   2562                                        ill_cor++;
   \   00000858   0699               LDR      R1,[SP, #+24]
   \   0000085A   491C               ADDS     R1,R1,#+1
   \   0000085C   0691               STR      R1,[SP, #+24]
   2563                            
   2564                                        str_tmp[ill_tmp-4]++; 
   \   0000085E   0100               MOVS     R1,R0
   \   00000860   FE20               MOVS     R0,#+254
   \   00000862   8005               LSLS     R0,R0,#+22       ;; #+1065353216
   \   00000864   ........           BL       __aeabi_fadd
   \   00000868   7860               STR      R0,[R7, #+4]
   2565                                      }
   2566                                      if ((str_tmp[ill_tmp-4]==57) && ((ill_tmp-4)>0)  )
   \                     ??FloToStr_64:
   \   0000086A   7868               LDR      R0,[R7, #+4]
   \   0000086C   3100               MOVS     R1,R6
   \   0000086E   ........           BL       __aeabi_cfcmpeq
   \   00000872   19D1               BNE      ??FloToStr_54
   \   00000874   201F               SUBS     R0,R4,#+4
   \   00000876   0128               CMP      R0,#+1
   \   00000878   16DB               BLT      ??FloToStr_54
   2567                                      {
   2568                                
   2569                                        if ((str_tmp[ill_tmp-5]>53) && (str_tmp[ill_tmp-5]<57) && ((ill_tmp-5)<1)  )
   \   0000087A   3868               LDR      R0,[R7, #+0]
   \   0000087C   8249               LDR      R1,??FloToStr_62  ;; 0x42540001
   \   0000087E   ........           BL       __aeabi_cfrcmple
   \   00000882   11D8               BHI      ??FloToStr_54
   \   00000884   3100               MOVS     R1,R6
   \   00000886   ........           BL       __aeabi_cfcmple
   \   0000088A   0DD2               BCS      ??FloToStr_54
   \   0000088C   601F               SUBS     R0,R4,#+5
   \   0000088E   0128               CMP      R0,#+1
   \   00000890   0ADA               BGE      ??FloToStr_54
   2570                                        { 
   2571                                          ill_cor++;
   \   00000892   0698               LDR      R0,[SP, #+24]
   \   00000894   401C               ADDS     R0,R0,#+1
   \   00000896   0690               STR      R0,[SP, #+24]
   2572                                          str_tmp[ill_tmp-4]=0;
   \   00000898   0020               MOVS     R0,#+0
   \   0000089A   7860               STR      R0,[R7, #+4]
   2573                                          str_tmp[ill_tmp-5]++; 
   \   0000089C   3968               LDR      R1,[R7, #+0]
   \   0000089E   FE20               MOVS     R0,#+254
   \   000008A0   8005               LSLS     R0,R0,#+22       ;; #+1065353216
   \   000008A2   ........           BL       __aeabi_fadd
   \   000008A6   3860               STR      R0,[R7, #+0]
   2574                                        }
   2575                      
   2576                                      }
   2577                                  }
   2578                                     
   2579                              }
   2580                            
   2581                            
   2582                          }
   2583                      }
   2584                 }
   2585                 
   2586          
   2587                
   2588                if (ill_tmp-ill_cor) {ill_tmp-=ill_cor;} else {ill_tmp=0;}
   \                     ??FloToStr_54:
   \   000008A8   0698               LDR      R0,[SP, #+24]
   \   000008AA   241A               SUBS     R4,R4,R0
   \   000008AC   00D1               BNE      ??FloToStr_65
   \   000008AE   0024               MOVS     R4,#+0
   2589          
   2590                
   2591                if (E_tmp<100) 
   \                     ??FloToStr_65:
   \   000008B0   642D               CMP      R5,#+100
   \   000008B2   11DA               BGE      ??FloToStr_66
   2592                {
   2593                  for (int i=0; i<=ill-1; i++) Vstring[min+i]=str_tmp[i+1];  
   \   000008B4   0026               MOVS     R6,#+0
   \   000008B6   0AE0               B        ??FloToStr_67
   \                     ??FloToStr_68:
   \   000008B8   B000               LSLS     R0,R6,#+2
   \   000008BA   07A9               ADD      R1,SP,#+28
   \   000008BC   0818               ADDS     R0,R1,R0
   \   000008BE   4068               LDR      R0,[R0, #+4]
   \   000008C0   ........           BL       __aeabi_f2iz
   \   000008C4   0199               LDR      R1,[SP, #+4]
   \   000008C6   8919               ADDS     R1,R1,R6
   \   000008C8   189A               LDR      R2,[SP, #+96]
   \   000008CA   5054               STRB     R0,[R2, R1]
   \   000008CC   761C               ADDS     R6,R6,#+1
   \                     ??FloToStr_67:
   \   000008CE   6846               MOV      R0,SP
   \   000008D0   0078               LDRB     R0,[R0, #+0]
   \   000008D2   401E               SUBS     R0,R0,#+1
   \   000008D4   B042               CMP      R0,R6
   \   000008D6   EFDA               BGE      ??FloToStr_68
   2594                }
   2595          
   2596                if ( E_tmp == 100 )
   \                     ??FloToStr_66:
   \   000008D8   642D               CMP      R5,#+100
   \   000008DA   1DD1               BNE      ??FloToStr_69
   2597                  {
   2598                    Vstring[min+0]=48;
   \   000008DC   3020               MOVS     R0,#+48
   \   000008DE   0199               LDR      R1,[SP, #+4]
   \   000008E0   189A               LDR      R2,[SP, #+96]
   \   000008E2   5054               STRB     R0,[R2, R1]
   2599                    for (int i=1; i<=(E_tmp-100); i++) Vstring[min+i]=48; 
   \   000008E4   0126               MOVS     R6,#+1
   \   000008E6   3100               MOVS     R1,R6
   \   000008E8   04E0               B        ??FloToStr_70
   \                     ??FloToStr_71:
   \   000008EA   019A               LDR      R2,[SP, #+4]
   \   000008EC   5218               ADDS     R2,R2,R1
   \   000008EE   189B               LDR      R3,[SP, #+96]
   \   000008F0   9854               STRB     R0,[R3, R2]
   \   000008F2   491C               ADDS     R1,R1,#+1
   \                     ??FloToStr_70:
   \   000008F4   0129               CMP      R1,#+1
   \   000008F6   F8DB               BLT      ??FloToStr_71
   2600                    for (int i=1+(E_tmp-100); i<=ill-1; i++) Vstring[min+i]=str_tmp[1+i-(1+(E_tmp-100))];  
   \   000008F8   09E0               B        ??FloToStr_72
   \                     ??FloToStr_73:
   \   000008FA   B000               LSLS     R0,R6,#+2
   \   000008FC   07A9               ADD      R1,SP,#+28
   \   000008FE   0858               LDR      R0,[R1, R0]
   \   00000900   ........           BL       __aeabi_f2iz
   \   00000904   0199               LDR      R1,[SP, #+4]
   \   00000906   8919               ADDS     R1,R1,R6
   \   00000908   189A               LDR      R2,[SP, #+96]
   \   0000090A   5054               STRB     R0,[R2, R1]
   \   0000090C   761C               ADDS     R6,R6,#+1
   \                     ??FloToStr_72:
   \   0000090E   6846               MOV      R0,SP
   \   00000910   0078               LDRB     R0,[R0, #+0]
   \   00000912   401E               SUBS     R0,R0,#+1
   \   00000914   B042               CMP      R0,R6
   \   00000916   F0DA               BGE      ??FloToStr_73
   2601                  }
   2602                if ( E_tmp > 100 )
   \                     ??FloToStr_69:
   \   00000918   652D               CMP      R5,#+101
   \   0000091A   2BDB               BLT      ??FloToStr_74
   2603                  {
   2604                    Vstring[min+0]=48;
   \   0000091C   3020               MOVS     R0,#+48
   \   0000091E   0199               LDR      R1,[SP, #+4]
   \   00000920   189A               LDR      R2,[SP, #+96]
   \   00000922   5054               STRB     R0,[R2, R1]
   2605                    Vstring[min+1]=46;
   \   00000924   0199               LDR      R1,[SP, #+4]
   \   00000926   189A               LDR      R2,[SP, #+96]
   \   00000928   5118               ADDS     R1,R2,R1
   \   0000092A   2E22               MOVS     R2,#+46
   \   0000092C   4A70               STRB     R2,[R1, #+1]
   2606                    for (int i=2; i<=(1+E_tmp-100); i++) Vstring[min+i]=48; 
   \   0000092E   0221               MOVS     R1,#+2
   \   00000930   04E0               B        ??FloToStr_75
   \                     ??FloToStr_76:
   \   00000932   019A               LDR      R2,[SP, #+4]
   \   00000934   5218               ADDS     R2,R2,R1
   \   00000936   189B               LDR      R3,[SP, #+96]
   \   00000938   9854               STRB     R0,[R3, R2]
   \   0000093A   491C               ADDS     R1,R1,#+1
   \                     ??FloToStr_75:
   \   0000093C   2A00               MOVS     R2,R5
   \   0000093E   633A               SUBS     R2,R2,#+99
   \   00000940   8A42               CMP      R2,R1
   \   00000942   F6DA               BGE      ??FloToStr_76
   2607                    for (int i=2+(E_tmp-100); i<=ill-1; i++) {Vstring[min+i]=str_tmp[1+i-(2+(E_tmp-100))];  }
   \   00000944   2F00               MOVS     R7,R5
   \   00000946   623F               SUBS     R7,R7,#+98
   \   00000948   0FE0               B        ??FloToStr_77
   \                     ??FloToStr_78:
   \   0000094A   3E00               MOVS     R6,R7
   \   0000094C   761C               ADDS     R6,R6,#+1
   \   0000094E   C420               MOVS     R0,#+196
   \   00000950   4000               LSLS     R0,R0,#+1        ;; #+392
   \   00000952   711B               SUBS     R1,R6,R5
   \   00000954   8900               LSLS     R1,R1,#+2
   \   00000956   07AA               ADD      R2,SP,#+28
   \   00000958   5118               ADDS     R1,R2,R1
   \   0000095A   0858               LDR      R0,[R1, R0]
   \   0000095C   ........           BL       __aeabi_f2iz
   \   00000960   0199               LDR      R1,[SP, #+4]
   \   00000962   C919               ADDS     R1,R1,R7
   \   00000964   189A               LDR      R2,[SP, #+96]
   \   00000966   5054               STRB     R0,[R2, R1]
   \   00000968   3700               MOVS     R7,R6
   \                     ??FloToStr_77:
   \   0000096A   6846               MOV      R0,SP
   \   0000096C   0078               LDRB     R0,[R0, #+0]
   \   0000096E   401E               SUBS     R0,R0,#+1
   \   00000970   B842               CMP      R0,R7
   \   00000972   EADA               BGE      ??FloToStr_78
   2608          
   2609                  }  
   2610           
   2611              
   2612            
   2613                if (NastDiel<=10000)
   \                     ??FloToStr_74:
   \   00000974   6846               MOV      R0,SP
   \   00000976   0678               LDRB     R6,[R0, #+0]
   \   00000978   02A8               ADD      R0,SP,#+8
   \   0000097A   03C8               LDM      R0!,{R0,R1}
   \   0000097C   0200               MOVS     R2,R0
   \   0000097E   0B00               MOVS     R3,R1
   \   00000980   4248               LDR      R0,??FloToStr_62+0x4  ;; 0x2711
   \   00000982   0021               MOVS     R1,#+0
   \   00000984   8B42               CMP      R3,R1
   \   00000986   52DC               BGT      ??FloToStr_79
   \   00000988   01DB               BLT      ??FloToStr_80
   \   0000098A   8242               CMP      R2,R0
   \   0000098C   4FD2               BCS      ??FloToStr_79
   2614                {
   2615                  if ((Vstring[ill-1]==46)) 
   \                     ??FloToStr_80:
   \   0000098E   1898               LDR      R0,[SP, #+96]
   \   00000990   8019               ADDS     R0,R0,R6
   \   00000992   C01F               SUBS     R0,R0,#+7
   \   00000994   8179               LDRB     R1,[R0, #+6]
   \   00000996   2E29               CMP      R1,#+46
   \   00000998   01D1               BNE      ??FloToStr_81
   2616                    {
   2617                      Vstring[ill-1]=0;
   \   0000099A   0021               MOVS     R1,#+0
   \   0000099C   8171               STRB     R1,[R0, #+6]
   2618                    }
   2619                  if ((Vstring[ill-1]==48)) 
   \                     ??FloToStr_81:
   \   0000099E   8179               LDRB     R1,[R0, #+6]
   \   000009A0   3029               CMP      R1,#+48
   \   000009A2   44D1               BNE      ??FloToStr_79
   2620                    {
   2621                      Vstring[ill-1]=0;
   \   000009A4   0021               MOVS     R1,#+0
   \   000009A6   8171               STRB     R1,[R0, #+6]
   2622                      ill_tmp--;
   \   000009A8   641E               SUBS     R4,R4,#+1
   2623                      if (Vstring[ill-2]==46)
   \   000009AA   4179               LDRB     R1,[R0, #+5]
   \   000009AC   2E29               CMP      R1,#+46
   \   000009AE   03D1               BNE      ??FloToStr_82
   2624                      {
   2625                         Vstring[ill-2]=0;
   \   000009B0   0021               MOVS     R1,#+0
   \   000009B2   4171               STRB     R1,[R0, #+5]
   2626                         ill_tmp--; 
   \   000009B4   641E               SUBS     R4,R4,#+1
   \   000009B6   3AE0               B        ??FloToStr_79
   2627                      }
   2628                      else
   2629                      {
   2630                           if ((Vstring[ill-2]==48)) 
   \                     ??FloToStr_82:
   \   000009B8   3029               CMP      R1,#+48
   \   000009BA   38D1               BNE      ??FloToStr_79
   2631                           {
   2632                              Vstring[ill-2]=0;
   \   000009BC   0021               MOVS     R1,#+0
   \   000009BE   4171               STRB     R1,[R0, #+5]
   2633                              ill_tmp--;
   \   000009C0   641E               SUBS     R4,R4,#+1
   2634                              if (Vstring[ill-3]==46)
   \   000009C2   0179               LDRB     R1,[R0, #+4]
   \   000009C4   2E29               CMP      R1,#+46
   \   000009C6   03D1               BNE      ??FloToStr_83
   2635                              {
   2636                                Vstring[ill-3]=0;
   \   000009C8   0021               MOVS     R1,#+0
   \   000009CA   0171               STRB     R1,[R0, #+4]
   2637                                ill_tmp--; 
   \   000009CC   641E               SUBS     R4,R4,#+1
   \   000009CE   2EE0               B        ??FloToStr_79
   2638                              }
   2639                              else
   2640                              {
   2641                                    if ((Vstring[ill-3]==48)) 
   \                     ??FloToStr_83:
   \   000009D0   3029               CMP      R1,#+48
   \   000009D2   2CD1               BNE      ??FloToStr_79
   2642                                    {
   2643                                      Vstring[ill-3]=0;
   \   000009D4   0021               MOVS     R1,#+0
   \   000009D6   0171               STRB     R1,[R0, #+4]
   2644                                      ill_tmp--;
   \   000009D8   641E               SUBS     R4,R4,#+1
   2645                                      if (Vstring[ill-4]==46)
   \   000009DA   C178               LDRB     R1,[R0, #+3]
   \   000009DC   2E29               CMP      R1,#+46
   \   000009DE   03D1               BNE      ??FloToStr_84
   2646                                      {
   2647                                        Vstring[ill-4]=0;
   \   000009E0   0021               MOVS     R1,#+0
   \   000009E2   C170               STRB     R1,[R0, #+3]
   2648                                        ill_tmp--; 
   \   000009E4   641E               SUBS     R4,R4,#+1
   \   000009E6   22E0               B        ??FloToStr_79
   2649                                      }
   2650                                      else
   2651                                      {
   2652                                          if ((Vstring[ill-4]==48)) 
   \                     ??FloToStr_84:
   \   000009E8   3029               CMP      R1,#+48
   \   000009EA   20D1               BNE      ??FloToStr_79
   2653                                          {
   2654                                            Vstring[ill-4]=0;
   \   000009EC   0021               MOVS     R1,#+0
   \   000009EE   C170               STRB     R1,[R0, #+3]
   2655                                            ill_tmp--;
   \   000009F0   641E               SUBS     R4,R4,#+1
   2656                                            if (Vstring[ill-5]==46)
   \   000009F2   8178               LDRB     R1,[R0, #+2]
   \   000009F4   2E29               CMP      R1,#+46
   \   000009F6   03D1               BNE      ??FloToStr_85
   2657                                            {
   2658                                              Vstring[ill-5]=0;
   \   000009F8   0021               MOVS     R1,#+0
   \   000009FA   8170               STRB     R1,[R0, #+2]
   2659                                              ill_tmp--; 
   \   000009FC   641E               SUBS     R4,R4,#+1
   \   000009FE   16E0               B        ??FloToStr_79
   2660                                            }
   2661                                            else
   2662                                            {
   2663                                                if ((Vstring[ill-5]==48)) 
   \                     ??FloToStr_85:
   \   00000A00   3029               CMP      R1,#+48
   \   00000A02   14D1               BNE      ??FloToStr_79
   2664                                                {
   2665                                                  Vstring[ill-5]=0;
   \   00000A04   0021               MOVS     R1,#+0
   \   00000A06   8170               STRB     R1,[R0, #+2]
   2666                                                  ill_tmp--;
   \   00000A08   641E               SUBS     R4,R4,#+1
   2667                                                  if (Vstring[ill-6]==46)
   \   00000A0A   4178               LDRB     R1,[R0, #+1]
   \   00000A0C   2E29               CMP      R1,#+46
   \   00000A0E   03D1               BNE      ??FloToStr_86
   2668                                                  {
   2669                                                    Vstring[ill-6]=0;
   \   00000A10   0021               MOVS     R1,#+0
   \   00000A12   4170               STRB     R1,[R0, #+1]
   2670                                                    ill_tmp--; 
   \   00000A14   641E               SUBS     R4,R4,#+1
   \   00000A16   0AE0               B        ??FloToStr_79
   2671                                                  }
   2672                                                  else
   2673                                                  {  
   2674                                                    if ((Vstring[ill-6]==48)) 
   \                     ??FloToStr_86:
   \   00000A18   3029               CMP      R1,#+48
   \   00000A1A   08D1               BNE      ??FloToStr_79
   2675                                                    {
   2676                                                      Vstring[ill-6]=0;
   \   00000A1C   0021               MOVS     R1,#+0
   \   00000A1E   4170               STRB     R1,[R0, #+1]
   2677                                                      ill_tmp--;
   \   00000A20   641E               SUBS     R4,R4,#+1
   2678                                                      if (Vstring[ill-7]==46)
   \   00000A22   0178               LDRB     R1,[R0, #+0]
   \   00000A24   2E29               CMP      R1,#+46
   \   00000A26   02D1               BNE      ??FloToStr_79
   2679                                                      {
   2680                                                        Vstring[ill-7]=0;
   \   00000A28   0021               MOVS     R1,#+0
   \   00000A2A   0170               STRB     R1,[R0, #+0]
   2681                                                        ill_tmp--; 
   \   00000A2C   641E               SUBS     R4,R4,#+1
   2682                                                      }
   2683          
   2684                                                    }
   2685                                                  }
   2686                                                 }
   2687                                          
   2688                                          
   2689                         
   2690                                            }
   2691                                          }
   2692                                    
   2693                         
   2694                                      }
   2695                                    }  
   2696                         
   2697                              }
   2698                           }  
   2699                        
   2700                         
   2701                      }
   2702                  
   2703                    }
   2704                  
   2705                }
   2706                
   2707              
   2708                if ((E_tmp>ill) && (E_tmp<100))
   \                     ??FloToStr_79:
   \   00000A2E   AE42               CMP      R6,R5
   \   00000A30   14DA               BGE      ??FloToStr_87
   \   00000A32   642D               CMP      R5,#+100
   \   00000A34   12DA               BGE      ??FloToStr_87
   2709                {
   2710                  if ((Vstring[ill-2]>53)&&(Vstring[ill-3]<57)) Vstring[ill-3]++;
   \   00000A36   1898               LDR      R0,[SP, #+96]
   \   00000A38   8019               ADDS     R0,R0,R6
   \   00000A3A   C01F               SUBS     R0,R0,#+7
   \   00000A3C   4179               LDRB     R1,[R0, #+5]
   \   00000A3E   3629               CMP      R1,#+54
   \   00000A40   04D3               BCC      ??FloToStr_88
   \   00000A42   0179               LDRB     R1,[R0, #+4]
   \   00000A44   3929               CMP      R1,#+57
   \   00000A46   01D2               BCS      ??FloToStr_88
   \   00000A48   491C               ADDS     R1,R1,#+1
   \   00000A4A   0171               STRB     R1,[R0, #+4]
   2711                  Vstring[ill-2]=0x45;
   \                     ??FloToStr_88:
   \   00000A4C   4521               MOVS     R1,#+69
   \   00000A4E   4171               STRB     R1,[R0, #+5]
   2712                  Vstring[ill-1]=48+E_tmp-ill+2;
   \   00000A50   3035               ADDS     R5,R5,#+48
   \   00000A52   6946               MOV      R1,SP
   \   00000A54   0978               LDRB     R1,[R1, #+0]
   \   00000A56   691A               SUBS     R1,R5,R1
   \   00000A58   891C               ADDS     R1,R1,#+2
   \   00000A5A   8171               STRB     R1,[R0, #+6]
   2713                }    
   2714              
   2715                if (min)
   \                     ??FloToStr_87:
   \   00000A5C   0198               LDR      R0,[SP, #+4]
   \   00000A5E   0028               CMP      R0,#+0
   \   00000A60   02D0               BEQ      ??FloToStr_89
   2716                {
   2717                  Vstring[0]=45; 
   \   00000A62   1898               LDR      R0,[SP, #+96]
   \   00000A64   2D21               MOVS     R1,#+45
   \   00000A66   0170               STRB     R1,[R0, #+0]
   2718                }
   2719                
   2720                ill++;
   2721                Vstring[ill+1]=0;
   \                     ??FloToStr_89:
   \   00000A68   6846               MOV      R0,SP
   \   00000A6A   0078               LDRB     R0,[R0, #+0]
   \   00000A6C   401C               ADDS     R0,R0,#+1
   \   00000A6E   0006               LSLS     R0,R0,#+24
   \   00000A70   000E               LSRS     R0,R0,#+24
   \   00000A72   1899               LDR      R1,[SP, #+96]
   \   00000A74   0818               ADDS     R0,R1,R0
   \   00000A76   0021               MOVS     R1,#+0
   \   00000A78   4170               STRB     R1,[R0, #+1]
   2722              
   2723               }
   2724             }
   2725          
   2726               
   2727             return ill_tmp;
   \                     ??FloToStr_7:
   \   00000A7A   2000               MOVS     R0,R4
   \   00000A7C   0006               LSLS     R0,R0,#+24
   \   00000A7E   000E               LSRS     R0,R0,#+24
   \   00000A80   19B0               ADD      SP,SP,#+100
   \   00000A82   F0BC               POP      {R4-R7}
   \   00000A84   02BC               POP      {R1}
   \   00000A86   0847               BX       R1               ;; return
   \                     ??FloToStr_62:
   \   00000A88   01005442           DC32     0x42540001
   \   00000A8C   11270000           DC32     0x2711
   2728          
   2729          
   2730             
   2731          }//_______________________ Koniec funkcji konwersji float na string ____________________________
   2732          
   2733          
   2734          
   2735          
   2736          
   2737          
   2738          //*-----------------------------------------------------------------------------
   2739          //* Nazwa funkcji :    H_line
   2740          //* Funkcja rysowania lini poziomej
   2741          //*-----------------------------------------------------------------------------
   2742          
   2743          //*  X          - wspó³¿êdna X zale¿na 
   2744          //*  Y          - wspó³¿êdna Y do³u napisu
   2745          //*  length     -d³ugoœæ
   2746          //*  typ        -0-bia³a 1=ci¹gla, 2=kropkowana, 3=kreskowana 
   2747          //*-----------------------------------------------------------------------------

   \                                 In section Debug.txt, align 4, keep-with-next
   2748          void H_line (char X, int Y, char lenght, char typ) 
   2749          { 
   \                     H_line:
   \   00000000   FEB5               PUSH     {R1-R7,LR}
   2750              int kol=0;
   2751              char bit=0;
   2752            
   2753                kol=X/8;
   \   00000002   0200               MOVS     R2,R0
   \   00000004   D208               LSRS     R2,R2,#+3
   2754                bit=X%8;
   \   00000006   D100               LSLS     R1,R2,#+3
   \   00000008   411A               SUBS     R1,R0,R1
   \   0000000A   0906               LSLS     R1,R1,#+24
   \   0000000C   090E               LSRS     R1,R1,#+24
   2755                
   2756                for (int j=1; j<=lenght; j++)
   \   0000000E   0123               MOVS     R3,#+1
   \   00000010   03E0               B        ??H_line_0
   2757                {
   2758                    
   2759                    if (typ>0) 
   2760                    {
   2761                      LCD_Canvas[kol][Y] |= (0x1)<<bit;
   2762                      if (bit<7) { bit++;} else {bit=0;  kol++; }
   2763                    }
   2764                    else
   2765                    {
   2766                        
   2767                        LCD_Canvas[kol][Y] &= ~((0x1)<<bit);
   2768                      if (bit<7) { bit++;} else {bit=0;  kol++; }
   2769                      
   2770                    }
   2771                   
   2772                    if ((typ==3) && ((j+1)<=lenght))
   2773                    {
   2774                      LCD_Canvas[kol][Y] |= (0x1)<<bit;
   2775                      if (bit<7) { bit++;} else {bit=0;  kol++;}
   2776                      j++;
   2777                    }
   2778                     if ((typ>=2) && ((j+1)<=lenght))
   2779                    {
   2780                      LCD_Canvas[kol][Y] &=~((0x1)<<bit);
   2781                      if (bit<7) { bit++;} else {bit=0;  kol++;}
   \                     ??H_line_1:
   \   00000012   0021               MOVS     R1,#+0
   \   00000014   521C               ADDS     R2,R2,#+1
   2782                      j++;
   \                     ??H_line_2:
   \   00000016   0300               MOVS     R3,R0
   \                     ??H_line_3:
   \   00000018   5B1C               ADDS     R3,R3,#+1
   \                     ??H_line_0:
   \   0000001A   6846               MOV      R0,SP
   \   0000001C   0479               LDRB     R4,[R0, #+4]
   \   0000001E   9C42               CMP      R4,R3
   \   00000020   50DB               BLT      ??H_line_4
   \   00000022   D001               LSLS     R0,R2,#+7
   \   00000024   294D               LDR      R5,??H_line_5    ;; LCD_Canvas
   \   00000026   2E18               ADDS     R6,R5,R0
   \   00000028   0098               LDR      R0,[SP, #+0]
   \   0000002A   375C               LDRB     R7,[R6, R0]
   \   0000002C   0120               MOVS     R0,#+1
   \   0000002E   8840               LSLS     R0,R0,R1
   \   00000030   6D46               MOV      R5,SP
   \   00000032   2D7A               LDRB     R5,[R5, #+8]
   \   00000034   002D               CMP      R5,#+0
   \   00000036   009D               LDR      R5,[SP, #+0]
   \   00000038   20D0               BEQ      ??H_line_6
   \   0000003A   3843               ORRS     R0,R0,R7
   \   0000003C   7055               STRB     R0,[R6, R5]
   \   0000003E   0800               MOVS     R0,R1
   \   00000040   0728               CMP      R0,#+7
   \   00000042   20D2               BCS      ??H_line_7
   \                     ??H_line_8:
   \   00000044   491C               ADDS     R1,R1,#+1
   \   00000046   0906               LSLS     R1,R1,#+24
   \   00000048   090E               LSRS     R1,R1,#+24
   \                     ??H_line_9:
   \   0000004A   6846               MOV      R0,SP
   \   0000004C   007A               LDRB     R0,[R0, #+8]
   \   0000004E   0328               CMP      R0,#+3
   \   00000050   1FD1               BNE      ??H_line_10
   \   00000052   1800               MOVS     R0,R3
   \   00000054   401C               ADDS     R0,R0,#+1
   \   00000056   8442               CMP      R4,R0
   \   00000058   1BDB               BLT      ??H_line_10
   \   0000005A   D301               LSLS     R3,R2,#+7
   \   0000005C   1B4D               LDR      R5,??H_line_5    ;; LCD_Canvas
   \   0000005E   EB18               ADDS     R3,R5,R3
   \   00000060   009D               LDR      R5,[SP, #+0]
   \   00000062   2E00               MOVS     R6,R5
   \   00000064   9E5D               LDRB     R6,[R3, R6]
   \   00000066   0127               MOVS     R7,#+1
   \   00000068   8F40               LSLS     R7,R7,R1
   \   0000006A   3743               ORRS     R7,R7,R6
   \   0000006C   5F55               STRB     R7,[R3, R5]
   \   0000006E   0B00               MOVS     R3,R1
   \   00000070   072B               CMP      R3,#+7
   \   00000072   0BD2               BCS      ??H_line_11
   \   00000074   491C               ADDS     R1,R1,#+1
   \   00000076   0906               LSLS     R1,R1,#+24
   \   00000078   090E               LSRS     R1,R1,#+24
   \   0000007A   09E0               B        ??H_line_12
   \                     ??H_line_6:
   \   0000007C   8743               BICS     R7,R7,R0
   \   0000007E   7755               STRB     R7,[R6, R5]
   \   00000080   0800               MOVS     R0,R1
   \   00000082   0728               CMP      R0,#+7
   \   00000084   DED3               BCC      ??H_line_8
   \                     ??H_line_7:
   \   00000086   0021               MOVS     R1,#+0
   \   00000088   521C               ADDS     R2,R2,#+1
   \   0000008A   DEE7               B        ??H_line_9
   \                     ??H_line_11:
   \   0000008C   0021               MOVS     R1,#+0
   \   0000008E   521C               ADDS     R2,R2,#+1
   \                     ??H_line_12:
   \   00000090   0300               MOVS     R3,R0
   \                     ??H_line_10:
   \   00000092   6846               MOV      R0,SP
   \   00000094   007A               LDRB     R0,[R0, #+8]
   \   00000096   0228               CMP      R0,#+2
   \   00000098   BED3               BCC      ??H_line_3
   \   0000009A   1800               MOVS     R0,R3
   \   0000009C   401C               ADDS     R0,R0,#+1
   \   0000009E   8442               CMP      R4,R0
   \   000000A0   BADB               BLT      ??H_line_3
   \   000000A2   D301               LSLS     R3,R2,#+7
   \   000000A4   094C               LDR      R4,??H_line_5    ;; LCD_Canvas
   \   000000A6   E318               ADDS     R3,R4,R3
   \   000000A8   009C               LDR      R4,[SP, #+0]
   \   000000AA   2500               MOVS     R5,R4
   \   000000AC   5D5D               LDRB     R5,[R3, R5]
   \   000000AE   0126               MOVS     R6,#+1
   \   000000B0   8E40               LSLS     R6,R6,R1
   \   000000B2   B543               BICS     R5,R5,R6
   \   000000B4   1D55               STRB     R5,[R3, R4]
   \   000000B6   0B00               MOVS     R3,R1
   \   000000B8   072B               CMP      R3,#+7
   \   000000BA   AAD2               BCS      ??H_line_1
   \   000000BC   491C               ADDS     R1,R1,#+1
   \   000000BE   0906               LSLS     R1,R1,#+24
   \   000000C0   090E               LSRS     R1,R1,#+24
   \   000000C2   A8E7               B        ??H_line_2
   2783                    }
   2784                    
   2785                }   
   2786          
   2787          }//_______________________ Koniec funkcji H_line ____________________________ 
   \                     ??H_line_4:
   \   000000C4   FEBC               POP      {R1-R7}
   \   000000C6   01BC               POP      {R0}
   \   000000C8   0047               BX       R0               ;; return
   \   000000CA   C046               Nop      
   \                     ??H_line_5:
   \   000000CC   ........           DC32     LCD_Canvas
   2788          
   2789          
   2790          
   2791          
   2792          
   2793          
   2794          
   2795          //*-----------------------------------------------------------------------------
   2796          //* Nazwa funkcji :    V_line
   2797          //* Funkcja rysowania lini pionowej
   2798          //*-----------------------------------------------------------------------------
   2799          
   2800          //*  X          - wspó³¿êdna X zale¿na 
   2801          //*  Y          - wspó³¿êdna Y do³u napisu
   2802          //*  length     -d³ugoœæ
   2803          //*  typ        -0-bia³a 1=ci¹gla, 2=kropkowana, 3=kreskowana 
   2804          //*-----------------------------------------------------------------------------

   \                                 In section Debug.txt, align 4, keep-with-next
   2805          void V_line (char X, int Y, char lenght, char typ) 
   2806          { 
   \                     V_line:
   \   00000000   FEB5               PUSH     {R1-R7,LR}
   2807              int kol=0;
   2808              char bit=0;
   2809            
   2810                kol=X/8;
   \   00000002   0100               MOVS     R1,R0
   \   00000004   C908               LSRS     R1,R1,#+3
   2811                bit=X%8;
   \   00000006   CA00               LSLS     R2,R1,#+3
   \   00000008   801A               SUBS     R0,R0,R2
   \   0000000A   0006               LSLS     R0,R0,#+24
   \   0000000C   000E               LSRS     R0,R0,#+24
   2812                
   2813                if (typ==1) 
   \   0000000E   1A00               MOVS     R2,R3
   \   00000010   012A               CMP      R2,#+1
   \   00000012   12D1               BNE      ??V_line_0
   2814                {
   2815                  for (int j=0; j<=lenght-1; j++)
   \   00000014   0022               MOVS     R2,#+0
   \   00000016   0BE0               B        ??V_line_1
   2816                  {
   2817                    LCD_Canvas[kol][Y+j] |= (0x1)<<bit;
   \                     ??V_line_2:
   \   00000018   CB01               LSLS     R3,R1,#+7
   \   0000001A   3E4C               LDR      R4,??V_line_3    ;; LCD_Canvas
   \   0000001C   E318               ADDS     R3,R4,R3
   \   0000001E   009C               LDR      R4,[SP, #+0]
   \   00000020   A418               ADDS     R4,R4,R2
   \   00000022   1B19               ADDS     R3,R3,R4
   \   00000024   1C78               LDRB     R4,[R3, #+0]
   \   00000026   0125               MOVS     R5,#+1
   \   00000028   8540               LSLS     R5,R5,R0
   \   0000002A   2543               ORRS     R5,R5,R4
   \   0000002C   1D70               STRB     R5,[R3, #+0]
   2818                  }
   \   0000002E   521C               ADDS     R2,R2,#+1
   \                     ??V_line_1:
   \   00000030   6B46               MOV      R3,SP
   \   00000032   1B79               LDRB     R3,[R3, #+4]
   \   00000034   5B1E               SUBS     R3,R3,#+1
   \   00000036   9342               CMP      R3,R2
   \   00000038   EEDA               BGE      ??V_line_2
   2819                }
   2820                
   2821                if (typ==2) 
   \                     ??V_line_0:
   \   0000003A   6A46               MOV      R2,SP
   \   0000003C   127A               LDRB     R2,[R2, #+8]
   \   0000003E   022A               CMP      R2,#+2
   \   00000040   24D1               BNE      ??V_line_4
   2822                {
   2823                  char zmiana=0;
   \   00000042   0022               MOVS     R2,#+0
   \   00000044   1300               MOVS     R3,R2
   2824                  for (int j=0; j<=lenght-1; j++)
   \   00000046   1400               MOVS     R4,R2
   \   00000048   0CE0               B        ??V_line_5
   2825                  {
   2826                    if (zmiana==0)
   2827                    {
   2828                      LCD_Canvas[kol][Y+j] |= (0x1)<<bit;
   2829                      zmiana=1;
   2830                    }
   2831                    else
   2832                    {
   2833                      LCD_Canvas[kol][Y+j] &= ~((0x1)<<bit);
   \                     ??V_line_6:
   \   0000004A   CB01               LSLS     R3,R1,#+7
   \   0000004C   314D               LDR      R5,??V_line_3    ;; LCD_Canvas
   \   0000004E   EB18               ADDS     R3,R5,R3
   \   00000050   009D               LDR      R5,[SP, #+0]
   \   00000052   2D19               ADDS     R5,R5,R4
   \   00000054   5B19               ADDS     R3,R3,R5
   \   00000056   1D78               LDRB     R5,[R3, #+0]
   \   00000058   0126               MOVS     R6,#+1
   \   0000005A   8640               LSLS     R6,R6,R0
   \   0000005C   B543               BICS     R5,R5,R6
   \   0000005E   1D70               STRB     R5,[R3, #+0]
   2834                      zmiana=0;
   \   00000060   1300               MOVS     R3,R2
   2835                    }
   \                     ??V_line_7:
   \   00000062   641C               ADDS     R4,R4,#+1
   \                     ??V_line_5:
   \   00000064   6D46               MOV      R5,SP
   \   00000066   2D79               LDRB     R5,[R5, #+4]
   \   00000068   6D1E               SUBS     R5,R5,#+1
   \   0000006A   A542               CMP      R5,R4
   \   0000006C   0EDB               BLT      ??V_line_4
   \   0000006E   002B               CMP      R3,#+0
   \   00000070   EBD1               BNE      ??V_line_6
   \   00000072   CB01               LSLS     R3,R1,#+7
   \   00000074   274D               LDR      R5,??V_line_3    ;; LCD_Canvas
   \   00000076   EB18               ADDS     R3,R5,R3
   \   00000078   009D               LDR      R5,[SP, #+0]
   \   0000007A   2D19               ADDS     R5,R5,R4
   \   0000007C   5B19               ADDS     R3,R3,R5
   \   0000007E   1D78               LDRB     R5,[R3, #+0]
   \   00000080   0126               MOVS     R6,#+1
   \   00000082   8640               LSLS     R6,R6,R0
   \   00000084   2E43               ORRS     R6,R6,R5
   \   00000086   1E70               STRB     R6,[R3, #+0]
   \   00000088   0123               MOVS     R3,#+1
   \   0000008A   EAE7               B        ??V_line_7
   2836                  }
   2837                }
   2838                
   2839                if (typ==3) 
   \                     ??V_line_4:
   \   0000008C   6A46               MOV      R2,SP
   \   0000008E   127A               LDRB     R2,[R2, #+8]
   \   00000090   032A               CMP      R2,#+3
   \   00000092   26D1               BNE      ??V_line_8
   2840                {
   2841                  char zmiana=0;
   \   00000094   0022               MOVS     R2,#+0
   \   00000096   1500               MOVS     R5,R2
   2842                  for (int j=0; j<=lenght-1; j++)
   \   00000098   1400               MOVS     R4,R2
   \   0000009A   0CE0               B        ??V_line_9
   2843                  {
   2844                    if (zmiana<2)
   2845                    {
   2846                      LCD_Canvas[kol][Y+j] |= (0x1)<<bit;
   2847                      zmiana++;
   2848                    }
   2849                    else
   2850                    {
   2851                      LCD_Canvas[kol][Y+j] &= ~((0x1)<<bit);
   \                     ??V_line_10:
   \   0000009C   CB01               LSLS     R3,R1,#+7
   \   0000009E   1D4D               LDR      R5,??V_line_3    ;; LCD_Canvas
   \   000000A0   EB18               ADDS     R3,R5,R3
   \   000000A2   009D               LDR      R5,[SP, #+0]
   \   000000A4   2D19               ADDS     R5,R5,R4
   \   000000A6   5B19               ADDS     R3,R3,R5
   \   000000A8   1D78               LDRB     R5,[R3, #+0]
   \   000000AA   0126               MOVS     R6,#+1
   \   000000AC   8640               LSLS     R6,R6,R0
   \   000000AE   B543               BICS     R5,R5,R6
   \   000000B0   1D70               STRB     R5,[R3, #+0]
   2852                      zmiana=0;
   \   000000B2   1500               MOVS     R5,R2
   2853                    }
   \                     ??V_line_11:
   \   000000B4   641C               ADDS     R4,R4,#+1
   \                     ??V_line_9:
   \   000000B6   6B46               MOV      R3,SP
   \   000000B8   1B79               LDRB     R3,[R3, #+4]
   \   000000BA   5B1E               SUBS     R3,R3,#+1
   \   000000BC   A342               CMP      R3,R4
   \   000000BE   10DB               BLT      ??V_line_8
   \   000000C0   2D06               LSLS     R5,R5,#+24
   \   000000C2   2D0E               LSRS     R5,R5,#+24
   \   000000C4   022D               CMP      R5,#+2
   \   000000C6   E9D2               BCS      ??V_line_10
   \   000000C8   CB01               LSLS     R3,R1,#+7
   \   000000CA   124E               LDR      R6,??V_line_3    ;; LCD_Canvas
   \   000000CC   F318               ADDS     R3,R6,R3
   \   000000CE   009E               LDR      R6,[SP, #+0]
   \   000000D0   3619               ADDS     R6,R6,R4
   \   000000D2   9B19               ADDS     R3,R3,R6
   \   000000D4   1E78               LDRB     R6,[R3, #+0]
   \   000000D6   0127               MOVS     R7,#+1
   \   000000D8   8740               LSLS     R7,R7,R0
   \   000000DA   3743               ORRS     R7,R7,R6
   \   000000DC   1F70               STRB     R7,[R3, #+0]
   \   000000DE   6D1C               ADDS     R5,R5,#+1
   \   000000E0   E8E7               B        ??V_line_11
   2854                  }
   2855                }
   2856                
   2857                
   2858                if (typ==0) 
   \                     ??V_line_8:
   \   000000E2   6A46               MOV      R2,SP
   \   000000E4   127A               LDRB     R2,[R2, #+8]
   \   000000E6   002A               CMP      R2,#+0
   \   000000E8   11D1               BNE      ??V_line_12
   2859                {
   2860                   for (int j=0; j<=lenght-1; j++)
   \   000000EA   0BE0               B        ??V_line_13
   2861                    {
   2862                    LCD_Canvas[kol][Y+j] &= ~((0x1)<<bit);
   \                     ??V_line_14:
   \   000000EC   CB01               LSLS     R3,R1,#+7
   \   000000EE   094C               LDR      R4,??V_line_3    ;; LCD_Canvas
   \   000000F0   E318               ADDS     R3,R4,R3
   \   000000F2   009C               LDR      R4,[SP, #+0]
   \   000000F4   A418               ADDS     R4,R4,R2
   \   000000F6   1B19               ADDS     R3,R3,R4
   \   000000F8   1C78               LDRB     R4,[R3, #+0]
   \   000000FA   0125               MOVS     R5,#+1
   \   000000FC   8540               LSLS     R5,R5,R0
   \   000000FE   AC43               BICS     R4,R4,R5
   \   00000100   1C70               STRB     R4,[R3, #+0]
   2863                    }
   \   00000102   521C               ADDS     R2,R2,#+1
   \                     ??V_line_13:
   \   00000104   6B46               MOV      R3,SP
   \   00000106   1B79               LDRB     R3,[R3, #+4]
   \   00000108   5B1E               SUBS     R3,R3,#+1
   \   0000010A   9342               CMP      R3,R2
   \   0000010C   EEDA               BGE      ??V_line_14
   2864                  
   2865                }
   2866          
   2867          
   2868          }//_______________________ Koniec funkcji H_line ____________________________ 
   \                     ??V_line_12:
   \   0000010E   FEBC               POP      {R1-R7}
   \   00000110   01BC               POP      {R0}
   \   00000112   0047               BX       R0               ;; return
   \                     ??V_line_3:
   \   00000114   ........           DC32     LCD_Canvas
   2869          
   2870          
   2871          
   2872          long long int ButtonEventTime=0;
   2873          //*-----------------------------------------------------------------------------
   2874          //* Nazwa funkcji :    Button
   2875          //* Uniwersalna funkcja przycisku
   2876          //*-----------------------------------------------------------------------------
   2877          //*  Label        - etykieta
   2878          //*  poz_X   - pozycja lewy róg
   2879          //*  poz_Y   - pozycja dolny róg
   2880          //*  width -   szerokoœæ
   2881          //*  height -  wysokoœæ
   2882          //*-----------------------------------------------------------------------------
   2883          long long ButtonBipCounter=0;
   2884          

   \                                 In section Debug.txt, align 4, keep-with-next
   2885          char Button (char _Label[15], char poz_X , char poz_Y ,char width, char height) 
   2886          { 
   \                     Button:
   \   00000000   FCB5               PUSH     {R2-R7,LR}
   \   00000002   83B0               SUB      SP,SP,#+12
   \   00000004   0500               MOVS     R5,R0
   \   00000006   0C00               MOVS     R4,R1
   \   00000008   6846               MOV      R0,SP
   \   0000000A   0021               MOVS     R1,#+0
   \   0000000C   C170               STRB     R1,[R0, #+3]
   2887              char odp =0;
   2888              char tmpI=0;
   \   0000000E   0E00               MOVS     R6,R1
   2889              char tmpF=0;
   \   00000010   0800               MOVS     R0,R1
   \   00000012   00E0               B        ??Button_0
   2890              while ((tmpI<=15) && (tmpF==0))
   2891              {
   2892                if (_Label[tmpI]==0)
   2893                {
   2894                  tmpF=1;
   \                     ??Button_1:
   \   00000014   0120               MOVS     R0,#+1
   2895                }else{
   \                     ??Button_0:
   \   00000016   3100               MOVS     R1,R6
   \   00000018   1029               CMP      R1,#+16
   \   0000001A   08D2               BCS      ??Button_2
   \   0000001C   0028               CMP      R0,#+0
   \   0000001E   06D1               BNE      ??Button_2
   \   00000020   695C               LDRB     R1,[R5, R1]
   \   00000022   0029               CMP      R1,#+0
   \   00000024   F6D0               BEQ      ??Button_1
   2896                  tmpI++;
   \   00000026   761C               ADDS     R6,R6,#+1
   \   00000028   3606               LSLS     R6,R6,#+24
   \   0000002A   360E               LSRS     R6,R6,#+24
   \   0000002C   F3E7               B        ??Button_0
   2897                }
   2898              }
   \                     ??Button_2:
   \   0000002E   6846               MOV      R0,SP
   \   00000030   1900               MOVS     R1,R3
   \   00000032   091F               SUBS     R1,R1,#+4
   \   00000034   4170               STRB     R1,[R0, #+1]
   \   00000036   0AA9               ADD      R1,SP,#+40
   \   00000038   0978               LDRB     R1,[R1, #+0]
   \   0000003A   091F               SUBS     R1,R1,#+4
   \   0000003C   0170               STRB     R1,[R0, #+0]
   \   0000003E   82B0               SUB      SP,SP,#+8
   \   00000040   0120               MOVS     R0,#+1
   \   00000042   0090               STR      R0,[SP, #+0]
   \   00000044   02A8               ADD      R0,SP,#+8
   \   00000046   0378               LDRB     R3,[R0, #+0]
   \   00000048   4278               LDRB     R2,[R0, #+1]
   \   0000004A   017B               LDRB     R1,[R0, #+12]
   \   0000004C   891C               ADDS     R1,R1,#+2
   \   0000004E   0906               LSLS     R1,R1,#+24
   \   00000050   090E               LSRS     R1,R1,#+24
   \   00000052   2000               MOVS     R0,R4
   \   00000054   801C               ADDS     R0,R0,#+2
   \   00000056   0006               LSLS     R0,R0,#+24
   \   00000058   000E               LSRS     R0,R0,#+24
   2899              static char ButtonDown=0;
   2900              CleanCanvasArea(poz_X+2, poz_Y+2, width-4, height-4,1);  //(char X, char Y, char X_Lenght, char Y_Lenght, char Type);   
   \   0000005A   ........           BL       CleanCanvasArea
   \   0000005E   02B0               ADD      SP,SP,#+8
   2901              Label(_Label,2,poz_X+3,poz_Y+(height/2)-4,tmpI,width-7,1,127,1);  //(char *Vstring, char alig, char X, int Y, char maxChar, char clean, char minY, char maxY, negatyw) 
   \   00000060   6846               MOV      R0,SP
   \   00000062   077B               LDRB     R7,[R0, #+12]
   \   00000064   82B0               SUB      SP,SP,#+8
   \   00000066   0120               MOVS     R0,#+1
   \   00000068   0090               STR      R0,[SP, #+0]
   \   0000006A   7F21               MOVS     R1,#+127
   \   0000006C   03B4               PUSH     {R0,R1}
   \   0000006E   04A8               ADD      R0,SP,#+16
   \   00000070   007C               LDRB     R0,[R0, #+16]
   \   00000072   C11F               SUBS     R1,R0,#+7
   \   00000074   3000               MOVS     R0,R6
   \   00000076   0906               LSLS     R1,R1,#+24
   \   00000078   090E               LSRS     R1,R1,#+24
   \   0000007A   03B4               PUSH     {R0,R1}
   \   0000007C   10A8               ADD      R0,SP,#+64
   \   0000007E   0078               LDRB     R0,[R0, #+0]
   \   00000080   4008               LSRS     R0,R0,#+1
   \   00000082   3B18               ADDS     R3,R7,R0
   \   00000084   1B1F               SUBS     R3,R3,#+4
   \   00000086   2200               MOVS     R2,R4
   \   00000088   D21C               ADDS     R2,R2,#+3
   \   0000008A   1206               LSLS     R2,R2,#+24
   \   0000008C   120E               LSRS     R2,R2,#+24
   \   0000008E   0221               MOVS     R1,#+2
   \   00000090   2800               MOVS     R0,R5
   \   00000092   ........           BL       Label
   \   00000096   06B0               ADD      SP,SP,#+24
   2902           
   2903          
   2904          
   2905              if ( (X_down>poz_X) && (X_down<poz_X+width) && (Y_down>poz_Y+2) && (Y_down<poz_Y+height))
   \   00000098   8748               LDR      R0,??Button_3    ;; X_down
   \   0000009A   0021               MOVS     R1,#+0
   \   0000009C   405E               LDRSH    R0,[R0, R1]
   \   0000009E   2100               MOVS     R1,R4
   \   000000A0   8142               CMP      R1,R0
   \   000000A2   55DA               BGE      ??Button_4
   \   000000A4   6946               MOV      R1,SP
   \   000000A6   097C               LDRB     R1,[R1, #+16]
   \   000000A8   6118               ADDS     R1,R4,R1
   \   000000AA   8842               CMP      R0,R1
   \   000000AC   50DA               BGE      ??Button_4
   \   000000AE   8348               LDR      R0,??Button_3+0x4  ;; Y_down
   \   000000B0   0021               MOVS     R1,#+0
   \   000000B2   405E               LDRSH    R0,[R0, R1]
   \   000000B4   3E00               MOVS     R6,R7
   \   000000B6   B61C               ADDS     R6,R6,#+2
   \   000000B8   8642               CMP      R6,R0
   \   000000BA   49DA               BGE      ??Button_4
   \   000000BC   0AA9               ADD      R1,SP,#+40
   \   000000BE   0978               LDRB     R1,[R1, #+0]
   \   000000C0   7D18               ADDS     R5,R7,R1
   \   000000C2   A842               CMP      R0,R5
   \   000000C4   44DA               BGE      ??Button_4
   2906              {    
   2907                  H_line(poz_X+2,poz_Y+1,width-4,1); // (char X, int Y, char lenght, char typ) 
   \   000000C6   0123               MOVS     R3,#+1
   \   000000C8   6846               MOV      R0,SP
   \   000000CA   4278               LDRB     R2,[R0, #+1]
   \   000000CC   7F1C               ADDS     R7,R7,#+1
   \   000000CE   3900               MOVS     R1,R7
   \   000000D0   2000               MOVS     R0,R4
   \   000000D2   801C               ADDS     R0,R0,#+2
   \   000000D4   0006               LSLS     R0,R0,#+24
   \   000000D6   000E               LSRS     R0,R0,#+24
   \   000000D8   ........           BL       H_line
   2908                  H_line(poz_X+2,poz_Y+height-2,width-4,1); // (char X, int Y, char lenght, char typ) 
   \   000000DC   0123               MOVS     R3,#+1
   \   000000DE   6846               MOV      R0,SP
   \   000000E0   4278               LDRB     R2,[R0, #+1]
   \   000000E2   AD1E               SUBS     R5,R5,#+2
   \   000000E4   2900               MOVS     R1,R5
   \   000000E6   2000               MOVS     R0,R4
   \   000000E8   801C               ADDS     R0,R0,#+2
   \   000000EA   0006               LSLS     R0,R0,#+24
   \   000000EC   000E               LSRS     R0,R0,#+24
   \   000000EE   ........           BL       H_line
   2909                  V_line(poz_X+1,poz_Y+2,height-4,1); // (char X, int Y, char lenght, char typ) 
   \   000000F2   0123               MOVS     R3,#+1
   \   000000F4   6846               MOV      R0,SP
   \   000000F6   0278               LDRB     R2,[R0, #+0]
   \   000000F8   3100               MOVS     R1,R6
   \   000000FA   2000               MOVS     R0,R4
   \   000000FC   401C               ADDS     R0,R0,#+1
   \   000000FE   0006               LSLS     R0,R0,#+24
   \   00000100   000E               LSRS     R0,R0,#+24
   \   00000102   ........           BL       V_line
   2910                  V_line(poz_X+width-2,poz_Y+2,height-4,1); // (char X, int Y, char lenght, char typ) 
   \   00000106   0123               MOVS     R3,#+1
   \   00000108   6846               MOV      R0,SP
   \   0000010A   0278               LDRB     R2,[R0, #+0]
   \   0000010C   3100               MOVS     R1,R6
   \   0000010E   007C               LDRB     R0,[R0, #+16]
   \   00000110   2018               ADDS     R0,R4,R0
   \   00000112   801E               SUBS     R0,R0,#+2
   \   00000114   0006               LSLS     R0,R0,#+24
   \   00000116   000E               LSRS     R0,R0,#+24
   \   00000118   ........           BL       V_line
   2911                  odp=2;
   \   0000011C   6846               MOV      R0,SP
   \   0000011E   0221               MOVS     R1,#+2
   \   00000120   C170               STRB     R1,[R0, #+3]
   2912                  
   2913                  if ((ButtonDown==0) && (!(AT91C_IFLASH_MEM->Config.SoundOff))) {
   \   00000122   674A               LDR      R2,??Button_3+0x8  ;; RealRows
   \   00000124   D079               LDRB     R0,[R2, #+7]
   \   00000126   0028               CMP      R0,#+0
   \   00000128   0FD1               BNE      ??Button_5
   \   0000012A   6648               LDR      R0,??Button_3+0xC  ;; 0x13d7e9
   \   0000012C   0078               LDRB     R0,[R0, #+0]
   \   0000012E   0028               CMP      R0,#+0
   \   00000130   0BD1               BNE      ??Button_5
   2914                    AT91C_BASE_PIOA->PIO_SODR =SpeakerPin;
                                                      ^
Warning[Pe068]: integer conversion resulted in a change of sign
   \   00000132   6548               LDR      R0,??Button_3+0x10  ;; 0xfffff430
   \   00000134   8021               MOVS     R1,#+128
   \   00000136   0906               LSLS     R1,R1,#+24       ;; #-2147483648
   \   00000138   0160               STR      R1,[R0, #+0]
   2915                    ButtonBipCounter=g_counter+8;
   \   0000013A   1300               MOVS     R3,R2
   \   0000013C   1033               ADDS     R3,R3,#+16
   \   0000013E   6348               LDR      R0,??Button_3+0x14  ;; g_counter
   \   00000140   03C8               LDM      R0!,{R0,R1}
   \   00000142   0024               MOVS     R4,#+0
   \   00000144   0830               ADDS     R0,R0,#+8
   \   00000146   6141               ADCS     R1,R1,R4
   \   00000148   03C3               STM      R3!,{R0,R1}
   2916                  } 
   2917                  ButtonDown=1;
   \                     ??Button_5:
   \   0000014A   0120               MOVS     R0,#+1
   \   0000014C   D071               STRB     R0,[R2, #+7]
   \   0000014E   A8E0               B        ??Button_6
   2918              }
   2919              else 
   2920              {
   2921                  
   2922                
   2923                 
   2924                  H_line(poz_X+2,poz_Y+1,width-4,0); // (char X, int Y, char lenght, char typ) 
   \                     ??Button_4:
   \   00000150   3800               MOVS     R0,R7
   \   00000152   401C               ADDS     R0,R0,#+1
   \   00000154   0190               STR      R0,[SP, #+4]
   \   00000156   0023               MOVS     R3,#+0
   \   00000158   6846               MOV      R0,SP
   \   0000015A   4278               LDRB     R2,[R0, #+1]
   \   0000015C   0199               LDR      R1,[SP, #+4]
   \   0000015E   2000               MOVS     R0,R4
   \   00000160   801C               ADDS     R0,R0,#+2
   \   00000162   0006               LSLS     R0,R0,#+24
   \   00000164   000E               LSRS     R0,R0,#+24
   \   00000166   ........           BL       H_line
   2925                  H_line(poz_X+2,poz_Y+height-2,width-4,0); // (char X, int Y, char lenght, char typ) 
   \   0000016A   0AA8               ADD      R0,SP,#+40
   \   0000016C   0078               LDRB     R0,[R0, #+0]
   \   0000016E   3D18               ADDS     R5,R7,R0
   \   00000170   0023               MOVS     R3,#+0
   \   00000172   6846               MOV      R0,SP
   \   00000174   4278               LDRB     R2,[R0, #+1]
   \   00000176   A91E               SUBS     R1,R5,#+2
   \   00000178   2000               MOVS     R0,R4
   \   0000017A   801C               ADDS     R0,R0,#+2
   \   0000017C   0006               LSLS     R0,R0,#+24
   \   0000017E   000E               LSRS     R0,R0,#+24
   \   00000180   ........           BL       H_line
   2926                  V_line(poz_X+1,poz_Y+2,height-4,0); // (char X, int Y, char lenght, char typ) 
   \   00000184   3E00               MOVS     R6,R7
   \   00000186   B61C               ADDS     R6,R6,#+2
   \   00000188   0023               MOVS     R3,#+0
   \   0000018A   6846               MOV      R0,SP
   \   0000018C   0278               LDRB     R2,[R0, #+0]
   \   0000018E   3100               MOVS     R1,R6
   \   00000190   2000               MOVS     R0,R4
   \   00000192   401C               ADDS     R0,R0,#+1
   \   00000194   0006               LSLS     R0,R0,#+24
   \   00000196   000E               LSRS     R0,R0,#+24
   \   00000198   ........           BL       V_line
   2927                  V_line(poz_X+width-2,poz_Y+2,height-4,0); // (char X, int Y, char lenght, char typ)   
   \   0000019C   6846               MOV      R0,SP
   \   0000019E   6946               MOV      R1,SP
   \   000001A0   097C               LDRB     R1,[R1, #+16]
   \   000001A2   6118               ADDS     R1,R4,R1
   \   000001A4   4170               STRB     R1,[R0, #+1]
   \   000001A6   6946               MOV      R1,SP
   \   000001A8   4978               LDRB     R1,[R1, #+1]
   \   000001AA   891E               SUBS     R1,R1,#+2
   \   000001AC   8170               STRB     R1,[R0, #+2]
   \   000001AE   0023               MOVS     R3,#+0
   \   000001B0   0278               LDRB     R2,[R0, #+0]
   \   000001B2   3100               MOVS     R1,R6
   \   000001B4   8078               LDRB     R0,[R0, #+2]
   \   000001B6   ........           BL       V_line
   2928                 
   2929                  H_line(poz_X+1,poz_Y,width-2,1); // (char X, int Y, char lenght, char typ) 
   \   000001BA   6846               MOV      R0,SP
   \   000001BC   6946               MOV      R1,SP
   \   000001BE   097C               LDRB     R1,[R1, #+16]
   \   000001C0   891E               SUBS     R1,R1,#+2
   \   000001C2   0170               STRB     R1,[R0, #+0]
   \   000001C4   0123               MOVS     R3,#+1
   \   000001C6   0278               LDRB     R2,[R0, #+0]
   \   000001C8   3900               MOVS     R1,R7
   \   000001CA   2000               MOVS     R0,R4
   \   000001CC   401C               ADDS     R0,R0,#+1
   \   000001CE   0006               LSLS     R0,R0,#+24
   \   000001D0   000E               LSRS     R0,R0,#+24
   \   000001D2   ........           BL       H_line
   2930                  H_line(poz_X+1,poz_Y+height-1,width-2,1); // (char X, int Y, char lenght, char typ) 
   \   000001D6   0123               MOVS     R3,#+1
   \   000001D8   6846               MOV      R0,SP
   \   000001DA   0278               LDRB     R2,[R0, #+0]
   \   000001DC   691E               SUBS     R1,R5,#+1
   \   000001DE   2000               MOVS     R0,R4
   \   000001E0   401C               ADDS     R0,R0,#+1
   \   000001E2   0006               LSLS     R0,R0,#+24
   \   000001E4   000E               LSRS     R0,R0,#+24
   \   000001E6   ........           BL       H_line
   2931                  V_line(poz_X,poz_Y+1,height-2,1); // (char X, int Y, char lenght, char typ) 
   \   000001EA   0AA8               ADD      R0,SP,#+40
   \   000001EC   0078               LDRB     R0,[R0, #+0]
   \   000001EE   871E               SUBS     R7,R0,#+2
   \   000001F0   0123               MOVS     R3,#+1
   \   000001F2   3A00               MOVS     R2,R7
   \   000001F4   1206               LSLS     R2,R2,#+24
   \   000001F6   120E               LSRS     R2,R2,#+24
   \   000001F8   0199               LDR      R1,[SP, #+4]
   \   000001FA   2000               MOVS     R0,R4
   \   000001FC   ........           BL       V_line
   2932                  V_line(poz_X+width-1,poz_Y+1,height-2,1); // (char X, int Y, char lenght, char typ) 
   \   00000200   0123               MOVS     R3,#+1
   \   00000202   3A00               MOVS     R2,R7
   \   00000204   1206               LSLS     R2,R2,#+24
   \   00000206   120E               LSRS     R2,R2,#+24
   \   00000208   0199               LDR      R1,[SP, #+4]
   \   0000020A   6846               MOV      R0,SP
   \   0000020C   4078               LDRB     R0,[R0, #+1]
   \   0000020E   401E               SUBS     R0,R0,#+1
   \   00000210   0006               LSLS     R0,R0,#+24
   \   00000212   000E               LSRS     R0,R0,#+24
   \   00000214   ........           BL       V_line
   2933              
   2934                  CanvasPixel(poz_X+1, poz_Y+1,1);   //(char X, char Y, char Colour)
   \   00000218   6846               MOV      R0,SP
   \   0000021A   077B               LDRB     R7,[R0, #+12]
   \   0000021C   7F1C               ADDS     R7,R7,#+1
   \   0000021E   0122               MOVS     R2,#+1
   \   00000220   3900               MOVS     R1,R7
   \   00000222   0906               LSLS     R1,R1,#+24
   \   00000224   090E               LSRS     R1,R1,#+24
   \   00000226   2000               MOVS     R0,R4
   \   00000228   401C               ADDS     R0,R0,#+1
   \   0000022A   0006               LSLS     R0,R0,#+24
   \   0000022C   000E               LSRS     R0,R0,#+24
   \   0000022E   ........           BL       CanvasPixel
   2935                  CanvasPixel(poz_X+width-2, poz_Y+1,1);   //(char X, char Y, char Colour)
   \   00000232   0122               MOVS     R2,#+1
   \   00000234   3900               MOVS     R1,R7
   \   00000236   0906               LSLS     R1,R1,#+24
   \   00000238   090E               LSRS     R1,R1,#+24
   \   0000023A   6846               MOV      R0,SP
   \   0000023C   8078               LDRB     R0,[R0, #+2]
   \   0000023E   ........           BL       CanvasPixel
   2936                  CanvasPixel(poz_X+1, poz_Y+height-2,1);   //(char X, char Y, char Colour)
   \   00000242   6846               MOV      R0,SP
   \   00000244   007B               LDRB     R0,[R0, #+12]
   \   00000246   0AA9               ADD      R1,SP,#+40
   \   00000248   0978               LDRB     R1,[R1, #+0]
   \   0000024A   4018               ADDS     R0,R0,R1
   \   0000024C   871E               SUBS     R7,R0,#+2
   \   0000024E   0122               MOVS     R2,#+1
   \   00000250   3900               MOVS     R1,R7
   \   00000252   0906               LSLS     R1,R1,#+24
   \   00000254   090E               LSRS     R1,R1,#+24
   \   00000256   2000               MOVS     R0,R4
   \   00000258   401C               ADDS     R0,R0,#+1
   \   0000025A   0006               LSLS     R0,R0,#+24
   \   0000025C   000E               LSRS     R0,R0,#+24
   \   0000025E   ........           BL       CanvasPixel
   2937                  CanvasPixel(poz_X+width-2, poz_Y+height-2 ,1);   //(char X, char Y, char Colour)
   \   00000262   0122               MOVS     R2,#+1
   \   00000264   3900               MOVS     R1,R7
   \   00000266   0906               LSLS     R1,R1,#+24
   \   00000268   090E               LSRS     R1,R1,#+24
   \   0000026A   6846               MOV      R0,SP
   \   0000026C   8078               LDRB     R0,[R0, #+2]
   \   0000026E   ........           BL       CanvasPixel
   2938                  
   2939                  
   2940                  if ( (X_up>poz_X) && (X_up<poz_X+width) && (Y_up>poz_Y+2) && (Y_up<poz_Y+height))
   \   00000272   1748               LDR      R0,??Button_3+0x18  ;; X_up
   \   00000274   0021               MOVS     R1,#+0
   \   00000276   405E               LDRSH    R0,[R0, R1]
   \   00000278   2100               MOVS     R1,R4
   \   0000027A   8142               CMP      R1,R0
   \   0000027C   11DA               BGE      ??Button_6
   \   0000027E   6946               MOV      R1,SP
   \   00000280   097C               LDRB     R1,[R1, #+16]
   \   00000282   6118               ADDS     R1,R4,R1
   \   00000284   8842               CMP      R0,R1
   \   00000286   0CDA               BGE      ??Button_6
   \   00000288   1248               LDR      R0,??Button_3+0x1C  ;; Y_up
   \   0000028A   0021               MOVS     R1,#+0
   \   0000028C   405E               LDRSH    R0,[R0, R1]
   \   0000028E   8642               CMP      R6,R0
   \   00000290   07DA               BGE      ??Button_6
   \   00000292   A842               CMP      R0,R5
   \   00000294   05DA               BGE      ??Button_6
   2941                  {    
   2942                    odp =1;
   \   00000296   6846               MOV      R0,SP
   \   00000298   0121               MOVS     R1,#+1
   \   0000029A   C170               STRB     R1,[R0, #+3]
   2943                    ButtonDown=0;
   \   0000029C   0E48               LDR      R0,??Button_3+0x20  ;; RealRows + 7
   \   0000029E   0021               MOVS     R1,#+0
   \   000002A0   0170               STRB     R1,[R0, #+0]
   2944                  } 
   2945                    
   2946                    
   2947              }
   2948              
   2949          
   2950                 
   2951                ButtonEventTime=g_counter;
   \                     ??Button_6:
   \   000002A2   0E4A               LDR      R2,??Button_3+0x24  ;; RealRows + 8
   \   000002A4   0948               LDR      R0,??Button_3+0x14  ;; g_counter
   \   000002A6   03C8               LDM      R0!,{R0,R1}
   \   000002A8   03C2               STM      R2!,{R0,R1}
   2952              
   2953              return odp;
   \   000002AA   6846               MOV      R0,SP
   \   000002AC   C078               LDRB     R0,[R0, #+3]
   \   000002AE   05B0               ADD      SP,SP,#+20
   \   000002B0   F0BC               POP      {R4-R7}
   \   000002B2   02BC               POP      {R1}
   \   000002B4   0847               BX       R1               ;; return
   \   000002B6   C046               Nop      
   \                     ??Button_3:
   \   000002B8   ........           DC32     X_down
   \   000002BC   ........           DC32     Y_down
   \   000002C0   ........           DC32     RealRows
   \   000002C4   E9D71300           DC32     0x13d7e9
   \   000002C8   30F4FFFF           DC32     0xfffff430
   \   000002CC   ........           DC32     g_counter
   \   000002D0   ........           DC32     X_up
   \   000002D4   ........           DC32     Y_up
   \   000002D8   ........           DC32     RealRows + 7
   \   000002DC   ........           DC32     RealRows + 8
   2954              
   2955          }
   2956          
   2957          
   2958          
   2959          
   2960          
   2961          
   2962          //*-----------------------------------------------------------------------------
   2963          //* Nazwa funkcji :    Zone
   2964          //* Uniwersalna funkcja przycisku strefy (przycisk bia³y)
   2965          //*-----------------------------------------------------------------------------
   2966          //*  Label        - etykieta
   2967          //*  poz_X   - pozycja lewy róg
   2968          //*  poz_Y   - pozycja dolny róg
   2969          //*  width -   szerokoœæ
   2970          //*  height -  wysokoœæ
   2971          //*  LineType- typ lini 0-bia³a 1=ci¹gla, 2=kropkowana, 3=kreskowana
   2972          //*-----------------------------------------------------------------------------

   \                                 In section Debug.txt, align 4, keep-with-next
   2973          char Zone (char _Label[15], char poz_X , char poz_Y ,char width, char height, char LineType) 
   2974          { 
   \                     Zone:
   \   00000000   FCB5               PUSH     {R2-R7,LR}
   \   00000002   83B0               SUB      SP,SP,#+12
   \   00000004   0600               MOVS     R6,R0
   \   00000006   0C00               MOVS     R4,R1
   \   00000008   0AA8               ADD      R0,SP,#+40
   \   0000000A   0578               LDRB     R5,[R0, #+0]
   2975              char odp =0;
   \   0000000C   0020               MOVS     R0,#+0
   \   0000000E   6946               MOV      R1,SP
   \   00000010   0200               MOVS     R2,R0
   \   00000012   4A70               STRB     R2,[R1, #+1]
   2976              char tmpI=0;
   2977              char tmpF=0;
   \   00000014   00E0               B        ??Zone_0
   2978              while ((tmpI<=15) && (tmpF==0))
   2979              {
   2980                if (_Label[tmpI]==0)
   2981                {
   2982                  tmpF=1;
   \                     ??Zone_1:
   \   00000016   0120               MOVS     R0,#+1
   2983                }else{
   \                     ??Zone_0:
   \   00000018   1100               MOVS     R1,R2
   \   0000001A   1029               CMP      R1,#+16
   \   0000001C   08D2               BCS      ??Zone_2
   \   0000001E   0028               CMP      R0,#+0
   \   00000020   06D1               BNE      ??Zone_2
   \   00000022   715C               LDRB     R1,[R6, R1]
   \   00000024   0029               CMP      R1,#+0
   \   00000026   F6D0               BEQ      ??Zone_1
   2984                  tmpI++;
   \   00000028   521C               ADDS     R2,R2,#+1
   \   0000002A   1206               LSLS     R2,R2,#+24
   \   0000002C   120E               LSRS     R2,R2,#+24
   \   0000002E   F3E7               B        ??Zone_0
   2985                }
   2986              }
   2987              
   2988              //CleanCanvasArea(poz_X+2, poz_Y+2, width-4, height-4,0);  //(char X, char Y, char X_Lenght, char Y_Lenght, char Type);   
   2989              if (_Label!=0) Label(_Label,2,poz_X+3,poz_Y+(height/2)-4,tmpI,width-7,1,127,0);  //(char *Vstring, char alig, char X, int Y, char maxChar, char clean, char minY, char maxY, negatyw) 
   \                     ??Zone_2:
   \   00000030   002E               CMP      R6,#+0
   \   00000032   1AD0               BEQ      ??Zone_3
   \   00000034   82B0               SUB      SP,SP,#+8
   \   00000036   0020               MOVS     R0,#+0
   \   00000038   0090               STR      R0,[SP, #+0]
   \   0000003A   7F21               MOVS     R1,#+127
   \   0000003C   0120               MOVS     R0,#+1
   \   0000003E   03B4               PUSH     {R0,R1}
   \   00000040   1800               MOVS     R0,R3
   \   00000042   C11F               SUBS     R1,R0,#+7
   \   00000044   1000               MOVS     R0,R2
   \   00000046   0906               LSLS     R1,R1,#+24
   \   00000048   090E               LSRS     R1,R1,#+24
   \   0000004A   03B4               PUSH     {R0,R1}
   \   0000004C   06A8               ADD      R0,SP,#+24
   \   0000004E   007B               LDRB     R0,[R0, #+12]
   \   00000050   2900               MOVS     R1,R5
   \   00000052   4908               LSRS     R1,R1,#+1
   \   00000054   4318               ADDS     R3,R0,R1
   \   00000056   1B1F               SUBS     R3,R3,#+4
   \   00000058   2200               MOVS     R2,R4
   \   0000005A   D21C               ADDS     R2,R2,#+3
   \   0000005C   1206               LSLS     R2,R2,#+24
   \   0000005E   120E               LSRS     R2,R2,#+24
   \   00000060   0221               MOVS     R1,#+2
   \   00000062   3000               MOVS     R0,R6
   \   00000064   ........           BL       Label
   \   00000068   06B0               ADD      SP,SP,#+24
   2990           
   2991          
   2992          
   2993              if ( (X_down>poz_X) && (X_down<poz_X+width) && (Y_down>poz_Y+2) && (Y_down<poz_Y+height))
   \                     ??Zone_3:
   \   0000006A   5348               LDR      R0,??Zone_4      ;; X_down
   \   0000006C   0021               MOVS     R1,#+0
   \   0000006E   405E               LDRSH    R0,[R0, R1]
   \   00000070   2100               MOVS     R1,R4
   \   00000072   8142               CMP      R1,R0
   \   00000074   48DA               BGE      ??Zone_5
   \   00000076   6946               MOV      R1,SP
   \   00000078   097C               LDRB     R1,[R1, #+16]
   \   0000007A   6118               ADDS     R1,R4,R1
   \   0000007C   8842               CMP      R0,R1
   \   0000007E   43DA               BGE      ??Zone_5
   \   00000080   4E48               LDR      R0,??Zone_4+0x4  ;; Y_down
   \   00000082   0021               MOVS     R1,#+0
   \   00000084   415E               LDRSH    R1,[R0, R1]
   \   00000086   6846               MOV      R0,SP
   \   00000088   067B               LDRB     R6,[R0, #+12]
   \   0000008A   3000               MOVS     R0,R6
   \   0000008C   801C               ADDS     R0,R0,#+2
   \   0000008E   0190               STR      R0,[SP, #+4]
   \   00000090   8842               CMP      R0,R1
   \   00000092   39DA               BGE      ??Zone_5
   \   00000094   7719               ADDS     R7,R6,R5
   \   00000096   B942               CMP      R1,R7
   \   00000098   36DA               BGE      ??Zone_5
   \   0000009A   6846               MOV      R0,SP
   \   0000009C   6946               MOV      R1,SP
   \   0000009E   097C               LDRB     R1,[R1, #+16]
   \   000000A0   091F               SUBS     R1,R1,#+4
   \   000000A2   0170               STRB     R1,[R0, #+0]
   \   000000A4   0123               MOVS     R3,#+1
   \   000000A6   0278               LDRB     R2,[R0, #+0]
   \   000000A8   761C               ADDS     R6,R6,#+1
   \   000000AA   3100               MOVS     R1,R6
   \   000000AC   2000               MOVS     R0,R4
   \   000000AE   801C               ADDS     R0,R0,#+2
   \   000000B0   0006               LSLS     R0,R0,#+24
   \   000000B2   000E               LSRS     R0,R0,#+24
   2994              {    
   2995                  H_line(poz_X+2,poz_Y+1,width-4,1); // (char X, int Y, char lenght, char typ) 
   \   000000B4   ........           BL       H_line
   2996                  H_line(poz_X+2,poz_Y+height-2,width-4,1); // (char X, int Y, char lenght, char typ) 
   \   000000B8   0123               MOVS     R3,#+1
   \   000000BA   6846               MOV      R0,SP
   \   000000BC   0278               LDRB     R2,[R0, #+0]
   \   000000BE   BF1E               SUBS     R7,R7,#+2
   \   000000C0   3900               MOVS     R1,R7
   \   000000C2   2000               MOVS     R0,R4
   \   000000C4   801C               ADDS     R0,R0,#+2
   \   000000C6   0006               LSLS     R0,R0,#+24
   \   000000C8   000E               LSRS     R0,R0,#+24
   \   000000CA   ........           BL       H_line
   2997                  V_line(poz_X+1,poz_Y+2,height-4,1); // (char X, int Y, char lenght, char typ) 
   \   000000CE   2D1F               SUBS     R5,R5,#+4
   \   000000D0   0123               MOVS     R3,#+1
   \   000000D2   2A00               MOVS     R2,R5
   \   000000D4   1206               LSLS     R2,R2,#+24
   \   000000D6   120E               LSRS     R2,R2,#+24
   \   000000D8   0199               LDR      R1,[SP, #+4]
   \   000000DA   2000               MOVS     R0,R4
   \   000000DC   401C               ADDS     R0,R0,#+1
   \   000000DE   0006               LSLS     R0,R0,#+24
   \   000000E0   000E               LSRS     R0,R0,#+24
   \   000000E2   ........           BL       V_line
   2998                  V_line(poz_X+width-2,poz_Y+2,height-4,1); // (char X, int Y, char lenght, char typ) 
   \   000000E6   0123               MOVS     R3,#+1
   \   000000E8   2A00               MOVS     R2,R5
   \   000000EA   1206               LSLS     R2,R2,#+24
   \   000000EC   120E               LSRS     R2,R2,#+24
   \   000000EE   0199               LDR      R1,[SP, #+4]
   \   000000F0   6846               MOV      R0,SP
   \   000000F2   007C               LDRB     R0,[R0, #+16]
   \   000000F4   2018               ADDS     R0,R4,R0
   \   000000F6   801E               SUBS     R0,R0,#+2
   \   000000F8   0006               LSLS     R0,R0,#+24
   \   000000FA   000E               LSRS     R0,R0,#+24
   \   000000FC   ........           BL       V_line
   2999                  odp=2;
   \   00000100   6846               MOV      R0,SP
   \   00000102   0221               MOVS     R1,#+2
   \   00000104   4170               STRB     R1,[R0, #+1]
   \   00000106   4DE0               B        ??Zone_6
   3000              }
   \                     ??Zone_5:
   \   00000108   6846               MOV      R0,SP
   \   0000010A   6946               MOV      R1,SP
   \   0000010C   097C               LDRB     R1,[R1, #+16]
   \   0000010E   891E               SUBS     R1,R1,#+2
   \   00000110   0170               STRB     R1,[R0, #+0]
   \   00000112   067B               LDRB     R6,[R0, #+12]
   \   00000114   0BA8               ADD      R0,SP,#+44
   \   00000116   0378               LDRB     R3,[R0, #+0]
   \   00000118   6846               MOV      R0,SP
   \   0000011A   0278               LDRB     R2,[R0, #+0]
   \   0000011C   3100               MOVS     R1,R6
   \   0000011E   2000               MOVS     R0,R4
   \   00000120   401C               ADDS     R0,R0,#+1
   \   00000122   0006               LSLS     R0,R0,#+24
   \   00000124   000E               LSRS     R0,R0,#+24
   3001              else 
   3002              {
   3003                  
   3004              
   3005                  H_line(poz_X+1,poz_Y,width-2,LineType); // (char X, int Y, char lenght, char typ) 
   \   00000126   ........           BL       H_line
   3006                  H_line(poz_X+1,poz_Y+height-1,width-2,LineType); // (char X, int Y, char lenght, char typ) 
   \   0000012A   7719               ADDS     R7,R6,R5
   \   0000012C   0BA8               ADD      R0,SP,#+44
   \   0000012E   0378               LDRB     R3,[R0, #+0]
   \   00000130   6846               MOV      R0,SP
   \   00000132   0278               LDRB     R2,[R0, #+0]
   \   00000134   791E               SUBS     R1,R7,#+1
   \   00000136   2000               MOVS     R0,R4
   \   00000138   401C               ADDS     R0,R0,#+1
   \   0000013A   0006               LSLS     R0,R0,#+24
   \   0000013C   000E               LSRS     R0,R0,#+24
   \   0000013E   ........           BL       H_line
   3007                  V_line(poz_X,poz_Y+1,height-2,LineType); // (char X, int Y, char lenght, char typ) 
   \   00000142   3000               MOVS     R0,R6
   \   00000144   401C               ADDS     R0,R0,#+1
   \   00000146   0190               STR      R0,[SP, #+4]
   \   00000148   AD1E               SUBS     R5,R5,#+2
   \   0000014A   0BA8               ADD      R0,SP,#+44
   \   0000014C   0378               LDRB     R3,[R0, #+0]
   \   0000014E   2A00               MOVS     R2,R5
   \   00000150   1206               LSLS     R2,R2,#+24
   \   00000152   120E               LSRS     R2,R2,#+24
   \   00000154   0199               LDR      R1,[SP, #+4]
   \   00000156   2000               MOVS     R0,R4
   \   00000158   ........           BL       V_line
   3008                  V_line(poz_X+width-1,poz_Y+1,height-2,LineType); // (char X, int Y, char lenght, char typ) 
   \   0000015C   0BA8               ADD      R0,SP,#+44
   \   0000015E   0378               LDRB     R3,[R0, #+0]
   \   00000160   2A00               MOVS     R2,R5
   \   00000162   1206               LSLS     R2,R2,#+24
   \   00000164   120E               LSRS     R2,R2,#+24
   \   00000166   0199               LDR      R1,[SP, #+4]
   \   00000168   6846               MOV      R0,SP
   \   0000016A   007C               LDRB     R0,[R0, #+16]
   \   0000016C   2018               ADDS     R0,R4,R0
   \   0000016E   401E               SUBS     R0,R0,#+1
   \   00000170   0006               LSLS     R0,R0,#+24
   \   00000172   000E               LSRS     R0,R0,#+24
   \   00000174   ........           BL       V_line
   3009              
   3010          
   3011                  
   3012                  if ( (X_up>poz_X) && (X_up<poz_X+width) && (Y_up>poz_Y+2) && (Y_up<poz_Y+height))
   \   00000178   1148               LDR      R0,??Zone_4+0x8  ;; X_up
   \   0000017A   0021               MOVS     R1,#+0
   \   0000017C   405E               LDRSH    R0,[R0, R1]
   \   0000017E   2100               MOVS     R1,R4
   \   00000180   8142               CMP      R1,R0
   \   00000182   0FDA               BGE      ??Zone_6
   \   00000184   6946               MOV      R1,SP
   \   00000186   097C               LDRB     R1,[R1, #+16]
   \   00000188   6118               ADDS     R1,R4,R1
   \   0000018A   8842               CMP      R0,R1
   \   0000018C   0ADA               BGE      ??Zone_6
   \   0000018E   0D48               LDR      R0,??Zone_4+0xC  ;; Y_up
   \   00000190   0021               MOVS     R1,#+0
   \   00000192   405E               LDRSH    R0,[R0, R1]
   \   00000194   B61C               ADDS     R6,R6,#+2
   \   00000196   8642               CMP      R6,R0
   \   00000198   04DA               BGE      ??Zone_6
   \   0000019A   B842               CMP      R0,R7
   \   0000019C   02DA               BGE      ??Zone_6
   3013                  {    
   3014                    odp =1;
   \   0000019E   6846               MOV      R0,SP
   \   000001A0   0121               MOVS     R1,#+1
   \   000001A2   4170               STRB     R1,[R0, #+1]
   3015                  }
   3016              }
   3017              
   3018          
   3019                 
   3020                ButtonEventTime=g_counter;
   \                     ??Zone_6:
   \   000001A4   084A               LDR      R2,??Zone_4+0x10  ;; RealRows + 8
   \   000001A6   0948               LDR      R0,??Zone_4+0x14  ;; g_counter
   \   000001A8   03C8               LDM      R0!,{R0,R1}
   \   000001AA   03C2               STM      R2!,{R0,R1}
   3021              
   3022              return odp;
   \   000001AC   6846               MOV      R0,SP
   \   000001AE   4078               LDRB     R0,[R0, #+1]
   \   000001B0   05B0               ADD      SP,SP,#+20
   \   000001B2   F0BC               POP      {R4-R7}
   \   000001B4   02BC               POP      {R1}
   \   000001B6   0847               BX       R1               ;; return
   \                     ??Zone_4:
   \   000001B8   ........           DC32     X_down
   \   000001BC   ........           DC32     Y_down
   \   000001C0   ........           DC32     X_up
   \   000001C4   ........           DC32     Y_up
   \   000001C8   ........           DC32     RealRows + 8
   \   000001CC   ........           DC32     g_counter
   3023              
   3024          }
   3025          
   3026          
   3027           
   3028          
   3029          
   3030          //*-----------------------------------------------------------------------------
   3031          //* Nazwa funkcji :    List_Paint
   3032          //* Funkcja rysowania listy
   3033          //*-----------------------------------------------------------------------------
   3034          //* X1
   3035          //* Y1
   3036          //* X2
   3037          //* Y2
   3038          //* p - solid
   3039          //*-----------------------------------------------------------------------------
   3040          
   3041          

   \                                 In section Debug.txt, align 4, keep-with-next
   3042          void Rectangle(char X1,char Y1,char Width,char Height,...)
   3043          {
   \                     Rectangle:
   \   00000000   F1B5               PUSH     {R0,R4-R7,LR}
   \   00000002   0700               MOVS     R7,R0
   \   00000004   1500               MOVS     R5,R2
   \   00000006   1E00               MOVS     R6,R3
   3044            
   3045           va_list parg; 
   3046           va_start( parg, Height);// pocz¹tek pracy ze zmienn¹ list¹ parametrów 
   3047           char SO;
                       ^
Warning[Pe550]: variable "SO" was set but never used
   3048           SO = va_arg( parg, char);
   3049           va_end(parg); 
   3050            
   3051          
   3052          
   3053             H_line(X1,Y1,Width,1);
   \   00000008   0C00               MOVS     R4,R1
   \   0000000A   0123               MOVS     R3,#+1
   \   0000000C   ........           BL       H_line
   3054             H_line(X1,Y1+Height-1,Width,1);
   \   00000010   0123               MOVS     R3,#+1
   \   00000012   2A00               MOVS     R2,R5
   \   00000014   A119               ADDS     R1,R4,R6
   \   00000016   491E               SUBS     R1,R1,#+1
   \   00000018   3800               MOVS     R0,R7
   \   0000001A   ........           BL       H_line
   3055             V_line(X1,Y1,Height,1);
   \   0000001E   0123               MOVS     R3,#+1
   \   00000020   3200               MOVS     R2,R6
   \   00000022   2100               MOVS     R1,R4
   \   00000024   3800               MOVS     R0,R7
   \   00000026   ........           BL       V_line
   3056             V_line(X1+Width-1,Y1,Height,1);
   \   0000002A   0123               MOVS     R3,#+1
   \   0000002C   3200               MOVS     R2,R6
   \   0000002E   2100               MOVS     R1,R4
   \   00000030   7819               ADDS     R0,R7,R5
   \   00000032   401E               SUBS     R0,R0,#+1
   \   00000034   0006               LSLS     R0,R0,#+24
   \   00000036   000E               LSRS     R0,R0,#+24
   \   00000038   ........           BL       V_line
   3057                        
   3058             //if (SO==1) CleanCanvasArea(X1,Y1,Width,Height,1);
   3059             
   3060          }
   \   0000003C   F8BC               POP      {R3-R7}
   \   0000003E   01BC               POP      {R0}
   \   00000040   0047               BX       R0               ;; return
   3061           
   3062           
   3063          //*-----------------------------------------------------------------------------
   3064          //* Nazwa funkcji :    CheckLCD
   3065          //* Funkcja sprawdza kolejne porty LCD
   3066          //*-----------------------------------------------------------------------------
   3067          //*-----------------------------------------------------------------------------
   3068          

   \                                 In section Debug.txt, align 4, keep-with-next
   3069          void CheckLCD(void)
   3070           {
   3071             m_pPio->PIO_SODR =  LCD_BUS_MASK;                         // zeruje piny
   \                     CheckLCD:
   \   00000000   1848               LDR      R0,??CheckLCD_0  ;; m_pPio
   \   00000002   0068               LDR      R0,[R0, #+0]
   \   00000004   1849               LDR      R1,??CheckLCD_0+0x4  ;; 0x7e00811c
   \   00000006   0163               STR      R1,[R0, #+48]
   3072           
   3073             
   3074             AT91C_BASE_PIOA->PIO_CODR = DI; AT91C_BASE_PIOA->PIO_SODR = DI; 
   \   00000008   1848               LDR      R0,??CheckLCD_0+0x8  ;; 0xfffff434
   \   0000000A   0422               MOVS     R2,#+4
   \   0000000C   0260               STR      R2,[R0, #+0]
   \   0000000E   1849               LDR      R1,??CheckLCD_0+0xC  ;; 0xfffff430
   \   00000010   0A60               STR      R2,[R1, #+0]
   3075             AT91C_BASE_PIOA->PIO_CODR = RW; AT91C_BASE_PIOA->PIO_SODR = RW; 
   \   00000012   0822               MOVS     R2,#+8
   \   00000014   0260               STR      R2,[R0, #+0]
   \   00000016   0A60               STR      R2,[R1, #+0]
   3076             AT91C_BASE_PIOA->PIO_CODR = ENABLE; AT91C_BASE_PIOA->PIO_SODR = ENABLE; 
   \   00000018   D206               LSLS     R2,R2,#+27
   \   0000001A   0260               STR      R2,[R0, #+0]
   \   0000001C   0A60               STR      R2,[R1, #+0]
   3077             AT91C_BASE_PIOA->PIO_CODR = DB0; AT91C_BASE_PIOA->PIO_SODR = DB0; 
   \   0000001E   5208               LSRS     R2,R2,#+1
   \   00000020   0260               STR      R2,[R0, #+0]
   \   00000022   0A60               STR      R2,[R1, #+0]
   3078             AT91C_BASE_PIOA->PIO_CODR = DB1; AT91C_BASE_PIOA->PIO_SODR = DB1; 
   \   00000024   5208               LSRS     R2,R2,#+1
   \   00000026   0260               STR      R2,[R0, #+0]
   \   00000028   0A60               STR      R2,[R1, #+0]
   3079             AT91C_BASE_PIOA->PIO_CODR = DB2; AT91C_BASE_PIOA->PIO_SODR = DB2; 
   \   0000002A   5208               LSRS     R2,R2,#+1
   \   0000002C   0260               STR      R2,[R0, #+0]
   \   0000002E   0A60               STR      R2,[R1, #+0]
   3080             AT91C_BASE_PIOA->PIO_CODR = DB3; AT91C_BASE_PIOA->PIO_SODR = DB3; 
   \   00000030   1022               MOVS     R2,#+16
   \   00000032   0260               STR      R2,[R0, #+0]
   \   00000034   0A60               STR      R2,[R1, #+0]
   3081             AT91C_BASE_PIOA->PIO_CODR = DB4; AT91C_BASE_PIOA->PIO_SODR = DB4; 
   \   00000036   F032               ADDS     R2,R2,#+240
   \   00000038   0260               STR      R2,[R0, #+0]
   \   0000003A   0A60               STR      R2,[R1, #+0]
   3082             AT91C_BASE_PIOA->PIO_CODR = DB5; AT91C_BASE_PIOA->PIO_SODR = DB5; 
   \   0000003C   9204               LSLS     R2,R2,#+18
   \   0000003E   0260               STR      R2,[R0, #+0]
   \   00000040   0A60               STR      R2,[R1, #+0]
   3083             AT91C_BASE_PIOA->PIO_CODR = DB6; AT91C_BASE_PIOA->PIO_SODR = DB6; 
   \   00000042   5208               LSRS     R2,R2,#+1
   \   00000044   0260               STR      R2,[R0, #+0]
   \   00000046   0A60               STR      R2,[R1, #+0]
   3084             AT91C_BASE_PIOA->PIO_CODR = DB7; AT91C_BASE_PIOA->PIO_SODR = DB7; 
   \   00000048   920A               LSRS     R2,R2,#+10
   \   0000004A   0260               STR      R2,[R0, #+0]
   \   0000004C   0A60               STR      R2,[R1, #+0]
   3085             AT91C_BASE_PIOA->PIO_CODR = CS1; AT91C_BASE_PIOA->PIO_SODR = CS1; 
   \   0000004E   5200               LSLS     R2,R2,#+1
   \   00000050   0260               STR      R2,[R0, #+0]
   \   00000052   0A60               STR      R2,[R1, #+0]
   3086             AT91C_BASE_PIOA->PIO_CODR = CS2; AT91C_BASE_PIOA->PIO_SODR = CS2; 
   \   00000054   D201               LSLS     R2,R2,#+7
   \   00000056   0260               STR      R2,[R0, #+0]
   \   00000058   0A60               STR      R2,[R1, #+0]
   3087             AT91C_BASE_PIOA->PIO_CODR = (unsigned long)LightLCD; AT91C_BASE_PIOA->PIO_SODR = (unsigned long)LightLCD; 
   \   0000005A   0122               MOVS     R2,#+1
   \   0000005C   0260               STR      R2,[R0, #+0]
   \   0000005E   0A60               STR      R2,[R1, #+0]
   3088          
   3089            
   3090          
   3091          }//_______________________ Koniec funkcji CheckLCD __________________________
   \   00000060   7047               BX       LR               ;; return
   \   00000062   C046               Nop      
   \                     ??CheckLCD_0:
   \   00000064   ........           DC32     m_pPio
   \   00000068   1C81007E           DC32     0x7e00811c
   \   0000006C   34F4FFFF           DC32     0xfffff434
   \   00000070   30F4FFFF           DC32     0xfffff430
   3092          
   3093           
   3094            _TPoint Up, Down;   
   3095          
   3096          #define TouchAmount 4       //iloœæ pamiêtanych punktów dotyku   

   \                                 In section Debug.txt, align 4, keep-with-next
   3097          void GetTouchPoint(signed short *Xd,signed short  *Yd, signed short *Xu, signed short  *Yu)
   3098          {
   \                     GetTouchPoint:
   \   00000000   F7B5               PUSH     {R0-R2,R4-R7,LR}
   \   00000002   1C00               MOVS     R4,R3
   3099          
   3100            static _TPoint TouchList[TouchAmount];                                        //lista FIFO wspó³¿êdnych
   3101          
   3102          
   3103            for (char i=1; i<TouchAmount; i++)
   \   00000004   0120               MOVS     R0,#+1
   \   00000006   664D               LDR      R5,??GetTouchPoint_0  ;; ??TouchList
   \   00000008   09E0               B        ??GetTouchPoint_1
   3104            {
   3105               TouchList[TouchAmount-i].x=TouchList[TouchAmount-i-1].x;
   \                     ??GetTouchPoint_2:
   \   0000000A   4A42               RSBS     R2,R1,#+0
   \   0000000C   9100               LSLS     R1,R2,#+2
   \   0000000E   6918               ADDS     R1,R5,R1
   \   00000010   8A89               LDRH     R2,[R1, #+12]
   \   00000012   0A82               STRH     R2,[R1, #+16]
   3106               TouchList[TouchAmount-i].y=TouchList[TouchAmount-i-1].y;
   \   00000014   CA89               LDRH     R2,[R1, #+14]
   \   00000016   4A82               STRH     R2,[R1, #+18]
   3107            }
   \   00000018   401C               ADDS     R0,R0,#+1
   \   0000001A   0006               LSLS     R0,R0,#+24
   \   0000001C   000E               LSRS     R0,R0,#+24
   \                     ??GetTouchPoint_1:
   \   0000001E   0100               MOVS     R1,R0
   \   00000020   0429               CMP      R1,#+4
   \   00000022   F2D3               BCC      ??GetTouchPoint_2
   3108          
   3109            Down.x=-1;
                          ^
Warning[Pe068]: integer conversion resulted in a change of sign
   \   00000024   5F4E               LDR      R6,??GetTouchPoint_0+0x4  ;; 0xffff
   \   00000026   AE82               STRH     R6,[R5, #+20]
   3110            Down.y=-1;
                          ^
Warning[Pe068]: integer conversion resulted in a change of sign
   \   00000028   EE82               STRH     R6,[R5, #+22]
   3111            Up.x=-1;
                        ^
Warning[Pe068]: integer conversion resulted in a change of sign
   \   0000002A   2E82               STRH     R6,[R5, #+16]
   3112            Up.y=-1;
                        ^
Warning[Pe068]: integer conversion resulted in a change of sign
   \   0000002C   6E82               STRH     R6,[R5, #+18]
   3113              
   3114            ReadTP(TouchList); 
   \   0000002E   2800               MOVS     R0,R5
   \   00000030   ........           BL       ReadTP
   3115            
   3116            //je¿eli pomiar ci¹g³y dotkniêtego ekranu 
   3117            if ((TouchList[0].x>0) && (TouchList[1].x>0) && (TouchList[2].x>0) &&(TouchList[3].x>0))  
   \   00000034   2888               LDRH     R0,[R5, #+0]
   \   00000036   0028               CMP      R0,#+0
   \   00000038   16D0               BEQ      ??GetTouchPoint_3
   \   0000003A   A988               LDRH     R1,[R5, #+4]
   \   0000003C   0029               CMP      R1,#+0
   \   0000003E   13D0               BEQ      ??GetTouchPoint_3
   \   00000040   2A89               LDRH     R2,[R5, #+8]
   \   00000042   002A               CMP      R2,#+0
   \   00000044   10D0               BEQ      ??GetTouchPoint_3
   \   00000046   AB89               LDRH     R3,[R5, #+12]
   \   00000048   002B               CMP      R3,#+0
   \   0000004A   0DD0               BEQ      ??GetTouchPoint_3
   3118            {
   3119              Down.x=((TouchList[1].x) + (TouchList[2].x))/2;
   \   0000004C   8918               ADDS     R1,R1,R2
   \   0000004E   0A00               MOVS     R2,R1
   \   00000050   D20F               LSRS     R2,R2,#+31
   \   00000052   5118               ADDS     R1,R2,R1
   \   00000054   4910               ASRS     R1,R1,#+1
   \   00000056   A982               STRH     R1,[R5, #+20]
   3120          
   3121              Down.y=((TouchList[1].y) + (TouchList[2].y))/2;
   \   00000058   E988               LDRH     R1,[R5, #+6]
   \   0000005A   6A89               LDRH     R2,[R5, #+10]
   \   0000005C   8918               ADDS     R1,R1,R2
   \   0000005E   0A00               MOVS     R2,R1
   \   00000060   D20F               LSRS     R2,R2,#+31
   \   00000062   5118               ADDS     R1,R2,R1
   \   00000064   4910               ASRS     R1,R1,#+1
   \   00000066   E982               STRH     R1,[R5, #+22]
   3122            }
   3123            
   3124            //je¿eli dotkniêto ekran
   3125            if ((TouchList[0].x>0) && (TouchList[1].x>0) && (TouchList[2].x>0) &&(TouchList[3].x<=0))  
   \                     ??GetTouchPoint_3:
   \   00000068   0028               CMP      R0,#+0
   \   0000006A   19D0               BEQ      ??GetTouchPoint_4
   \   0000006C   A988               LDRH     R1,[R5, #+4]
   \   0000006E   0029               CMP      R1,#+0
   \   00000070   16D0               BEQ      ??GetTouchPoint_4
   \   00000072   2A89               LDRH     R2,[R5, #+8]
   \   00000074   002A               CMP      R2,#+0
   \   00000076   13D0               BEQ      ??GetTouchPoint_4
   \   00000078   AA89               LDRH     R2,[R5, #+12]
   \   0000007A   002A               CMP      R2,#+0
   \   0000007C   10D1               BNE      ??GetTouchPoint_4
   3126            {
   3127              Down.x=((TouchList[0].x) + (TouchList[1].x))/2;
   \   0000007E   4018               ADDS     R0,R0,R1
   \   00000080   0100               MOVS     R1,R0
   \   00000082   C90F               LSRS     R1,R1,#+31
   \   00000084   0818               ADDS     R0,R1,R0
   \   00000086   4010               ASRS     R0,R0,#+1
   \   00000088   A882               STRH     R0,[R5, #+20]
   3128          
   3129              Down.y=((TouchList[0].y) + (TouchList[1].y))/2;
   \   0000008A   6888               LDRH     R0,[R5, #+2]
   \   0000008C   E988               LDRH     R1,[R5, #+6]
   \   0000008E   4018               ADDS     R0,R0,R1
   \   00000090   0100               MOVS     R1,R0
   \   00000092   C90F               LSRS     R1,R1,#+31
   \   00000094   0818               ADDS     R0,R1,R0
   \   00000096   4010               ASRS     R0,R0,#+1
   \   00000098   E882               STRH     R0,[R5, #+22]
   3130              TouchList[2].x=Down.x;
   \   0000009A   A88A               LDRH     R0,[R5, #+20]
   \   0000009C   2881               STRH     R0,[R5, #+8]
   3131              TouchList[2].x=Down.x;
   \   0000009E   2881               STRH     R0,[R5, #+8]
   3132            }
   3133          
   3134            //je¿eli puszczono ekran
   3135            if ((TouchList[0].x<=0) && (TouchList[1].x>0) && (TouchList[2].x>0) &&(TouchList[3].x>0))  
   \                     ??GetTouchPoint_4:
   \   000000A0   2888               LDRH     R0,[R5, #+0]
   \   000000A2   0028               CMP      R0,#+0
   \   000000A4   16D1               BNE      ??GetTouchPoint_5
   \   000000A6   A888               LDRH     R0,[R5, #+4]
   \   000000A8   0028               CMP      R0,#+0
   \   000000AA   13D0               BEQ      ??GetTouchPoint_5
   \   000000AC   2889               LDRH     R0,[R5, #+8]
   \   000000AE   0028               CMP      R0,#+0
   \   000000B0   10D0               BEQ      ??GetTouchPoint_5
   \   000000B2   A989               LDRH     R1,[R5, #+12]
   \   000000B4   0029               CMP      R1,#+0
   \   000000B6   0DD0               BEQ      ??GetTouchPoint_5
   3136            {
   3137              Up.x=((TouchList[2].x) + (TouchList[3].x))/2;
   \   000000B8   4018               ADDS     R0,R0,R1
   \   000000BA   0100               MOVS     R1,R0
   \   000000BC   C90F               LSRS     R1,R1,#+31
   \   000000BE   0818               ADDS     R0,R1,R0
   \   000000C0   4010               ASRS     R0,R0,#+1
   \   000000C2   2882               STRH     R0,[R5, #+16]
   3138          
   3139              Up.y=((TouchList[2].y) + (TouchList[3].y))/2;
   \   000000C4   6889               LDRH     R0,[R5, #+10]
   \   000000C6   E989               LDRH     R1,[R5, #+14]
   \   000000C8   4018               ADDS     R0,R0,R1
   \   000000CA   0100               MOVS     R1,R0
   \   000000CC   C90F               LSRS     R1,R1,#+31
   \   000000CE   0818               ADDS     R0,R1,R0
   \   000000D0   4010               ASRS     R0,R0,#+1
   \   000000D2   6882               STRH     R0,[R5, #+18]
   3140            }  
   3141            
   3142            if ((Down.x>0) && (Down.y>0))
   \                     ??GetTouchPoint_5:
   \   000000D4   A88A               LDRH     R0,[R5, #+20]
   \   000000D6   0028               CMP      R0,#+0
   \   000000D8   1BD0               BEQ      ??GetTouchPoint_6
   \   000000DA   EF8A               LDRH     R7,[R5, #+22]
   \   000000DC   002F               CMP      R7,#+0
   \   000000DE   18D0               BEQ      ??GetTouchPoint_6
   3143            {
   3144              Down.x=korekta_X.A*Down.x+korekta_X.B;
   \   000000E0   ........           BL       __aeabi_ui2f
   \   000000E4   0100               MOVS     R1,R0
   \   000000E6   286A               LDR      R0,[R5, #+32]
   \   000000E8   ........           BL       __aeabi_fmul
   \   000000EC   0100               MOVS     R1,R0
   \   000000EE   686A               LDR      R0,[R5, #+36]
   \   000000F0   ........           BL       __aeabi_fadd
   \   000000F4   ........           BL       __aeabi_f2iz
   \   000000F8   A882               STRH     R0,[R5, #+20]
   3145              Down.y=korekta_Y.A*Down.y+korekta_Y.B;
   \   000000FA   3800               MOVS     R0,R7
   \   000000FC   ........           BL       __aeabi_ui2f
   \   00000100   A969               LDR      R1,[R5, #+24]
   \   00000102   ........           BL       __aeabi_fmul
   \   00000106   E969               LDR      R1,[R5, #+28]
   \   00000108   ........           BL       __aeabi_fadd
   \   0000010C   ........           BL       __aeabi_f2iz
   \   00000110   E882               STRH     R0,[R5, #+22]
   3146            }
   3147            
   3148            if ((Up.x>0) && (Up.y>0))
   \                     ??GetTouchPoint_6:
   \   00000112   288A               LDRH     R0,[R5, #+16]
   \   00000114   0028               CMP      R0,#+0
   \   00000116   1BD0               BEQ      ??GetTouchPoint_7
   \   00000118   6F8A               LDRH     R7,[R5, #+18]
   \   0000011A   002F               CMP      R7,#+0
   \   0000011C   18D0               BEQ      ??GetTouchPoint_7
   3149            { 
   3150              Up.x=korekta_X.A*Up.x+korekta_X.B;
   \   0000011E   ........           BL       __aeabi_ui2f
   \   00000122   0100               MOVS     R1,R0
   \   00000124   286A               LDR      R0,[R5, #+32]
   \   00000126   ........           BL       __aeabi_fmul
   \   0000012A   0100               MOVS     R1,R0
   \   0000012C   686A               LDR      R0,[R5, #+36]
   \   0000012E   ........           BL       __aeabi_fadd
   \   00000132   ........           BL       __aeabi_f2iz
   \   00000136   2882               STRH     R0,[R5, #+16]
   3151              Up.y=korekta_Y.A*Up.y+korekta_Y.B;
   \   00000138   3800               MOVS     R0,R7
   \   0000013A   ........           BL       __aeabi_ui2f
   \   0000013E   A969               LDR      R1,[R5, #+24]
   \   00000140   ........           BL       __aeabi_fmul
   \   00000144   E969               LDR      R1,[R5, #+28]
   \   00000146   ........           BL       __aeabi_fadd
   \   0000014A   ........           BL       __aeabi_f2iz
   \   0000014E   6882               STRH     R0,[R5, #+18]
   3152              /*
   3153              for (char i=0; i<TouchAmount; i++)
   3154                {
   3155                   TouchList[TouchAmount-i].x=0;
   3156                   TouchList[TouchAmount-i].y=0;
   3157                   
   3158                }
   3159                   Down.x=0;
   3160                   Down.y=0;
   3161                   */
   3162                   
   3163            }
   3164            if ((korekta_X.B!=0) && (korekta_Y.B!=0))
   \                     ??GetTouchPoint_7:
   \   00000150   686A               LDR      R0,[R5, #+36]
   \   00000152   0021               MOVS     R1,#+0
   \   00000154   ........           BL       __aeabi_cfcmpeq
   \   00000158   13D0               BEQ      ??GetTouchPoint_8
   \   0000015A   E869               LDR      R0,[R5, #+28]
   \   0000015C   ........           BL       __aeabi_cfcmpeq
   \   00000160   0FD0               BEQ      ??GetTouchPoint_8
   3165            {
   3166              if ((Down.x>64) || (Down.y>128)) {Down.x=-1; Down.y=-1;} 
                                                              ^
Warning[Pe068]: integer conversion resulted in a change of sign

      if ((Down.x>64) || (Down.y>128)) {Down.x=-1; Down.y=-1;} 
                                                          ^
"D:\Zeuron\Projekty\S300\S300-program v0.9 - 23.10.2012\Framework\lcd.c",3166  Warning[Pe068]: 
          integer conversion resulted in a change of sign
   \   00000162   A88A               LDRH     R0,[R5, #+20]
   \   00000164   4128               CMP      R0,#+65
   \   00000166   02D2               BCS      ??GetTouchPoint_9
   \   00000168   E88A               LDRH     R0,[R5, #+22]
   \   0000016A   8128               CMP      R0,#+129
   \   0000016C   01D3               BCC      ??GetTouchPoint_10
   \                     ??GetTouchPoint_9:
   \   0000016E   AE82               STRH     R6,[R5, #+20]
   \   00000170   EE82               STRH     R6,[R5, #+22]
   3167              if ((Up.x>64) || (Up.y>128)) {Up.x=-1; Up.y=-1;} 
                                                        ^
Warning[Pe068]: integer conversion resulted in a change of sign

      if ((Up.x>64) || (Up.y>128)) {Up.x=-1; Up.y=-1;} 
                                                  ^
"D:\Zeuron\Projekty\S300\S300-program v0.9 - 23.10.2012\Framework\lcd.c",3167  Warning[Pe068]: 
          integer conversion resulted in a change of sign
   \                     ??GetTouchPoint_10:
   \   00000172   288A               LDRH     R0,[R5, #+16]
   \   00000174   4128               CMP      R0,#+65
   \   00000176   02D2               BCS      ??GetTouchPoint_11
   \   00000178   688A               LDRH     R0,[R5, #+18]
   \   0000017A   8128               CMP      R0,#+129
   \   0000017C   01D3               BCC      ??GetTouchPoint_8
   \                     ??GetTouchPoint_11:
   \   0000017E   2E82               STRH     R6,[R5, #+16]
   \   00000180   6E82               STRH     R6,[R5, #+18]
   3168            }
   3169            *Xd=Down.x;
   \                     ??GetTouchPoint_8:
   \   00000182   0098               LDR      R0,[SP, #+0]
   \   00000184   A98A               LDRH     R1,[R5, #+20]
   \   00000186   0180               STRH     R1,[R0, #+0]
   3170            *Yd=Down.y;
   \   00000188   0198               LDR      R0,[SP, #+4]
   \   0000018A   E98A               LDRH     R1,[R5, #+22]
   \   0000018C   0180               STRH     R1,[R0, #+0]
   3171            *Xu=Up.x;
   \   0000018E   0298               LDR      R0,[SP, #+8]
   \   00000190   298A               LDRH     R1,[R5, #+16]
   \   00000192   0180               STRH     R1,[R0, #+0]
   3172            *Yu=Up.y;
   \   00000194   688A               LDRH     R0,[R5, #+18]
   \   00000196   2080               STRH     R0,[R4, #+0]
   3173          
   3174          }
   \   00000198   FEBC               POP      {R1-R7}
   \   0000019A   01BC               POP      {R0}
   \   0000019C   0047               BX       R0               ;; return
   \   0000019E   C046               Nop      
   \                     ??GetTouchPoint_0:
   \   000001A0   ........           DC32     ??TouchList
   \   000001A4   FFFF0000           DC32     0xffff

   \                                 In section .data, align 4
   \                     ??TouchList:
   \   00000000   000000000000       DC8 0, 0, 0, 0, 0, 0, 0, 0, 0, 0, 0, 0, 0, 0, 0, 0
   \              000000000000
   \              00000000    
   \                     Up:
   \   00000010   00000000           DC8 0, 0, 0, 0
   \                     Down:
   \   00000014   00000000           DC8 0, 0, 0, 0
   \                     korekta_Y:
   \   00000018   0000803F           DC32 3F800000H
   \   0000001C   00000000           DC8 0, 0, 0, 0
   \                     korekta_X:
   \   00000020   0000803F           DC32 3F800000H
   \   00000024   00000000           DC8 0, 0, 0, 0

   \                                 In section .data, align 4
   \                     m_pPio:
   \   00000000   00F4FFFF           DC32 0FFFFF400H

   \                                 In section .data, align 4
   \                     TS_pPio:
   \   00000000   00F4FFFF           DC32 0FFFFF400H

   \                                 In section .data, align 4
   \                     LCD_Canvas:
   \   00000000   FE0101010101       DC8 254, 1, 1, 1, 1, 1, 1, 1, 131, 69, 125, 69, 41, 41, 17, 1, 1, 169
   \              010183457D45
   \              2929110101A9
   \   00000012   010101010101       DC8 1, 1, 1, 1, 1, 1, 1, 1, 1, 1, 131, 69, 125, 69, 41, 41, 17, 1, 1
   \              010101018345
   \              7D4529291101
   \              01          
   \   00000025   A90101010101       DC8 169, 1, 1, 1, 1, 1, 1, 1, 1, 1, 1, 131, 69, 125, 69, 41, 41, 17, 1
   \              010101010183
   \              457D45292911
   \              01          
   \   00000038   01A901010101       DC8 1, 169, 1, 1, 1, 1, 1, 1, 1, 1, 1, 1, 131, 69, 125, 69, 41, 41, 17
   \              010101010101
   \              83457D452929
   \              11          
   \   0000004B   0101A9010101       DC8 1, 1, 169, 1, 1, 1, 1, 1, 1, 1, 1, 1, 1, 131, 69, 125, 69, 41, 41
   \              010101010101
   \              0183457D4529
   \              29          
   \   0000005E   110101A90101       DC8 17, 1, 1, 169, 1, 1, 1, 1, 1, 1, 1, 1, 1, 1, 131, 69, 125, 69, 41
   \              010101010101
   \              010183457D45
   \              29          
   \   00000071   2911010101FF       DC8 41, 17, 1, 1, 1, 255, 7, 243, 107, 155, 155, 107, 243, 6, 252, 255
   \              07F36B9B9B6B
   \              F306FCFF    
   \   00000081   A4A090A0A418       DC8 164, 160, 144, 160, 164, 24, 0, 66, 66, 66, 66, 66, 99, 66, 0, 0
   \              004242424242
   \              63420000    
   \   00000091   AA0000202020       DC8 170, 0, 0, 32, 32, 32, 32, 32, 48, 32, 0, 66, 66, 66, 66, 66, 99
   \              202030200042
   \              4242424263  
   \   000000A2   420000AA0000       DC8 66, 0, 0, 170, 0, 0, 28, 36, 36, 36, 36, 36, 24, 0, 66, 66, 66, 66
   \              1C2424242424
   \              180042424242
   \   000000B4   4263420000AA       DC8 66, 99, 66, 0, 0, 170, 0, 0, 16, 16, 16, 16, 16, 24, 16, 0, 66, 66
   \              000010101010
   \              101810004242
   \   000000C6   424242634200       DC8 66, 66, 66, 99, 66, 0, 0, 170, 0, 0, 60, 8, 16, 16, 32, 36, 24, 0
   \              00AA00003C08
   \              101020241800
   \   000000D8   424242424263       DC8 66, 66, 66, 66, 66, 99, 66, 0, 0, 170, 0, 0, 152, 164, 160, 144
   \              420000AA0000
   \              98A4A090    
   \   000000E8   A0A418004242       DC8 160, 164, 24, 0, 66, 66, 66, 66, 66, 99, 66, 0, 0, 0, 255, 254, 60
   \              424242634200
   \              0000FFFE3C  
   \   000000F9   BD7DFDBD3CFE       DC8 189, 125, 253, 189, 60, 254, 255, 255, 148, 148, 148, 148, 148, 99
   \              FFFF94949494
   \              9463        
   \   00000107   0082447C4428       DC8 0, 130, 68, 124, 68, 40, 40, 16, 0, 0, 170, 0, 0, 207, 34, 4, 132
   \              28100000AA00
   \              00CF220484  
   \   00000118   0829C6007C04       DC8 8, 41, 198, 0, 124, 4, 4, 124, 4, 4, 124, 0, 0, 170, 0, 1, 9, 136
   \              047C04047C00
   \              00AA00010988
   \   0000012A   889090A03C00       DC8 136, 144, 144, 160, 60, 0, 60, 68, 68, 68, 68, 68, 60, 0, 0, 170, 0
   \              3C4444444444
   \              3C0000AA00  
   \   0000013B   013D88101020       DC8 1, 61, 136, 16, 16, 32, 164, 24, 0, 56, 68, 4, 4, 4, 68, 56, 0, 0
   \              A41800384404
   \              040444380000
   \   0000014D   AA0000222222       DC8 170, 0, 0, 34, 34, 34, 66, 66, 131, 242, 0, 28, 36, 36, 60, 36, 36
   \              424283F2001C
   \              24243C2424  
   \   0000015E   1C0000AA0000       DC8 28, 0, 0, 170, 0, 0, 115, 148, 148, 148, 148, 148, 99, 0, 130, 68
   \              739494949494
   \              63008244    
   \   0000016E   7C4428281000       DC8 124, 68, 40, 40, 16, 0, 0, 0, 255, 255, 36, 117, 87, 38, 37, 36
   \              0000FFFF2475
   \              57262524    
   \   0000017E   FFFFFF040808       DC8 255, 255, 255, 4, 8, 8, 16, 18, 12, 0, 0, 0, 0, 0, 0, 0, 0, 0, 0
   \              10120C000000
   \              000000000000
   \              00          
   \   00000191   AA000020A17D       DC8 170, 0, 0, 32, 161, 125, 164, 169, 49, 32, 0, 0, 0, 0, 0, 0, 0, 0
   \              A4A931200000
   \              000000000000
   \   000001A3   0000AA000063       DC8 0, 0, 170, 0, 0, 99, 148, 132, 148, 115, 36, 227, 0, 0, 0, 0, 0, 0
   \              9484947324E3
   \              000000000000
   \   000001B5   00000000AA00       DC8 0, 0, 0, 0, 170, 0, 0, 131, 132, 244, 146, 164, 196, 131, 0, 0, 0
   \              008384F492A4
   \              C483000000  
   \   000001C6   000000000000       DC8 0, 0, 0, 0, 0, 0, 0, 170, 0, 0, 16, 16, 254, 82, 148, 24, 16, 0, 0
   \              00AA00001010
   \              FE5294181000
   \              00          
   \   000001D9   000000000000       DC8 0, 0, 0, 0, 0, 0, 0, 0, 170, 0, 0, 158, 4, 8, 8, 16, 18, 12, 0, 0
   \              0000AA00009E
   \              04080810120C
   \              0000        
   \   000001ED   000000000000       DC8 0, 0, 0, 0, 0, 0, 0, 0, 0, 255, 255, 159, 223, 63, 191, 127, 63
   \              000000FFFF9F
   \              DF3FBF7F3F  
   \   000001FE   FFFFFF444888       DC8 255, 255, 255, 68, 72, 136, 80, 82, 140, 0, 0, 0, 0, 0, 0, 0, 0, 0
   \              50528C000000
   \              000000000000
   \   00000210   00AA00006394       DC8 0, 170, 0, 0, 99, 148, 148, 148, 115, 145, 103, 0, 0, 0, 0, 0, 0, 0
   \              949473916700
   \              000000000000
   \   00000222   000000AA0000       DC8 0, 0, 0, 170, 0, 0, 208, 80, 126, 82, 84, 88, 144, 0, 0, 0, 0, 0, 0
   \              D0507E525458
   \              900000000000
   \              00          
   \   00000235   00000000AA00       DC8 0, 0, 0, 0, 170, 0, 0, 142, 82, 147, 82, 82, 82, 140, 0, 0, 0, 0, 0
   \              008E52935252
   \              528C00000000
   \              00          
   \   00000248   0000000000AA       DC8 0, 0, 0, 0, 0, 170, 0, 16, 210, 130, 7, 2, 2, 67, 130, 0, 0, 0, 0
   \              0010D2820702
   \              024382000000
   \              00          
   \   0000025B   000000000000       DC8 0, 0, 0, 0, 0, 0, 170, 0, 0, 158, 68, 72, 136, 80, 82, 140, 0, 0, 0
   \              AA00009E4448
   \              8850528C0000
   \              00          
   \   0000026E   000000000000       DC8 0, 0, 0, 0, 0, 0, 0, 0, 255, 255, 180, 149, 150, 166, 167, 147, 255
   \              0000FFFFB495
   \              96A6A793FF  
   \   0000027F   FFFF12122122       DC8 255, 255, 18, 18, 33, 34, 66, 121, 0, 0, 0, 0, 0, 0, 0, 0, 0, 0
   \              427900000000
   \              000000000000
   \   00000291   AA0080840404       DC8 170, 0, 128, 132, 4, 4, 8, 8, 16, 30, 0, 0, 0, 0, 0, 0, 0, 0, 0, 0
   \              0808101E0000
   \              000000000000
   \              0000        
   \   000002A5   AA0000394A4A       DC8 170, 0, 0, 57, 74, 74, 74, 74, 74, 49, 0, 0, 0, 0, 0, 0, 0, 0, 0, 0
   \              4A4A4A310000
   \              000000000000
   \              0000        
   \   000002B9   AA0000314A4B       DC8 170, 0, 0, 49, 74, 75, 50, 74, 74, 49, 0, 0, 0, 0, 0, 0, 0, 0, 0, 0
   \              324A4A310000
   \              000000000000
   \              0000        
   \   000002CD   AA0000334841       DC8 170, 0, 0, 51, 72, 65, 33, 66, 74, 49, 0, 0, 0, 0, 0, 0, 0, 0, 0, 0
   \              21424A310000
   \              000000000000
   \              0000        
   \   000002E1   AA0000111212       DC8 170, 0, 0, 17, 18, 18, 33, 34, 66, 121, 0, 0, 0, 0, 0, 0, 0, 0, 0
   \              212242790000
   \              000000000000
   \              00          
   \   000002F4   0000FFFF246E       DC8 0, 0, 255, 255, 36, 110, 113, 117, 123, 57, 255, 255, 255, 201, 72
   \              71757B39FFFF
   \              FFC948      
   \   00000303   444849464040       DC8 68, 72, 73, 70, 64, 64, 64, 64, 64, 64, 64, 64, 192, 192, 202, 64
   \              404040404040
   \              C0C0CA40    
   \   00000313   C04ED252D252       DC8 192, 78, 210, 82, 210, 82, 210, 76, 192, 64, 192, 64, 192, 64, 192
   \              D24CC040C040
   \              C040C0      
   \   00000322   40C040CA40C0       DC8 64, 192, 64, 202, 64, 192, 71, 201, 73, 201, 73, 201, 70, 192, 64
   \              47C949C949C9
   \              46C040      
   \   00000331   C040C040C040       DC8 192, 64, 192, 64, 192, 64, 192, 64, 202, 64, 192, 70, 201, 73, 198
   \              C040CA40C046
   \              C949C6      
   \   00000340   49C946C040C0       DC8 73, 201, 70, 192, 64, 192, 64, 192, 64, 192, 64, 192, 64, 202, 64
   \              40C040C040C0
   \              40CA40      
   \   0000034F   C0C8C8DFC9CA       DC8 192, 200, 200, 223, 201, 202, 204, 200, 192, 192, 192, 192, 64, 64
   \              CCC8C0C0C0C0
   \              4040        
   \   0000035D   C040C040CA40       DC8 192, 64, 192, 64, 202, 64, 192, 70, 201, 72, 196, 200, 73, 70, 64
   \              C046C948C4C8
   \              494640      
   \   0000036C   404040404040       DC8 64, 64, 64, 64, 64, 64, 64, 64, 64, 192, 255, 255, 248, 251, 255
   \              404040C0FFFF
   \              F8FBFF      
   \   0000037B   FFFFFEFFFFFF       DC8 255, 255, 254, 255, 255, 255, 192, 128, 128, 128, 128, 128, 140
   \              C08080808080
   \              8C          
   \   00000388   9EBFBF808080       DC8 158, 191, 191, 128, 128, 128, 128, 192, 255, 170, 213, 170, 213
   \              80C0FFAAD5AA
   \              D5          
   \   00000395   AAD5AAD5AAD5       DC8 170, 213, 170, 213, 170, 213, 170, 213, 170, 213, 170, 213, 170
   \              AAD5AAD5AAD5
   \              AA          
   \   000003A2   D5AAD5AAD5AA       DC8 213, 170, 213, 170, 213, 170, 213, 170, 213, 170, 213, 170, 213
   \              D5AAD5AAD5AA
   \              D5          
   \   000003AF   AAD5AAD5AAD5       DC8 170, 213, 170, 213, 170, 213, 170, 213, 170, 213, 170, 213, 170
   \              AAD5AAD5AAD5
   \              AA          
   \   000003BC   D5AAD5AAD5AA       DC8 213, 170, 213, 170, 213, 170, 213, 170, 213, 170, 213, 170, 213
   \              D5AAD5AAD5AA
   \              D5          
   \   000003C9   AAD5AAD5AA80       DC8 170, 213, 170, 213, 170, 128, 255, 255, 255, 255, 192, 222, 222
   \              FFFFFFFFC0DE
   \              DE          
   \   000003D6   C0FFFFFFFF80       DC8 192, 255, 255, 255, 255, 128, 213, 170, 213, 170, 213, 170, 213
   \              D5AAD5AAD5AA
   \              D5          
   \   000003E3   AAD5AAD5FFC0       DC8 170, 213, 170, 213, 255, 192, 128, 128, 128, 191, 191, 158, 140
   \              808080BFBF9E
   \              8C          
   \   000003F0   8080808080C0       DC8 128, 128, 128, 128, 128, 192, 255, 255, 255, 255, 255, 255, 255
   \              FFFFFFFFFFFF
   \              FF          
   \   000003FD   FF7F3F             DC8 255, 127, 63

   \                                 In section .data, align 1
   \                     chipSelect:
   \   00000000   01                 DC8 1

   \                                 In section .data, align 8
   \                     RealRows:
   \   00000000   00                 DC8 0
   \                     RowsPoz:
   \   00000001   00                 DC8 0
   \   00000002   00                 DC8 0
   \   00000003   00                 DC8 0
   \   00000004   00                 DC8 0
   \   00000005   FF                 DC8 255
   \   00000006   FF                 DC8 255
   \   00000007   00                 DC8 0
   \                     ButtonEventTime:
   \   00000008   000000000000       DC32 0, 0
   \              0000        
   \                     ButtonBipCounter:
   \   00000010   000000000000       DC32 0, 0
   \              0000        

   \                                 In section Debug.txt, align 4, keep-with-next
   \                     ??DataTable10:
   \   00000000   ........           DC32     LCD_Canvas

   \                                 In section .rodata, align 4
   \                     `?<Constant {{255, 1, 255, 255, 255, 255, 255, `:
   \   00000000   FF01FFFFFFFF       DC8 255, 1, 255, 255, 255, 255, 255, 255, 255, 255, 255, 255, 255, 255
   \              FFFFFFFFFFFF
   \              FFFF        
   \   0000000E   FFFFFEFCFF00       DC8 255, 255, 254, 252, 255, 0, 255, 255, 255, 255, 255, 255, 255, 255
   \              FFFFFFFFFFFF
   \              FFFF        
   \   0000001C   FFFFFFFFFFFF       DC8 255, 255, 255, 255, 255, 255, 255, 255, 255, 0, 255, 255, 255, 255
   \              FFFFFF00FFFF
   \              FFFF        
   \   0000002A   FFFFFFFFFFFF       DC8 255, 255, 255, 255, 255, 255, 255, 255, 255, 255, 255, 255, 255, 0
   \              FFFFFFFFFFFF
   \              FF00        
   \   00000038   FFFFFFFFFFFF       DC8 255, 255, 255, 255, 255, 255, 255, 255, 255, 255, 255, 255, 255
   \              FFFFFFFFFFFF
   \              FF          
   \   00000045   FFFFFFFF00FF       DC8 255, 255, 255, 255, 0, 255, 255, 255, 255, 255, 255, 255, 255, 255
   \              FFFFFFFFFFFF
   \              FFFF        
   \   00000053   FFFFFFFFFFFF       DC8 255, 255, 255, 255, 255, 255, 255, 255, 0, 255, 255, 127, 127, 127
   \              FFFF00FFFF7F
   \              7F7F        
   \   00000061   7F7F7F7F7F7F       DC8 127, 127, 127, 127, 127, 127, 127, 127, 127, 255, 255, 255, 0, 255
   \              7F7F7FFFFFFF
   \              00FF        
   \   0000006F   00FEFFFBF76F       DC8 0, 254, 255, 251, 247, 111, 159, 159, 111, 247, 251, 255, 254, 0
   \              9F9F6FF7FBFF
   \              FE00        
   \   0000007D   FFFF80FFF0E7       DC8 255, 255, 128, 255, 240, 231, 239, 237, 238, 239, 239, 239, 239
   \              EFEDEEEFEFEF
   \              EF          
   \   0000008A   EEED6F67301F       DC8 238, 237, 111, 103, 48, 31

   \                                 In section .rodata, align 4
   \                     `?<Constant {{254, 1, 1, 1, 1, 1, 1, 1, 1, 1, 1`:
   \   00000000   FE0101010101       DC8 254, 1, 1, 1, 1, 1, 1, 1, 1, 1, 1, 1, 1, 1, 1, 1, 1, 1, 1, 1, 1, 1
   \              010101010101
   \              010101010101
   \              01010101    
   \   00000016   010101010101       DC8 1, 1, 1, 1, 1, 1, 1, 1, 1, 1, 1, 1, 1, 1, 1, 1, 1, 1, 1, 1, 1, 1, 1
   \              010101010101
   \              010101010101
   \              0101010101  
   \   0000002D   010101010101       DC8 1, 1, 1, 1, 1, 1, 1, 1, 1, 1, 1, 1, 1, 1, 1, 1, 1, 1, 1, 1, 1, 1, 1
   \              010101010101
   \              010101010101
   \              0101010101  
   \   00000044   010101010101       DC8 1, 1, 1, 1, 1, 1, 1, 1, 1, 1, 1, 1, 1, 1, 1, 1, 1, 1, 1, 1, 1, 1, 1
   \              010101010101
   \              010101010101
   \              0101010101  
   \   0000005B   010101010101       DC8 1, 1, 1, 1, 1, 1, 1, 1, 1, 1, 1, 1, 1, 1, 1, 1, 1, 1, 1, 1, 1, 1, 1
   \              010101010101
   \              010101010101
   \              0101010101  
   \   00000072   FF03FDF5EDDD       DC8 255, 3, 253, 245, 237, 221, 61, 61, 221, 237, 245, 253, 3, 254, 255
   \              3D3DDDEDF5FD
   \              03FEFF      
   \   00000081   000000000000       DC8 0, 0, 0, 0, 0, 0, 0, 0, 0, 0, 0, 0, 0, 0, 0, 0, 0, 0, 0, 0, 0, 0, 0
   \              000000000000
   \              000000000000
   \              0000000000  
   \   00000098   000000000000       DC8 0, 0, 0, 0, 0, 0, 0, 0, 0, 0, 0, 0, 0, 0, 0, 0, 0, 0, 0, 0, 0, 0, 0
   \              000000000000
   \              000000000000
   \              0000000000  
   \   000000AF   000000000000       DC8 0, 0, 0, 0, 0, 0, 0, 0, 0, 0, 0, 0, 0, 0, 0, 0, 0, 0, 0, 0, 0, 0, 0
   \              000000000000
   \              000000000000
   \              0000000000  
   \   000000C6   000000000000       DC8 0, 0, 0, 0, 0, 0, 0, 0, 0, 0, 0, 0, 0, 0, 0, 0, 0, 0, 0, 0, 0, 0, 0
   \              000000000000
   \              000000000000
   \              0000000000  
   \   000000DD   000000000000       DC8 0, 0, 0, 0, 0, 0, 0, 0, 0, 0, 0, 0, 0, 0, 0, 0, 0, 0, 0, 0, 0, 255
   \              000000000000
   \              000000000000
   \              000000FF    
   \   000000F3   F0EFEBEDEEEF       DC8 240, 239, 235, 237, 238, 239, 239, 238, 237, 235, 239, 240, 255
   \              EFEEEDEBEFF0
   \              FF          
   \   00000100   FF0000000000       DC8 255, 0, 0, 0, 0, 0, 0, 0, 0, 0, 0, 0, 0, 0, 0, 0, 0, 0, 0, 0, 0, 0
   \              000000000000
   \              000000000000
   \              00000000    
   \   00000116   000000000000       DC8 0, 0, 0, 0, 0, 0, 0, 0, 0, 0, 0, 0, 0, 0, 0, 0, 0, 0, 0, 0, 0, 0, 0
   \              000000000000
   \              000000000000
   \              0000000000  
   \   0000012D   000000000000       DC8 0, 0, 0, 0, 0, 0, 0, 0, 0, 0, 0, 0, 0, 0, 0, 0, 0, 0, 0, 0, 0, 0, 0
   \              000000000000
   \              000000000000
   \              0000000000  
   \   00000144   000000000000       DC8 0, 0, 0, 0, 0, 0, 0, 0, 0, 0, 0, 0, 0, 0, 0, 0, 0, 0, 0, 0, 0, 0, 0
   \              000000000000
   \              000000000000
   \              0000000000  
   \   0000015B   000000000000       DC8 0, 0, 0, 0, 0, 0, 0, 0, 0, 0, 0, 0, 0, 0, 0, 0, 0, 0, 0, 0, 0, 0, 0
   \              000000000000
   \              000000000000
   \              0000000000  
   \   00000172   FFFFFFFFFFFF       DC8 255, 255, 255, 255, 255, 255, 255, 255, 255, 255, 255, 255, 255
   \              FFFFFFFFFFFF
   \              FF          
   \   0000017F   FFFF00000000       DC8 255, 255, 0, 0, 0, 0, 0, 0, 0, 0, 0, 0, 0, 0, 0, 0, 0, 0, 0, 0, 0
   \              000000000000
   \              000000000000
   \              000000      
   \   00000194   000000000000       DC8 0, 0, 0, 0, 0, 0, 0, 0, 0, 0, 0, 0, 0, 0, 0, 0, 0, 0, 0, 0, 0, 0, 0
   \              000000000000
   \              000000000000
   \              0000000000  
   \   000001AB   000000000000       DC8 0, 0, 0, 0, 0, 0, 0, 0, 0, 0, 0, 0, 0, 0, 0, 0, 0, 0, 0, 0, 0, 0, 0
   \              000000000000
   \              000000000000
   \              0000000000  
   \   000001C2   000000000000       DC8 0, 0, 0, 0, 0, 0, 0, 0, 0, 0, 0, 0, 0, 0, 0, 0, 0, 0, 0, 0, 0, 0, 0
   \              000000000000
   \              000000000000
   \              0000000000  
   \   000001D9   000000000000       DC8 0, 0, 0, 0, 0, 0, 0, 0, 0, 0, 0, 0, 0, 0, 0, 0, 0, 0, 0, 0, 0, 0, 0
   \              000000000000
   \              000000000000
   \              0000000000  
   \   000001F0   0000FFFFFFFF       DC8 0, 0, 255, 255, 255, 255, 255, 255, 255, 255, 255, 255, 255, 255
   \              FFFFFFFFFFFF
   \              FFFF        
   \   000001FE   FFFFFF000000       DC8 255, 255, 255, 0, 0, 0, 0, 0, 0, 0, 0, 0, 0, 0, 0, 0, 0, 0, 0, 0, 0
   \              000000000000
   \              000000000000
   \              000000      
   \   00000213   000000000000       DC8 0, 0, 0, 0, 0, 0, 0, 0, 0, 0, 0, 0, 0, 0, 0, 0, 0, 0, 0, 0, 0, 0, 0
   \              000000000000
   \              000000000000
   \              0000000000  
   \   0000022A   000000000000       DC8 0, 0, 0, 0, 0, 0, 0, 0, 0, 0, 0, 0, 0, 0, 0, 0, 0, 0, 0, 0, 0, 0, 0
   \              000000000000
   \              000000000000
   \              0000000000  
   \   00000241   000000000000       DC8 0, 0, 0, 0, 0, 0, 0, 0, 0, 0, 0, 0, 0, 0, 0, 0, 0, 0, 0, 0, 0, 0, 0
   \              000000000000
   \              000000000000
   \              0000000000  
   \   00000258   000000000000       DC8 0, 0, 0, 0, 0, 0, 0, 0, 0, 0, 0, 0, 0, 0, 0, 0, 0, 0, 0, 0, 0, 0, 0
   \              000000000000
   \              000000000000
   \              0000000000  
   \   0000026F   000000FFFFFF       DC8 0, 0, 0, 255, 255, 255, 255, 255, 255, 255, 255, 255, 255, 255, 255
   \              FFFFFFFFFFFF
   \              FFFFFF      
   \   0000027E   FFFFFF000000       DC8 255, 255, 255, 0, 0, 0, 0, 0, 0, 0, 0, 0, 0, 0, 0, 0, 0, 0, 0, 0, 0
   \              000000000000
   \              000000000000
   \              000000      
   \   00000293   000000000000       DC8 0, 0, 0, 0, 0, 0, 0, 0, 0, 0, 0, 0, 0, 0, 0, 0, 0, 0, 0, 0, 0, 0, 0
   \              000000000000
   \              000000000000
   \              0000000000  
   \   000002AA   000000000000       DC8 0, 0, 0, 0, 0, 0, 0, 0, 0, 0, 0, 0, 0, 0, 0, 0, 0, 0, 0, 0, 0, 0, 0
   \              000000000000
   \              000000000000
   \              0000000000  
   \   000002C1   000000000000       DC8 0, 0, 0, 0, 0, 0, 0, 0, 0, 0, 0, 0, 0, 0, 0, 0, 0, 0, 0, 0, 0, 0, 0
   \              000000000000
   \              000000000000
   \              0000000000  
   \   000002D8   000000000000       DC8 0, 0, 0, 0, 0, 0, 0, 0, 0, 0, 0, 0, 0, 0, 0, 0, 0, 0, 0, 0, 0, 0, 0
   \              000000000000
   \              000000000000
   \              0000000000  
   \   000002EF   000000FFFFFF       DC8 0, 0, 0, 255, 255, 255, 255, 255, 255, 255, 255, 255, 255, 255, 255
   \              FFFFFFFFFFFF
   \              FFFFFF      
   \   000002FE   FFFFFF602020       DC8 255, 255, 255, 96, 32, 32, 32, 32, 32, 32, 32, 32, 32, 32, 32, 32
   \              202020202020
   \              20202020    
   \   0000030E   2020E060A060       DC8 32, 32, 224, 96, 160, 96, 160, 96, 160, 96, 160, 96, 160, 96, 160
   \              A060A060A060
   \              A060A0      
   \   0000031D   60A060A060A0       DC8 96, 160, 96, 160, 96, 160, 96, 160, 96, 160, 96, 160, 96, 160, 96
   \              60A060A060A0
   \              60A060      
   \   0000032C   A060A060A060       DC8 160, 96, 160, 96, 160, 96, 160, 96, 160, 96, 160, 96, 160, 96, 160
   \              A060A060A060
   \              A060A0      
   \   0000033B   60A060A060A0       DC8 96, 160, 96, 160, 96, 160, 96, 160, 96, 160, 96, 160, 96, 160, 96
   \              60A060A060A0
   \              60A060      
   \   0000034A   A060A060A060       DC8 160, 96, 160, 96, 160, 96, 160, 96, 160, 96, 160, 96, 160, 96, 160
   \              A060A060A060
   \              A060A0      
   \   00000359   60A060A060A0       DC8 96, 160, 96, 160, 96, 160, 96, 160, 96, 224, 32, 32, 32, 32, 32, 32
   \              60A060E02020
   \              20202020    
   \   00000369   202020202020       DC8 32, 32, 32, 32, 32, 32, 32, 32, 96, 255, 255, 255, 255, 255, 255
   \              202060FFFFFF
   \              FFFFFF      
   \   00000378   FFFFFFFFFFFF       DC8 255, 255, 255, 255, 255, 255, 255, 255, 127, 192, 128, 128, 128
   \              FFFF7FC08080
   \              80          
   \   00000385   80848E9F9B80       DC8 128, 132, 142, 159, 155, 128, 128, 128, 128, 128, 128, 255, 213
   \              8080808080FF
   \              D5          
   \   00000392   AAD5AAD5AAD5       DC8 170, 213, 170, 213, 170, 213, 170, 213, 170, 213, 170, 213, 170
   \              AAD5AAD5AAD5
   \              AA          
   \   0000039F   D5AAD5AAD5AA       DC8 213, 170, 213, 170, 213, 170, 213, 170, 213, 170, 213, 170, 213
   \              D5AAD5AAD5AA
   \              D5          
   \   000003AC   AAD5AAD5AAD5       DC8 170, 213, 170, 213, 170, 213, 170, 213, 170, 213, 170, 213, 170
   \              AAD5AAD5AAD5
   \              AA          
   \   000003B9   D5AAD5AAD5AA       DC8 213, 170, 213, 170, 213, 170, 213, 170, 213, 170, 213, 170, 213
   \              D5AAD5AAD5AA
   \              D5          
   \   000003C6   AAD5AAD5AAD5       DC8 170, 213, 170, 213, 170, 213, 170, 213, 170, 213, 170, 213, 170
   \              AAD5AAD5AAD5
   \              AA          
   \   000003D3   D5AAD5AAD5AA       DC8 213, 170, 213, 170, 213, 170, 213, 170, 213, 170, 213, 170, 213
   \              D5AAD5AAD5AA
   \              D5          
   \   000003E0   AAD5FF808080       DC8 170, 213, 255, 128, 128, 128, 128, 155, 159, 142, 132, 128, 128
   \              809B9F8E8480
   \              80          
   \   000003ED   80808080C0FF       DC8 128, 128, 128, 128, 192, 255, 255, 255, 255, 255, 255, 255, 255
   \              FFFFFFFFFFFF
   \              FF          
   \   000003FA   FFFFFFFF7F3F       DC8 255, 255, 255, 255, 127, 63
   \   00000400   80FFFFFFFFE0       DC8 128, 255, 255, 255, 255, 224, 238, 238, 224, 255, 255, 255, 255
   \              EEEEE0FFFFFF
   \              FF          
   \   0000040D   800000             DC8 128, 0, 0

   \                                 In section .rodata, align 4
   \   00000000   2000               DC8 " "
   \   00000002   0000               DC8 0, 0

   \                                 In section .rodata, align 4
   \   00000000   00                 DC8 ""
   \   00000001   000000             DC8 0, 0, 0

   \                                 In section .rodata, align 4
   \                     `?<Constant {{249, 13, 245, 245, 245, 245, 245,`:
   \   00000000   F90DF5F5F5F5       DC8 249, 13, 245, 245, 245, 245, 245, 245, 245, 245, 245, 245, 245, 13
   \              F5F5F5F5F5F5
   \              F50D        
   \   0000000E   F9FF00FFFF77       DC8 249, 255, 0, 255, 255, 119, 55, 55, 87, 103, 103, 119, 255, 255, 0
   \              373757676777
   \              FFFF00      
   \   0000001D   FFFF00FFFFC7       DC8 255, 255, 0, 255, 255, 199, 187, 187, 187, 187, 187, 199, 255, 255
   \              BBBBBBBBBBC7
   \              FFFF        
   \   0000002B   00FF3F605F5F       DC8 0, 255, 63, 96, 95, 95, 95, 95, 95, 95, 95, 95, 95, 95, 95, 96, 63
   \              5F5F5F5F5F5F
   \              5F5F5F603F  
   \   0000003C   FE03FDFDFDFD       DC8 254, 3, 253, 253, 253, 253, 253, 253, 253, 253, 253, 253, 253, 3
   \              FDFDFDFDFDFD
   \              FD03        
   \   0000004A   FEFF00FFFFE3       DC8 254, 255, 0, 255, 255, 227, 221, 221, 221, 221, 221, 227, 255, 255
   \              DDDDDDDDDDE3
   \              FFFF        
   \   00000058   00FFFF00FFFF       DC8 0, 255, 255, 0, 255, 255, 238, 246, 250, 252, 250, 246, 238, 255
   \              EEF6FAFCFAF6
   \              EEFF        
   \   00000066   FF00FFCFD8D7       DC8 255, 0, 255, 207, 216, 215, 215, 215, 215, 215, 215, 215, 215, 215
   \              D7D7D7D7D7D7
   \              D7D7        
   \   00000074   D7D7D8CF           DC8 215, 215, 216, 207

   \                                 In section .rodata, align 4
   \                     `?<Constant "Info ">`:
   \   00000000   496E666F2000       DC8 "Info "
   \   00000006   0000               DC8 0, 0

   \                                 In section .rodata, align 4
   \   00000000   4F6B2000           DC8 "Ok "

   \                                 In section .rodata, align 4
   \                     `?<Constant {{254, 255, 3, 249, 5, 245, 245, 24`:
   \   00000000   FEFF03F905F5       DC8 254, 255, 3, 249, 5, 245, 245, 245, 245, 245, 245, 245, 245, 245
   \              F5F5F5F5F5F5
   \              F5F5        
   \   0000000E   F5F5F5F5F505       DC8 245, 245, 245, 245, 245, 5, 249, 1, 1, 249, 5, 245, 245, 245, 245
   \              F90101F905F5
   \              F5F5F5      
   \   0000001D   F5F5F5F5F5F5       DC8 245, 245, 245, 245, 245, 245, 245, 245, 245, 245, 5, 249, 1, 1, 249
   \              F5F5F5F505F9
   \              0101F9      
   \   0000002C   05F5F5F5F5F5       DC8 5, 245, 245, 245, 245, 245, 245, 245, 245, 245, 245, 245, 245, 245
   \              F5F5F5F5F5F5
   \              F5F5        
   \   0000003A   F505F90101F9       DC8 245, 5, 249, 1, 1, 249, 5, 245, 245, 245, 245, 245, 245, 245, 245
   \              05F5F5F5F5F5
   \              F5F5F5      
   \   00000049   F5F5F5F5F5F5       DC8 245, 245, 245, 245, 245, 245, 5, 249, 3, 255, 255, 255, 3, 3, 3, 3
   \              05F903FFFFFF
   \              03030303    
   \   00000059   030303030303       DC8 3, 3, 3, 3, 3, 3, 3, 3, 3, 3, 3, 3, 3, 3, 3, 3, 3, 3, 3, 3, 3, 3, 3
   \              030303030303
   \              030303030303
   \              0303030303  
   \   00000070   FF03FFFFFFFF       DC8 255, 3, 255, 255, 255, 255, 255, 255, 255, 255, 255, 255, 255, 254
   \              FFFFFFFFFFFF
   \              FFFE        
   \   0000007E   FCF8FFFF00FF       DC8 252, 248, 255, 255, 0, 255, 0, 255, 255, 255, 255, 255, 255, 255
   \              00FFFFFFFFFF
   \              FFFF        
   \   0000008C   FFFFFFFFFFFF       DC8 255, 255, 255, 255, 255, 255, 255, 0, 255, 0, 0, 255, 0, 255, 255
   \              FF00FF0000FF
   \              00FFFF      
   \   0000009B   F9F9F9F3F3F3       DC8 249, 249, 249, 243, 243, 243, 231, 231, 207, 192, 255, 255, 0, 255
   \              E7E7CFC0FFFF
   \              00FF        
   \   000000A9   0000FF00FFFF       DC8 0, 0, 255, 0, 255, 255, 231, 231, 192, 230, 229, 229, 227, 227, 231
   \              E7E7C0E6E5E5
   \              E3E3E7      
   \   000000B8   E7FFFF00FF00       DC8 231, 255, 255, 0, 255, 0, 0, 255, 0, 255, 255, 231, 231, 231, 231
   \              00FF00FFFFE7
   \              E7E7E7      
   \   000000C7   E7E7E5E1E3E7       DC8 231, 231, 229, 225, 227, 231, 255, 255, 0, 255, 0, 255, 255, 255, 0
   \              FFFF00FF00FF
   \              FFFF00      
   \   000000D6   000000000000       DC8 0, 0, 0, 0, 0, 0, 0, 0, 0, 0, 0, 0, 0, 0, 0, 0, 0, 0, 0, 0, 0, 0, 0
   \              000000000000
   \              000000000000
   \              0000000000  
   \   000000ED   000000FF00FF       DC8 0, 0, 0, 255, 0, 255, 255, 255, 255, 255, 255, 255, 255, 255, 255
   \              FFFFFFFFFFFF
   \              FFFFFF      
   \   000000FC   FFFFFFFFFFFF       DC8 255, 255, 255, 255, 255, 255, 0, 7, 136, 139, 139, 139, 139, 139
   \              0007888B8B8B
   \              8B8B        
   \   0000010A   8B8B8B8B8B8B       DC8 139, 139, 139, 139, 139, 139, 139, 139, 139, 136, 7, 0, 0, 7, 136
   \              8B8B8B880700
   \              000788      
   \   00000119   8B8B8B8B8B8B       DC8 139, 139, 139, 139, 139, 139, 139, 139, 139, 139, 139, 139, 139
   \              8B8B8B8B8B8B
   \              8B          
   \   00000126   8B8807000007       DC8 139, 136, 7, 0, 0, 7, 136, 139, 139, 139, 139, 139, 139, 139, 139
   \              888B8B8B8B8B
   \              8B8B8B      
   \   00000135   8B8B8B8B8B8B       DC8 139, 139, 139, 139, 139, 139, 136, 7, 0, 0, 7, 136, 139, 139, 139
   \              880700000788
   \              8B8B8B      
   \   00000144   8B8B8B8B8B8B       DC8 139, 139, 139, 139, 139, 139, 139, 139, 139, 139, 139, 136, 7, 0
   \              8B8B8B8B8B88
   \              0700        
   \   00000152   FFFFFF000000       DC8 255, 255, 255, 0, 0, 0, 0, 0, 0, 0, 0, 0, 0, 0, 0, 0, 0, 0, 0, 0, 0
   \              000000000000
   \              000000000000
   \              000000      
   \   00000167   000000000000       DC8 0, 0, 0, 0, 0, 0, 0, 0, 0, 255, 0, 255, 255, 255, 255, 255, 255
   \              000000FF00FF
   \              FFFFFFFFFF  
   \   00000178   FFFFFFFFFFFF       DC8 255, 255, 255, 255, 255, 255, 255, 255, 255, 255, 0, 255, 0, 254
   \              FFFFFFFF00FF
   \              00FE        
   \   00000186   FE3E9E9E9E9E       DC8 254, 62, 158, 158, 158, 158, 158, 158, 158, 158, 62, 254, 254, 0
   \              9E9E9E9E3EFE
   \              FE00        
   \   00000194   FF0000FF00FE       DC8 255, 0, 0, 255, 0, 254, 254, 62, 158, 158, 158, 158, 62, 158, 158
   \              FE3E9E9E9E9E
   \              3E9E9E      
   \   000001A3   9E3EFEFE00FF       DC8 158, 62, 254, 254, 0, 255, 0, 0, 255, 0, 254, 254, 62, 158, 254
   \              0000FF00FEFE
   \              3E9EFE      
   \   000001B2   FEFE9E1E9E3E       DC8 254, 254, 158, 30, 158, 62, 62, 254, 254, 0, 255, 0, 0, 255, 0, 254
   \              3EFEFE00FF00
   \              00FF00FE    
   \   000001C2   FE1E9E3E7E7E       DC8 254, 30, 158, 62, 126, 126, 254, 254, 254, 158, 62, 254, 254, 0
   \              FEFEFE9E3EFE
   \              FE00        
   \   000001D0   FF00FFFFFF00       DC8 255, 0, 255, 255, 255, 0, 0, 0, 0, 0, 0, 0, 0, 0, 0, 0, 0, 0, 0, 0
   \              000000000000
   \              000000000000
   \              0000        
   \   000001E4   000000000000       DC8 0, 0, 0, 0, 0, 0, 0, 0, 0, 0, 0, 0, 255, 0, 255, 255, 255, 255, 255
   \              000000000000
   \              FF00FFFFFFFF
   \              FF          
   \   000001F7   FFFFFFFFFFFF       DC8 255, 255, 255, 255, 255, 255, 255, 255, 255, 255, 255, 0, 255, 0
   \              FFFFFFFFFF00
   \              FF00        
   \   00000205   7F7F7C797979       DC8 127, 127, 124, 121, 121, 121, 121, 121, 121, 121, 121, 124, 127
   \              79797979797C
   \              7F          
   \   00000212   7F00FF0000FF       DC8 127, 0, 255, 0, 0, 255, 0, 127, 127, 124, 121, 121, 121, 121, 124
   \              007F7F7C7979
   \              79797C      
   \   00000221   7979797C7F7F       DC8 121, 121, 121, 124, 127, 127, 0, 255, 0, 0, 255, 0, 127, 127, 124
   \              00FF0000FF00
   \              7F7F7C      
   \   00000230   79797979797C       DC8 121, 121, 121, 121, 121, 124, 127, 127, 120, 127, 127, 0, 255, 0, 0
   \              7F7F787F7F00
   \              FF0000      
   \   0000023F   FF007F7F787F       DC8 255, 0, 127, 127, 120, 127, 127, 126, 124, 124, 121, 121, 121, 124
   \              7F7E7C7C7979
   \              797C        
   \   0000024D   7F7F00FF00FF       DC8 127, 127, 0, 255, 0, 255, 255, 255, 0, 0, 0, 0, 0, 0, 0, 0, 0, 0, 0
   \              FFFF00000000
   \              000000000000
   \              00          
   \   00000260   000000000000       DC8 0, 0, 0, 0, 0, 0, 0, 0, 0, 0, 0, 0, 0, 0, 0, 0, 255, 0, 255, 255
   \              000000000000
   \              00000000FF00
   \              FFFF        
   \   00000274   FFFFFFFFFFFF       DC8 255, 255, 255, 255, 255, 255, 255, 255, 255, 255, 255, 255, 255
   \              FFFFFFFFFFFF
   \              FF          
   \   00000281   FF00E011D1D1       DC8 255, 0, 224, 17, 209, 209, 209, 209, 209, 209, 209, 209, 209, 209
   \              D1D1D1D1D1D1
   \              D1D1        
   \   0000028F   D1D1D1D111E0       DC8 209, 209, 209, 209, 17, 224, 0, 0, 224, 17, 209, 209, 209, 209, 209
   \              0000E011D1D1
   \              D1D1D1      
   \   0000029E   D1D1D1D1D1D1       DC8 209, 209, 209, 209, 209, 209, 209, 209, 209, 17, 224, 0, 0, 224, 17
   \              D1D1D111E000
   \              00E011      
   \   000002AD   D1D1D1D1D1D1       DC8 209, 209, 209, 209, 209, 209, 209, 209, 209, 209, 209, 209, 209
   \              D1D1D1D1D1D1
   \              D1          
   \   000002BA   D111E00000E0       DC8 209, 17, 224, 0, 0, 224, 17, 209, 209, 209, 209, 209, 209, 209, 209
   \              11D1D1D1D1D1
   \              D1D1D1      
   \   000002C9   D1D1D1D1D1D1       DC8 209, 209, 209, 209, 209, 209, 17, 224, 0, 255, 255, 255, 0, 0, 0, 0
   \              11E000FFFFFF
   \              00000000    
   \   000002D9   000000000000       DC8 0, 0, 0, 0, 0, 0, 0, 0, 0, 0, 0, 0, 0, 0, 0, 0, 0, 0, 0, 0, 0, 0, 0
   \              000000000000
   \              000000000000
   \              0000000000  
   \   000002F0   FFC07F7F7F7F       DC8 255, 192, 127, 127, 127, 127, 127, 127, 127, 127, 127, 127, 127
   \              7F7F7F7F7F7F
   \              7F          
   \   000002FD   7FFFFFFFFF00       DC8 127, 255, 255, 255, 255, 0, 255, 0, 255, 255, 255, 255, 255, 255
   \              FF00FFFFFFFF
   \              FFFF        
   \   0000030B   FFFFFFFFFFFF       DC8 255, 255, 255, 255, 255, 255, 255, 255, 0, 255, 0, 0, 255, 0, 255
   \              FFFF00FF0000
   \              FF00FF      
   \   0000031A   FFC7B33F3F07       DC8 255, 199, 179, 63, 63, 7, 51, 51, 51, 51, 135, 255, 255, 0, 255, 0
   \              3333333387FF
   \              FF00FF00    
   \   0000032A   00FF00FFFF87       DC8 0, 255, 0, 255, 255, 135, 51, 51, 49, 49, 129, 241, 243, 55, 143
   \              3333313181F1
   \              F3378F      
   \   00000339   FFFF00FF0000       DC8 255, 255, 0, 255, 0, 0, 255, 0, 255, 255, 135, 51, 63, 63, 63, 143
   \              FF00FFFF8733
   \              3F3F3F8F    
   \   00000349   3F3F3387FFFF       DC8 63, 63, 51, 135, 255, 255, 0, 255, 0, 255, 255, 255, 0, 0, 0, 0, 0
   \              00FF00FFFFFF
   \              0000000000  
   \   0000035A   000000000000       DC8 0, 0, 0, 0, 0, 0, 0, 0, 0, 0, 0, 0, 0, 0, 0, 0, 0, 0, 0, 0, 0, 0
   \              000000000000
   \              000000000000
   \              00000000    
   \   00000370   FF00FEFFFBF7       DC8 255, 0, 254, 255, 251, 247, 111, 159, 159, 111, 247, 251, 255, 254
   \              6F9F9F6FF7FB
   \              FFFE        
   \   0000037E   00FF7FFFC09F       DC8 0, 255, 127, 255, 192, 159, 160, 175, 175, 175, 175, 175, 175, 175
   \              A0AFAFAFAFAF
   \              AFAF        
   \   0000038C   AFAFAFAFAFAF       DC8 175, 175, 175, 175, 175, 175, 175, 160, 159, 128, 128, 159, 160
   \              AFA09F80809F
   \              A0          
   \   00000399   AFAFAFAFAFAF       DC8 175, 175, 175, 175, 175, 175, 175, 175, 175, 175, 175, 175, 175
   \              AFAFAFAFAFAF
   \              AF          
   \   000003A6   AFA09F80809F       DC8 175, 160, 159, 128, 128, 159, 160, 175, 175, 175, 175, 175, 175
   \              A0AFAFAFAFAF
   \              AF          
   \   000003B3   AFAFAFAFAFAF       DC8 175, 175, 175, 175, 175, 175, 175, 175, 160, 159, 128, 128, 159
   \              AFAFA09F8080
   \              9F          
   \   000003C0   A0AFAFAFAFAF       DC8 160, 175, 175, 175, 175, 175, 175, 175, 175, 175, 175, 175, 175
   \              AFAFAFAFAFAF
   \              AF          
   \   000003CD   AFAFA09FC0FF       DC8 175, 175, 160, 159, 192, 255, 255, 255, 192, 192, 192, 192, 192
   \              FFFFC0C0C0C0
   \              C0          
   \   000003DA   C0C0C0C0C0C0       DC8 192, 192, 192, 192, 192, 192, 192, 192, 192, 192, 192, 192, 192
   \              C0C0C0C0C0C0
   \              C0          
   \   000003E7   C0C0C0C0C0C0       DC8 192, 192, 192, 192, 192, 192, 192, 192, 192, 255, 240, 231, 239
   \              C0C0C0FFF0E7
   \              EF          
   \   000003F4   EDEEEFEFEFEF       DC8 237, 238, 239, 239, 239, 239, 238, 237, 239, 103, 48, 31
   \              EEEDEF67301F

   \                                 In section .rodata, align 4
   \                     `?<Constant {{0, 0, 0, 0, 0, 0, 0, 0, 0, 0, 0, `:
   \   00000000   000000000000       DC8 0, 0, 0, 0, 0, 0, 0, 0, 0, 0, 0, 0, 0, 0, 0, 0, 0, 0, 0, 0, 0, 0, 0
   \              000000000000
   \              000000000000
   \              0000000000  
   \   00000017   000000000000       DC8 0, 0, 0, 0, 0, 0, 0, 0, 255, 1, 253, 5, 5, 5, 5, 5, 5, 5, 5, 5, 5
   \              0000FF01FD05
   \              050505050505
   \              050505      
   \   0000002C   050505050505       DC8 5, 5, 5, 5, 5, 5, 5, 5, 229, 5, 5, 5, 5, 5, 5, 5, 5, 5, 5, 5, 5, 5
   \              0505E5050505
   \              050505050505
   \              05050505    
   \   00000042   050505050505       DC8 5, 5, 5, 5, 5, 5, 5, 5, 5, 5, 5, 5, 5, 5, 5, 5, 5, 5, 5, 5, 5, 5, 5
   \              050505050505
   \              050505050505
   \              0505050505  
   \   00000059   050505050505       DC8 5, 5, 5, 5, 5, 5, 5, 5, 5, 5, 5, 253, 1, 255, 0, 0, 0, 0, 0, 0, 0
   \              0505050505FD
   \              01FF00000000
   \              000000      
   \   0000006E   000000000000       DC8 0, 0, 0, 0, 0, 0, 0, 0, 0, 0, 0, 0, 0, 0, 0, 0, 0, 0, 0, 0, 0, 0, 0
   \              000000000000
   \              000000000000
   \              0000000000  
   \   00000085   000000000000       DC8 0, 0, 0, 0, 0, 0, 0, 0, 0, 0, 0, 0, 0, 0, 0, 0, 0, 0, 0, 0, 0, 0, 0
   \              000000000000
   \              000000000000
   \              0000000000  
   \   0000009C   000000FF00FF       DC8 0, 0, 0, 255, 0, 255, 0, 0, 248, 12, 244, 244, 244, 244, 244, 244
   \              0000F80CF4F4
   \              F4F4F4F4    
   \   000000AC   F4F4F4F40CF8       DC8 244, 244, 244, 244, 12, 248, 0, 0, 255, 0, 0, 0, 0, 0, 0, 0, 0, 0
   \              0000FF000000
   \              000000000000
   \   000000BE   000000000000       DC8 0, 0, 0, 0, 0, 0, 0, 0, 0, 0, 0, 0, 0, 0, 0, 0, 0, 0, 0, 0, 0, 0, 0
   \              000000000000
   \              000000000000
   \              0000000000  
   \   000000D5   000000000000       DC8 0, 0, 0, 0, 0, 0, 0, 0, 0, 0, 0, 0, 0, 0, 0, 255, 0, 255, 0, 0, 0
   \              000000000000
   \              000000FF00FF
   \              000000      
   \   000000EA   000000000000       DC8 0, 0, 0, 0, 0, 0, 0, 0, 0, 0, 0, 0, 0, 0, 0, 0, 0, 0, 0, 0, 0, 0, 0
   \              000000000000
   \              000000000000
   \              0000000000  
   \   00000101   000000000000       DC8 0, 0, 0, 0, 0, 0, 0, 0, 0, 0, 0, 0, 0, 0, 0, 0, 0, 0, 0, 0, 0, 0, 0
   \              000000000000
   \              000000000000
   \              0000000000  
   \   00000118   000000000000       DC8 0, 0, 0, 0, 0, 0, 0, 255, 0, 255, 0, 0, 255, 0, 255, 255, 255, 255
   \              00FF00FF0000
   \              FF00FFFFFFFF
   \   0000012A   FFFFFFFFFFFF       DC8 255, 255, 255, 255, 255, 255, 0, 255, 0, 0, 255, 0, 0, 0, 0, 0, 0
   \              00FF0000FF00
   \              0000000000  
   \   0000013B   000000000000       DC8 0, 0, 0, 0, 0, 0, 0, 0, 0, 0, 0, 0, 0, 0, 0, 0, 0, 0, 0, 0, 0, 0, 0
   \              000000000000
   \              000000000000
   \              0000000000  
   \   00000152   000000000000       DC8 0, 0, 0, 0, 0, 0, 0, 0, 0, 0, 0, 0, 0, 0, 0, 0, 0, 0, 255, 0, 255
   \              000000000000
   \              000000000000
   \              FF00FF      
   \   00000167   000000000000       DC8 0, 0, 0, 0, 0, 0, 0, 0, 0, 0, 0, 0, 0, 0, 0, 0, 0, 0, 0, 0, 0, 0, 0
   \              000000000000
   \              000000000000
   \              0000000000  
   \   0000017E   000000000000       DC8 0, 0, 0, 0, 0, 0, 0, 0, 0, 0, 0, 0, 0, 0, 0, 0, 0, 0, 0, 0, 0, 0, 0
   \              000000000000
   \              000000000000
   \              0000000000  
   \   00000195   000000000000       DC8 0, 0, 0, 0, 0, 0, 0, 0, 0, 0, 255, 0, 255, 0, 0, 255, 0, 255, 255
   \              00000000FF00
   \              FF0000FF00FF
   \              FF          
   \   000001A8   C7BBBBBBBBBB       DC8 199, 187, 187, 187, 187, 187, 199, 255, 0, 255, 0, 0, 255, 0, 0, 0
   \              C7FF00FF0000
   \              FF000000    
   \   000001B8   000000000000       DC8 0, 0, 0, 0, 0, 0, 0, 0, 0, 0, 0, 0, 0, 0, 0, 0, 0, 0, 0, 0, 0, 0, 0
   \              000000000000
   \              000000000000
   \              0000000000  
   \   000001CF   000000000000       DC8 0, 0, 0, 0, 0, 0, 0, 0, 0, 0, 0, 0, 0, 0, 0, 0, 0, 0, 0, 0, 0, 255
   \              000000000000
   \              000000000000
   \              000000FF    
   \   000001E5   00FF00000000       DC8 0, 255, 0, 0, 0, 0, 0, 0, 0, 0, 0, 0, 0, 0, 0, 0, 0, 0, 0, 0, 0, 0
   \              000000000000
   \              000000000000
   \              00000000    
   \   000001FB   000000000000       DC8 0, 0, 0, 0, 0, 0, 0, 0, 0, 0, 0, 0, 0, 0, 0, 0, 0, 0, 0, 0, 0, 0, 0
   \              000000000000
   \              000000000000
   \              0000000000  
   \   00000212   000000000000       DC8 0, 0, 0, 0, 0, 0, 0, 0, 0, 0, 0, 0, 0, 255, 0, 255, 0, 0, 255, 0
   \              000000000000
   \              00FF00FF0000
   \              FF00        
   \   00000226   FFFFDDEDF5F9       DC8 255, 255, 221, 237, 245, 249, 245, 237, 221, 255, 0, 255, 0, 0, 255
   \              F5EDDDFF00FF
   \              0000FF      
   \   00000235   000000000000       DC8 0, 0, 0, 0, 0, 0, 0, 0, 0, 0, 0, 0, 0, 0, 0, 0, 0, 0, 0, 0, 0, 0, 0
   \              000000000000
   \              000000000000
   \              0000000000  
   \   0000024C   000000000000       DC8 0, 0, 0, 0, 0, 0, 0, 0, 0, 0, 0, 0, 0, 0, 0, 0, 0, 0, 0, 0, 0, 0, 0
   \              000000000000
   \              000000000000
   \              0000000000  
   \   00000263   00FF00FF0000       DC8 0, 255, 0, 255, 0, 0, 0, 0, 0, 0, 0, 0, 0, 0, 0, 0, 0, 0, 0, 0, 0
   \              000000000000
   \              000000000000
   \              000000      
   \   00000278   000000000000       DC8 0, 0, 0, 0, 0, 0, 0, 0, 0, 0, 0, 0, 0, 0, 0, 0, 0, 0, 0, 0, 0, 0, 0
   \              000000000000
   \              000000000000
   \              0000000000  
   \   0000028F   000000000000       DC8 0, 0, 0, 0, 0, 0, 0, 0, 0, 0, 0, 0, 0, 0, 0, 0, 255, 0, 255, 0, 0
   \              000000000000
   \              00000000FF00
   \              FF0000      
   \   000002A4   FF00FFFFFFFF       DC8 255, 0, 255, 255, 255, 255, 255, 255, 255, 255, 255, 255, 0, 255, 0
   \              FFFFFFFFFFFF
   \              00FF00      
   \   000002B3   00FF00000000       DC8 0, 255, 0, 0, 0, 0, 0, 0, 0, 0, 0, 0, 0, 0, 0, 0, 0, 0, 0, 0, 0, 0
   \              000000000000
   \              000000000000
   \              00000000    
   \   000002C9   000000000000       DC8 0, 0, 0, 0, 0, 0, 0, 0, 0, 0, 0, 0, 0, 0, 0, 0, 0, 0, 0, 0, 0, 0, 0
   \              000000000000
   \              000000000000
   \              0000000000  
   \   000002E0   00000000FF00       DC8 0, 0, 0, 0, 255, 0, 255, 0, 0, 0, 0, 0, 0, 0, 0, 0, 0, 0, 0, 0, 0
   \              FF0000000000
   \              000000000000
   \              000000      
   \   000002F5   000000000000       DC8 0, 0, 0, 0, 0, 0, 0, 0, 0, 0, 0, 0, 0, 0, 0, 0, 0, 0, 0, 0, 0, 0, 0
   \              000000000000
   \              000000000000
   \              0000000000  
   \   0000030C   000000000000       DC8 0, 0, 0, 0, 0, 0, 0, 0, 0, 0, 0, 0, 0, 0, 0, 0, 0, 0, 0, 255, 0
   \              000000000000
   \              000000000000
   \              00FF00      
   \   00000321   FF00003F605F       DC8 255, 0, 0, 63, 96, 95, 95, 95, 95, 95, 95, 95, 95, 95, 95, 96, 63
   \              5F5F5F5F5F5F
   \              5F5F5F603F  
   \   00000332   0000FF000000       DC8 0, 0, 255, 0, 0, 0, 0, 0, 0, 0, 0, 0, 0, 0, 0, 0, 0, 0, 0, 0, 0, 0
   \              000000000000
   \              000000000000
   \              00000000    
   \   00000348   000000000000       DC8 0, 0, 0, 0, 0, 0, 0, 0, 0, 0, 0, 0, 0, 0, 0, 0, 0, 0, 0, 0, 0, 0, 0
   \              000000000000
   \              000000000000
   \              0000000000  
   \   0000035F   0000000000FF       DC8 0, 0, 0, 0, 0, 255, 0, 255, 0, 0, 0, 0, 0, 0, 0, 0, 0, 0, 0, 0, 0
   \              00FF00000000
   \              000000000000
   \              000000      
   \   00000374   000000000000       DC8 0, 0, 0, 0, 0, 0, 0, 0, 0, 0, 0, 0, 0, 0, 0, 0, 0, 0, 0, 0, 0, 0, 0
   \              000000000000
   \              000000000000
   \              0000000000  
   \   0000038B   000000000000       DC8 0, 0, 0, 0, 0, 0, 0, 0, 0, 0, 0, 0, 0, 0, 0, 0, 0, 0, 0, 0, 255
   \              000000000000
   \              000000000000
   \              0000FF      
   \   000003A0   80BFA0A0A0A0       DC8 128, 191, 160, 160, 160, 160, 160, 160, 160, 160, 160, 160, 160
   \              A0A0A0A0A0A0
   \              A0          
   \   000003AD   A0A0A0A0A0A0       DC8 160, 160, 160, 160, 160, 160, 160, 167, 160, 160, 160, 160, 160
   \              A0A7A0A0A0A0
   \              A0          
   \   000003BA   A0A0A0A0A0A0       DC8 160, 160, 160, 160, 160, 160, 160, 160, 160, 160, 160, 160, 160
   \              A0A0A0A0A0A0
   \              A0          
   \   000003C7   A0A0A0A0A0A0       DC8 160, 160, 160, 160, 160, 160, 160, 160, 160, 160, 160, 160, 160
   \              A0A0A0A0A0A0
   \              A0          
   \   000003D4   A0A0A0A0A0A0       DC8 160, 160, 160, 160, 160, 160, 160, 160, 160, 160, 160, 160, 160
   \              A0A0A0A0A0A0
   \              A0          
   \   000003E1   A0A0A0BF80FF       DC8 160, 160, 160, 191, 128, 255, 0, 0, 0, 0, 0, 0, 0, 0, 0, 0, 0, 0, 0
   \              000000000000
   \              000000000000
   \              00          
   \   000003F4   000000000000       DC8 0, 0, 0, 0, 0, 0, 0, 0, 0, 0, 0, 0
   \              000000000000

   \                                 In section .rodata, align 4
   \   00000000   000000000000       DC32 0H, 0H, 0H, 0H, 0H, 0H, 0H, 0H, 0H, 0H, 0H, 0H, 0H, 0H, 0H
   \              000000000000
   \              000000000000
   \              000000000000
   \              000000000000
   \              000000000000
   \              000000000000
   \              000000000000
   \              000000000000
   \              000000000000
   3175          
   3176          #endif
                       ^
Warning[Pe001]: last line of file ends without a newline

   Maximum stack usage in bytes:

     Function              .cstack
     --------              -------
     AT91F_PIO_CfgInput         0
     AT91F_PIO_CfgOutput        0
     AT91F_PIO_ClearOutput      0
     Ask_Event                 32
     Ask_Paint                168
     Button                    64
     CanvasPixel                8
     CharToStr                 24
     CharToStr2                16
     CharToStrData             16
     CheckLCD                   0
     CleanCanvas                8
     CleanCanvasArea           32
     CopyToCanvas              16
     CopyToCanvasPoint         48
     DateToStr                 24
     FloToStr                 120
     GetTouchPoint             32
     H_line                    32
     HalfCleanCanvas           16
     HexToStr                  16
     Init_LCD_TS                8
     Label                     72
     Label20                   72
     LabelLength               16
     List_Event                64
     List_Paint               288
     Message                   64
     Message_Paint           1080
     Number_Event              40
     Number_Paint            1064
     ReadADC                    8
     ReadTP                    24
     Rectangle                 24
     RepaintLCD                16
     ScrollList_Paint        1096
     TimeToStr                 24
     V_line                    32
     Zone                      64
     at91ChipSelect            16
     at91DisplayData           16
     at91DisplayOnOff          16
     at91DisplayStartLine      16
     at91DisplayStartPage      16
     at91DisplayYAdress        24
     sIntToStr                 32


   Section sizes:

     Function/Label                 Bytes
     --------------                 -----
     AT91F_PIO_CfgOutput               6
     AT91F_PIO_CfgInput                6
     AT91F_PIO_ClearOutput             4
     RepaintLCD                      124
     CleanCanvas                      40
     HalfCleanCanvas                  76
     CleanCanvasArea                 210
     CanvasPixel                      62
     CopyToCanvas                     42
     CopyToCanvasPoint               204
     at91DisplayOnOff                 76
     at91DisplayStartLine             64
     at91DisplayStartPage             92
     at91DisplayYAdress              180
     at91DisplayData                 216
     at91ChipSelect                   60
     ReadTP                          172
     odp                               2
     ReadADC                         188
     Init_LCD_TS                     108
     Arial_7                        1012
     Arial_18                       5200
     Label                           900
     LabelLength                      96
     Label20                         900
     TimeToStr                       134
     DateToStr                       134
     CharToStr                       124
     CharToStr2                       62
     CharToStrData                    52
     sIntToStr                       316
     HexToStr                         68
     List_Paint                     1224
     List_Event                     1164
     ScrollList_Paint                216
     Ask_Paint                       200
     Ask_Event                       268
     Message                         208
     Number_Paint                    152
     Number_Event                    428
     Message_Paint                   268
     FloToStr                       2704
     H_line                          208
     V_line                          280
     Button                          736
     Zone                            464
     Rectangle                        66
     CheckLCD                        116
     GetTouchPoint                   424
     TouchList                        40
     m_pPio                            4
     TS_pPio                           4
     LCD_Canvas                     1024
     chipSelect                        1
     RealRows                         24
     ??DataTable10                     4
     ?<Constant {{255, 1, 255, 255, 255, 255, 255,
                                     144
     ?<Constant {{254, 1, 1, 1, 1, 1, 1, 1, 1, 1, 1
                                    1040
     ?<Constant " ">                   4
     ?<Constant "">                    4
     ?<Constant {{249, 13, 245, 245, 245, 245, 245,
                                     120
     ?<Constant "Info ">               8
     ?<Constant "Ok ">                 4
     ?<Constant {{254, 255, 3, 249, 5, 245, 245, 24
                                    1024
     ?<Constant {{0, 0, 0, 0, 0, 0, 0, 0, 0, 0, 0,
                                    1024
     ?<Constant {(0.0F), (0.0F), (0.0F), (0.0F), (0
                                      60

 
      2 bytes in section .bss
  1 097 bytes in section .data
  9 644 bytes in section .rodata
 13 846 bytes in section Debug.txt
 
 13 614 bytes of CODE  memory (+ 232 bytes shared)
  9 644 bytes of CONST memory
  1 099 bytes of DATA  memory

Errors: none
Warnings: 35
